
Build/rk0_app.elf:     file format elf32-littlearm


Disassembly of section .text:

00000000 <g_pfnVectors>:
       0:	20010000 	andcs	r0, r1, r0
       4:	000002cd 	andeq	r0, r0, sp, asr #5
       8:	000002c9 	andeq	r0, r0, r9, asr #5
       c:	000002c9 	andeq	r0, r0, r9, asr #5
      10:	000002c9 	andeq	r0, r0, r9, asr #5
      14:	000002c9 	andeq	r0, r0, r9, asr #5
      18:	000002c9 	andeq	r0, r0, r9, asr #5
	...
      2c:	00000071 	andeq	r0, r0, r1, ror r0
      30:	000002c9 	andeq	r0, r0, r9, asr #5
      34:	00000000 	andeq	r0, r0, r0
      38:	00000113 	andeq	r0, r0, r3, lsl r1
      3c:	000000cd 	andeq	r0, r0, sp, asr #1
      40:	000002c9 	andeq	r0, r0, r9, asr #5
      44:	000002c9 	andeq	r0, r0, r9, asr #5
      48:	000002c9 	andeq	r0, r0, r9, asr #5
      4c:	000002c9 	andeq	r0, r0, r9, asr #5
      50:	000002c9 	andeq	r0, r0, r9, asr #5
      54:	000002c9 	andeq	r0, r0, r9, asr #5
      58:	000002c9 	andeq	r0, r0, r9, asr #5
      5c:	00000000 	andeq	r0, r0, r0

00000060 <__getReadyPrio>:
      60:	fab0 fc80 	clz	ip, r0
      64:	4660      	mov	r0, ip
      66:	f1c0 0000 	rsb	r0, r0, #0
      6a:	f100 001f 	add.w	r0, r0, #31
      6e:	4770      	bx	lr

00000070 <SVC_Handler>:
      70:	f01e 0f04 	tst.w	lr, #4
      74:	d109      	bne.n	8a <ERR>
      76:	f3ef 8c08 	mrs	ip, MSP
      7a:	f8dc 1018 	ldr.w	r1, [ip, #24]
      7e:	f811 cc02 	ldrb.w	ip, [r1, #-2]
      82:	f1bc 0faa 	cmp.w	ip, #170	@ 0xaa
      86:	f000 8004 	beq.w	92 <USRSTARTUP>

0000008a <ERR>:
      8a:	f04f 00ff 	mov.w	r0, #255	@ 0xff
      8e:	f000 ff8f 	bl	fb0 <kErrHandler>

00000092 <USRSTARTUP>:
      92:	b672      	cpsid	i
      94:	2002      	movs	r0, #2
      96:	f380 8814 	msr	CONTROL, r0
      9a:	f3bf 8f4f 	dsb	sy
      9e:	492f      	ldr	r1, [pc, #188]	@ (15c <PendSV_Handler+0x4a>)
      a0:	680a      	ldr	r2, [r1, #0]
      a2:	f05f 0c02 	movs.w	ip, #2
      a6:	f8c2 c004 	str.w	ip, [r2, #4]
      aa:	f05f 0c01 	movs.w	ip, #1
      ae:	f8c2 c008 	str.w	ip, [r2, #8]
      b2:	6812      	ldr	r2, [r2, #0]
      b4:	e8b2 0ff0 	ldmia.w	r2!, {r4, r5, r6, r7, r8, r9, sl, fp}
      b8:	f382 8809 	msr	PSP, r2
      bc:	f06f 0e02 	mvn.w	lr, #2
      c0:	f3bf 8f4f 	dsb	sy
      c4:	b662      	cpsie	i
      c6:	f3bf 8f6f 	isb	sy
      ca:	4770      	bx	lr

000000cc <SysTick_Handler>:
      cc:	b672      	cpsid	i
      ce:	b501      	push	{r0, lr}

000000d0 <TICKHANDLER>:
      d0:	f000 fd4a 	bl	b68 <kTickHandler>
      d4:	2801      	cmp	r0, #1
      d6:	d010      	beq.n	fa <SWITCH>
      d8:	e8bd 4001 	ldmia.w	sp!, {r0, lr}
      dc:	f11e 0f0f 	cmn.w	lr, #15
      e0:	d007      	beq.n	f2 <RESUMEISR>

000000e2 <RESUMETASK>:
      e2:	f06f 0e02 	mvn.w	lr, #2
      e6:	f3bf 8f4f 	dsb	sy
      ea:	b662      	cpsie	i
      ec:	f3bf 8f6f 	isb	sy
      f0:	4770      	bx	lr

000000f2 <RESUMEISR>:
      f2:	b662      	cpsie	i
      f4:	f3bf 8f6f 	isb	sy
      f8:	4770      	bx	lr

000000fa <SWITCH>:
      fa:	e8bd 4001 	ldmia.w	sp!, {r0, lr}
      fe:	4818      	ldr	r0, [pc, #96]	@ (160 <PendSV_Handler+0x4e>)
     100:	f04f 5180 	mov.w	r1, #268435456	@ 0x10000000
     104:	6001      	str	r1, [r0, #0]
     106:	f3bf 8f4f 	dsb	sy
     10a:	b662      	cpsie	i
     10c:	f3bf 8f6f 	isb	sy
     110:	4770      	bx	lr

00000112 <PendSV_Handler>:
     112:	b672      	cpsid	i
     114:	f3ef 8c09 	mrs	ip, PSP
     118:	e92c 0ff0 	stmdb	ip!, {r4, r5, r6, r7, r8, r9, sl, fp}
     11c:	f38c 8809 	msr	PSP, ip
     120:	480e      	ldr	r0, [pc, #56]	@ (15c <PendSV_Handler+0x4a>)
     122:	6801      	ldr	r1, [r0, #0]
     124:	f8c1 c000 	str.w	ip, [r1]
     128:	f3bf 8f4f 	dsb	sy
     12c:	f000 fcec 	bl	b08 <kSchSwtch>
     130:	480a      	ldr	r0, [pc, #40]	@ (15c <PendSV_Handler+0x4a>)
     132:	6801      	ldr	r1, [r0, #0]
     134:	688b      	ldr	r3, [r1, #8]
     136:	3301      	adds	r3, #1
     138:	608b      	str	r3, [r1, #8]
     13a:	f05f 0c02 	movs.w	ip, #2
     13e:	f8c1 c004 	str.w	ip, [r1, #4]
     142:	680a      	ldr	r2, [r1, #0]
     144:	e8b2 0ff0 	ldmia.w	r2!, {r4, r5, r6, r7, r8, r9, sl, fp}
     148:	f382 8809 	msr	PSP, r2
     14c:	f06f 0e02 	mvn.w	lr, #2
     150:	f3bf 8f4f 	dsb	sy
     154:	b662      	cpsie	i
     156:	f3bf 8f6f 	isb	sy
     15a:	4770      	bx	lr
     15c:	20000e18 	andcs	r0, r0, r8, lsl lr
     160:	e000ed04 	and	lr, r0, r4, lsl #26

00000164 <uart_print>:
     164:	b510      	push	{r4, lr}
     166:	f04f 23e0 	mov.w	r3, #3758153728	@ 0xe000e000
     16a:	f04f 34ff 	mov.w	r4, #4294967295	@ 0xffffffff
     16e:	4907      	ldr	r1, [pc, #28]	@ (18c <uart_print+0x28>)
     170:	3801      	subs	r0, #1
     172:	f810 2f01 	ldrb.w	r2, [r0, #1]!
     176:	b902      	cbnz	r2, 17a <uart_print+0x16>
     178:	bd10      	pop	{r4, pc}
     17a:	691a      	ldr	r2, [r3, #16]
     17c:	f022 0201 	bic.w	r2, r2, #1
     180:	611a      	str	r2, [r3, #16]
     182:	7802      	ldrb	r2, [r0, #0]
     184:	600a      	str	r2, [r1, #0]
     186:	691a      	ldr	r2, [r3, #16]
     188:	611c      	str	r4, [r3, #16]
     18a:	e7f2      	b.n	172 <uart_print+0xe>
     18c:	4000c000 	andmi	ip, r0, r0

00000190 <kApplicationInit>:
     190:	2100      	movs	r1, #0
     192:	4801      	ldr	r0, [pc, #4]	@ (198 <kApplicationInit+0x8>)
     194:	f000 b8e6 	b.w	364 <kMboxInit>
     198:	20000c00 	andcs	r0, r0, r0, lsl #24

0000019c <Task1>:
     19c:	b573      	push	{r0, r1, r4, r5, r6, lr}
     19e:	4e09      	ldr	r6, [pc, #36]	@ (1c4 <Task1+0x28>)
     1a0:	4d09      	ldr	r5, [pc, #36]	@ (1c8 <Task1+0x2c>)
     1a2:	4c0a      	ldr	r4, [pc, #40]	@ (1cc <Task1+0x30>)
     1a4:	4630      	mov	r0, r6
     1a6:	f7ff ffdd 	bl	164 <uart_print>
     1aa:	f04f 32ff 	mov.w	r2, #4294967295	@ 0xffffffff
     1ae:	a901      	add	r1, sp, #4
     1b0:	4628      	mov	r0, r5
     1b2:	f000 f99b 	bl	4ec <kMboxPend>
     1b6:	4620      	mov	r0, r4
     1b8:	f7ff ffd4 	bl	164 <uart_print>
     1bc:	200a      	movs	r0, #10
     1be:	f000 fe47 	bl	e50 <kSleepUntil>
     1c2:	e7ef      	b.n	1a4 <Task1+0x8>
     1c4:	00000fe8 	andeq	r0, r0, r8, ror #31
     1c8:	20000c00 	andcs	r0, r0, r0, lsl #24
     1cc:	00000ffc 	strdeq	r0, [r0], -ip

000001d0 <Task2>:
     1d0:	2301      	movs	r3, #1
     1d2:	b507      	push	{r0, r1, r2, lr}
     1d4:	4d07      	ldr	r5, [pc, #28]	@ (1f4 <Task2+0x24>)
     1d6:	4c08      	ldr	r4, [pc, #32]	@ (1f8 <Task2+0x28>)
     1d8:	9301      	str	r3, [sp, #4]
     1da:	4628      	mov	r0, r5
     1dc:	f7ff ffc2 	bl	164 <uart_print>
     1e0:	f04f 32ff 	mov.w	r2, #4294967295	@ 0xffffffff
     1e4:	4620      	mov	r0, r4
     1e6:	a901      	add	r1, sp, #4
     1e8:	f000 f8e4 	bl	3b4 <kMboxPost>
     1ec:	2014      	movs	r0, #20
     1ee:	f000 fe0b 	bl	e08 <kSleep>
     1f2:	e7f2      	b.n	1da <Task2+0xa>
     1f4:	0000100f 	andeq	r1, r0, pc
     1f8:	20000c00 	andcs	r0, r0, r0, lsl #24

000001fc <Task3>:
     1fc:	b508      	push	{r3, lr}
     1fe:	4c04      	ldr	r4, [pc, #16]	@ (210 <Task3+0x14>)
     200:	4620      	mov	r0, r4
     202:	f7ff ffaf 	bl	164 <uart_print>
     206:	2005      	movs	r0, #5
     208:	f000 fdfe 	bl	e08 <kSleep>
     20c:	e7f8      	b.n	200 <Task3+0x4>
     20e:	bf00      	nop
     210:	00001020 	andeq	r1, r0, r0, lsr #32

00000214 <main>:
     214:	b51f      	push	{r0, r1, r2, r3, r4, lr}
     216:	481f      	ldr	r0, [pc, #124]	@ (294 <main+0x80>)
     218:	f000 f894 	bl	344 <kCoreSysTickConfig>
     21c:	f04f 22e0 	mov.w	r2, #3758153728	@ 0xe000e000
     220:	2400      	movs	r4, #0
     222:	2601      	movs	r6, #1
     224:	f44f 7580 	mov.w	r5, #256	@ 0x100
     228:	6913      	ldr	r3, [r2, #16]
     22a:	2107      	movs	r1, #7
     22c:	f023 0301 	bic.w	r3, r3, #1
     230:	6113      	str	r3, [r2, #16]
     232:	f06f 0004 	mvn.w	r0, #4
     236:	f000 f871 	bl	31c <kCoreSetInterruptPriority>
     23a:	2108      	movs	r1, #8
     23c:	f04f 30ff 	mov.w	r0, #4294967295	@ 0xffffffff
     240:	f000 f86c 	bl	31c <kCoreSetInterruptPriority>
     244:	210a      	movs	r1, #10
     246:	f06f 0001 	mvn.w	r0, #1
     24a:	f000 f867 	bl	31c <kCoreSetInterruptPriority>
     24e:	4b12      	ldr	r3, [pc, #72]	@ (298 <main+0x84>)
     250:	4a12      	ldr	r2, [pc, #72]	@ (29c <main+0x88>)
     252:	4913      	ldr	r1, [pc, #76]	@ (2a0 <main+0x8c>)
     254:	e9cd 6402 	strd	r6, r4, [sp, #8]
     258:	4812      	ldr	r0, [pc, #72]	@ (2a4 <main+0x90>)
     25a:	9401      	str	r4, [sp, #4]
     25c:	9500      	str	r5, [sp, #0]
     25e:	f000 faf9 	bl	854 <kCreateTask>
     262:	4b11      	ldr	r3, [pc, #68]	@ (2a8 <main+0x94>)
     264:	4a11      	ldr	r2, [pc, #68]	@ (2ac <main+0x98>)
     266:	4912      	ldr	r1, [pc, #72]	@ (2b0 <main+0x9c>)
     268:	e9cd 6402 	strd	r6, r4, [sp, #8]
     26c:	e9cd 5400 	strd	r5, r4, [sp]
     270:	4810      	ldr	r0, [pc, #64]	@ (2b4 <main+0xa0>)
     272:	f000 faef 	bl	854 <kCreateTask>
     276:	4b10      	ldr	r3, [pc, #64]	@ (2b8 <main+0xa4>)
     278:	4a10      	ldr	r2, [pc, #64]	@ (2bc <main+0xa8>)
     27a:	4911      	ldr	r1, [pc, #68]	@ (2c0 <main+0xac>)
     27c:	e9cd 6402 	strd	r6, r4, [sp, #8]
     280:	e9cd 5400 	strd	r5, r4, [sp]
     284:	480f      	ldr	r0, [pc, #60]	@ (2c4 <main+0xb0>)
     286:	f000 fae5 	bl	854 <kCreateTask>
     28a:	f000 fbc1 	bl	a10 <kInit>
     28e:	be00      	bkpt	0x0000
     290:	e7fd      	b.n	28e <main+0x7a>
     292:	bf00      	nop
     294:	0003d090 	muleq	r3, r0, r0
     298:	20000800 	andcs	r0, r0, r0, lsl #16
     29c:	00001031 	andeq	r1, r0, r1, lsr r0
     2a0:	0000019d 	muleq	r0, sp, r1
     2a4:	20000c2c 	andcs	r0, r0, ip, lsr #24
     2a8:	20000400 	andcs	r0, r0, r0, lsl #8
     2ac:	00001037 	andeq	r1, r0, r7, lsr r0
     2b0:	000001d1 	ldrdeq	r0, [r0], -r1
     2b4:	20000c28 	andcs	r0, r0, r8, lsr #24
     2b8:	20000000 	andcs	r0, r0, r0
     2bc:	0000103d 	andeq	r1, r0, sp, lsr r0
     2c0:	000001fd 	strdeq	r0, [r0], -sp
     2c4:	20000c24 	andcs	r0, r0, r4, lsr #24

000002c8 <Default_Handler>:
     2c8:	e7fe      	b.n	2c8 <Default_Handler>
	...

000002cc <Reset_Handler>:
     2cc:	b508      	push	{r3, lr}
     2ce:	4b0e      	ldr	r3, [pc, #56]	@ (308 <Reset_Handler+0x3c>)
     2d0:	480e      	ldr	r0, [pc, #56]	@ (30c <Reset_Handler+0x40>)
     2d2:	1cda      	adds	r2, r3, #3
     2d4:	1a12      	subs	r2, r2, r0
     2d6:	1ec1      	subs	r1, r0, #3
     2d8:	f022 0203 	bic.w	r2, r2, #3
     2dc:	428b      	cmp	r3, r1
     2de:	bf38      	it	cc
     2e0:	2200      	movcc	r2, #0
     2e2:	490b      	ldr	r1, [pc, #44]	@ (310 <Reset_Handler+0x44>)
     2e4:	f000 fe72 	bl	fcc <memcpy>
     2e8:	4b0a      	ldr	r3, [pc, #40]	@ (314 <Reset_Handler+0x48>)
     2ea:	480b      	ldr	r0, [pc, #44]	@ (318 <Reset_Handler+0x4c>)
     2ec:	1cda      	adds	r2, r3, #3
     2ee:	1a12      	subs	r2, r2, r0
     2f0:	1ec1      	subs	r1, r0, #3
     2f2:	f022 0203 	bic.w	r2, r2, #3
     2f6:	4299      	cmp	r1, r3
     2f8:	bf88      	it	hi
     2fa:	2200      	movhi	r2, #0
     2fc:	2100      	movs	r1, #0
     2fe:	f000 fe5d 	bl	fbc <memset>
     302:	f7ff ff87 	bl	214 <main>
     306:	e7fe      	b.n	306 <Reset_Handler+0x3a>
     308:	20000000 	andcs	r0, r0, r0
     30c:	20000000 	andcs	r0, r0, r0
     310:	00001074 	andeq	r1, r0, r4, ror r0
     314:	20001064 	andcs	r1, r0, r4, rrx
     318:	20000000 	andcs	r0, r0, r0

0000031c <kCoreSetInterruptPriority>:
     31c:	2800      	cmp	r0, #0
     31e:	bfac      	ite	ge
     320:	f100 4060 	addge.w	r0, r0, #3758096384	@ 0xe0000000
     324:	4b06      	ldrlt	r3, [pc, #24]	@ (340 <kCoreSetInterruptPriority+0x24>)
     326:	ea4f 1101 	mov.w	r1, r1, lsl #4
     32a:	b2c9      	uxtb	r1, r1
     32c:	bfb5      	itete	lt
     32e:	f000 000f 	andlt.w	r0, r0, #15
     332:	f500 4061 	addge.w	r0, r0, #57600	@ 0xe100
     336:	5419      	strblt	r1, [r3, r0]
     338:	f880 1300 	strbge.w	r1, [r0, #768]	@ 0x300
     33c:	4770      	bx	lr
     33e:	bf00      	nop
     340:	e000ed14 	and	lr, r0, r4, lsl sp

00000344 <kCoreSysTickConfig>:
     344:	3801      	subs	r0, #1
     346:	f1b0 7f80 	cmp.w	r0, #16777216	@ 0x1000000
     34a:	bf3f      	itttt	cc
     34c:	f04f 23e0 	movcc.w	r3, #3758153728	@ 0xe000e000
     350:	2207      	movcc	r2, #7
     352:	6158      	strcc	r0, [r3, #20]
     354:	2000      	movcc	r0, #0
     356:	bf36      	itet	cc
     358:	6198      	strcc	r0, [r3, #24]
     35a:	f04f 30ff 	movcs.w	r0, #4294967295	@ 0xffffffff
     35e:	611a      	strcc	r2, [r3, #16]
     360:	4770      	bx	lr
	...

00000364 <kMboxInit>:
     364:	b570      	push	{r4, r5, r6, lr}
     366:	4604      	mov	r4, r0
     368:	460d      	mov	r5, r1
     36a:	f000 faeb 	bl	944 <kEnterCR>
     36e:	4606      	mov	r6, r0
     370:	b94c      	cbnz	r4, 386 <kMboxInit+0x22>
     372:	f06f 0001 	mvn.w	r0, #1
     376:	f000 fe1b 	bl	fb0 <kErrHandler>
     37a:	4630      	mov	r0, r6
     37c:	f000 faf0 	bl	960 <kExitCR>
     380:	f04f 30ff 	mov.w	r0, #4294967295	@ 0xffffffff
     384:	bd70      	pop	{r4, r5, r6, pc}
     386:	f104 030c 	add.w	r3, r4, #12
     38a:	e9c4 3303 	strd	r3, r3, [r4, #12]
     38e:	4b08      	ldr	r3, [pc, #32]	@ (3b0 <kMboxInit+0x4c>)
     390:	60a5      	str	r5, [r4, #8]
     392:	6163      	str	r3, [r4, #20]
     394:	2500      	movs	r5, #0
     396:	2301      	movs	r3, #1
     398:	e9c4 5306 	strd	r5, r3, [r4, #24]
     39c:	f3bf 8f5f 	dmb	sy
     3a0:	6063      	str	r3, [r4, #4]
     3a2:	2304      	movs	r3, #4
     3a4:	6023      	str	r3, [r4, #0]
     3a6:	f000 fadb 	bl	960 <kExitCR>
     3aa:	4628      	mov	r0, r5
     3ac:	e7ea      	b.n	384 <kMboxInit+0x20>
     3ae:	bf00      	nop
     3b0:	00001043 	andeq	r1, r0, r3, asr #32

000003b4 <kMboxPost>:
     3b4:	e92d 47f3 	stmdb	sp!, {r0, r1, r4, r5, r6, r7, r8, r9, sl, lr}
     3b8:	4604      	mov	r4, r0
     3ba:	460f      	mov	r7, r1
     3bc:	4616      	mov	r6, r2
     3be:	f000 fac1 	bl	944 <kEnterCR>
     3c2:	f3ef 8305 	mrs	r3, IPSR
     3c6:	4605      	mov	r5, r0
     3c8:	f3bf 8f5f 	dmb	sy
     3cc:	b123      	cbz	r3, 3d8 <kMboxPost+0x24>
     3ce:	b11e      	cbz	r6, 3d8 <kMboxPost+0x24>
     3d0:	f06f 0014 	mvn.w	r0, #20
     3d4:	f000 fdec 	bl	fb0 <kErrHandler>
     3d8:	b104      	cbz	r4, 3dc <kMboxPost+0x28>
     3da:	b91f      	cbnz	r7, 3e4 <kMboxPost+0x30>
     3dc:	f06f 0001 	mvn.w	r0, #1
     3e0:	f000 fde6 	bl	fb0 <kErrHandler>
     3e4:	6863      	ldr	r3, [r4, #4]
     3e6:	b91b      	cbnz	r3, 3f0 <kMboxPost+0x3c>
     3e8:	f06f 0002 	mvn.w	r0, #2
     3ec:	f000 fde0 	bl	fb0 <kErrHandler>
     3f0:	68a3      	ldr	r3, [r4, #8]
     3f2:	2b00      	cmp	r3, #0
     3f4:	d042      	beq.n	47c <kMboxPost+0xc8>
     3f6:	b93e      	cbnz	r6, 408 <kMboxPost+0x54>
     3f8:	4628      	mov	r0, r5
     3fa:	f000 fab1 	bl	960 <kExitCR>
     3fe:	f06f 001d 	mvn.w	r0, #29
     402:	b002      	add	sp, #8
     404:	e8bd 87f0 	ldmia.w	sp!, {r4, r5, r6, r7, r8, r9, sl, pc}
     408:	f8df 80d4 	ldr.w	r8, [pc, #212]	@ 4e0 <kMboxPost+0x12c>
     40c:	f104 0a0c 	add.w	sl, r4, #12
     410:	4650      	mov	r0, sl
     412:	f8d8 1000 	ldr.w	r1, [r8]
     416:	f000 faab 	bl	970 <kTCBQEnq>
     41a:	2306      	movs	r3, #6
     41c:	f8d8 0000 	ldr.w	r0, [r8]
     420:	f106 39ff 	add.w	r9, r6, #4294967295	@ 0xffffffff
     424:	6043      	str	r3, [r0, #4]
     426:	1c73      	adds	r3, r6, #1
     428:	d007      	beq.n	43a <kMboxPost+0x86>
     42a:	2301      	movs	r3, #1
     42c:	f8c0 a04c 	str.w	sl, [r0, #76]	@ 0x4c
     430:	6403      	str	r3, [r0, #64]	@ 0x40
     432:	4631      	mov	r1, r6
     434:	3038      	adds	r0, #56	@ 0x38
     436:	f000 fc7d 	bl	d34 <kTimeOut>
     43a:	4a2a      	ldr	r2, [pc, #168]	@ (4e4 <kMboxPost+0x130>)
     43c:	6853      	ldr	r3, [r2, #4]
     43e:	f043 5380 	orr.w	r3, r3, #268435456	@ 0x10000000
     442:	6053      	str	r3, [r2, #4]
     444:	f3bf 8f4f 	dsb	sy
     448:	f3bf 8f6f 	isb	sy
     44c:	4628      	mov	r0, r5
     44e:	f000 fa87 	bl	960 <kExitCR>
     452:	f000 fa77 	bl	944 <kEnterCR>
     456:	f8d8 3000 	ldr.w	r3, [r8]
     45a:	4605      	mov	r5, r0
     45c:	6ada      	ldr	r2, [r3, #44]	@ 0x2c
     45e:	b132      	cbz	r2, 46e <kMboxPost+0xba>
     460:	2200      	movs	r2, #0
     462:	62da      	str	r2, [r3, #44]	@ 0x2c
     464:	f000 fa7c 	bl	960 <kExitCR>
     468:	f06f 0018 	mvn.w	r0, #24
     46c:	e7c9      	b.n	402 <kMboxPost+0x4e>
     46e:	f119 0f02 	cmn.w	r9, #2
     472:	d003      	beq.n	47c <kMboxPost+0xc8>
     474:	f103 0038 	add.w	r0, r3, #56	@ 0x38
     478:	f000 fd60 	bl	f3c <kRemoveTimeoutNode>
     47c:	69a3      	ldr	r3, [r4, #24]
     47e:	60a7      	str	r7, [r4, #8]
     480:	b34b      	cbz	r3, 4d6 <kMboxPost+0x122>
     482:	340c      	adds	r4, #12
     484:	4620      	mov	r0, r4
     486:	f000 f9c9 	bl	81c <kTCBQPeek>
     48a:	6843      	ldr	r3, [r0, #4]
     48c:	9001      	str	r0, [sp, #4]
     48e:	2b07      	cmp	r3, #7
     490:	d121      	bne.n	4d6 <kMboxPost+0x122>
     492:	4620      	mov	r0, r4
     494:	a901      	add	r1, sp, #4
     496:	f000 f955 	bl	744 <kTCBQDeq>
     49a:	9801      	ldr	r0, [sp, #4]
     49c:	b908      	cbnz	r0, 4a2 <kMboxPost+0xee>
     49e:	f000 fd87 	bl	fb0 <kErrHandler>
     4a2:	2014      	movs	r0, #20
     4a4:	9901      	ldr	r1, [sp, #4]
     4a6:	4b10      	ldr	r3, [pc, #64]	@ (4e8 <kMboxPost+0x134>)
     4a8:	7e4a      	ldrb	r2, [r1, #25]
     4aa:	fb00 3002 	mla	r0, r0, r2, r3
     4ae:	f000 fa5f 	bl	970 <kTCBQEnq>
     4b2:	2201      	movs	r2, #1
     4b4:	9b01      	ldr	r3, [sp, #4]
     4b6:	605a      	str	r2, [r3, #4]
     4b8:	4a09      	ldr	r2, [pc, #36]	@ (4e0 <kMboxPost+0x12c>)
     4ba:	6811      	ldr	r1, [r2, #0]
     4bc:	7e5a      	ldrb	r2, [r3, #25]
     4be:	7e4b      	ldrb	r3, [r1, #25]
     4c0:	429a      	cmp	r2, r3
     4c2:	bf3f      	itttt	cc
     4c4:	4a07      	ldrcc	r2, [pc, #28]	@ (4e4 <kMboxPost+0x130>)
     4c6:	6853      	ldrcc	r3, [r2, #4]
     4c8:	f043 5380 	orrcc.w	r3, r3, #268435456	@ 0x10000000
     4cc:	6053      	strcc	r3, [r2, #4]
     4ce:	f3bf 8f4f 	dsb	sy
     4d2:	f3bf 8f6f 	isb	sy
     4d6:	4628      	mov	r0, r5
     4d8:	f000 fa42 	bl	960 <kExitCR>
     4dc:	2000      	movs	r0, #0
     4de:	e790      	b.n	402 <kMboxPost+0x4e>
     4e0:	20000e18 	andcs	r0, r0, r8, lsl lr
     4e4:	e000ed00 	and	lr, r0, r0, lsl #26
     4e8:	20000e1c 	andcs	r0, r0, ip, lsl lr

000004ec <kMboxPend>:
     4ec:	e92d 47f3 	stmdb	sp!, {r0, r1, r4, r5, r6, r7, r8, r9, sl, lr}
     4f0:	4604      	mov	r4, r0
     4f2:	460f      	mov	r7, r1
     4f4:	4616      	mov	r6, r2
     4f6:	f000 fa25 	bl	944 <kEnterCR>
     4fa:	f3ef 8305 	mrs	r3, IPSR
     4fe:	4605      	mov	r5, r0
     500:	f3bf 8f5f 	dmb	sy
     504:	b123      	cbz	r3, 510 <kMboxPend+0x24>
     506:	b11e      	cbz	r6, 510 <kMboxPend+0x24>
     508:	f06f 0014 	mvn.w	r0, #20
     50c:	f000 fd50 	bl	fb0 <kErrHandler>
     510:	b104      	cbz	r4, 514 <kMboxPend+0x28>
     512:	b91f      	cbnz	r7, 51c <kMboxPend+0x30>
     514:	f06f 0001 	mvn.w	r0, #1
     518:	f000 fd4a 	bl	fb0 <kErrHandler>
     51c:	6863      	ldr	r3, [r4, #4]
     51e:	b91b      	cbnz	r3, 528 <kMboxPend+0x3c>
     520:	f06f 0002 	mvn.w	r0, #2
     524:	f000 fd44 	bl	fb0 <kErrHandler>
     528:	68a3      	ldr	r3, [r4, #8]
     52a:	2b00      	cmp	r3, #0
     52c:	d142      	bne.n	5b4 <kMboxPend+0xc8>
     52e:	b93e      	cbnz	r6, 540 <kMboxPend+0x54>
     530:	4628      	mov	r0, r5
     532:	f000 fa15 	bl	960 <kExitCR>
     536:	f06f 001f 	mvn.w	r0, #31
     53a:	b002      	add	sp, #8
     53c:	e8bd 87f0 	ldmia.w	sp!, {r4, r5, r6, r7, r8, r9, sl, pc}
     540:	2307      	movs	r3, #7
     542:	f8df 80d4 	ldr.w	r8, [pc, #212]	@ 618 <kMboxPend+0x12c>
     546:	f106 39ff 	add.w	r9, r6, #4294967295	@ 0xffffffff
     54a:	f8d8 0000 	ldr.w	r0, [r8]
     54e:	f104 0a0c 	add.w	sl, r4, #12
     552:	6043      	str	r3, [r0, #4]
     554:	1c73      	adds	r3, r6, #1
     556:	d007      	beq.n	568 <kMboxPend+0x7c>
     558:	2301      	movs	r3, #1
     55a:	f8c0 a04c 	str.w	sl, [r0, #76]	@ 0x4c
     55e:	6403      	str	r3, [r0, #64]	@ 0x40
     560:	4631      	mov	r1, r6
     562:	3038      	adds	r0, #56	@ 0x38
     564:	f000 fbe6 	bl	d34 <kTimeOut>
     568:	4650      	mov	r0, sl
     56a:	f8d8 1000 	ldr.w	r1, [r8]
     56e:	f000 f9ff 	bl	970 <kTCBQEnq>
     572:	4a2a      	ldr	r2, [pc, #168]	@ (61c <kMboxPend+0x130>)
     574:	6853      	ldr	r3, [r2, #4]
     576:	f043 5380 	orr.w	r3, r3, #268435456	@ 0x10000000
     57a:	6053      	str	r3, [r2, #4]
     57c:	f3bf 8f4f 	dsb	sy
     580:	f3bf 8f6f 	isb	sy
     584:	4628      	mov	r0, r5
     586:	f000 f9eb 	bl	960 <kExitCR>
     58a:	f000 f9db 	bl	944 <kEnterCR>
     58e:	f8d8 3000 	ldr.w	r3, [r8]
     592:	4605      	mov	r5, r0
     594:	6ada      	ldr	r2, [r3, #44]	@ 0x2c
     596:	b132      	cbz	r2, 5a6 <kMboxPend+0xba>
     598:	2200      	movs	r2, #0
     59a:	62da      	str	r2, [r3, #44]	@ 0x2c
     59c:	f000 f9e0 	bl	960 <kExitCR>
     5a0:	f06f 0018 	mvn.w	r0, #24
     5a4:	e7c9      	b.n	53a <kMboxPend+0x4e>
     5a6:	f119 0f02 	cmn.w	r9, #2
     5aa:	d003      	beq.n	5b4 <kMboxPend+0xc8>
     5ac:	f103 0038 	add.w	r0, r3, #56	@ 0x38
     5b0:	f000 fcc4 	bl	f3c <kRemoveTimeoutNode>
     5b4:	68a3      	ldr	r3, [r4, #8]
     5b6:	603b      	str	r3, [r7, #0]
     5b8:	2300      	movs	r3, #0
     5ba:	60a3      	str	r3, [r4, #8]
     5bc:	69a3      	ldr	r3, [r4, #24]
     5be:	b32b      	cbz	r3, 60c <kMboxPend+0x120>
     5c0:	340c      	adds	r4, #12
     5c2:	4620      	mov	r0, r4
     5c4:	f000 f92a 	bl	81c <kTCBQPeek>
     5c8:	6843      	ldr	r3, [r0, #4]
     5ca:	9001      	str	r0, [sp, #4]
     5cc:	2b06      	cmp	r3, #6
     5ce:	d11d      	bne.n	60c <kMboxPend+0x120>
     5d0:	a901      	add	r1, sp, #4
     5d2:	4620      	mov	r0, r4
     5d4:	f000 f8b6 	bl	744 <kTCBQDeq>
     5d8:	2014      	movs	r0, #20
     5da:	9901      	ldr	r1, [sp, #4]
     5dc:	4b10      	ldr	r3, [pc, #64]	@ (620 <kMboxPend+0x134>)
     5de:	7e4a      	ldrb	r2, [r1, #25]
     5e0:	fb00 3002 	mla	r0, r0, r2, r3
     5e4:	f000 f9c4 	bl	970 <kTCBQEnq>
     5e8:	2201      	movs	r2, #1
     5ea:	9b01      	ldr	r3, [sp, #4]
     5ec:	605a      	str	r2, [r3, #4]
     5ee:	4a0a      	ldr	r2, [pc, #40]	@ (618 <kMboxPend+0x12c>)
     5f0:	6811      	ldr	r1, [r2, #0]
     5f2:	7e5a      	ldrb	r2, [r3, #25]
     5f4:	7e4b      	ldrb	r3, [r1, #25]
     5f6:	429a      	cmp	r2, r3
     5f8:	d208      	bcs.n	60c <kMboxPend+0x120>
     5fa:	4a08      	ldr	r2, [pc, #32]	@ (61c <kMboxPend+0x130>)
     5fc:	6853      	ldr	r3, [r2, #4]
     5fe:	f043 5380 	orr.w	r3, r3, #268435456	@ 0x10000000
     602:	6053      	str	r3, [r2, #4]
     604:	f3bf 8f4f 	dsb	sy
     608:	f3bf 8f6f 	isb	sy
     60c:	4628      	mov	r0, r5
     60e:	f000 f9a7 	bl	960 <kExitCR>
     612:	2000      	movs	r0, #0
     614:	e791      	b.n	53a <kMboxPend+0x4e>
     616:	bf00      	nop
     618:	20000e18 	andcs	r0, r0, r8, lsl lr
     61c:	e000ed00 	and	lr, r0, r0, lsl #26
     620:	20000e1c 	andcs	r0, r0, ip, lsl lr

00000624 <kInitTcb_>:
     624:	b570      	push	{r4, r5, r6, lr}
     626:	2a00      	cmp	r2, #0
     628:	d057      	beq.n	6da <kInitTcb_+0xb6>
     62a:	2b00      	cmp	r3, #0
     62c:	d055      	beq.n	6da <kInitTcb_+0xb6>
     62e:	2800      	cmp	r0, #0
     630:	d053      	beq.n	6da <kInitTcb_+0xb6>
     632:	f04f 7680 	mov.w	r6, #16777216	@ 0x1000000
     636:	f103 4480 	add.w	r4, r3, #1073741824	@ 0x40000000
     63a:	3c01      	subs	r4, #1
     63c:	f842 6024 	str.w	r6, [r2, r4, lsl #2]
     640:	00a5      	lsls	r5, r4, #2
     642:	eb02 0484 	add.w	r4, r2, r4, lsl #2
     646:	f844 0c04 	str.w	r0, [r4, #-4]
     64a:	f04f 3614 	mov.w	r6, #336860180	@ 0x14141414
     64e:	f04f 3012 	mov.w	r0, #303174162	@ 0x12121212
     652:	f04f 3c03 	mov.w	ip, #50529027	@ 0x3030303
     656:	e944 0603 	strd	r0, r6, [r4, #-12]
     65a:	f04f 3002 	mov.w	r0, #33686018	@ 0x2020202
     65e:	e944 0c05 	strd	r0, ip, [r4, #-20]
     662:	f04f 3001 	mov.w	r0, #16843009	@ 0x1010101
     666:	e944 1007 	strd	r1, r0, [r4, #-28]
     66a:	f04f 3110 	mov.w	r1, #269488144	@ 0x10101010
     66e:	f04f 3011 	mov.w	r0, #286331153	@ 0x11111111
     672:	f04f 3609 	mov.w	r6, #151587081	@ 0x9090909
     676:	e944 1009 	strd	r1, r0, [r4, #-36]	@ 0x24
     67a:	f04f 3108 	mov.w	r1, #134744072	@ 0x8080808
     67e:	f04f 3c07 	mov.w	ip, #117901063	@ 0x7070707
     682:	e944 160b 	strd	r1, r6, [r4, #-44]	@ 0x2c
     686:	f04f 3106 	mov.w	r1, #101058054	@ 0x6060606
     68a:	e944 1c0d 	strd	r1, ip, [r4, #-52]	@ 0x34
     68e:	f04f 3105 	mov.w	r1, #84215045	@ 0x5050505
     692:	f04f 3004 	mov.w	r0, #67372036	@ 0x4040404
     696:	f844 1c38 	str.w	r1, [r4, #-56]
     69a:	f1a5 013c 	sub.w	r1, r5, #60	@ 0x3c
     69e:	5050      	str	r0, [r2, r1]
     6a0:	2011      	movs	r0, #17
     6a2:	1856      	adds	r6, r2, r1
     6a4:	4c0e      	ldr	r4, [pc, #56]	@ (6e0 <kInitTcb_+0xbc>)
     6a6:	f1a3 0110 	sub.w	r1, r3, #16
     6aa:	eb02 0181 	add.w	r1, r2, r1, lsl #2
     6ae:	4283      	cmp	r3, r0
     6b0:	d80f      	bhi.n	6d2 <kInitTcb_+0xae>
     6b2:	2058      	movs	r0, #88	@ 0x58
     6b4:	490b      	ldr	r1, [pc, #44]	@ (6e4 <kInitTcb_+0xc0>)
     6b6:	4d0c      	ldr	r5, [pc, #48]	@ (6e8 <kInitTcb_+0xc4>)
     6b8:	6011      	str	r1, [r2, #0]
     6ba:	490c      	ldr	r1, [pc, #48]	@ (6ec <kInitTcb_+0xc8>)
     6bc:	780c      	ldrb	r4, [r1, #0]
     6be:	4360      	muls	r0, r4
     6c0:	1829      	adds	r1, r5, r0
     6c2:	614b      	str	r3, [r1, #20]
     6c4:	2301      	movs	r3, #1
     6c6:	502e      	str	r6, [r5, r0]
     6c8:	2000      	movs	r0, #0
     6ca:	610a      	str	r2, [r1, #16]
     6cc:	604b      	str	r3, [r1, #4]
     6ce:	760c      	strb	r4, [r1, #24]
     6d0:	bd70      	pop	{r4, r5, r6, pc}
     6d2:	f841 4d04 	str.w	r4, [r1, #-4]!
     6d6:	3001      	adds	r0, #1
     6d8:	e7e9      	b.n	6ae <kInitTcb_+0x8a>
     6da:	f04f 30ff 	mov.w	r0, #4294967295	@ 0xffffffff
     6de:	e7f7      	b.n	6d0 <kInitTcb_+0xac>
     6e0:	badc0ffe 	blt	ff7046e0 <SCB_ICSR+0x1f6f59dc>
     6e4:	0badc0de 	bleq	feb70a64 <SCB_ICSR+0x1eb61d60>
     6e8:	20000c60 	andcs	r0, r0, r0, ror #24
     6ec:	20000c3c 	andcs	r0, r0, ip, lsr ip

000006f0 <kCalcNextTaskPrio_>:
     6f0:	4a08      	ldr	r2, [pc, #32]	@ (714 <kCalcNextTaskPrio_+0x24>)
     6f2:	b508      	push	{r3, lr}
     6f4:	6813      	ldr	r3, [r2, #0]
     6f6:	b153      	cbz	r3, 70e <kCalcNextTaskPrio_+0x1e>
     6f8:	6813      	ldr	r3, [r2, #0]
     6fa:	6812      	ldr	r2, [r2, #0]
     6fc:	425b      	negs	r3, r3
     6fe:	4013      	ands	r3, r2
     700:	4a05      	ldr	r2, [pc, #20]	@ (718 <kCalcNextTaskPrio_+0x28>)
     702:	6013      	str	r3, [r2, #0]
     704:	6810      	ldr	r0, [r2, #0]
     706:	f7ff fcab 	bl	60 <__getReadyPrio>
     70a:	b2c0      	uxtb	r0, r0
     70c:	bd08      	pop	{r3, pc}
     70e:	2002      	movs	r0, #2
     710:	e7fc      	b.n	70c <kCalcNextTaskPrio_+0x1c>
     712:	bf00      	nop
     714:	20000c48 	andcs	r0, r0, r8, asr #24
     718:	20000c44 	andcs	r0, r0, r4, asr #24

0000071c <kTCBQInit>:
     71c:	b508      	push	{r3, lr}
     71e:	b930      	cbnz	r0, 72e <kTCBQInit+0x12>
     720:	f06f 0001 	mvn.w	r0, #1
     724:	f000 fc44 	bl	fb0 <kErrHandler>
     728:	f06f 0001 	mvn.w	r0, #1
     72c:	bd08      	pop	{r3, pc}
     72e:	2300      	movs	r3, #0
     730:	2201      	movs	r2, #1
     732:	e9c0 0000 	strd	r0, r0, [r0]
     736:	e9c0 3203 	strd	r3, r2, [r0, #12]
     73a:	6081      	str	r1, [r0, #8]
     73c:	f3bf 8f5f 	dmb	sy
     740:	4618      	mov	r0, r3
     742:	e7f3      	b.n	72c <kTCBQInit+0x10>

00000744 <kTCBQDeq>:
     744:	b538      	push	{r3, r4, r5, lr}
     746:	460d      	mov	r5, r1
     748:	4604      	mov	r4, r0
     74a:	b918      	cbnz	r0, 754 <kTCBQDeq+0x10>
     74c:	f06f 0001 	mvn.w	r0, #1
     750:	f000 fc2e 	bl	fb0 <kErrHandler>
     754:	68e2      	ldr	r2, [r4, #12]
     756:	b312      	cbz	r2, 79e <kTCBQDeq+0x5a>
     758:	6823      	ldr	r3, [r4, #0]
     75a:	3a01      	subs	r2, #1
     75c:	e9d3 0100 	ldrd	r0, r1, [r3]
     760:	6041      	str	r1, [r0, #4]
     762:	6008      	str	r0, [r1, #0]
     764:	2000      	movs	r0, #0
     766:	4619      	mov	r1, r3
     768:	6058      	str	r0, [r3, #4]
     76a:	f841 0950 	str.w	r0, [r1], #-80
     76e:	60e2      	str	r2, [r4, #12]
     770:	f3bf 8f5f 	dmb	sy
     774:	2214      	movs	r2, #20
     776:	6029      	str	r1, [r5, #0]
     778:	f813 0c37 	ldrb.w	r0, [r3, #-55]
     77c:	4b09      	ldr	r3, [pc, #36]	@ (7a4 <kTCBQDeq+0x60>)
     77e:	fb02 3300 	mla	r3, r2, r0, r3
     782:	429c      	cmp	r4, r3
     784:	d101      	bne.n	78a <kTCBQDeq+0x46>
     786:	68e3      	ldr	r3, [r4, #12]
     788:	b10b      	cbz	r3, 78e <kTCBQDeq+0x4a>
     78a:	2000      	movs	r0, #0
     78c:	bd38      	pop	{r3, r4, r5, pc}
     78e:	2201      	movs	r2, #1
     790:	4905      	ldr	r1, [pc, #20]	@ (7a8 <kTCBQDeq+0x64>)
     792:	4082      	lsls	r2, r0
     794:	680b      	ldr	r3, [r1, #0]
     796:	ea23 0302 	bic.w	r3, r3, r2
     79a:	600b      	str	r3, [r1, #0]
     79c:	e7f5      	b.n	78a <kTCBQDeq+0x46>
     79e:	f06f 0004 	mvn.w	r0, #4
     7a2:	e7f3      	b.n	78c <kTCBQDeq+0x48>
     7a4:	20000e1c 	andcs	r0, r0, ip, lsl lr
     7a8:	20000c48 	andcs	r0, r0, r8, asr #24

000007ac <kTCBQRem>:
     7ac:	b538      	push	{r3, r4, r5, lr}
     7ae:	460d      	mov	r5, r1
     7b0:	4604      	mov	r4, r0
     7b2:	b1d0      	cbz	r0, 7ea <kTCBQRem+0x3e>
     7b4:	b1c9      	cbz	r1, 7ea <kTCBQRem+0x3e>
     7b6:	680b      	ldr	r3, [r1, #0]
     7b8:	68e2      	ldr	r2, [r4, #12]
     7ba:	b342      	cbz	r2, 80e <kTCBQRem+0x62>
     7bc:	e9d3 0114 	ldrd	r0, r1, [r3, #80]	@ 0x50
     7c0:	6041      	str	r1, [r0, #4]
     7c2:	6008      	str	r0, [r1, #0]
     7c4:	2100      	movs	r1, #0
     7c6:	3a01      	subs	r2, #1
     7c8:	e9c3 1114 	strd	r1, r1, [r3, #80]	@ 0x50
     7cc:	60e2      	str	r2, [r4, #12]
     7ce:	f3bf 8f5f 	dmb	sy
     7d2:	2214      	movs	r2, #20
     7d4:	602b      	str	r3, [r5, #0]
     7d6:	7e58      	ldrb	r0, [r3, #25]
     7d8:	4b0e      	ldr	r3, [pc, #56]	@ (814 <kTCBQRem+0x68>)
     7da:	fb02 3300 	mla	r3, r2, r0, r3
     7de:	429c      	cmp	r4, r3
     7e0:	d101      	bne.n	7e6 <kTCBQRem+0x3a>
     7e2:	68e3      	ldr	r3, [r4, #12]
     7e4:	b15b      	cbz	r3, 7fe <kTCBQRem+0x52>
     7e6:	2000      	movs	r0, #0
     7e8:	bd38      	pop	{r3, r4, r5, pc}
     7ea:	f06f 0001 	mvn.w	r0, #1
     7ee:	f000 fbdf 	bl	fb0 <kErrHandler>
     7f2:	682b      	ldr	r3, [r5, #0]
     7f4:	2c00      	cmp	r4, #0
     7f6:	d1df      	bne.n	7b8 <kTCBQRem+0xc>
     7f8:	f06f 0001 	mvn.w	r0, #1
     7fc:	e7f4      	b.n	7e8 <kTCBQRem+0x3c>
     7fe:	2201      	movs	r2, #1
     800:	4905      	ldr	r1, [pc, #20]	@ (818 <kTCBQRem+0x6c>)
     802:	4082      	lsls	r2, r0
     804:	680b      	ldr	r3, [r1, #0]
     806:	ea23 0302 	bic.w	r3, r3, r2
     80a:	600b      	str	r3, [r1, #0]
     80c:	e7eb      	b.n	7e6 <kTCBQRem+0x3a>
     80e:	f06f 0004 	mvn.w	r0, #4
     812:	e7e9      	b.n	7e8 <kTCBQRem+0x3c>
     814:	20000e1c 	andcs	r0, r0, ip, lsl lr
     818:	20000c48 	andcs	r0, r0, r8, asr #24

0000081c <kTCBQPeek>:
     81c:	b510      	push	{r4, lr}
     81e:	4604      	mov	r4, r0
     820:	b918      	cbnz	r0, 82a <kTCBQPeek+0xe>
     822:	f06f 0001 	mvn.w	r0, #1
     826:	f000 fbc3 	bl	fb0 <kErrHandler>
     82a:	6820      	ldr	r0, [r4, #0]
     82c:	3850      	subs	r0, #80	@ 0x50
     82e:	bd10      	pop	{r4, pc}

00000830 <kReadyQDeq>:
     830:	460a      	mov	r2, r1
     832:	4601      	mov	r1, r0
     834:	2014      	movs	r0, #20
     836:	4b06      	ldr	r3, [pc, #24]	@ (850 <kReadyQDeq+0x20>)
     838:	b510      	push	{r4, lr}
     83a:	fb00 3002 	mla	r0, r0, r2, r3
     83e:	f7ff ff81 	bl	744 <kTCBQDeq>
     842:	4604      	mov	r4, r0
     844:	b110      	cbz	r0, 84c <kReadyQDeq+0x1c>
     846:	2000      	movs	r0, #0
     848:	f000 fbb2 	bl	fb0 <kErrHandler>
     84c:	4620      	mov	r0, r4
     84e:	bd10      	pop	{r4, pc}
     850:	20000e1c 	andcs	r0, r0, ip, lsl lr

00000854 <kCreateTask>:
     854:	e92d 4ff8 	stmdb	sp!, {r3, r4, r5, r6, r7, r8, r9, sl, fp, lr}
     858:	4c30      	ldr	r4, [pc, #192]	@ (91c <kCreateTask+0xc8>)
     85a:	4606      	mov	r6, r0
     85c:	7825      	ldrb	r5, [r4, #0]
     85e:	4688      	mov	r8, r1
     860:	4617      	mov	r7, r2
     862:	4699      	mov	r9, r3
     864:	f89d a030 	ldrb.w	sl, [sp, #48]	@ 0x30
     868:	2d00      	cmp	r5, #0
     86a:	d132      	bne.n	8d2 <kCreateTask+0x7e>
     86c:	2340      	movs	r3, #64	@ 0x40
     86e:	4a2c      	ldr	r2, [pc, #176]	@ (920 <kCreateTask+0xcc>)
     870:	990b      	ldr	r1, [sp, #44]	@ 0x2c
     872:	482c      	ldr	r0, [pc, #176]	@ (924 <kCreateTask+0xd0>)
     874:	f7ff fed6 	bl	624 <kInitTcb_>
     878:	b110      	cbz	r0, 880 <kCreateTask+0x2c>
     87a:	4628      	mov	r0, r5
     87c:	f000 fb98 	bl	fb0 <kErrHandler>
     880:	2358      	movs	r3, #88	@ 0x58
     882:	2102      	movs	r1, #2
     884:	f04f 0b00 	mov.w	fp, #0
     888:	7822      	ldrb	r2, [r4, #0]
     88a:	4d27      	ldr	r5, [pc, #156]	@ (928 <kCreateTask+0xd4>)
     88c:	4827      	ldr	r0, [pc, #156]	@ (92c <kCreateTask+0xd8>)
     88e:	fb03 5302 	mla	r3, r3, r2, r5
     892:	7659      	strb	r1, [r3, #25]
     894:	4926      	ldr	r1, [pc, #152]	@ (930 <kCreateTask+0xdc>)
     896:	3201      	adds	r2, #1
     898:	60d9      	str	r1, [r3, #12]
     89a:	4926      	ldr	r1, [pc, #152]	@ (934 <kCreateTask+0xe0>)
     89c:	f8c3 b028 	str.w	fp, [r3, #40]	@ 0x28
     8a0:	600b      	str	r3, [r1, #0]
     8a2:	7022      	strb	r2, [r4, #0]
     8a4:	2340      	movs	r3, #64	@ 0x40
     8a6:	4a24      	ldr	r2, [pc, #144]	@ (938 <kCreateTask+0xe4>)
     8a8:	990b      	ldr	r1, [sp, #44]	@ 0x2c
     8aa:	f7ff febb 	bl	624 <kInitTcb_>
     8ae:	b110      	cbz	r0, 8b6 <kCreateTask+0x62>
     8b0:	4658      	mov	r0, fp
     8b2:	f000 fb7d 	bl	fb0 <kErrHandler>
     8b6:	2258      	movs	r2, #88	@ 0x58
     8b8:	7823      	ldrb	r3, [r4, #0]
     8ba:	fb02 5503 	mla	r5, r2, r3, r5
     8be:	2200      	movs	r2, #0
     8c0:	766a      	strb	r2, [r5, #25]
     8c2:	4a1e      	ldr	r2, [pc, #120]	@ (93c <kCreateTask+0xe8>)
     8c4:	3301      	adds	r3, #1
     8c6:	60ea      	str	r2, [r5, #12]
     8c8:	2201      	movs	r2, #1
     8ca:	62aa      	str	r2, [r5, #40]	@ 0x28
     8cc:	4a1c      	ldr	r2, [pc, #112]	@ (940 <kCreateTask+0xec>)
     8ce:	7023      	strb	r3, [r4, #0]
     8d0:	6015      	str	r5, [r2, #0]
     8d2:	464a      	mov	r2, r9
     8d4:	4640      	mov	r0, r8
     8d6:	9b0a      	ldr	r3, [sp, #40]	@ 0x28
     8d8:	990b      	ldr	r1, [sp, #44]	@ 0x2c
     8da:	f7ff fea3 	bl	624 <kInitTcb_>
     8de:	4605      	mov	r5, r0
     8e0:	b9c8      	cbnz	r0, 916 <kCreateTask+0xc2>
     8e2:	f1ba 0f02 	cmp.w	sl, #2
     8e6:	d903      	bls.n	8f0 <kCreateTask+0x9c>
     8e8:	f06f 000a 	mvn.w	r0, #10
     8ec:	f000 fb60 	bl	fb0 <kErrHandler>
     8f0:	2158      	movs	r1, #88	@ 0x58
     8f2:	7822      	ldrb	r2, [r4, #0]
     8f4:	4b0c      	ldr	r3, [pc, #48]	@ (928 <kCreateTask+0xd4>)
     8f6:	fb01 3302 	mla	r3, r1, r2, r3
     8fa:	2100      	movs	r1, #0
     8fc:	6259      	str	r1, [r3, #36]	@ 0x24
     8fe:	61d9      	str	r1, [r3, #28]
     900:	990d      	ldr	r1, [sp, #52]	@ 0x34
     902:	3201      	adds	r2, #1
     904:	f883 a019 	strb.w	sl, [r3, #25]
     908:	60df      	str	r7, [r3, #12]
     90a:	6299      	str	r1, [r3, #40]	@ 0x28
     90c:	7022      	strb	r2, [r4, #0]
     90e:	6033      	str	r3, [r6, #0]
     910:	4628      	mov	r0, r5
     912:	e8bd 8ff8 	ldmia.w	sp!, {r3, r4, r5, r6, r7, r8, r9, sl, fp, pc}
     916:	f04f 35ff 	mov.w	r5, #4294967295	@ 0xffffffff
     91a:	e7f9      	b.n	910 <kCreateTask+0xbc>
     91c:	20000c3c 	andcs	r0, r0, ip, lsr ip
     920:	20000f5c 	andcs	r0, r0, ip, asr pc
     924:	00000c5d 	andeq	r0, r0, sp, asr ip
     928:	20000c60 	andcs	r0, r0, r0, ror #24
     92c:	00000c75 	andeq	r0, r0, r5, ror ip
     930:	00001049 	andeq	r1, r0, r9, asr #32
     934:	20000c58 	andcs	r0, r0, r8, asr ip
     938:	20000e5c 	andcs	r0, r0, ip, asr lr
     93c:	00001052 	andeq	r1, r0, r2, asr r0
     940:	20000c5c 	andcs	r0, r0, ip, asr ip

00000944 <kEnterCR>:
     944:	f3bf 8f4f 	dsb	sy
     948:	f3ef 8010 	mrs	r0, PRIMASK
     94c:	b928      	cbnz	r0, 95a <kEnterCR+0x16>
     94e:	f3bf 8f4f 	dsb	sy
     952:	b672      	cpsid	i
     954:	f3bf 8f6f 	isb	sy
     958:	4770      	bx	lr
     95a:	f3bf 8f4f 	dsb	sy
     95e:	4770      	bx	lr

00000960 <kExitCR>:
     960:	f3bf 8f4f 	dsb	sy
     964:	f380 8810 	msr	PRIMASK, r0
     968:	f3bf 8f6f 	isb	sy
     96c:	4770      	bx	lr
	...

00000970 <kTCBQEnq>:
     970:	b5f8      	push	{r3, r4, r5, r6, r7, lr}
     972:	4604      	mov	r4, r0
     974:	f7ff ffe6 	bl	944 <kEnterCR>
     978:	460d      	mov	r5, r1
     97a:	4606      	mov	r6, r0
     97c:	f101 0750 	add.w	r7, r1, #80	@ 0x50
     980:	b1fc      	cbz	r4, 9c2 <kTCBQEnq+0x52>
     982:	b1f1      	cbz	r1, 9c2 <kTCBQEnq+0x52>
     984:	6863      	ldr	r3, [r4, #4]
     986:	b30b      	cbz	r3, 9cc <kTCBQEnq+0x5c>
     988:	681a      	ldr	r2, [r3, #0]
     98a:	652a      	str	r2, [r5, #80]	@ 0x50
     98c:	6057      	str	r7, [r2, #4]
     98e:	656b      	str	r3, [r5, #84]	@ 0x54
     990:	601f      	str	r7, [r3, #0]
     992:	68e3      	ldr	r3, [r4, #12]
     994:	3301      	adds	r3, #1
     996:	60e3      	str	r3, [r4, #12]
     998:	f3bf 8f5f 	dmb	sy
     99c:	2214      	movs	r2, #20
     99e:	7e69      	ldrb	r1, [r5, #25]
     9a0:	4b0c      	ldr	r3, [pc, #48]	@ (9d4 <kTCBQEnq+0x64>)
     9a2:	fb02 3301 	mla	r3, r2, r1, r3
     9a6:	429c      	cmp	r4, r3
     9a8:	d105      	bne.n	9b6 <kTCBQEnq+0x46>
     9aa:	2301      	movs	r3, #1
     9ac:	4a0a      	ldr	r2, [pc, #40]	@ (9d8 <kTCBQEnq+0x68>)
     9ae:	408b      	lsls	r3, r1
     9b0:	6810      	ldr	r0, [r2, #0]
     9b2:	4303      	orrs	r3, r0
     9b4:	6013      	str	r3, [r2, #0]
     9b6:	2300      	movs	r3, #0
     9b8:	4630      	mov	r0, r6
     9ba:	f7ff ffd1 	bl	960 <kExitCR>
     9be:	4618      	mov	r0, r3
     9c0:	bdf8      	pop	{r3, r4, r5, r6, r7, pc}
     9c2:	f06f 0001 	mvn.w	r0, #1
     9c6:	f000 faf3 	bl	fb0 <kErrHandler>
     9ca:	e7db      	b.n	984 <kTCBQEnq+0x14>
     9cc:	f06f 0301 	mvn.w	r3, #1
     9d0:	e7f2      	b.n	9b8 <kTCBQEnq+0x48>
     9d2:	bf00      	nop
     9d4:	20000e1c 	andcs	r0, r0, ip, lsl lr
     9d8:	20000c48 	andcs	r0, r0, r8, asr #24

000009dc <kReadyRunningTask_>:
     9dc:	b510      	push	{r4, lr}
     9de:	4c0a      	ldr	r4, [pc, #40]	@ (a08 <kReadyRunningTask_+0x2c>)
     9e0:	6821      	ldr	r1, [r4, #0]
     9e2:	684b      	ldr	r3, [r1, #4]
     9e4:	2b02      	cmp	r3, #2
     9e6:	d10d      	bne.n	a04 <kReadyRunningTask_+0x28>
     9e8:	2014      	movs	r0, #20
     9ea:	7e4a      	ldrb	r2, [r1, #25]
     9ec:	4b07      	ldr	r3, [pc, #28]	@ (a0c <kReadyRunningTask_+0x30>)
     9ee:	fb00 3002 	mla	r0, r0, r2, r3
     9f2:	f7ff ffbd 	bl	970 <kTCBQEnq>
     9f6:	b110      	cbz	r0, 9fe <kReadyRunningTask_+0x22>
     9f8:	2000      	movs	r0, #0
     9fa:	f000 fad9 	bl	fb0 <kErrHandler>
     9fe:	2201      	movs	r2, #1
     a00:	6823      	ldr	r3, [r4, #0]
     a02:	605a      	str	r2, [r3, #4]
     a04:	bd10      	pop	{r4, pc}
     a06:	bf00      	nop
     a08:	20000e18 	andcs	r0, r0, r8, lsl lr
     a0c:	20000e1c 	andcs	r0, r0, ip, lsl lr

00000a10 <kInit>:
     a10:	e92d 43f8 	stmdb	sp!, {r3, r4, r5, r6, r7, r8, r9, lr}
     a14:	f000 fac8 	bl	fa8 <kGetVersion>
     a18:	4b33      	ldr	r3, [pc, #204]	@ (ae8 <kInit+0xd8>)
     a1a:	4a34      	ldr	r2, [pc, #208]	@ (aec <kInit+0xdc>)
     a1c:	6018      	str	r0, [r3, #0]
     a1e:	6819      	ldr	r1, [r3, #0]
     a20:	7853      	ldrb	r3, [r2, #1]
     a22:	7810      	ldrb	r0, [r2, #0]
     a24:	021b      	lsls	r3, r3, #8
     a26:	7892      	ldrb	r2, [r2, #2]
     a28:	ea43 4300 	orr.w	r3, r3, r0, lsl #16
     a2c:	4313      	orrs	r3, r2
     a2e:	428b      	cmp	r3, r1
     a30:	d003      	beq.n	a3a <kInit+0x2a>
     a32:	f06f 0010 	mvn.w	r0, #16
     a36:	f000 fabb 	bl	fb0 <kErrHandler>
     a3a:	2400      	movs	r4, #0
     a3c:	4d2c      	ldr	r5, [pc, #176]	@ (af0 <kInit+0xe0>)
     a3e:	4627      	mov	r7, r4
     a40:	462e      	mov	r6, r5
     a42:	f8df 80b0 	ldr.w	r8, [pc, #176]	@ af4 <kInit+0xe4>
     a46:	4628      	mov	r0, r5
     a48:	4641      	mov	r1, r8
     a4a:	f7ff fe67 	bl	71c <kTCBQInit>
     a4e:	3401      	adds	r4, #1
     a50:	2c03      	cmp	r4, #3
     a52:	ea47 0700 	orr.w	r7, r7, r0
     a56:	f105 0514 	add.w	r5, r5, #20
     a5a:	d1f4      	bne.n	a46 <kInit+0x36>
     a5c:	b117      	cbz	r7, a64 <kInit+0x54>
     a5e:	2000      	movs	r0, #0
     a60:	f000 faa6 	bl	fb0 <kErrHandler>
     a64:	2300      	movs	r3, #0
     a66:	4c24      	ldr	r4, [pc, #144]	@ (af8 <kInit+0xe8>)
     a68:	4619      	mov	r1, r3
     a6a:	4620      	mov	r0, r4
     a6c:	46a0      	mov	r8, r4
     a6e:	4a23      	ldr	r2, [pc, #140]	@ (afc <kInit+0xec>)
     a70:	4d23      	ldr	r5, [pc, #140]	@ (b00 <kInit+0xf0>)
     a72:	e9c2 3300 	strd	r3, r3, [r2]
     a76:	7e62      	ldrb	r2, [r4, #25]
     a78:	702a      	strb	r2, [r5, #0]
     a7a:	7e47      	ldrb	r7, [r0, #25]
     a7c:	3101      	adds	r1, #1
     a7e:	4297      	cmp	r7, r2
     a80:	bf3c      	itt	cc
     a82:	463a      	movcc	r2, r7
     a84:	2301      	movcc	r3, #1
     a86:	2905      	cmp	r1, #5
     a88:	f100 0058 	add.w	r0, r0, #88	@ 0x58
     a8c:	d1f5      	bne.n	a7a <kInit+0x6a>
     a8e:	b103      	cbz	r3, a92 <kInit+0x82>
     a90:	702a      	strb	r2, [r5, #0]
     a92:	2700      	movs	r7, #0
     a94:	f04f 0914 	mov.w	r9, #20
     a98:	7e60      	ldrb	r0, [r4, #25]
     a9a:	4621      	mov	r1, r4
     a9c:	fb09 6000 	mla	r0, r9, r0, r6
     aa0:	3701      	adds	r7, #1
     aa2:	f7ff ff65 	bl	970 <kTCBQEnq>
     aa6:	2f05      	cmp	r7, #5
     aa8:	f104 0458 	add.w	r4, r4, #88	@ 0x58
     aac:	d1f4      	bne.n	a98 <kInit+0x88>
     aae:	4c15      	ldr	r4, [pc, #84]	@ (b04 <kInit+0xf4>)
     ab0:	7829      	ldrb	r1, [r5, #0]
     ab2:	4620      	mov	r0, r4
     ab4:	f7ff febc 	bl	830 <kReadyQDeq>
     ab8:	6823      	ldr	r3, [r4, #0]
     aba:	685b      	ldr	r3, [r3, #4]
     abc:	2b01      	cmp	r3, #1
     abe:	d002      	beq.n	ac6 <kInit+0xb6>
     ac0:	2000      	movs	r0, #0
     ac2:	f000 fa75 	bl	fb0 <kErrHandler>
     ac6:	f898 3019 	ldrb.w	r3, [r8, #25]
     aca:	2b02      	cmp	r3, #2
     acc:	d002      	beq.n	ad4 <kInit+0xc4>
     ace:	2000      	movs	r0, #0
     ad0:	f000 fa6e 	bl	fb0 <kErrHandler>
     ad4:	f7ff fb5c 	bl	190 <kApplicationInit>
     ad8:	f3bf 8f4f 	dsb	sy
     adc:	b662      	cpsie	i
     ade:	f3bf 8f6f 	isb	sy
     ae2:	dfaa      	svc	170	@ 0xaa
     ae4:	e7fe      	b.n	ae4 <kInit+0xd4>
     ae6:	bf00      	nop
     ae8:	20000c40 	andcs	r0, r0, r0, asr #24
     aec:	00001068 	andeq	r1, r0, r8, rrx
     af0:	20000e1c 	andcs	r0, r0, ip, lsl lr
     af4:	00001061 	andeq	r1, r0, r1, rrx
     af8:	20000c60 	andcs	r0, r0, r0, ror #24
     afc:	20000c50 	andcs	r0, r0, r0, asr ip
     b00:	20000c4d 	andcs	r0, r0, sp, asr #24
     b04:	20000e18 	andcs	r0, r0, r8, lsl lr

00000b08 <kSchSwtch>:
     b08:	2300      	movs	r3, #0
     b0a:	b573      	push	{r0, r1, r4, r5, r6, lr}
     b0c:	4e13      	ldr	r6, [pc, #76]	@ (b5c <kSchSwtch+0x54>)
     b0e:	9301      	str	r3, [sp, #4]
     b10:	6835      	ldr	r5, [r6, #0]
     b12:	686b      	ldr	r3, [r5, #4]
     b14:	2b02      	cmp	r3, #2
     b16:	d101      	bne.n	b1c <kSchSwtch+0x14>
     b18:	f7ff ff60 	bl	9dc <kReadyRunningTask_>
     b1c:	f7ff fde8 	bl	6f0 <kCalcNextTaskPrio_>
     b20:	2214      	movs	r2, #20
     b22:	4b0f      	ldr	r3, [pc, #60]	@ (b60 <kSchSwtch+0x58>)
     b24:	a901      	add	r1, sp, #4
     b26:	7018      	strb	r0, [r3, #0]
     b28:	4b0e      	ldr	r3, [pc, #56]	@ (b64 <kSchSwtch+0x5c>)
     b2a:	fb02 3000 	mla	r0, r2, r0, r3
     b2e:	f7ff fe09 	bl	744 <kTCBQDeq>
     b32:	9c01      	ldr	r4, [sp, #4]
     b34:	b91c      	cbnz	r4, b3e <kSchSwtch+0x36>
     b36:	f06f 0001 	mvn.w	r0, #1
     b3a:	f000 fa39 	bl	fb0 <kErrHandler>
     b3e:	7e2b      	ldrb	r3, [r5, #24]
     b40:	7e22      	ldrb	r2, [r4, #24]
     b42:	6034      	str	r4, [r6, #0]
     b44:	4293      	cmp	r3, r2
     b46:	bf1f      	itttt	ne
     b48:	6b23      	ldrne	r3, [r4, #48]	@ 0x30
     b4a:	3301      	addne	r3, #1
     b4c:	6323      	strne	r3, [r4, #48]	@ 0x30
     b4e:	f885 2034 	strbne.w	r2, [r5, #52]	@ 0x34
     b52:	f3bf 8f4f 	dsb	sy
     b56:	b002      	add	sp, #8
     b58:	bd70      	pop	{r4, r5, r6, pc}
     b5a:	bf00      	nop
     b5c:	20000e18 	andcs	r0, r0, r8, lsl lr
     b60:	20000c4c 	andcs	r0, r0, ip, asr #24
     b64:	20000e1c 	andcs	r0, r0, ip, lsl lr

00000b68 <kTickHandler>:
     b68:	b5f8      	push	{r3, r4, r5, r6, r7, lr}
     b6a:	4e34      	ldr	r6, [pc, #208]	@ (c3c <kTickHandler+0xd4>)
     b6c:	4b34      	ldr	r3, [pc, #208]	@ (c40 <kTickHandler+0xd8>)
     b6e:	6830      	ldr	r0, [r6, #0]
     b70:	681a      	ldr	r2, [r3, #0]
     b72:	6a01      	ldr	r1, [r0, #32]
     b74:	3201      	adds	r2, #1
     b76:	601a      	str	r2, [r3, #0]
     b78:	b109      	cbz	r1, b7e <kTickHandler+0x16>
     b7a:	3901      	subs	r1, #1
     b7c:	6201      	str	r1, [r0, #32]
     b7e:	3201      	adds	r2, #1
     b80:	d104      	bne.n	b8c <kTickHandler+0x24>
     b82:	2200      	movs	r2, #0
     b84:	601a      	str	r2, [r3, #0]
     b86:	685a      	ldr	r2, [r3, #4]
     b88:	3201      	adds	r2, #1
     b8a:	605a      	str	r2, [r3, #4]
     b8c:	4b2d      	ldr	r3, [pc, #180]	@ (c44 <kTickHandler+0xdc>)
     b8e:	681c      	ldr	r4, [r3, #0]
     b90:	b114      	cbz	r4, b98 <kTickHandler+0x30>
     b92:	f000 f9e9 	bl	f68 <kHandleTimeoutList>
     b96:	4604      	mov	r4, r0
     b98:	6833      	ldr	r3, [r6, #0]
     b9a:	6a9d      	ldr	r5, [r3, #40]	@ 0x28
     b9c:	b135      	cbz	r5, bac <kTickHandler+0x44>
     b9e:	685a      	ldr	r2, [r3, #4]
     ba0:	2a02      	cmp	r2, #2
     ba2:	d142      	bne.n	c2a <kTickHandler+0xc2>
     ba4:	7e1b      	ldrb	r3, [r3, #24]
     ba6:	1e1d      	subs	r5, r3, #0
     ba8:	bf18      	it	ne
     baa:	2501      	movne	r5, #1
     bac:	4b26      	ldr	r3, [pc, #152]	@ (c48 <kTickHandler+0xe0>)
     bae:	681b      	ldr	r3, [r3, #0]
     bb0:	b32b      	cbz	r3, bfe <kTickHandler+0x96>
     bb2:	f853 2c0c 	ldr.w	r2, [r3, #-12]
     bb6:	2a00      	cmp	r2, #0
     bb8:	d039      	beq.n	c2e <kTickHandler+0xc6>
     bba:	3a01      	subs	r2, #1
     bbc:	f843 2c0c 	str.w	r2, [r3, #-12]
     bc0:	691a      	ldr	r2, [r3, #16]
     bc2:	b9e2      	cbnz	r2, bfe <kTickHandler+0x96>
     bc4:	4a21      	ldr	r2, [pc, #132]	@ (c4c <kTickHandler+0xe4>)
     bc6:	4f22      	ldr	r7, [pc, #136]	@ (c50 <kTickHandler+0xe8>)
     bc8:	6013      	str	r3, [r2, #0]
     bca:	f7ff febb 	bl	944 <kEnterCR>
     bce:	683b      	ldr	r3, [r7, #0]
     bd0:	4604      	mov	r4, r0
     bd2:	685a      	ldr	r2, [r3, #4]
     bd4:	2a03      	cmp	r2, #3
     bd6:	d10e      	bne.n	bf6 <kTickHandler+0x8e>
     bd8:	2058      	movs	r0, #88	@ 0x58
     bda:	7e5a      	ldrb	r2, [r3, #25]
     bdc:	7e19      	ldrb	r1, [r3, #24]
     bde:	4b1d      	ldr	r3, [pc, #116]	@ (c54 <kTickHandler+0xec>)
     be0:	fb00 3101 	mla	r1, r0, r1, r3
     be4:	2014      	movs	r0, #20
     be6:	4b1c      	ldr	r3, [pc, #112]	@ (c58 <kTickHandler+0xf0>)
     be8:	fb00 3002 	mla	r0, r0, r2, r3
     bec:	f7ff fec0 	bl	970 <kTCBQEnq>
     bf0:	2201      	movs	r2, #1
     bf2:	683b      	ldr	r3, [r7, #0]
     bf4:	605a      	str	r2, [r3, #4]
     bf6:	4620      	mov	r0, r4
     bf8:	f7ff feb2 	bl	960 <kExitCR>
     bfc:	2401      	movs	r4, #1
     bfe:	6833      	ldr	r3, [r6, #0]
     c00:	685b      	ldr	r3, [r3, #4]
     c02:	2b02      	cmp	r3, #2
     c04:	d107      	bne.n	c16 <kTickHandler+0xae>
     c06:	f7ff fd73 	bl	6f0 <kCalcNextTaskPrio_>
     c0a:	6833      	ldr	r3, [r6, #0]
     c0c:	7e5b      	ldrb	r3, [r3, #25]
     c0e:	4283      	cmp	r3, r0
     c10:	d901      	bls.n	c16 <kTickHandler+0xae>
     c12:	f7ff fee3 	bl	9dc <kReadyRunningTask_>
     c16:	6833      	ldr	r3, [r6, #0]
     c18:	f085 0001 	eor.w	r0, r5, #1
     c1c:	685b      	ldr	r3, [r3, #4]
     c1e:	2b01      	cmp	r3, #1
     c20:	bf08      	it	eq
     c22:	f044 0401 	orreq.w	r4, r4, #1
     c26:	4020      	ands	r0, r4
     c28:	bdf8      	pop	{r3, r4, r5, r6, r7, pc}
     c2a:	2500      	movs	r5, #0
     c2c:	e7be      	b.n	bac <kTickHandler+0x44>
     c2e:	691a      	ldr	r2, [r3, #16]
     c30:	2a00      	cmp	r2, #0
     c32:	d0c5      	beq.n	bc0 <kTickHandler+0x58>
     c34:	691a      	ldr	r2, [r3, #16]
     c36:	3a01      	subs	r2, #1
     c38:	611a      	str	r2, [r3, #16]
     c3a:	e7c1      	b.n	bc0 <kTickHandler+0x58>
     c3c:	20000e18 	andcs	r0, r0, r8, lsl lr
     c40:	20000c50 	andcs	r0, r0, r0, asr ip
     c44:	20000c38 	andcs	r0, r0, r8, lsr ip
     c48:	20000c34 	andcs	r0, r0, r4, lsr ip
     c4c:	20000c30 	andcs	r0, r0, r0, lsr ip
     c50:	20000c5c 	andcs	r0, r0, ip, asr ip
     c54:	20000c60 	andcs	r0, r0, r0, ror #24
     c58:	20000e1c 	andcs	r0, r0, ip, lsl lr

00000c5c <IdleTask>:
     c5c:	4a04      	ldr	r2, [pc, #16]	@ (c70 <IdleTask+0x14>)
     c5e:	f3bf 8f4f 	dsb	sy
     c62:	6813      	ldr	r3, [r2, #0]
     c64:	3301      	adds	r3, #1
     c66:	6013      	str	r3, [r2, #0]
     c68:	bf30      	wfi
     c6a:	f3bf 8f6f 	isb	sy
     c6e:	e7f6      	b.n	c5e <IdleTask+0x2>
     c70:	20000e58 	andcs	r0, r0, r8, asr lr

00000c74 <TimerHandlerTask>:
     c74:	f04f 23e0 	mov.w	r3, #3758153728	@ 0xe000e000
     c78:	691a      	ldr	r2, [r3, #16]
     c7a:	f04f 32ff 	mov.w	r2, #4294967295	@ 0xffffffff
     c7e:	e92d 41f3 	stmdb	sp!, {r0, r1, r4, r5, r6, r7, r8, lr}
     c82:	f8df 8078 	ldr.w	r8, [pc, #120]	@ cfc <TimerHandlerTask+0x88>
     c86:	4e1e      	ldr	r6, [pc, #120]	@ (d00 <TimerHandlerTask+0x8c>)
     c88:	4f1e      	ldr	r7, [pc, #120]	@ (d04 <TimerHandlerTask+0x90>)
     c8a:	611a      	str	r2, [r3, #16]
     c8c:	f7ff fe5a 	bl	944 <kEnterCR>
     c90:	2203      	movs	r2, #3
     c92:	f8d8 3000 	ldr.w	r3, [r8]
     c96:	605a      	str	r2, [r3, #4]
     c98:	6873      	ldr	r3, [r6, #4]
     c9a:	f043 5380 	orr.w	r3, r3, #268435456	@ 0x10000000
     c9e:	6073      	str	r3, [r6, #4]
     ca0:	f3bf 8f4f 	dsb	sy
     ca4:	f3bf 8f6f 	isb	sy
     ca8:	f7ff fe5a 	bl	960 <kExitCR>
     cac:	f7ff fe4a 	bl	944 <kEnterCR>
     cb0:	4605      	mov	r5, r0
     cb2:	683c      	ldr	r4, [r7, #0]
     cb4:	b10c      	cbz	r4, cba <TimerHandlerTask+0x46>
     cb6:	6923      	ldr	r3, [r4, #16]
     cb8:	b11b      	cbz	r3, cc2 <TimerHandlerTask+0x4e>
     cba:	4628      	mov	r0, r5
     cbc:	f7ff fe50 	bl	960 <kExitCR>
     cc0:	e7e4      	b.n	c8c <TimerHandlerTask+0x18>
     cc2:	6823      	ldr	r3, [r4, #0]
     cc4:	4620      	mov	r0, r4
     cc6:	603b      	str	r3, [r7, #0]
     cc8:	f000 f81e 	bl	d08 <kRemoveTimerNode>
     ccc:	f854 3c08 	ldr.w	r3, [r4, #-8]
     cd0:	b113      	cbz	r3, cd8 <TimerHandlerTask+0x64>
     cd2:	f854 0c04 	ldr.w	r0, [r4, #-4]
     cd6:	4798      	blx	r3
     cd8:	f854 3c10 	ldr.w	r3, [r4, #-16]
     cdc:	2b00      	cmp	r3, #0
     cde:	d0e8      	beq.n	cb2 <TimerHandlerTask+0x3e>
     ce0:	9301      	str	r3, [sp, #4]
     ce2:	f854 3c04 	ldr.w	r3, [r4, #-4]
     ce6:	2100      	movs	r1, #0
     ce8:	9300      	str	r3, [sp, #0]
     cea:	f854 3c08 	ldr.w	r3, [r4, #-8]
     cee:	68e2      	ldr	r2, [r4, #12]
     cf0:	f1a4 0010 	sub.w	r0, r4, #16
     cf4:	f000 f864 	bl	dc0 <kTimerInit>
     cf8:	e7db      	b.n	cb2 <TimerHandlerTask+0x3e>
     cfa:	bf00      	nop
     cfc:	20000e18 	andcs	r0, r0, r8, lsl lr
     d00:	e000ed00 	and	lr, r0, r0, lsl #26
     d04:	20000c34 	andcs	r0, r0, r4, lsr ip

00000d08 <kRemoveTimerNode>:
     d08:	b510      	push	{r4, lr}
     d0a:	b168      	cbz	r0, d28 <kRemoveTimerNode+0x20>
     d0c:	6803      	ldr	r3, [r0, #0]
     d0e:	b12b      	cbz	r3, d1c <kRemoveTimerNode+0x14>
     d10:	6904      	ldr	r4, [r0, #16]
     d12:	691a      	ldr	r2, [r3, #16]
     d14:	6841      	ldr	r1, [r0, #4]
     d16:	4422      	add	r2, r4
     d18:	611a      	str	r2, [r3, #16]
     d1a:	6059      	str	r1, [r3, #4]
     d1c:	6842      	ldr	r2, [r0, #4]
     d1e:	b122      	cbz	r2, d2a <kRemoveTimerNode+0x22>
     d20:	6013      	str	r3, [r2, #0]
     d22:	2300      	movs	r3, #0
     d24:	e9c0 3300 	strd	r3, r3, [r0]
     d28:	bd10      	pop	{r4, pc}
     d2a:	4a01      	ldr	r2, [pc, #4]	@ (d30 <kRemoveTimerNode+0x28>)
     d2c:	e7f8      	b.n	d20 <kRemoveTimerNode+0x18>
     d2e:	bf00      	nop
     d30:	20000c34 	andcs	r0, r0, r4, lsr ip

00000d34 <kTimeOut>:
     d34:	b530      	push	{r4, r5, lr}
     d36:	2900      	cmp	r1, #0
     d38:	d036      	beq.n	da8 <kTimeOut+0x74>
     d3a:	2800      	cmp	r0, #0
     d3c:	d037      	beq.n	dae <kTimeOut+0x7a>
     d3e:	4b1d      	ldr	r3, [pc, #116]	@ (db4 <kTimeOut+0x80>)
     d40:	681a      	ldr	r2, [r3, #0]
     d42:	2300      	movs	r3, #0
     d44:	62d3      	str	r3, [r2, #44]	@ 0x2c
     d46:	6882      	ldr	r2, [r0, #8]
     d48:	e9c0 1103 	strd	r1, r1, [r0, #12]
     d4c:	2a03      	cmp	r2, #3
     d4e:	e9c0 3300 	strd	r3, r3, [r0]
     d52:	d11a      	bne.n	d8a <kTimeOut+0x56>
     d54:	4c18      	ldr	r4, [pc, #96]	@ (db8 <kTimeOut+0x84>)
     d56:	6822      	ldr	r2, [r4, #0]
     d58:	b11a      	cbz	r2, d62 <kTimeOut+0x2e>
     d5a:	6915      	ldr	r5, [r2, #16]
     d5c:	6901      	ldr	r1, [r0, #16]
     d5e:	428d      	cmp	r5, r1
     d60:	d30b      	bcc.n	d7a <kTimeOut+0x46>
     d62:	6002      	str	r2, [r0, #0]
     d64:	b1f2      	cbz	r2, da4 <kTimeOut+0x70>
     d66:	6911      	ldr	r1, [r2, #16]
     d68:	6905      	ldr	r5, [r0, #16]
     d6a:	1b49      	subs	r1, r1, r5
     d6c:	6111      	str	r1, [r2, #16]
     d6e:	6851      	ldr	r1, [r2, #4]
     d70:	6041      	str	r1, [r0, #4]
     d72:	6050      	str	r0, [r2, #4]
     d74:	b933      	cbnz	r3, d84 <kTimeOut+0x50>
     d76:	6020      	str	r0, [r4, #0]
     d78:	e005      	b.n	d86 <kTimeOut+0x52>
     d7a:	1b49      	subs	r1, r1, r5
     d7c:	4613      	mov	r3, r2
     d7e:	6101      	str	r1, [r0, #16]
     d80:	6812      	ldr	r2, [r2, #0]
     d82:	e7e9      	b.n	d58 <kTimeOut+0x24>
     d84:	6018      	str	r0, [r3, #0]
     d86:	2000      	movs	r0, #0
     d88:	bd30      	pop	{r4, r5, pc}
     d8a:	4c0c      	ldr	r4, [pc, #48]	@ (dbc <kTimeOut+0x88>)
     d8c:	6822      	ldr	r2, [r4, #0]
     d8e:	2a00      	cmp	r2, #0
     d90:	d0e7      	beq.n	d62 <kTimeOut+0x2e>
     d92:	6915      	ldr	r5, [r2, #16]
     d94:	6901      	ldr	r1, [r0, #16]
     d96:	428d      	cmp	r5, r1
     d98:	d2e3      	bcs.n	d62 <kTimeOut+0x2e>
     d9a:	1b49      	subs	r1, r1, r5
     d9c:	4613      	mov	r3, r2
     d9e:	6101      	str	r1, [r0, #16]
     da0:	6812      	ldr	r2, [r2, #0]
     da2:	e7f4      	b.n	d8e <kTimeOut+0x5a>
     da4:	6043      	str	r3, [r0, #4]
     da6:	e7e5      	b.n	d74 <kTimeOut+0x40>
     da8:	f06f 0026 	mvn.w	r0, #38	@ 0x26
     dac:	e7ec      	b.n	d88 <kTimeOut+0x54>
     dae:	f06f 0001 	mvn.w	r0, #1
     db2:	e7e9      	b.n	d88 <kTimeOut+0x54>
     db4:	20000e18 	andcs	r0, r0, r8, lsl lr
     db8:	20000c34 	andcs	r0, r0, r4, lsr ip
     dbc:	20000c38 	andcs	r0, r0, r8, lsr ip

00000dc0 <kTimerInit>:
     dc0:	e92d 41f0 	stmdb	sp!, {r4, r5, r6, r7, r8, lr}
     dc4:	4688      	mov	r8, r1
     dc6:	4615      	mov	r5, r2
     dc8:	461e      	mov	r6, r3
     dca:	4604      	mov	r4, r0
     dcc:	b1c0      	cbz	r0, e00 <kTimerInit+0x40>
     dce:	b1bb      	cbz	r3, e00 <kTimerInit+0x40>
     dd0:	f7ff fdb8 	bl	944 <kEnterCR>
     dd4:	2303      	movs	r3, #3
     dd6:	4607      	mov	r7, r0
     dd8:	61a3      	str	r3, [r4, #24]
     dda:	9b06      	ldr	r3, [sp, #24]
     ddc:	4629      	mov	r1, r5
     dde:	60e3      	str	r3, [r4, #12]
     de0:	9b07      	ldr	r3, [sp, #28]
     de2:	e9c4 5507 	strd	r5, r5, [r4, #28]
     de6:	e9c4 3800 	strd	r3, r8, [r4]
     dea:	60a6      	str	r6, [r4, #8]
     dec:	f104 0010 	add.w	r0, r4, #16
     df0:	f7ff ffa0 	bl	d34 <kTimeOut>
     df4:	4638      	mov	r0, r7
     df6:	f7ff fdb3 	bl	960 <kExitCR>
     dfa:	2000      	movs	r0, #0
     dfc:	e8bd 81f0 	ldmia.w	sp!, {r4, r5, r6, r7, r8, pc}
     e00:	f06f 0001 	mvn.w	r0, #1
     e04:	e7fa      	b.n	dfc <kTimerInit+0x3c>
	...

00000e08 <kSleep>:
     e08:	b570      	push	{r4, r5, r6, lr}
     e0a:	4606      	mov	r6, r0
     e0c:	f7ff fd9a 	bl	944 <kEnterCR>
     e10:	4b0d      	ldr	r3, [pc, #52]	@ (e48 <kSleep+0x40>)
     e12:	4605      	mov	r5, r0
     e14:	681c      	ldr	r4, [r3, #0]
     e16:	2302      	movs	r3, #2
     e18:	6423      	str	r3, [r4, #64]	@ 0x40
     e1a:	2300      	movs	r3, #0
     e1c:	4631      	mov	r1, r6
     e1e:	64e3      	str	r3, [r4, #76]	@ 0x4c
     e20:	f104 0038 	add.w	r0, r4, #56	@ 0x38
     e24:	f7ff ff86 	bl	d34 <kTimeOut>
     e28:	2304      	movs	r3, #4
     e2a:	4a08      	ldr	r2, [pc, #32]	@ (e4c <kSleep+0x44>)
     e2c:	6063      	str	r3, [r4, #4]
     e2e:	6853      	ldr	r3, [r2, #4]
     e30:	f043 5380 	orr.w	r3, r3, #268435456	@ 0x10000000
     e34:	6053      	str	r3, [r2, #4]
     e36:	f3bf 8f4f 	dsb	sy
     e3a:	f3bf 8f6f 	isb	sy
     e3e:	4628      	mov	r0, r5
     e40:	e8bd 4070 	ldmia.w	sp!, {r4, r5, r6, lr}
     e44:	f7ff bd8c 	b.w	960 <kExitCR>
     e48:	20000e18 	andcs	r0, r0, r8, lsl lr
     e4c:	e000ed00 	and	lr, r0, r0, lsl #26

00000e50 <kSleepUntil>:
     e50:	e92d 41f0 	stmdb	sp!, {r4, r5, r6, r7, r8, lr}
     e54:	4604      	mov	r4, r0
     e56:	f7ff fd75 	bl	944 <kEnterCR>
     e5a:	4607      	mov	r7, r0
     e5c:	b384      	cbz	r4, ec0 <kSleepUntil+0x70>
     e5e:	f8df 8068 	ldr.w	r8, [pc, #104]	@ ec8 <kSleepUntil+0x78>
     e62:	4b1a      	ldr	r3, [pc, #104]	@ (ecc <kSleepUntil+0x7c>)
     e64:	f8d8 6000 	ldr.w	r6, [r8]
     e68:	681b      	ldr	r3, [r3, #0]
     e6a:	6a75      	ldr	r5, [r6, #36]	@ 0x24
     e6c:	4425      	add	r5, r4
     e6e:	42ab      	cmp	r3, r5
     e70:	d917      	bls.n	ea2 <kSleepUntil+0x52>
     e72:	18e5      	adds	r5, r4, r3
     e74:	2302      	movs	r3, #2
     e76:	6433      	str	r3, [r6, #64]	@ 0x40
     e78:	2300      	movs	r3, #0
     e7a:	4621      	mov	r1, r4
     e7c:	64f3      	str	r3, [r6, #76]	@ 0x4c
     e7e:	f106 0038 	add.w	r0, r6, #56	@ 0x38
     e82:	f7ff ff57 	bl	d34 <kTimeOut>
     e86:	4604      	mov	r4, r0
     e88:	b980      	cbnz	r0, eac <kSleepUntil+0x5c>
     e8a:	2304      	movs	r3, #4
     e8c:	4a10      	ldr	r2, [pc, #64]	@ (ed0 <kSleepUntil+0x80>)
     e8e:	6073      	str	r3, [r6, #4]
     e90:	6853      	ldr	r3, [r2, #4]
     e92:	f043 5380 	orr.w	r3, r3, #268435456	@ 0x10000000
     e96:	6053      	str	r3, [r2, #4]
     e98:	f3bf 8f4f 	dsb	sy
     e9c:	f3bf 8f6f 	isb	sy
     ea0:	e000      	b.n	ea4 <kSleepUntil+0x54>
     ea2:	d1e7      	bne.n	e74 <kSleepUntil+0x24>
     ea4:	2400      	movs	r4, #0
     ea6:	f8d8 3000 	ldr.w	r3, [r8]
     eaa:	625d      	str	r5, [r3, #36]	@ 0x24
     eac:	f3bf 8f4f 	dsb	sy
     eb0:	4638      	mov	r0, r7
     eb2:	f7ff fd55 	bl	960 <kExitCR>
     eb6:	f3bf 8f6f 	isb	sy
     eba:	4620      	mov	r0, r4
     ebc:	e8bd 81f0 	ldmia.w	sp!, {r4, r5, r6, r7, r8, pc}
     ec0:	f06f 0426 	mvn.w	r4, #38	@ 0x26
     ec4:	e7f2      	b.n	eac <kSleepUntil+0x5c>
     ec6:	bf00      	nop
     ec8:	20000e18 	andcs	r0, r0, r8, lsl lr
     ecc:	20000c50 	andcs	r0, r0, r0, asr ip
     ed0:	e000ed00 	and	lr, r0, r0, lsl #26

00000ed4 <kTimeOutReadyTask>:
     ed4:	b507      	push	{r0, r1, r2, lr}
     ed6:	4603      	mov	r3, r0
     ed8:	f1a0 0138 	sub.w	r1, r0, #56	@ 0x38
     edc:	6940      	ldr	r0, [r0, #20]
     ede:	9101      	str	r1, [sp, #4]
     ee0:	b1c8      	cbz	r0, f16 <kTimeOutReadyTask+0x42>
     ee2:	a901      	add	r1, sp, #4
     ee4:	f7ff fc62 	bl	7ac <kTCBQRem>
     ee8:	b120      	cbz	r0, ef4 <kTimeOutReadyTask+0x20>
     eea:	f04f 30ff 	mov.w	r0, #4294967295	@ 0xffffffff
     eee:	b003      	add	sp, #12
     ef0:	f85d fb04 	ldr.w	pc, [sp], #4
     ef4:	2014      	movs	r0, #20
     ef6:	9901      	ldr	r1, [sp, #4]
     ef8:	4b0f      	ldr	r3, [pc, #60]	@ (f38 <kTimeOutReadyTask+0x64>)
     efa:	7e4a      	ldrb	r2, [r1, #25]
     efc:	fb00 3002 	mla	r0, r0, r2, r3
     f00:	f7ff fd36 	bl	970 <kTCBQEnq>
     f04:	b928      	cbnz	r0, f12 <kTimeOutReadyTask+0x3e>
     f06:	2201      	movs	r2, #1
     f08:	9b01      	ldr	r3, [sp, #4]
     f0a:	62da      	str	r2, [r3, #44]	@ 0x2c
     f0c:	605a      	str	r2, [r3, #4]
     f0e:	6418      	str	r0, [r3, #64]	@ 0x40
     f10:	64d8      	str	r0, [r3, #76]	@ 0x4c
     f12:	2000      	movs	r0, #0
     f14:	e7eb      	b.n	eee <kTimeOutReadyTask+0x1a>
     f16:	2014      	movs	r0, #20
     f18:	f813 2c1f 	ldrb.w	r2, [r3, #-31]
     f1c:	4b06      	ldr	r3, [pc, #24]	@ (f38 <kTimeOutReadyTask+0x64>)
     f1e:	fb00 3002 	mla	r0, r0, r2, r3
     f22:	f7ff fd25 	bl	970 <kTCBQEnq>
     f26:	2800      	cmp	r0, #0
     f28:	d1df      	bne.n	eea <kTimeOutReadyTask+0x16>
     f2a:	2201      	movs	r2, #1
     f2c:	9b01      	ldr	r3, [sp, #4]
     f2e:	62d8      	str	r0, [r3, #44]	@ 0x2c
     f30:	605a      	str	r2, [r3, #4]
     f32:	6418      	str	r0, [r3, #64]	@ 0x40
     f34:	e7ed      	b.n	f12 <kTimeOutReadyTask+0x3e>
     f36:	bf00      	nop
     f38:	20000e1c 	andcs	r0, r0, ip, lsl lr

00000f3c <kRemoveTimeoutNode>:
     f3c:	b510      	push	{r4, lr}
     f3e:	b168      	cbz	r0, f5c <kRemoveTimeoutNode+0x20>
     f40:	6803      	ldr	r3, [r0, #0]
     f42:	b12b      	cbz	r3, f50 <kRemoveTimeoutNode+0x14>
     f44:	6904      	ldr	r4, [r0, #16]
     f46:	691a      	ldr	r2, [r3, #16]
     f48:	6841      	ldr	r1, [r0, #4]
     f4a:	4422      	add	r2, r4
     f4c:	611a      	str	r2, [r3, #16]
     f4e:	6059      	str	r1, [r3, #4]
     f50:	6842      	ldr	r2, [r0, #4]
     f52:	b122      	cbz	r2, f5e <kRemoveTimeoutNode+0x22>
     f54:	6013      	str	r3, [r2, #0]
     f56:	2300      	movs	r3, #0
     f58:	e9c0 3300 	strd	r3, r3, [r0]
     f5c:	bd10      	pop	{r4, pc}
     f5e:	4a01      	ldr	r2, [pc, #4]	@ (f64 <kRemoveTimeoutNode+0x28>)
     f60:	e7f8      	b.n	f54 <kRemoveTimeoutNode+0x18>
     f62:	bf00      	nop
     f64:	20000c38 	andcs	r0, r0, r8, lsr ip

00000f68 <kHandleTimeoutList>:
     f68:	b538      	push	{r3, r4, r5, lr}
     f6a:	4c0d      	ldr	r4, [pc, #52]	@ (fa0 <kHandleTimeoutList+0x38>)
     f6c:	6823      	ldr	r3, [r4, #0]
     f6e:	691a      	ldr	r2, [r3, #16]
     f70:	b112      	cbz	r2, f78 <kHandleTimeoutList+0x10>
     f72:	691a      	ldr	r2, [r3, #16]
     f74:	3a01      	subs	r2, #1
     f76:	611a      	str	r2, [r3, #16]
     f78:	f04f 33ff 	mov.w	r3, #4294967295	@ 0xffffffff
     f7c:	4d09      	ldr	r5, [pc, #36]	@ (fa4 <kHandleTimeoutList+0x3c>)
     f7e:	6820      	ldr	r0, [r4, #0]
     f80:	b108      	cbz	r0, f86 <kHandleTimeoutList+0x1e>
     f82:	6902      	ldr	r2, [r0, #16]
     f84:	b11a      	cbz	r2, f8e <kHandleTimeoutList+0x26>
     f86:	fab3 f083 	clz	r0, r3
     f8a:	0940      	lsrs	r0, r0, #5
     f8c:	bd38      	pop	{r3, r4, r5, pc}
     f8e:	6803      	ldr	r3, [r0, #0]
     f90:	6028      	str	r0, [r5, #0]
     f92:	6023      	str	r3, [r4, #0]
     f94:	f7ff ffd2 	bl	f3c <kRemoveTimeoutNode>
     f98:	f7ff ff9c 	bl	ed4 <kTimeOutReadyTask>
     f9c:	4603      	mov	r3, r0
     f9e:	e7ee      	b.n	f7e <kHandleTimeoutList+0x16>
     fa0:	20000c38 	andcs	r0, r0, r8, lsr ip
     fa4:	2000105c 	andcs	r1, r0, ip, asr r0

00000fa8 <kGetVersion>:
     fa8:	f44f 6080 	mov.w	r0, #1024	@ 0x400
     fac:	4770      	bx	lr
	...

00000fb0 <kErrHandler>:
     fb0:	4b01      	ldr	r3, [pc, #4]	@ (fb8 <kErrHandler+0x8>)
     fb2:	6018      	str	r0, [r3, #0]
     fb4:	b672      	cpsid	i
     fb6:	e7fe      	b.n	fb6 <kErrHandler+0x6>
     fb8:	20001060 	andcs	r1, r0, r0, rrx

00000fbc <memset>:
     fbc:	4603      	mov	r3, r0
     fbe:	4402      	add	r2, r0
     fc0:	4293      	cmp	r3, r2
     fc2:	d100      	bne.n	fc6 <memset+0xa>
     fc4:	4770      	bx	lr
     fc6:	f803 1b01 	strb.w	r1, [r3], #1
     fca:	e7f9      	b.n	fc0 <memset+0x4>

00000fcc <memcpy>:
     fcc:	440a      	add	r2, r1
     fce:	4291      	cmp	r1, r2
     fd0:	f100 33ff 	add.w	r3, r0, #4294967295	@ 0xffffffff
     fd4:	d100      	bne.n	fd8 <memcpy+0xc>
     fd6:	4770      	bx	lr
     fd8:	b510      	push	{r4, lr}
     fda:	f811 4b01 	ldrb.w	r4, [r1], #1
     fde:	4291      	cmp	r1, r2
     fe0:	f803 4f01 	strb.w	r4, [r3, #1]!
     fe4:	d1f9      	bne.n	fda <memcpy+0xe>
     fe6:	bd10      	pop	{r4, pc}
     fe8:	6b736154 	blvs	1cd9540 <__exidx_end+0x1cd84cc>
     fec:	77203120 	strvc	r3, [r0, -r0, lsr #2]!
     ff0:	206c6c69 	rsbcs	r6, ip, r9, ror #24
     ff4:	636f6c62 	cmnvs	pc, #25088	@ 0x6200
     ff8:	000d0a6b 	andeq	r0, sp, fp, ror #20
     ffc:	6b736154 	blvs	1cd9554 <__exidx_end+0x1cd84e0>
    1000:	53203120 			@ <UNDEFINED> instruction: 0x53203120
    1004:	616e6769 	cmnvs	lr, r9, ror #14
    1008:	64656c6c 	strbtvs	r6, [r5], #-3180	@ 0xfffff394
    100c:	54000d0a 	strpl	r0, [r0], #-3338	@ 0xfffff2f6
    1010:	206b7361 	rsbcs	r7, fp, r1, ror #6
    1014:	75722032 	ldrbvc	r2, [r2, #-50]!	@ 0xffffffce
    1018:	6e696e6e 	cdpvs	14, 6, cr6, cr9, cr14, {3}
    101c:	000a0d67 	andeq	r0, sl, r7, ror #26
    1020:	6b736154 	blvs	1cd9578 <__exidx_end+0x1cd8504>
    1024:	72203320 	eorvc	r3, r0, #32, 6	@ 0x80000000
    1028:	696e6e75 	stmdbvs	lr!, {r0, r2, r4, r5, r6, r9, sl, fp, sp, lr}^
    102c:	0a0d676e 	beq	35adec <__exidx_end+0x359d78>
    1030:	73615400 	cmnvc	r1, #0, 8
    1034:	5400316b 	strpl	r3, [r0], #-363	@ 0xfffffe95
    1038:	326b7361 	rsbcc	r7, fp, #-2080374783	@ 0x84000001
    103c:	73615400 	cmnvc	r1, #0, 8
    1040:	6d00336b 	stcvs	3, cr3, [r0, #-428]	@ 0xfffffe54
    1044:	716c6961 	cmnvc	ip, r1, ror #18
    1048:	6c644900 			@ <UNDEFINED> instruction: 0x6c644900
    104c:	73615465 	cmnvc	r1, #1694498816	@ 0x65000000
    1050:	6954006b 	ldmdbvs	r4, {r0, r1, r3, r5, r6}^
    1054:	6e61486d 	cdpvs	8, 6, cr4, cr1, cr13, {3}
    1058:	72656c64 	rsbvc	r6, r5, #100, 24	@ 0x6400
    105c:	6b736154 	blvs	1cd95b4 <__exidx_end+0x1cd8540>
    1060:	61655200 	cmnvs	r5, r0, lsl #4
    1064:	00517964 	subseq	r7, r1, r4, ror #18

00001068 <KVERSION>:
    1068:	00000400 	andeq	r0, r0, r0, lsl #8

Disassembly of section .init:

0000106c <_init>:
    106c:	b5f8      	push	{r3, r4, r5, r6, r7, lr}
    106e:	bf00      	nop

Disassembly of section .fini:

00001070 <_fini>:
    1070:	b5f8      	push	{r3, r4, r5, r6, r7, lr}
    1072:	bf00      	nop

Disassembly of section .bss:

20000000 <stack3>:
	...

20000400 <stack2>:
	...

20000800 <stack1>:
	...

20000c00 <mbox>:
	...

20000c24 <task3Handle>:
20000c24:	00000000 	andeq	r0, r0, r0

20000c28 <task2Handle>:
20000c28:	00000000 	andeq	r0, r0, r0

20000c2c <task1Handle>:
20000c2c:	00000000 	andeq	r0, r0, r0

20000c30 <timerListHeadPtrSaved>:
20000c30:	00000000 	andeq	r0, r0, r0

20000c34 <timerListHeadPtr>:
20000c34:	00000000 	andeq	r0, r0, r0

20000c38 <timeOutListHeadPtr>:
20000c38:	00000000 	andeq	r0, r0, r0

20000c3c <pPid>:
20000c3c:	00000000 	andeq	r0, r0, r0

20000c40 <version>:
20000c40:	00000000 	andeq	r0, r0, r0

20000c44 <readyQRightMask>:
20000c44:	00000000 	andeq	r0, r0, r0

20000c48 <readyQBitMask>:
20000c48:	00000000 	andeq	r0, r0, r0

20000c4c <nextTaskPrio>:
	...

20000c4d <highestPrio>:
20000c4d:	 	andeq	r0, r0, r0

20000c50 <runTime>:
	...

20000c58 <idleTaskHandle>:
20000c58:	00000000 	andeq	r0, r0, r0

20000c5c <timTaskHandle>:
20000c5c:	00000000 	andeq	r0, r0, r0

20000c60 <tcbs>:
	...

20000e18 <runPtr>:
20000e18:	00000000 	andeq	r0, r0, r0

20000e1c <readyQueue>:
	...

20000e58 <idleTicks>:
20000e58:	00000000 	andeq	r0, r0, r0

20000e5c <timerHandlerStack>:
	...

20000f5c <idleStack>:
	...

2000105c <node>:
2000105c:	00000000 	andeq	r0, r0, r0

20001060 <faultID>:
20001060:	00000000 	andeq	r0, r0, r0

Disassembly of section ._user_heap_stack:

20001064 <end-0x4>:
20001064:	00000000 	andeq	r0, r0, r0

20001068 <end>:
	...

Disassembly of section .ARM.attributes:

00000000 <.ARM.attributes>:
   0:	00002841 	andeq	r2, r0, r1, asr #16
   4:	61656100 	cmnvs	r5, r0, lsl #2
   8:	01006962 	tsteq	r0, r2, ror #18
   c:	0000001e 	andeq	r0, r0, lr, lsl r0
  10:	4d2d3705 	stcmi	7, cr3, [sp, #-20]!	@ 0xffffffec
  14:	070a0600 	streq	r0, [sl, -r0, lsl #12]
  18:	1202094d 	andne	r0, r2, #1261568	@ 0x134000
  1c:	15011404 	strne	r1, [r1, #-1028]	@ 0xfffffbfc
  20:	18031701 	stmdane	r3, {r0, r8, r9, sl, ip}
  24:	22011a01 	andcs	r1, r1, #4096	@ 0x1000
  28:	Address 0x28 is out of bounds.


Disassembly of section .comment:

00000000 <.comment>:
   0:	3a434347 	bcc	10d0d24 <__exidx_end+0x10cfcb0>
   4:	4e472820 	cdpmi	8, 4, cr2, cr7, cr0, {1}
   8:	6f542055 	svcvs	0x00542055
   c:	20736c6f 	rsbscs	r6, r3, pc, ror #24
  10:	20726f66 	rsbscs	r6, r2, r6, ror #30
  14:	334d5453 	movtcc	r5, #54355	@ 0xd453
  18:	32312032 	eorscc	r2, r1, #50	@ 0x32
  1c:	722e332e 	eorvc	r3, lr, #-1207959552	@ 0xb8000000
  20:	2e316c65 	cdpcs	12, 3, cr6, cr1, cr5, {3}
  24:	34323032 	ldrtcc	r3, [r2], #-50	@ 0xffffffce
  28:	36323930 			@ <UNDEFINED> instruction: 0x36323930
  2c:	3137312d 	teqcc	r7, sp, lsr #2
  30:	31202935 			@ <UNDEFINED> instruction: 0x31202935
  34:	2e332e32 	mrccs	14, 1, r2, cr3, cr2, {1}
  38:	30322031 	eorscc	r2, r2, r1, lsr r0
  3c:	36303332 			@ <UNDEFINED> instruction: 0x36303332
  40:	Address 0x40 is out of bounds.


Disassembly of section .debug_info:

00000000 <.debug_info>:
       0:	00000734 	andeq	r0, r0, r4, lsr r7
       4:	04010005 	streq	r0, [r1], #-5
       8:	00000000 	andeq	r0, r0, r0
       c:	00026514 	andeq	r6, r2, r4, lsl r5
      10:	03391d00 	teqeq	r9, #0, 26
      14:	03710000 	cmneq	r1, #0
      18:	00240000 	eoreq	r0, r4, r0
	...
      24:	04150000 	ldreq	r0, [r5], #-0
      28:	746e6905 	strbtvc	r6, [lr], #-2309	@ 0xfffff6fb
      2c:	07040500 	streq	r0, [r4, -r0, lsl #10]
      30:	00000086 	andeq	r0, r0, r6, lsl #1
      34:	00002d16 	andeq	r2, r0, r6, lsl sp
      38:	05080500 	streq	r0, [r8, #-1280]	@ 0xfffffb00
      3c:	000000a1 	andeq	r0, r0, r1, lsr #1
      40:	68040805 	stmdavs	r4, {r0, r2, fp}
      44:	05000001 	streq	r0, [r0, #-1]
      48:	018c0601 	orreq	r0, ip, r1, lsl #12
      4c:	01050000 	mrseq	r0, (UNDEF: 5)
      50:	00018a08 	andeq	r8, r1, r8, lsl #20
      54:	05020500 	streq	r0, [r2, #-1280]	@ 0xfffffb00
      58:	000000ca 	andeq	r0, r0, sl, asr #1
      5c:	d6070205 	strle	r0, [r7], -r5, lsl #4
      60:	05000001 	streq	r0, [r0, #-1]
      64:	00a60504 	adceq	r0, r6, r4, lsl #10
      68:	04050000 	streq	r0, [r5], #-0
      6c:	00008107 	andeq	r8, r0, r7, lsl #2
      70:	07080500 	streq	r0, [r8, -r0, lsl #10]
      74:	0000007c 	andeq	r0, r0, ip, ror r0
      78:	01050417 	tsteq	r5, r7, lsl r4
      7c:	00019308 	andeq	r9, r1, r8, lsl #6
      80:	007a0a00 	rsbseq	r0, sl, r0, lsl #20
      84:	81040000 	mrshi	r0, (UNDEF: 4)
      88:	18000000 	stmdane	r0, {}	@ <UNPREDICTABLE>
      8c:	092a0210 	stmdbeq	sl!, {r4, r9}
      90:	000000c9 	andeq	r0, r0, r9, asr #1
      94:	0001a701 	andeq	sl, r1, r1, lsl #14
      98:	172c0200 	strne	r0, [ip, -r0, lsl #4]!
      9c:	00000034 	andeq	r0, r0, r4, lsr r0
      a0:	03290100 			@ <UNDEFINED> instruction: 0x03290100
      a4:	2d020000 	stccs	0, cr0, [r2, #-0]
      a8:	00003417 	andeq	r3, r0, r7, lsl r4
      ac:	560e0400 	strpl	r0, [lr], -r0, lsl #8
      b0:	02004c41 	andeq	r4, r0, #16640	@ 0x4100
      b4:	0034172e 	eorseq	r1, r4, lr, lsr #14
      b8:	01080000 	mrseq	r0, (UNDEF: 8)
      bc:	00000138 	andeq	r0, r0, r8, lsr r1
      c0:	34172f02 	ldrcc	r2, [r7], #-3842	@ 0xfffff0fe
      c4:	0c000000 	stceq	0, cr0, [r0], {-0}
      c8:	034f0200 	movteq	r0, #61952	@ 0xf200
      cc:	30020000 	andcc	r0, r2, r0
      d0:	00008b03 	andeq	r8, r0, r3, lsl #22
      d4:	01bf1900 			@ <UNDEFINED> instruction: 0x01bf1900
      d8:	1b030000 	blne	c00e0 <__exidx_end+0xbf06c>
      dc:	0146020e 	cmpeq	r6, lr, lsl #4
      e0:	1c030000 	stcne	0, cr0, [r3], {-0}
      e4:	00007a0e 	andeq	r7, r0, lr, lsl #20
      e8:	4e491a00 	vmlami.f32	s3, s18, s0
      ec:	1e030054 	mcrne	0, 0, r0, cr3, cr4, {2}
      f0:	00002610 	andeq	r2, r0, r0, lsl r6
      f4:	01540200 	cmpeq	r4, r0, lsl #4
      f8:	1f030000 	svcne	0x00030000
      fc:	00002d12 	andeq	r2, r0, r2, lsl sp
     100:	01ac0200 			@ <UNDEFINED> instruction: 0x01ac0200
     104:	20030000 	andcs	r0, r3, r0
     108:	00006a17 	andeq	r6, r0, r7, lsl sl
     10c:	01ad0200 			@ <UNDEFINED> instruction: 0x01ad0200
     110:	21030000 	mrscs	r0, (UNDEF: 3)
     114:	0000630e 	andeq	r6, r0, lr, lsl #6
     118:	006b0200 	rsbeq	r0, fp, r0, lsl #4
     11c:	22030000 	andcs	r0, r3, #0
     120:	0000780f 	andeq	r7, r0, pc, lsl #16
     124:	01190a00 	tsteq	r9, r0, lsl #20
     128:	11020000 	mrsne	r0, (UNDEF: 2)
     12c:	03000000 	movweq	r0, #0
     130:	002d1226 	eoreq	r1, sp, r6, lsr #4
     134:	2f020000 	svccs	0x00020000
     138:	03000002 	movweq	r0, #2
     13c:	004e1752 	subeq	r1, lr, r2, asr r7
     140:	3e020000 	cdpcc	0, 0, cr0, cr2, cr0, {0}
     144:	03000001 	movweq	r0, #1
     148:	004e1753 	subeq	r1, lr, r3, asr r7
     14c:	14020000 	strne	r0, [r2], #-0
     150:	03000003 	movweq	r0, #3
     154:	006a1754 	rsbeq	r1, sl, r4, asr r7
     158:	4e0a0000 	cdpmi	0, 0, cr0, cr10, cr0, {0}
     15c:	02000001 	andeq	r0, r0, #1
     160:	00000159 	andeq	r0, r0, r9, asr r1
     164:	0d0e8703 	stceq	7, cr8, [lr, #-12]
     168:	02000001 	andeq	r0, r0, #1
     16c:	000002e0 	andeq	r0, r0, r0, ror #5
     170:	010fc803 	tsteq	pc, r3, lsl #16
     174:	02000001 	andeq	r0, r0, #1
     178:	000002fa 	strdeq	r0, [r0], -sl
     17c:	010fd603 	tsteq	pc, r3, lsl #12
     180:	0b000001 	bleq	18c <uart_print+0x28>
     184:	00000198 	muleq	r0, r8, r1
     188:	02694258 	rsbeq	r4, r9, #88, 4	@ 0x80000005
     18c:	730e0000 	movwvc	r0, #57344	@ 0xe000
     190:	45040070 	strmi	r0, [r4, #-112]	@ 0xffffff90
     194:	0003b10a 	andeq	fp, r3, sl, lsl #2
     198:	e9010000 	stmdb	r1, {}	@ <UNPREDICTABLE>
     19c:	04000001 	streq	r0, [r0], #-1
     1a0:	016b1446 	cmneq	fp, r6, asr #8
     1a4:	01040000 	mrseq	r0, (UNDEF: 4)
     1a8:	000001f8 	strdeq	r0, [r0], -r8
     1ac:	010b4704 	tsteq	fp, r4, lsl #14
     1b0:	08000001 	stmdaeq	r0, {r0}
     1b4:	00014b01 	andeq	r4, r1, r1, lsl #22
     1b8:	0b490400 	bleq	12411c0 <__exidx_end+0x124014c>
     1bc:	000003ac 	andeq	r0, r0, ip, lsr #7
     1c0:	0210010c 	andseq	r0, r0, #12, 2
     1c4:	4a040000 	bmi	1001cc <__exidx_end+0xff158>
     1c8:	0003b10a 	andeq	fp, r3, sl, lsl #2
     1cc:	95011000 	strls	r1, [r1, #-0]
     1d0:	04000003 	streq	r0, [r0], #-3
     1d4:	00f50a4b 	rscseq	r0, r5, fp, asr #20
     1d8:	0e140000 	cdpeq	0, 1, cr0, cr4, cr0, {0}
     1dc:	00646970 	rsbeq	r6, r4, r0, ror r9
     1e0:	360c4c04 	strcc	r4, [ip], -r4, lsl #24
     1e4:	18000001 	stmdane	r0, {r0}
     1e8:	00010d01 	andeq	r0, r1, r1, lsl #26
     1ec:	0d4d0400 	cfstrdeq	mvd0, [sp, #-0]
     1f0:	00000142 	andeq	r0, r0, r2, asr #2
     1f4:	01290119 			@ <UNDEFINED> instruction: 0x01290119
     1f8:	52040000 	andpl	r0, r4, #0
     1fc:	00012a0a 	andeq	r2, r1, sl, lsl #20
     200:	74011c00 	strvc	r1, [r1], #-3072	@ 0xfffff400
     204:	04000001 	streq	r0, [r0], #-1
     208:	014e0d62 	cmpeq	lr, r2, ror #26
     20c:	01200000 			@ <UNDEFINED> instruction: 0x01200000
     210:	00000100 	andeq	r0, r0, r0, lsl #2
     214:	4e0d6404 	cdpmi	4, 0, cr6, cr13, cr4, {0}
     218:	24000001 	strcs	r0, [r0], #-1
     21c:	00011e01 	andeq	r1, r1, r1, lsl #28
     220:	0a660400 	beq	1981228 <__exidx_end+0x19801b4>
     224:	0000012a 	andeq	r0, r0, sl, lsr #2
     228:	021d0128 	andseq	r0, sp, #40, 2
     22c:	67040000 	strvs	r0, [r4, -r0]
     230:	00012a0a 	andeq	r2, r1, sl, lsl #20
     234:	ef012c00 	svc	0x00012c00
     238:	04000002 	streq	r0, [r0], #-2
     23c:	00f50a69 	rscseq	r0, r5, r9, ror #20
     240:	01300000 	teqeq	r0, r0
     244:	00000243 	andeq	r0, r0, r3, asr #4
     248:	360c6a04 	strcc	r6, [ip], -r4, lsl #20
     24c:	34000001 	strcc	r0, [r0], #-1
     250:	0000db0d 	andeq	sp, r0, sp, lsl #22
     254:	eb196b00 	bl	65ae5c <__exidx_end+0x659de8>
     258:	38000002 	stmdacc	r0, {r1}
     25c:	0001ce0d 	andeq	ip, r1, sp, lsl #28
     260:	b4166c00 	ldrlt	r6, [r6], #-3072	@ 0xfffff400
     264:	50000002 	andpl	r0, r0, r2
     268:	00220200 	eoreq	r0, r2, r0, lsl #4
     26c:	ec030000 	stc	0, cr0, [r3], {-0}
     270:	00027516 	andeq	r7, r2, r6, lsl r5
     274:	00fa0b00 	rscseq	r0, sl, r0, lsl #22
     278:	3a140000 	bcc	500280 <__exidx_end+0x4ff20c>
     27c:	000002b4 			@ <UNDEFINED> instruction: 0x000002b4
     280:	00030a0d 	andeq	r0, r3, sp, lsl #20
     284:	b4163c00 	ldrlt	r3, [r6], #-3072	@ 0xfffff400
     288:	00000002 	andeq	r0, r0, r2
     28c:	00009301 	andeq	r9, r0, r1, lsl #6
     290:	0b3d0400 	bleq	f41298 <__exidx_end+0xf40224>
     294:	000003ac 	andeq	r0, r0, ip, lsr #7
     298:	03050108 	movweq	r0, #20744	@ 0x5108
     29c:	3e040000 	cdpcc	0, 0, cr0, cr4, cr0, {0}
     2a0:	0001010b 	andeq	r0, r1, fp, lsl #2
     2a4:	b6010c00 	strlt	r0, [r1], -r0, lsl #24
     2a8:	04000003 	streq	r0, [r0], #-3
     2ac:	012a0a3f 			@ <UNDEFINED> instruction: 0x012a0a3f
     2b0:	00100000 	andseq	r0, r0, r0
     2b4:	0002250b 	andeq	r2, r2, fp, lsl #10
     2b8:	da340800 	ble	d022c0 <__exidx_end+0xd0124c>
     2bc:	01000002 	tsteq	r0, r2
     2c0:	00000116 	andeq	r0, r0, r6, lsl r1
     2c4:	a7173604 	ldrge	r3, [r7, -r4, lsl #12]
     2c8:	00000003 	andeq	r0, r0, r3
     2cc:	00020801 	andeq	r0, r2, r1, lsl #16
     2d0:	17370400 	ldrne	r0, [r7, -r0, lsl #8]!
     2d4:	000003a7 	andeq	r0, r0, r7, lsr #7
     2d8:	2a020004 	bcs	802f0 <__exidx_end+0x7f27c>
     2dc:	03000000 	movweq	r0, #0
     2e0:	02e616ef 	rsceq	r1, r6, #250609664	@ 0xef00000
     2e4:	83040000 	movwhi	r0, #16384	@ 0x4000
     2e8:	0b000001 	bleq	2f4 <Reset_Handler+0x28>
     2ec:	00000236 	andeq	r0, r0, r6, lsr r2
     2f0:	03451f18 	movteq	r1, #24344	@ 0x5f18
     2f4:	16010000 	strne	r0, [r1], -r0
     2f8:	04000001 	streq	r0, [r0], #-1
     2fc:	039d1a21 	orrseq	r1, sp, #135168	@ 0x21000
     300:	01000000 	mrseq	r0, (UNDEF: 0)
     304:	00000208 	andeq	r0, r0, r8, lsl #4
     308:	9d1a2204 	lfmls	f2, 4, [sl, #-16]
     30c:	04000003 	streq	r0, [r0], #-3
     310:	00001601 	andeq	r1, r0, r1, lsl #12
     314:	0a230400 	beq	8c131c <__exidx_end+0x8c02a8>
     318:	000000f5 	strdeq	r0, [r0], -r5
     31c:	03ae0108 			@ <UNDEFINED> instruction: 0x03ae0108
     320:	24040000 	strcs	r0, [r4], #-0
     324:	00014e0d 	andeq	r4, r1, sp, lsl #28
     328:	64010c00 	strvs	r0, [r1], #-3072	@ 0xfffff400
     32c:	04000003 	streq	r0, [r0], #-3
     330:	014e0d25 	cmpeq	lr, r5, lsr #26
     334:	01100000 	tsteq	r0, r0
     338:	000000ba 	strheq	r0, [r0], -sl
     33c:	a20e2604 	andge	r2, lr, #4, 12	@ 0x400000
     340:	14000003 	strne	r0, [r0], #-3
     344:	00390200 	eorseq	r0, r9, r0, lsl #4
     348:	fe030000 	cdp2	0, 0, cr0, cr3, cr0, {0}
     34c:	00035119 	andeq	r5, r3, r9, lsl r1
     350:	01ff0b00 	mvnseq	r0, r0, lsl #22
     354:	ad240000 	stcge	0, cr0, [r4, #-0]
     358:	0000039d 	muleq	r0, sp, r3
     35c:	00032e01 	andeq	r2, r3, r1, lsl #28
     360:	10af0400 	adcne	r0, pc, r0, lsl #8
     364:	00000177 	andeq	r0, r0, r7, ror r1
     368:	03b60100 			@ <UNDEFINED> instruction: 0x03b60100
     36c:	b0040000 	andlt	r0, r4, r0
     370:	00012a0a 	andeq	r2, r1, sl, lsl #20
     374:	60010400 	andvs	r0, r1, r0, lsl #8
     378:	04000001 	streq	r0, [r0], #-1
     37c:	01190ab1 			@ <UNDEFINED> instruction: 0x01190ab1
     380:	0d080000 	stceq	0, cr0, [r8, #-0]
     384:	000001b2 			@ <UNDEFINED> instruction: 0x000001b2
     388:	027512b2 	rsbseq	r1, r5, #536870923	@ 0x2000000b
     38c:	010c0000 	mrseq	r0, (UNDEF: 12)
     390:	0000019d 	muleq	r0, sp, r1
     394:	e612b304 	ldr	fp, [r2], -r4, lsl #6
     398:	20000002 	andcs	r0, r0, r2
     39c:	02eb0400 	rsceq	r0, fp, #0, 8
     3a0:	69040000 	stmdbvs	r4, {}	@ <UNPREDICTABLE>
     3a4:	04000002 	streq	r0, [r0], #-2
     3a8:	000002b4 			@ <UNDEFINED> instruction: 0x000002b4
     3ac:	0000dd04 	andeq	sp, r0, r4, lsl #26
     3b0:	00e90400 	rsceq	r0, r9, r0, lsl #8
     3b4:	e91b0000 	ldmdb	fp, {}	@ <UNPREDICTABLE>
     3b8:	c6000000 	strgt	r0, [r0], -r0
     3bc:	1c000003 	stcne	0, cr0, [r0], {3}
     3c0:	0000002d 	andeq	r0, r0, sp, lsr #32
     3c4:	d40700ff 	strle	r0, [r7], #-255	@ 0xffffff01
     3c8:	0a000000 	beq	3d0 <kMboxPost+0x1c>
     3cc:	0003b60c 	andeq	fp, r3, ip, lsl #12
     3d0:	00e70700 	rsceq	r0, r7, r0, lsl #14
     3d4:	0c0b0000 	stceq	0, cr0, [fp], {-0}
     3d8:	000003b6 			@ <UNDEFINED> instruction: 0x000003b6
     3dc:	0000ee07 	andeq	lr, r0, r7, lsl #28
     3e0:	b60c0c00 	strlt	r0, [ip], -r0, lsl #24
     3e4:	07000003 	streq	r0, [r0, -r3]
     3e8:	0000004d 	andeq	r0, r0, sp, asr #32
     3ec:	02da170e 	sbcseq	r1, sl, #3670016	@ 0x380000
     3f0:	4f070000 	svcmi	0x00070000
     3f4:	0f000002 	svceq	0x00000002
     3f8:	0002da17 	andeq	sp, r2, r7, lsl sl
     3fc:	00410700 	subeq	r0, r1, r0, lsl #14
     400:	17100000 	ldrne	r0, [r0, -r0]
     404:	000002da 	ldrdeq	r0, [r0], -sl
     408:	0003e708 	andeq	lr, r3, r8, lsl #14
     40c:	05100400 	ldreq	r0, [r0, #-1024]	@ 0xfffffc00
     410:	000c2c03 	andeq	r2, ip, r3, lsl #24
     414:	03f20820 	mvnseq	r0, #32, 16	@ 0x200000
     418:	10050000 	andne	r0, r5, r0
     41c:	0c280305 	stceq	3, cr0, [r8], #-20	@ 0xffffffec
     420:	fd082000 	stc2	0, cr2, [r8, #-0]
     424:	06000003 	streq	r0, [r0], -r3
     428:	24030510 	strcs	r0, [r3], #-1296	@ 0xfffffaf0
     42c:	0f20000c 	svceq	0x0020000c
     430:	00000334 	andeq	r0, r0, r4, lsr r3
     434:	03450908 	movteq	r0, #22792	@ 0x5908
     438:	03050000 	movweq	r0, #20480	@ 0x5000
     43c:	20000c00 	andcs	r0, r0, r0, lsl #24
     440:	0003c608 	andeq	ip, r3, r8, lsl #12
     444:	05050b00 	streq	r0, [r5, #-2816]	@ 0xfffff500
     448:	00080003 	andeq	r0, r8, r3
     44c:	03d10820 	bicseq	r0, r1, #32, 16	@ 0x200000
     450:	050c0000 	streq	r0, [ip, #-0]
     454:	04000305 	streq	r0, [r0], #-773	@ 0xfffffcfb
     458:	dc082000 	stcle	0, cr2, [r8], {-0}
     45c:	0d000003 	stceq	0, cr0, [r0, #-12]
     460:	00030505 	andeq	r0, r3, r5, lsl #10
     464:	0f200000 	svceq	0x00200000
     468:	00000181 	andeq	r0, r0, r1, lsl #3
     46c:	047d1f13 	ldrbteq	r1, [sp], #-3859	@ 0xfffff0ed
     470:	03050000 	movweq	r0, #20480	@ 0x5000
     474:	00000000 	andeq	r0, r0, r0
     478:	00003404 	andeq	r3, r0, r4, lsl #8
     47c:	04780a00 	ldrbteq	r0, [r8], #-2560	@ 0xfffff600
     480:	9c0f0000 	stcls	0, cr0, [pc], {-0}
     484:	2b000000 	blcs	48c <kMboxPost+0xd8>
     488:	0000f506 	andeq	pc, r0, r6, lsl #10
     48c:	00030500 	andeq	r0, r3, r0, lsl #10
     490:	1d000000 	stcne	0, cr0, [r0, #-0]
     494:	0000036a 	andeq	r0, r0, sl, ror #6
     498:	06026706 	streq	r6, [r2], -r6, lsl #14
     49c:	000004a6 	andeq	r0, r0, r6, lsr #9
     4a0:	00015a06 	andeq	r5, r1, r6, lsl #20
     4a4:	a4100000 	ldrge	r0, [r0], #-0
     4a8:	c9000003 	stmdbgt	r0, {r0, r1}
     4ac:	0000015f 	andeq	r0, r0, pc, asr r1
     4b0:	000004c4 	andeq	r0, r0, r4, asr #9
     4b4:	0004c906 	andeq	ip, r4, r6, lsl #18
     4b8:	01250600 			@ <UNDEFINED> instruction: 0x01250600
     4bc:	4e060000 	cdpmi	0, 0, cr0, cr6, cr0, {0}
     4c0:	00000001 	andeq	r0, r0, r1
     4c4:	00034504 	andeq	r4, r3, r4, lsl #10
     4c8:	04c40a00 	strbeq	r0, [r4], #2560	@ 0xa00
     4cc:	701e0000 	andsvc	r0, lr, r0
     4d0:	06000000 	streq	r0, [r0], -r0
     4d4:	5f08026f 	svcpl	0x0008026f
     4d8:	e5000001 	str	r0, [r0, #-1]
     4dc:	06000004 	streq	r0, [r0], -r4
     4e0:	0000014e 	andeq	r0, r0, lr, asr #2
     4e4:	025b1000 	subseq	r1, fp, #0
     4e8:	5fd20000 	svcpl	0x00d20000
     4ec:	03000001 	movweq	r0, #1
     4f0:	06000005 	streq	r0, [r0], -r5
     4f4:	000004c9 	andeq	r0, r0, r9, asr #9
     4f8:	00050306 	andeq	r0, r5, r6, lsl #6
     4fc:	014e0600 	cmpeq	lr, r0, lsl #12
     500:	04000000 	streq	r0, [r0], #-0
     504:	00000119 	andeq	r0, r0, r9, lsl r1
     508:	0001c410 	andeq	ip, r1, r0, lsl r4
     50c:	015fb800 	cmpeq	pc, r0, lsl #16
     510:	05210000 	streq	r0, [r1, #-0]!
     514:	c9060000 	stmdbgt	r6, {}	@ <UNPREDICTABLE>
     518:	06000004 	streq	r0, [r0], -r4
     51c:	00000119 	andeq	r0, r0, r9, lsl r1
     520:	00650c00 	rsbeq	r0, r5, r0, lsl #24
     524:	fc480000 	mcrr2	0, 0, r0, r8, cr0
     528:	18000001 	stmdane	r0, {r0}
     52c:	01000000 	mrseq	r0, (UNDEF: 0)
     530:	00056b9c 	muleq	r5, ip, fp
     534:	00f51100 	rscseq	r1, r5, r0, lsl #2
     538:	6b480000 	blvs	1200540 <__exidx_end+0x11ff4cc>
     53c:	10000005 	andne	r0, r0, r5
     540:	0c000000 	stceq	0, cr0, [r0], {-0}
     544:	09000000 	stmdbeq	r0, {}	@ <UNPREDICTABLE>
     548:	00000206 	andeq	r0, r0, r6, lsl #4
     54c:	000006c0 	andeq	r0, r0, r0, asr #13
     550:	0000055b 	andeq	r0, r0, fp, asr r5
     554:	02500103 	subseq	r0, r0, #-1073741824	@ 0xc0000000
     558:	12000074 	andne	r0, r0, #116	@ 0x74
     55c:	0000020c 	andeq	r0, r0, ip, lsl #4
     560:	00000493 	muleq	r0, r3, r4
     564:	01500103 	cmpeq	r0, r3, lsl #2
     568:	04000035 	streq	r0, [r0], #-53	@ 0xffffffcb
     56c:	000000d5 	ldrdeq	r0, [r0], -r5
     570:	00005f0c 	andeq	r5, r0, ip, lsl #30
     574:	01d03c00 	bicseq	r3, r0, r0, lsl #24
     578:	002c0000 	eoreq	r0, ip, r0
     57c:	9c010000 	stcls	0, cr0, [r1], {-0}
     580:	000005e8 	andeq	r0, r0, r8, ror #11
     584:	0000f511 	andeq	pc, r0, r1, lsl r5	@ <UNPREDICTABLE>
     588:	056b3c00 	strbeq	r3, [fp, #-3072]!	@ 0xfffff400
     58c:	00270000 	eoreq	r0, r7, r0
     590:	00230000 	eoreq	r0, r3, r0
     594:	33130000 	tstcc	r3, #0
     598:	3e000001 	cdpcc	0, 0, cr0, cr0, cr1, {0}
     59c:	0000f507 	andeq	pc, r0, r7, lsl #10
     5a0:	74910200 	ldrvc	r0, [r1], #512	@ 0x200
     5a4:	0001e009 	andeq	lr, r1, r9
     5a8:	0006c000 	andeq	ip, r6, r0
     5ac:	0005b800 	andeq	fp, r5, r0, lsl #16
     5b0:	50010300 	andpl	r0, r1, r0, lsl #6
     5b4:	00007502 	andeq	r7, r0, r2, lsl #10
     5b8:	0001ec09 	andeq	lr, r1, r9, lsl #24
     5bc:	0004a600 	andeq	sl, r4, r0, lsl #12
     5c0:	0005d800 	andeq	sp, r5, r0, lsl #16
     5c4:	50010300 	andpl	r0, r1, r0, lsl #6
     5c8:	03007402 	movweq	r7, #1026	@ 0x402
     5cc:	91025101 	tstls	r2, r1, lsl #2
     5d0:	52010374 	andpl	r0, r1, #116, 6	@ 0xd0000001
     5d4:	00ff0902 	rscseq	r0, pc, r2, lsl #18
     5d8:	0001f212 	andeq	pc, r1, r2, lsl r2	@ <UNPREDICTABLE>
     5dc:	00049300 	andeq	r9, r4, r0, lsl #6
     5e0:	50010300 	andpl	r0, r1, r0, lsl #6
     5e4:	00004401 	andeq	r4, r0, r1, lsl #8
     5e8:	0000590c 	andeq	r5, r0, ip, lsl #18
     5ec:	019c2c00 	orrseq	r2, ip, r0, lsl #24
     5f0:	00340000 	eorseq	r0, r4, r0
     5f4:	9c010000 	stcls	0, cr0, [r1], {-0}
     5f8:	0000068e 	andeq	r0, r0, lr, lsl #13
     5fc:	0000f511 	andeq	pc, r0, r1, lsl r5	@ <UNPREDICTABLE>
     600:	056b2c00 	strbeq	r2, [fp, #-3072]!	@ 0xfffff400
     604:	003e0000 	eorseq	r0, lr, r0
     608:	003a0000 	eorseq	r0, sl, r0
     60c:	f0130000 			@ <UNDEFINED> instruction: 0xf0130000
     610:	2f000001 	svccs	0x00000001
     614:	00068e08 	andeq	r8, r6, r8, lsl #28
     618:	6c910200 	lfmvs	f0, 4, [r1], {0}
     61c:	0000181f 	andeq	r1, r0, pc, lsl r8
     620:	039f2000 	orrseq	r2, pc, #0
     624:	34010000 	strcc	r0, [r1], #-0
     628:	0000f508 	andeq	pc, r0, r8, lsl #10
     62c:	00005300 	andeq	r5, r0, r0, lsl #6
     630:	00005100 	andeq	r5, r0, r0, lsl #2
     634:	01aa0900 			@ <UNDEFINED> instruction: 0x01aa0900
     638:	06c00000 	strbeq	r0, [r0], r0
     63c:	06490000 	strbeq	r0, [r9], -r0
     640:	01030000 	mrseq	r0, (UNDEF: 3)
     644:	00760250 	rsbseq	r0, r6, r0, asr r2
     648:	01b60900 			@ <UNDEFINED> instruction: 0x01b60900
     64c:	04e50000 	strbteq	r0, [r5], #0
     650:	06690000 	strbteq	r0, [r9], -r0
     654:	01030000 	mrseq	r0, (UNDEF: 3)
     658:	00750250 	rsbseq	r0, r5, r0, asr r2
     65c:	02510103 	subseq	r0, r1, #-1073741824	@ 0xc0000000
     660:	01036c91 			@ <UNDEFINED> instruction: 0x01036c91
     664:	ff090252 			@ <UNDEFINED> instruction: 0xff090252
     668:	01bc0900 			@ <UNDEFINED> instruction: 0x01bc0900
     66c:	06c00000 	strbeq	r0, [r0], r0
     670:	067d0000 	ldrbteq	r0, [sp], -r0
     674:	01030000 	mrseq	r0, (UNDEF: 3)
     678:	00740250 	rsbseq	r0, r4, r0, asr r2
     67c:	01c21200 	biceq	r1, r2, r0, lsl #4
     680:	04ce0000 	strbeq	r0, [lr], #0
     684:	01030000 	mrseq	r0, (UNDEF: 3)
     688:	003a0150 	eorseq	r0, sl, r0, asr r1
     68c:	f5040000 			@ <UNDEFINED> instruction: 0xf5040000
     690:	0c000000 	stceq	0, cr0, [r0], {-0}
     694:	00000000 	andeq	r0, r0, r0
     698:	00019026 	andeq	r9, r1, r6, lsr #32
     69c:	00000c00 	andeq	r0, r0, r0, lsl #24
     6a0:	c09c0100 	addsgt	r0, ip, r0, lsl #2
     6a4:	21000006 	tstcs	r0, r6
     6a8:	00000198 	muleq	r0, r8, r1
     6ac:	00000508 	andeq	r0, r0, r8, lsl #10
     6b0:	05500103 	ldrbeq	r0, [r0, #-259]	@ 0xfffffefd
     6b4:	000c0003 	andeq	r0, ip, r3
     6b8:	51010320 	tstpl	r1, r0, lsr #6
     6bc:	00003001 	andeq	r3, r0, r1
     6c0:	0000af0c 	andeq	sl, r0, ip, lsl #30
     6c4:	01641a00 	cmneq	r4, r0, lsl #20
     6c8:	002c0000 	eoreq	r0, ip, r0
     6cc:	9c010000 	stcls	0, cr0, [r1], {-0}
     6d0:	00000708 	andeq	r0, r0, r8, lsl #14
     6d4:	72747322 	rsbsvc	r7, r4, #-2013265920	@ 0x88000000
     6d8:	1d1a0100 	ldfnes	f0, [sl, #-0]
     6dc:	00000086 	andeq	r0, r0, r6, lsl #1
     6e0:	00000066 	andeq	r0, r0, r6, rrx
     6e4:	0000005e 	andeq	r0, r0, lr, asr r0
     6e8:	00070823 	andeq	r0, r7, r3, lsr #16
     6ec:	00018200 	andeq	r8, r1, r0, lsl #4
     6f0:	000c0100 	andeq	r0, ip, r0, lsl #2
     6f4:	20010000 	andcs	r0, r1, r0
     6f8:	07152409 	ldreq	r2, [r5, -r9, lsl #8]
     6fc:	00860000 	addeq	r0, r6, r0
     700:	00840000 	addeq	r0, r4, r0
     704:	00000000 	andeq	r0, r0, r0
     708:	00031c25 	andeq	r1, r3, r5, lsr #24
     70c:	06150100 	ldreq	r0, [r5], -r0, lsl #2
     710:	00072001 	andeq	r2, r7, r1
     714:	00632600 	rsbeq	r2, r3, r0, lsl #12
     718:	7a181501 	bvc	605b24 <__exidx_end+0x604ab0>
     71c:	00000000 	andeq	r0, r0, r0
     720:	00070827 	andeq	r0, r7, r7, lsr #16
     724:	00000000 	andeq	r0, r0, r0
     728:	00000c00 	andeq	r0, r0, r0, lsl #24
     72c:	289c0100 	ldmcs	ip, {r8}
     730:	00000715 	andeq	r0, r0, r5, lsl r7
     734:	00005001 	andeq	r5, r0, r1
     738:	0000057b 	andeq	r0, r0, fp, ror r5
     73c:	04010005 	streq	r0, [r1], #-5
     740:	00000261 	andeq	r0, r0, r1, ror #4
     744:	0002650f 	andeq	r6, r2, pc, lsl #10
     748:	03f21d00 	mvnseq	r1, #0, 26
     74c:	03710000 	cmneq	r1, #0
     750:	00550000 	subseq	r0, r5, r0
     754:	00000000 	andeq	r0, r0, r0
     758:	01d20000 	bicseq	r0, r2, r0
     75c:	04100000 	ldreq	r0, [r0], #-0
     760:	746e6905 	strbtvc	r6, [lr], #-2309	@ 0xfffff6fb
     764:	07040500 	streq	r0, [r4, -r0, lsl #10]
     768:	00000086 	andeq	r0, r0, r6, lsl #1
     76c:	00002d11 	andeq	r2, r0, r1, lsl sp
     770:	05080500 	streq	r0, [r8, #-1280]	@ 0xfffffb00
     774:	000000a1 	andeq	r0, r0, r1, lsr #1
     778:	68040805 	stmdavs	r4, {r0, r2, fp}
     77c:	05000001 	streq	r0, [r0, #-1]
     780:	018c0601 	orreq	r0, ip, r1, lsl #12
     784:	01050000 	mrseq	r0, (UNDEF: 5)
     788:	00018a08 	andeq	r8, r1, r8, lsl #20
     78c:	05020500 	streq	r0, [r2, #-1280]	@ 0xfffffb00
     790:	000000ca 	andeq	r0, r0, sl, asr #1
     794:	d6070205 	strle	r0, [r7], -r5, lsl #4
     798:	05000001 	streq	r0, [r0, #-1]
     79c:	00a60504 	adceq	r0, r6, r4, lsl #10
     7a0:	04050000 	streq	r0, [r5], #-0
     7a4:	00008107 	andeq	r8, r0, r7, lsl #2
     7a8:	07080500 	streq	r0, [r8, -r0, lsl #10]
     7ac:	0000007c 	andeq	r0, r0, ip, ror r0
     7b0:	01050412 	tsteq	r5, r2, lsl r4
     7b4:	00019308 	andeq	r9, r1, r8, lsl #6
     7b8:	02101300 	andseq	r1, r0, #0, 6
     7bc:	00bf092a 	adcseq	r0, pc, sl, lsr #18
     7c0:	a7010000 	strge	r0, [r1, -r0]
     7c4:	02000001 	andeq	r0, r0, #1
     7c8:	0034172c 	eorseq	r1, r4, ip, lsr #14
     7cc:	01000000 	mrseq	r0, (UNDEF: 0)
     7d0:	00000329 	andeq	r0, r0, r9, lsr #6
     7d4:	34172d02 	ldrcc	r2, [r7], #-3330	@ 0xfffff2fe
     7d8:	04000000 	streq	r0, [r0], #-0
     7dc:	4c41560c 	mcrrmi	6, 0, r5, r1, cr12
     7e0:	172e0200 	strne	r0, [lr, -r0, lsl #4]!
     7e4:	00000034 	andeq	r0, r0, r4, lsr r0
     7e8:	01380108 	teqeq	r8, r8, lsl #2
     7ec:	2f020000 	svccs	0x00020000
     7f0:	00003417 	andeq	r3, r0, r7, lsl r4
     7f4:	04000c00 	streq	r0, [r0], #-3072	@ 0xfffff400
     7f8:	0000034f 	andeq	r0, r0, pc, asr #6
     7fc:	81033002 	tsthi	r3, r2
     800:	14000000 	strne	r0, [r0], #-0
     804:	000001bf 			@ <UNDEFINED> instruction: 0x000001bf
     808:	040e1b03 	streq	r1, [lr], #-2819	@ 0xfffff4fd
     80c:	00000146 	andeq	r0, r0, r6, asr #2
     810:	7a0e1c03 	bvc	387824 <__exidx_end+0x3867b0>
     814:	15000000 	strne	r0, [r0, #-0]
     818:	00544e49 	subseq	r4, r4, r9, asr #28
     81c:	26101e03 	ldrcs	r1, [r0], -r3, lsl #28
     820:	04000000 	streq	r0, [r0], #-0
     824:	00000154 	andeq	r0, r0, r4, asr r1
     828:	2d121f03 	ldccs	15, cr1, [r2, #-12]
     82c:	09000000 	stmdbeq	r0, {}	@ <UNPREDICTABLE>
     830:	000000eb 	andeq	r0, r0, fp, ror #1
     834:	0001ac04 	andeq	sl, r1, r4, lsl #24
     838:	17200300 	strne	r0, [r0, -r0, lsl #6]!
     83c:	0000006a 	andeq	r0, r0, sl, rrx
     840:	0001ad04 	andeq	sl, r1, r4, lsl #26
     844:	0e210300 	cdpeq	3, 2, cr0, cr1, cr0, {0}
     848:	00000063 	andeq	r0, r0, r3, rrx
     84c:	00001104 	andeq	r1, r0, r4, lsl #2
     850:	12260300 	eorne	r0, r6, #0, 6
     854:	0000002d 	andeq	r0, r0, sp, lsr #32
     858:	00011409 	andeq	r1, r1, r9, lsl #8
     85c:	022f0400 	eoreq	r0, pc, #0, 8
     860:	52030000 	andpl	r0, r3, #0
     864:	00004e17 	andeq	r4, r0, r7, lsl lr
     868:	013e0400 	teqeq	lr, r0, lsl #8
     86c:	53030000 	movwpl	r0, #12288	@ 0x3000
     870:	00004e17 	andeq	r4, r0, r7, lsl lr
     874:	01310900 	teqeq	r1, r0, lsl #18
     878:	14040000 	strne	r0, [r4], #-0
     87c:	03000003 	movweq	r0, #3
     880:	006a1754 	rsbeq	r1, sl, r4, asr r7
     884:	d9040000 	stmdble	r4, {}	@ <UNPREDICTABLE>
     888:	03000003 	movweq	r0, #3
     88c:	015f1058 	cmpeq	pc, r8, asr r0	@ <UNPREDICTABLE>
     890:	4e090000 	cdpmi	0, 0, cr0, cr9, cr0, {0}
     894:	06000001 	streq	r0, [r0], -r1
     898:	00000164 	andeq	r0, r0, r4, ror #2
     89c:	00016f16 	andeq	r6, r1, r6, lsl pc
     8a0:	00780300 	rsbseq	r0, r8, r0, lsl #6
     8a4:	04000000 	streq	r0, [r0], #-0
     8a8:	00000159 	andeq	r0, r0, r9, asr r1
     8ac:	080e8703 	stmdaeq	lr, {r0, r1, r8, r9, sl, pc}
     8b0:	04000001 	streq	r0, [r0], #-1
     8b4:	000002e0 	andeq	r0, r0, r0, ror #5
     8b8:	fc0fc803 	stc2	8, cr12, [pc], {3}
     8bc:	0a000000 	beq	8c4 <kCreateTask+0x70>
     8c0:	00000198 	muleq	r0, r8, r1
     8c4:	026d4258 	rsbeq	r4, sp, #88, 4	@ 0x80000005
     8c8:	730c0000 	movwvc	r0, #49152	@ 0xc000
     8cc:	45040070 	strmi	r0, [r4, #-112]	@ 0xffffff90
     8d0:	00035d0a 	andeq	r5, r3, sl, lsl #26
     8d4:	e9010000 	stmdb	r1, {}	@ <UNPREDICTABLE>
     8d8:	04000001 	streq	r0, [r0], #-1
     8dc:	017b1446 	cmneq	fp, r6, asr #8
     8e0:	01040000 	mrseq	r0, (UNDEF: 4)
     8e4:	000001f8 	strdeq	r0, [r0], -r8
     8e8:	fc0b4704 	stc2	7, cr4, [fp], {4}
     8ec:	08000000 	stmdaeq	r0, {}	@ <UNPREDICTABLE>
     8f0:	00014b01 	andeq	r4, r1, r1, lsl #22
     8f4:	0b490400 	bleq	12418fc <__exidx_end+0x1240888>
     8f8:	00000358 	andeq	r0, r0, r8, asr r3
     8fc:	0210010c 	andseq	r0, r0, #12, 2
     900:	4a040000 	bmi	100908 <__exidx_end+0xff894>
     904:	00035d0a 	andeq	r5, r3, sl, lsl #26
     908:	95011000 	strls	r1, [r1, #-0]
     90c:	04000003 	streq	r0, [r0], #-3
     910:	00eb0a4b 	rsceq	r0, fp, fp, asr #20
     914:	0c140000 	ldceq	0, cr0, [r4], {-0}
     918:	00646970 	rsbeq	r6, r4, r0, ror r9
     91c:	250c4c04 	strcs	r4, [ip, #-3076]	@ 0xfffff3fc
     920:	18000001 	stmdane	r0, {r0}
     924:	00010d01 	andeq	r0, r1, r1, lsl #26
     928:	0d4d0400 	cfstrdeq	mvd0, [sp, #-0]
     92c:	00000131 	andeq	r0, r0, r1, lsr r1
     930:	01290119 			@ <UNDEFINED> instruction: 0x01290119
     934:	52040000 	andpl	r0, r4, #0
     938:	0001140a 	andeq	r1, r1, sl, lsl #8
     93c:	74011c00 	strvc	r1, [r1], #-3072	@ 0xfffff400
     940:	04000001 	streq	r0, [r0], #-1
     944:	01420d62 	cmpeq	r2, r2, ror #26
     948:	01200000 			@ <UNDEFINED> instruction: 0x01200000
     94c:	00000100 	andeq	r0, r0, r0, lsl #2
     950:	420d6404 	andmi	r6, sp, #4, 8	@ 0x4000000
     954:	24000001 	strcs	r0, [r0], #-1
     958:	00011e01 	andeq	r1, r1, r1, lsl #28
     95c:	0a660400 	beq	1981964 <__exidx_end+0x19808f0>
     960:	00000114 	andeq	r0, r0, r4, lsl r1
     964:	021d0128 	andseq	r0, sp, #40, 2
     968:	67040000 	strvs	r0, [r4, -r0]
     96c:	0001140a 	andeq	r1, r1, sl, lsl #8
     970:	ef012c00 	svc	0x00012c00
     974:	04000002 	streq	r0, [r0], #-2
     978:	00eb0a69 	rsceq	r0, fp, r9, ror #20
     97c:	01300000 	teqeq	r0, r0
     980:	00000243 	andeq	r0, r0, r3, asr #4
     984:	250c6a04 	strcs	r6, [ip, #-2564]	@ 0xfffff5fc
     988:	34000001 	strcc	r0, [r0], #-1
     98c:	0000db0d 	andeq	sp, r0, sp, lsl #22
     990:	ef196b00 	svc	0x00196b00
     994:	38000002 	stmdacc	r0, {r1}
     998:	0001ce0d 	andeq	ip, r1, sp, lsl #28
     99c:	b8166c00 	ldmdalt	r6, {sl, fp, sp, lr}
     9a0:	50000002 	andpl	r0, r0, r2
     9a4:	00220400 	eoreq	r0, r2, r0, lsl #8
     9a8:	ec030000 	stc	0, cr0, [r3], {-0}
     9ac:	00027916 	andeq	r7, r2, r6, lsl r9
     9b0:	00fa0a00 	rscseq	r0, sl, r0, lsl #20
     9b4:	3a140000 	bcc	5009bc <__exidx_end+0x4ff948>
     9b8:	000002b8 			@ <UNDEFINED> instruction: 0x000002b8
     9bc:	00030a0d 	andeq	r0, r3, sp, lsl #20
     9c0:	b8163c00 	ldmdalt	r6, {sl, fp, ip, sp}
     9c4:	00000002 	andeq	r0, r0, r2
     9c8:	00009301 	andeq	r9, r0, r1, lsl #6
     9cc:	0b3d0400 	bleq	f419d4 <__exidx_end+0xf40960>
     9d0:	00000358 	andeq	r0, r0, r8, asr r3
     9d4:	03050108 	movweq	r0, #20744	@ 0x5108
     9d8:	3e040000 	cdpcc	0, 0, cr0, cr4, cr0, {0}
     9dc:	0000fc0b 	andeq	pc, r0, fp, lsl #24
     9e0:	b6010c00 	strlt	r0, [r1], -r0, lsl #24
     9e4:	04000003 	streq	r0, [r0], #-3
     9e8:	01140a3f 	tsteq	r4, pc, lsr sl
     9ec:	00100000 	andseq	r0, r0, r0
     9f0:	0002250a 	andeq	r2, r2, sl, lsl #10
     9f4:	de340800 	cdple	8, 3, cr0, cr4, cr0, {0}
     9f8:	01000002 	tsteq	r0, r2
     9fc:	00000116 	andeq	r0, r0, r6, lsl r1
     a00:	53173604 	tstpl	r7, #4, 12	@ 0x400000
     a04:	00000003 	andeq	r0, r0, r3
     a08:	00020801 	andeq	r0, r2, r1, lsl #16
     a0c:	17370400 	ldrne	r0, [r7, -r0, lsl #8]!
     a10:	00000353 	andeq	r0, r0, r3, asr r3
     a14:	2a040004 	bcs	100a2c <__exidx_end+0xff9b8>
     a18:	03000000 	movweq	r0, #0
     a1c:	02ea16ef 	rsceq	r1, sl, #250609664	@ 0xef00000
     a20:	87060000 	strhi	r0, [r6, -r0]
     a24:	0a000001 	beq	a30 <kInit+0x20>
     a28:	00000236 	andeq	r0, r0, r6, lsr r2
     a2c:	03491f18 	movteq	r1, #40728	@ 0x9f18
     a30:	16010000 	strne	r0, [r1], -r0
     a34:	04000001 	streq	r0, [r0], #-1
     a38:	03491a21 	movteq	r1, #39457	@ 0x9a21
     a3c:	01000000 	mrseq	r0, (UNDEF: 0)
     a40:	00000208 	andeq	r0, r0, r8, lsl #4
     a44:	491a2204 	ldmdbmi	sl, {r2, r9, sp}
     a48:	04000003 	streq	r0, [r0], #-3
     a4c:	00001601 	andeq	r1, r0, r1, lsl #12
     a50:	0a230400 	beq	8c1a58 <__exidx_end+0x8c09e4>
     a54:	000000eb 	andeq	r0, r0, fp, ror #1
     a58:	03ae0108 			@ <UNDEFINED> instruction: 0x03ae0108
     a5c:	24040000 	strcs	r0, [r4], #-0
     a60:	0001420d 	andeq	r4, r1, sp, lsl #4
     a64:	64010c00 	strvs	r0, [r1], #-3072	@ 0xfffff400
     a68:	04000003 	streq	r0, [r0], #-3
     a6c:	01420d25 	cmpeq	r2, r5, lsr #26
     a70:	01100000 	tsteq	r0, r0
     a74:	000000ba 	strheq	r0, [r0], -sl
     a78:	4e0e2604 	cfmadd32mi	mvax0, mvfx2, mvfx14, mvfx4
     a7c:	14000003 	strne	r0, [r0], #-3
     a80:	02ef0600 	rsceq	r0, pc, #0, 12
     a84:	6d060000 	stcvs	0, cr0, [r6, #-0]
     a88:	06000002 	streq	r0, [r0], -r2
     a8c:	000002b8 			@ <UNDEFINED> instruction: 0x000002b8
     a90:	0000d306 	andeq	sp, r0, r6, lsl #6
     a94:	00df0600 	sbcseq	r0, pc, r0, lsl #12
     a98:	5d090000 	stcpl	0, cr0, [r9, #-0]
     a9c:	17000003 	strne	r0, [r0, -r3]
     aa0:	000000df 	ldrdeq	r0, [r0], -pc	@ <UNPREDICTABLE>
     aa4:	00000377 	andeq	r0, r0, r7, ror r3
     aa8:	00002d18 	andeq	r2, r0, r8, lsl sp
     aac:	0800ff00 	stmdaeq	r0, {r8, r9, sl, fp, ip, sp, lr, pc}
     ab0:	000000d4 	ldrdeq	r0, [r0], -r4
     ab4:	03670c0a 	cmneq	r7, #2560	@ 0xa00
     ab8:	e7080000 	str	r0, [r8, -r0]
     abc:	0b000000 	bleq	ac4 <kInit+0xb4>
     ac0:	0003670c 	andeq	r6, r3, ip, lsl #14
     ac4:	00ee0800 	rsceq	r0, lr, r0, lsl #16
     ac8:	0c0c0000 	stceq	0, cr0, [ip], {-0}
     acc:	00000367 	andeq	r0, r0, r7, ror #6
     ad0:	00004d08 	andeq	r4, r0, r8, lsl #26
     ad4:	de170e00 	cdple	14, 1, cr0, cr7, cr0, {0}
     ad8:	08000002 	stmdaeq	r0, {r1}
     adc:	0000024f 	andeq	r0, r0, pc, asr #4
     ae0:	02de170f 	sbcseq	r1, lr, #3932160	@ 0x3c0000
     ae4:	41080000 	mrsmi	r0, (UNDEF: 8)
     ae8:	10000000 	andne	r0, r0, r0
     aec:	0002de17 	andeq	sp, r2, r7, lsl lr
     af0:	03d31900 	bicseq	r1, r3, #0, 18
     af4:	5b060000 	blpl	180afc <__exidx_end+0x17fa88>
     af8:	00650b06 	rsbeq	r0, r5, r6, lsl #22
     afc:	1a050000 	bne	140b04 <__exidx_end+0x13fa90>
     b00:	000003d2 	ldrdeq	r0, [r0], -r2
     b04:	0003d203 	andeq	sp, r3, r3, lsl #4
     b08:	cb060000 	blgt	180b10 <__exidx_end+0x17fa9c>
     b0c:	0b000000 	bleq	b14 <kSchSwtch+0xc>
     b10:	0000005f 	andeq	r0, r0, pc, asr r0
     b14:	03e81905 	mvneq	r1, #81920	@ 0x14000
     b18:	d2030000 	andle	r0, r3, #0
     b1c:	00000003 	andeq	r0, r0, r3
     b20:	0000590b 	andeq	r5, r0, fp, lsl #18
     b24:	f9180500 			@ <UNDEFINED> instruction: 0xf9180500
     b28:	03000003 	movweq	r0, #3
     b2c:	000003d2 	ldrdeq	r0, [r0], -r2
     b30:	03e60e00 	mvneq	r0, #0, 28
     b34:	4e060000 	cdpmi	0, 0, cr0, cr6, cr0, {0}
     b38:	00016f08 	andeq	r6, r1, r8, lsl #30
     b3c:	00043200 	andeq	r3, r4, r0, lsl #4
     b40:	04320300 	ldrteq	r0, [r2], #-768	@ 0xfffffd00
     b44:	5a030000 	bpl	c0b4c <__exidx_end+0xbfad8>
     b48:	03000001 	movweq	r0, #1
     b4c:	00000358 	andeq	r0, r0, r8, asr r3
     b50:	00036203 	andeq	r6, r3, r3, lsl #4
     b54:	00f70300 	rscseq	r0, r7, r0, lsl #6
     b58:	d2030000 	andle	r0, r3, #0
     b5c:	03000003 	movweq	r0, #3
     b60:	0000013d 	andeq	r0, r0, sp, lsr r1
     b64:	00012003 	andeq	r2, r1, r3
     b68:	de060000 	cdple	0, 0, cr0, cr6, cr0, {0}
     b6c:	0b000002 	bleq	b7c <kTickHandler+0x14>
     b70:	000003f9 	strdeq	r0, [r0], -r9
     b74:	044d5f02 	strbeq	r5, [sp], #-3842	@ 0xfffff0fe
     b78:	26030000 	strcs	r0, [r3], -r0
     b7c:	03000000 	movweq	r0, #0
     b80:	0000002d 	andeq	r0, r0, sp, lsr #32
     b84:	03bb0e00 			@ <UNDEFINED> instruction: 0x03bb0e00
     b88:	74020000 	strvc	r0, [r2], #-0
     b8c:	00002d0a 	andeq	r2, r0, sl, lsl #26
     b90:	00046300 	andeq	r6, r4, r0, lsl #6
     b94:	002d0300 	eoreq	r0, sp, r0, lsl #6
     b98:	1a000000 	bne	ba0 <kTickHandler+0x38>
     b9c:	000003ce 	andeq	r0, r0, lr, asr #7
     ba0:	26050301 	strcs	r0, [r5], -r1, lsl #6
     ba4:	14000000 	strne	r0, [r0], #-0
     ba8:	b4000002 	strlt	r0, [r0], #-2
     bac:	01000000 	mrseq	r0, (UNDEF: 0)
     bb0:	021c079c 	andseq	r0, ip, #156, 14	@ 0x2700000
     bb4:	044d0000 	strbeq	r0, [sp], #-0
     bb8:	04900000 	ldreq	r0, [r0], #0
     bbc:	01020000 	mrseq	r0, (UNDEF: 2)
     bc0:	900c0550 	andls	r0, ip, r0, asr r5
     bc4:	000003d0 	ldrdeq	r0, [r0], -r0	@ <UNPREDICTABLE>
     bc8:	00023a07 	andeq	r3, r2, r7, lsl #20
     bcc:	00043700 	andeq	r3, r4, r0, lsl #14
     bd0:	0004a900 	andeq	sl, r4, r0, lsl #18
     bd4:	50010200 	andpl	r0, r1, r0, lsl #4
     bd8:	02fb0902 	rscseq	r0, fp, #32768	@ 0x8000
     bdc:	37015101 	strcc	r5, [r1, -r1, lsl #2]
     be0:	02440700 	subeq	r0, r4, #0, 14
     be4:	04370000 	ldrteq	r0, [r7], #-0
     be8:	04c20000 	strbeq	r0, [r2], #0
     bec:	01020000 	mrseq	r0, (UNDEF: 2)
     bf0:	ff090250 			@ <UNDEFINED> instruction: 0xff090250
     bf4:	01510102 	cmpeq	r1, r2, lsl #2
     bf8:	4e070038 	mcrmi	0, 0, r0, cr7, cr8, {1}
     bfc:	37000002 	strcc	r0, [r0, -r2]
     c00:	db000004 	blle	c18 <kTickHandler+0xb0>
     c04:	02000004 	andeq	r0, r0, #4
     c08:	09025001 	stmdbeq	r2, {r0, ip, lr}
     c0c:	510102fe 	strdpl	r0, [r1, -lr]
     c10:	07003a01 	streq	r3, [r0, -r1, lsl #20]
     c14:	00000262 	andeq	r0, r0, r2, ror #4
     c18:	000003f9 	strdeq	r0, [r0], -r9
     c1c:	0000050e 	andeq	r0, r0, lr, lsl #10
     c20:	05520102 	ldrbeq	r0, [r2, #-258]	@ 0xfffffefe
     c24:	00103103 	andseq	r3, r0, r3, lsl #2
     c28:	7d020200 	sfmvc	f0, 4, [r2, #-0]
     c2c:	00750200 	rsbseq	r0, r5, r0, lsl #4
     c30:	047d0202 	ldrbteq	r0, [sp], #-514	@ 0xfffffdfe
     c34:	02007402 	andeq	r7, r0, #33554432	@ 0x2000000
     c38:	02087d02 	andeq	r7, r8, #2, 26	@ 0x80
     c3c:	02020076 	andeq	r0, r2, #118	@ 0x76
     c40:	74020c7d 	strvc	r0, [r2], #-3197	@ 0xfffff383
     c44:	76070000 	strvc	r0, [r7], -r0
     c48:	f9000002 			@ <UNDEFINED> instruction: 0xf9000002
     c4c:	41000003 	tstmi	r0, r3
     c50:	02000005 	andeq	r0, r0, #5
     c54:	03055201 	movweq	r5, #20993	@ 0x5201
     c58:	00001037 	andeq	r1, r0, r7, lsr r0
     c5c:	007d0202 	rsbseq	r0, sp, r2, lsl #4
     c60:	02007502 	andeq	r7, r0, #8388608	@ 0x800000
     c64:	02047d02 	andeq	r7, r4, #2, 26	@ 0x80
     c68:	02020074 	andeq	r0, r2, #116	@ 0x74
     c6c:	7602087d 			@ <UNDEFINED> instruction: 0x7602087d
     c70:	7d020200 	sfmvc	f0, 4, [r2, #-0]
     c74:	0074020c 	rsbseq	r0, r4, ip, lsl #4
     c78:	028a0700 	addeq	r0, sl, #0, 14
     c7c:	03f90000 	mvnseq	r0, #0
     c80:	05740000 	ldrbeq	r0, [r4, #-0]!
     c84:	01020000 	mrseq	r0, (UNDEF: 2)
     c88:	3d030552 	cfstr32cc	mvfx0, [r3, #-328]	@ 0xfffffeb8
     c8c:	02000010 	andeq	r0, r0, #16
     c90:	02007d02 	andeq	r7, r0, #2, 26	@ 0x80
     c94:	02020075 	andeq	r0, r2, #117	@ 0x75
     c98:	7402047d 	strvc	r0, [r2], #-1149	@ 0xfffffb83
     c9c:	7d020200 	sfmvc	f0, 4, [r2, #-0]
     ca0:	00760208 	rsbseq	r0, r6, r8, lsl #4
     ca4:	0c7d0202 	lfmeq	f0, 2, [sp], #-8
     ca8:	00007402 	andeq	r7, r0, r2, lsl #8
     cac:	00028e1b 	andeq	r8, r2, fp, lsl lr
     cb0:	0003b900 	andeq	fp, r3, r0, lsl #18
     cb4:	96000000 	strls	r0, [r0], -r0
     cb8:	05000001 	streq	r0, [r0, #-1]
     cbc:	e1040100 	mrs	r0, (UNDEF: 20)
     cc0:	0a000003 	beq	cd4 <TimerHandlerTask+0x60>
     cc4:	00000265 	andeq	r0, r0, r5, ror #4
     cc8:	0004c91d 	andeq	ip, r4, sp, lsl r9
     ccc:	00037100 	andeq	r7, r3, r0, lsl #2
     cd0:	00006900 	andeq	r6, r0, r0, lsl #18
     cd4:	00000000 	andeq	r0, r0, r0
     cd8:	00027d00 	andeq	r7, r2, r0, lsl #26
     cdc:	06010100 	streq	r0, [r1], -r0, lsl #2
     ce0:	0000018c 	andeq	r0, r0, ip, lsl #3
     ce4:	8a080101 	bhi	2010f0 <__exidx_end+0x20007c>
     ce8:	01000001 	tsteq	r0, r1
     cec:	00ca0502 	sbceq	r0, sl, r2, lsl #10
     cf0:	02010000 	andeq	r0, r1, #0
     cf4:	0001d607 	andeq	sp, r1, r7, lsl #12
     cf8:	05040100 	streq	r0, [r4, #-256]	@ 0xffffff00
     cfc:	000000a6 	andeq	r0, r0, r6, lsr #1
     d00:	00047704 	andeq	r7, r4, r4, lsl #14
     d04:	194f0200 	stmdbne	pc, {r9}^	@ <UNPREDICTABLE>
     d08:	00000055 	andeq	r0, r0, r5, asr r0
     d0c:	81070401 	tsthi	r7, r1, lsl #8
     d10:	01000000 	mrseq	r0, (UNDEF: 0)
     d14:	00a10508 	adceq	r0, r1, r8, lsl #10
     d18:	08010000 	stmdaeq	r1, {}	@ <UNPREDICTABLE>
     d1c:	00007c07 	andeq	r7, r0, r7, lsl #24
     d20:	05040b00 	streq	r0, [r4, #-2816]	@ 0xfffff500
     d24:	00746e69 	rsbseq	r6, r4, r9, ror #28
     d28:	86070401 	strhi	r0, [r7], -r1, lsl #8
     d2c:	04000000 	streq	r0, [r0], #-0
     d30:	00000479 	andeq	r0, r0, r9, ror r4
     d34:	49143003 	ldmdbmi	r4, {r0, r1, ip, sp}
     d38:	0c000000 	stceq	0, cr0, [r0], {-0}
     d3c:	0000009e 	muleq	r0, lr, r0
     d40:	00000094 	muleq	r0, r4, r0
     d44:	0000710d 	andeq	r7, r0, sp, lsl #2
     d48:	05001600 	streq	r1, [r0, #-1536]	@ 0xfffffa00
     d4c:	00000084 	andeq	r0, r0, r4, lsl #1
     d50:	0000a306 	andeq	sl, r0, r6, lsl #6
     d54:	00990500 	addseq	r0, r9, r0, lsl #10
     d58:	0f0e0000 	svceq	0x000e0000
     d5c:	00000444 	andeq	r0, r0, r4, asr #8
     d60:	940f1d01 	strls	r1, [pc], #-3329	@ d68 <kTimeOut+0x34>
     d64:	05000000 	streq	r0, [r0, #-0]
     d68:	00000003 	andeq	r0, r0, r3
     d6c:	045e0200 	ldrbeq	r0, [lr], #-512	@ 0xfffffe00
     d70:	783b0000 	ldmdavc	fp!, {}	@ <UNPREDICTABLE>
     d74:	02000000 	andeq	r0, r0, #0
     d78:	00000413 	andeq	r0, r0, r3, lsl r4
     d7c:	0000783c 	andeq	r7, r0, ip, lsr r8
     d80:	04570200 	ldrbeq	r0, [r7], #-512	@ 0xfffffe00
     d84:	783d0000 	ldmdavc	sp!, {}	@ <UNPREDICTABLE>
     d88:	02000000 	andeq	r0, r0, #0
     d8c:	0000041a 	andeq	r0, r0, sl, lsl r4
     d90:	0000783e 	andeq	r7, r0, lr, lsr r8
     d94:	04200200 	strteq	r0, [r0], #-512	@ 0xfffffe00
     d98:	783f0000 	ldmdavc	pc!, {}	@ <UNPREDICTABLE>
     d9c:	10000000 	andne	r0, r0, r0
     da0:	000003ce 	andeq	r0, r0, lr, asr #7
     da4:	6a0c1901 	bvs	3071b0 <__exidx_end+0x30613c>
     da8:	03000000 	movweq	r0, #0
     dac:	00000434 	andeq	r0, r0, r4, lsr r4
     db0:	04ba030d 	ldrteq	r0, [sl], #781	@ 0x30d
     db4:	030c0000 	movweq	r0, #49152	@ 0xc000
     db8:	000004ae 	andeq	r0, r0, lr, lsr #9
     dbc:	0493110a 	ldreq	r1, [r3], #266	@ 0x10a
     dc0:	69010000 	stmdbvs	r1, {}	@ <UNPREDICTABLE>
     dc4:	0002c806 	andeq	ip, r2, r6, lsl #16
     dc8:	00000200 	andeq	r0, r0, r0, lsl #4
     dcc:	129c0100 	addsne	r0, ip, #0, 2
     dd0:	00000426 	andeq	r0, r0, r6, lsr #8
     dd4:	cc064b01 			@ <UNDEFINED> instruction: 0xcc064b01
     dd8:	50000002 	andpl	r0, r0, r2
     ddc:	01000000 	mrseq	r0, (UNDEF: 0)
     de0:	00016a9c 	muleq	r1, ip, sl
     de4:	04db0700 	ldrbeq	r0, [fp], #1792	@ 0x700
     de8:	0f4c0000 	svceq	0x004c0000
     dec:	0000016a 	andeq	r0, r0, sl, ror #2
     df0:	00045107 	andeq	r5, r4, r7, lsl #2
     df4:	6a164c00 	bvs	593dfc <__exidx_end+0x592d88>
     df8:	08000001 	stmdaeq	r0, {r0}
     dfc:	000002e8 	andeq	r0, r0, r8, ror #5
     e00:	00000187 	andeq	r0, r0, r7, lsl #3
     e04:	00030213 	andeq	r0, r3, r3, lsl r2
     e08:	00019000 	andeq	r9, r1, r0
     e0c:	00016000 	andeq	r6, r1, r0
     e10:	51011400 	tstpl	r1, r0, lsl #8
     e14:	08003001 	stmdaeq	r0, {r0, ip, sp}
     e18:	00000306 	andeq	r0, r0, r6, lsl #6
     e1c:	000000e8 	andeq	r0, r0, r8, ror #1
     e20:	00780600 	rsbseq	r0, r8, r0, lsl #12
     e24:	a3150000 	tstge	r5, #0
     e28:	01000004 	tsteq	r0, r4
     e2c:	16010644 	strne	r0, [r1], -r4, asr #12
     e30:	0000016f 	andeq	r0, r0, pc, ror #2
     e34:	00000000 	andeq	r0, r0, r0
     e38:	00000002 	andeq	r0, r0, r2
     e3c:	8c099c01 	stchi	12, cr9, [r9], {1}
     e40:	82000004 	andhi	r0, r0, #4
     e44:	09000004 	stmdbeq	r0, {r2}
     e48:	00000470 	andeq	r0, r0, r0, ror r4
     e4c:	00000466 	andeq	r0, r0, r6, ror #8
     e50:	00046d00 	andeq	r6, r4, r0, lsl #26
     e54:	01000500 	tsteq	r0, r0, lsl #10
     e58:	00052c04 	andeq	r2, r5, r4, lsl #24
     e5c:	02651000 	rsbeq	r1, r5, #0
     e60:	761d0000 	ldrvc	r0, [sp], -r0
     e64:	71000006 	tstvc	r0, r6
     e68:	88000003 	stmdahi	r0, {r0, r1}
     e6c:	00000000 	andeq	r0, r0, r0
     e70:	bc000000 	stclt	0, cr0, [r0], {-0}
     e74:	0c000004 	stceq	0, cr0, [r0], {4}
     e78:	00d61840 	sbcseq	r1, r6, r0, asr #16
     e7c:	20010000 	andcs	r0, r1, r0
     e80:	1a000006 	bne	ea0 <kSleepUntil+0x50>
     e84:	0000dd17 	andeq	sp, r0, r7, lsl sp
     e88:	e2010000 	and	r0, r1, #0
     e8c:	1b000005 	blne	ea8 <kSleepUntil+0x58>
     e90:	0000dd17 	andeq	sp, r0, r7, lsl sp
     e94:	58010400 	stmdapl	r1, {sl}
     e98:	1c000005 	stcne	0, cr0, [r0], {5}
     e9c:	0000dd17 	andeq	sp, r0, r7, lsl sp
     ea0:	15010800 	strne	r0, [r1, #-2048]	@ 0xfffff800
     ea4:	1d000006 	stcne	0, cr0, [r0, #-24]	@ 0xffffffe8
     ea8:	0000dd17 	andeq	sp, r0, r7, lsl sp
     eac:	53080c00 	movwpl	r0, #35840	@ 0x8c00
     eb0:	1e005243 	cdpne	2, 0, cr5, cr0, cr3, {2}
     eb4:	0000dd17 	andeq	sp, r0, r7, lsl sp
     eb8:	43081000 	movwmi	r1, #32768	@ 0x8000
     ebc:	1f005243 	svcne	0x00005243
     ec0:	0000dd17 	andeq	sp, r0, r7, lsl sp
     ec4:	53081400 	movwpl	r1, #33792	@ 0x8400
     ec8:	20005048 	andcs	r5, r0, r8, asr #32
     ecc:	0000f21c 	andeq	pc, r0, ip, lsl r2	@ <UNPREDICTABLE>
     ed0:	26011800 	strcs	r1, [r1], -r0, lsl #16
     ed4:	21000005 	tstcs	r0, r5
     ed8:	0000dd17 	andeq	sp, r0, r7, lsl sp
     edc:	bd012400 	cfstrslt	mvf2, [r1, #-0]
     ee0:	22000005 	andcs	r0, r0, #5
     ee4:	0000dd17 	andeq	sp, r0, r7, lsl sp
     ee8:	c2012800 	andgt	r2, r1, #0, 16
     eec:	23000005 	movwcs	r0, #5
     ef0:	0000dd17 	andeq	sp, r0, r7, lsl sp
     ef4:	dd012c00 	stcle	12, cr2, [r1, #-0]
     ef8:	24000005 	strcs	r0, [r0], #-5
     efc:	0000dd17 	andeq	sp, r0, r7, lsl sp
     f00:	55013000 	strpl	r3, [r1, #-0]
     f04:	25000006 	strcs	r0, [r0, #-6]
     f08:	0000dd17 	andeq	sp, r0, r7, lsl sp
     f0c:	1b013400 	blne	4df14 <__exidx_end+0x4cea0>
     f10:	26000006 	strcs	r0, [r0], -r6
     f14:	0000dd17 	andeq	sp, r0, r7, lsl sp
     f18:	d3013800 	movwle	r3, #6144	@ 0x1800
     f1c:	27000006 	strcs	r0, [r0, -r6]
     f20:	0000dd17 	andeq	sp, r0, r7, lsl sp
     f24:	0d003c00 	stceq	12, cr3, [r0, #-0]
     f28:	00860704 	addeq	r0, r6, r4, lsl #14
     f2c:	d6050000 	strle	r0, [r5], -r0
     f30:	04000000 	streq	r0, [r0], #-0
     f34:	000000fe 	strdeq	r0, [r0], -lr
     f38:	000000f2 	strdeq	r0, [r0], -r2
     f3c:	0000d606 	andeq	sp, r0, r6, lsl #12
     f40:	05000b00 	streq	r0, [r0, #-2816]	@ 0xfffff500
     f44:	000000e2 	andeq	r0, r0, r2, ror #1
     f48:	8a08010d 	bhi	201384 <__exidx_end+0x200310>
     f4c:	05000001 	streq	r0, [r0, #-1]
     f50:	000000f7 	strdeq	r0, [r0], -r7
     f54:	0005c709 	andeq	ip, r5, r9, lsl #14
     f58:	00262800 	eoreq	r2, r6, r0, lsl #16
     f5c:	100c0000 	andne	r0, ip, r0
     f60:	0001452a 	andeq	r4, r1, sl, lsr #10
     f64:	01a70100 			@ <UNDEFINED> instruction: 0x01a70100
     f68:	172c0000 	strne	r0, [ip, -r0]!
     f6c:	000000dd 	ldrdeq	r0, [r0], -sp
     f70:	03290100 			@ <UNDEFINED> instruction: 0x03290100
     f74:	172d0000 	strne	r0, [sp, -r0]!
     f78:	000000dd 	ldrdeq	r0, [r0], -sp
     f7c:	41560804 	cmpmi	r6, r4, lsl #16
     f80:	172e004c 	strne	r0, [lr, -ip, asr #32]!
     f84:	000000dd 	ldrdeq	r0, [r0], -sp
     f88:	01380108 	teqeq	r8, r8, lsl #2
     f8c:	172f0000 	strne	r0, [pc, -r0]!
     f90:	000000dd 	ldrdeq	r0, [r0], -sp
     f94:	4f09000c 	svcmi	0x0009000c
     f98:	30000003 	andcc	r0, r0, r3
     f9c:	0000010d 	andeq	r0, r0, sp, lsl #2
     fa0:	020e0411 	andeq	r0, lr, #285212672	@ 0x11000000
     fa4:	01ff0932 	mvnseq	r0, r2, lsr r9
     fa8:	50010000 	andpl	r0, r1, r0
     fac:	34000006 	strcc	r0, [r0], #-6
     fb0:	00020f17 	andeq	r0, r2, r7, lsl pc
     fb4:	5d010000 	stcpl	0, cr0, [r1, #-0]
     fb8:	35000005 	strcc	r0, [r0, #-5]
     fbc:	0002140e 	andeq	r1, r2, lr, lsl #8
     fc0:	b1012000 	mrslt	r2, (UNDEF: 1)
     fc4:	36000006 	strcc	r0, [r0], -r6
     fc8:	00020f17 	andeq	r0, r2, r7, lsl pc
     fcc:	67018000 	strvs	r8, [r1, -r0]
     fd0:	37000005 	strcc	r0, [r0, -r5]
     fd4:	0002140e 	andeq	r1, r2, lr, lsl #8
     fd8:	d803a000 	stmdale	r3, {sp, pc}
     fdc:	38000005 	stmdacc	r0, {r0, r2}
     fe0:	00020f17 	andeq	r0, r2, r7, lsl pc
     fe4:	03010000 	movweq	r0, #4096	@ 0x1000
     fe8:	000006d8 	ldrdeq	r0, [r0], -r8
     fec:	02140e39 	andseq	r0, r4, #912	@ 0x390
     ff0:	01200000 			@ <UNDEFINED> instruction: 0x01200000
     ff4:	00050803 	andeq	r0, r5, r3, lsl #16
     ff8:	0f173a00 	svceq	0x00173a00
     ffc:	80000002 	andhi	r0, r0, r2
    1000:	06e70301 	strbteq	r0, [r7], r1, lsl #6
    1004:	0e3b0000 	cdpeq	0, 3, cr0, cr11, cr0, {0}
    1008:	00000214 	andeq	r0, r0, r4, lsl r2
    100c:	b60301a0 	strlt	r0, [r3], -r0, lsr #3
    1010:	3c000006 	stccc	0, cr0, [r0], {6}
    1014:	00020f17 	andeq	r0, r2, r7, lsl pc
    1018:	03020000 	movweq	r0, #8192	@ 0x2000
    101c:	00000571 	andeq	r0, r0, r1, ror r5
    1020:	02240e3d 	eoreq	r0, r4, #976	@ 0x3d0
    1024:	02200000 	eoreq	r0, r0, #0
    1028:	00504912 	subseq	r4, r0, r2, lsl r9
    102c:	441c3e02 	ldrmi	r3, [ip], #-3586	@ 0xfffff1fe
    1030:	00000002 	andeq	r0, r0, r2
    1034:	057b0303 	ldrbeq	r0, [fp, #-771]!	@ 0xfffffcfd
    1038:	0e3f0000 	cdpeq	0, 3, cr0, cr15, cr0, {0}
    103c:	00000249 	andeq	r0, r0, r9, asr #4
    1040:	9e0303f0 	mcrls	3, 0, r0, cr3, cr0, {7}
    1044:	40000005 	andmi	r0, r0, r5
    1048:	0000dd17 	andeq	sp, r0, r7, lsl sp
    104c:	000e0000 	andeq	r0, lr, r0
    1050:	0000dd04 	andeq	sp, r0, r4, lsl #26
    1054:	00020f00 	andeq	r0, r2, r0, lsl #30
    1058:	00d60600 	sbcseq	r0, r6, r0, lsl #12
    105c:	00070000 	andeq	r0, r7, r0
    1060:	0001ff05 	andeq	pc, r1, r5, lsl #30
    1064:	00d60400 	sbcseq	r0, r6, r0, lsl #8
    1068:	02240000 	eoreq	r0, r4, #0
    106c:	d6060000 	strle	r0, [r6], -r0
    1070:	17000000 	strne	r0, [r0, -r0]
    1074:	00d60400 	sbcseq	r0, r6, r0, lsl #8
    1078:	02340000 	eorseq	r0, r4, #0
    107c:	d6060000 	strle	r0, [r6], -r0
    1080:	37000000 	strcc	r0, [r0, -r0]
    1084:	00fe0400 	rscseq	r0, lr, r0, lsl #8
    1088:	02440000 	subeq	r0, r4, #0
    108c:	d6060000 	strle	r0, [r6], -r0
    1090:	ef000000 	svc	0x00000000
    1094:	02340500 	eorseq	r0, r4, #0, 10
    1098:	d6040000 	strle	r0, [r4], -r0
    109c:	5a000000 	bpl	10a4 <__exidx_end+0x30>
    10a0:	13000002 	movwne	r0, #2
    10a4:	000000d6 	ldrdeq	r0, [r0], -r6
    10a8:	09000283 	stmdbeq	r0, {r0, r1, r7, r9}
    10ac:	000004f6 	strdeq	r0, [r0], -r6
    10b0:	00014f41 	andeq	r4, r1, r1, asr #30
    10b4:	06bb0a00 	ldrteq	r0, [fp], r0, lsl #20
    10b8:	00a40000 	adceq	r0, r4, r0
    10bc:	0e000000 	cdpeq	0, 0, cr0, cr0, cr0, {0}
    10c0:	01000000 	mrseq	r0, (UNDEF: 0)
    10c4:	069a0a9c 			@ <UNDEFINED> instruction: 0x069a0a9c
    10c8:	009f0000 	addseq	r0, pc, r0
    10cc:	0e000000 	cdpeq	0, 0, cr0, cr0, cr0, {0}
    10d0:	01000000 	mrseq	r0, (UNDEF: 0)
    10d4:	06000e9c 			@ <UNDEFINED> instruction: 0x06000e9c
    10d8:	d69a0000 	ldrle	r0, [sl], r0
    10dc:	00000000 	andeq	r0, r0, r0
    10e0:	08000000 	stmdaeq	r0, {}	@ <UNPREDICTABLE>
    10e4:	01000000 	mrseq	r0, (UNDEF: 0)
    10e8:	03bb0b9c 			@ <UNDEFINED> instruction: 0x03bb0b9c
    10ec:	d6860000 	strle	r0, [r6], r0
    10f0:	44000000 	strmi	r0, [r0], #-0
    10f4:	1e000003 	cdpne	0, 0, cr0, cr0, cr3, {0}
    10f8:	01000000 	mrseq	r0, (UNDEF: 0)
    10fc:	0002c49c 	muleq	r2, ip, r4
    1100:	05520200 	ldrbeq	r0, [r2, #-512]	@ 0xfffffe00
    1104:	27860000 	strcs	r0, [r6, r0]
    1108:	000000d6 	ldrdeq	r0, [r0], -r6
    110c:	000000a2 	andeq	r0, r0, r2, lsr #1
    1110:	0000009c 	muleq	r0, ip, r0
    1114:	05e70b00 	strbeq	r0, [r7, #2816]!	@ 0xb00
    1118:	d6750000 	ldrbtle	r0, [r5], -r0
    111c:	00000000 	andeq	r0, r0, r0
    1120:	24000000 	strcs	r0, [r0], #-0
    1124:	01000000 	mrseq	r0, (UNDEF: 0)
    1128:	0002f09c 	muleq	r2, ip, r0
    112c:	06e20200 	strbteq	r0, [r2], r0, lsl #4
    1130:	28750000 	ldmdacs	r5!, {}^	@ <UNPREDICTABLE>
    1134:	000002f0 	strdeq	r0, [r0], -r0	@ <UNPREDICTABLE>
    1138:	000000c0 	andeq	r0, r0, r0, asr #1
    113c:	000000bc 	strheq	r0, [r0], -ip
    1140:	05041400 	streq	r1, [r4, #-1024]	@ 0xfffffc00
    1144:	00746e69 	rsbseq	r6, r4, r9, ror #28
    1148:	00050d07 	andeq	r0, r5, r7, lsl #26
    114c:	00006d00 	andeq	r6, r0, r0, lsl #26
    1150:	001c0000 	andseq	r0, ip, r0
    1154:	9c010000 	stcls	0, cr0, [r1], {-0}
    1158:	0000031f 	andeq	r0, r0, pc, lsl r3
    115c:	0006e202 	andeq	lr, r6, r2, lsl #4
    1160:	f0246d00 			@ <UNDEFINED> instruction: 0xf0246d00
    1164:	d7000002 	strle	r0, [r0, -r2]
    1168:	d3000000 	movwle	r0, #0
    116c:	00000000 	andeq	r0, r0, r0
    1170:	00065b07 	andeq	r5, r6, r7, lsl #22
    1174:	00006500 	andeq	r6, r0, r0, lsl #10
    1178:	001c0000 	andseq	r0, ip, r0
    117c:	9c010000 	stcls	0, cr0, [r1], {-0}
    1180:	00000347 	andeq	r0, r0, r7, asr #6
    1184:	0006e202 	andeq	lr, r6, r2, lsl #4
    1188:	f0266500 			@ <UNDEFINED> instruction: 0xf0266500
    118c:	ee000002 	cdp	0, 0, cr0, cr0, cr2, {0}
    1190:	ea000000 	b	1198 <__exidx_end+0x124>
    1194:	00000000 	andeq	r0, r0, r0
    1198:	0004e007 	andeq	lr, r4, r7
    119c:	00005d00 	andeq	r5, r0, r0, lsl #26
    11a0:	001c0000 	andseq	r0, ip, r0
    11a4:	9c010000 	stcls	0, cr0, [r1], {-0}
    11a8:	0000036f 	andeq	r0, r0, pc, ror #6
    11ac:	0006e202 	andeq	lr, r6, r2, lsl #4
    11b0:	f0215d00 			@ <UNDEFINED> instruction: 0xf0215d00
    11b4:	05000002 	streq	r0, [r0, #-2]
    11b8:	01000001 	tsteq	r0, r1
    11bc:	00000001 	andeq	r0, r0, r1
    11c0:	00052c07 	andeq	r2, r5, r7, lsl #24
    11c4:	00005500 	andeq	r5, r0, r0, lsl #10
    11c8:	001c0000 	andseq	r0, ip, r0
    11cc:	9c010000 	stcls	0, cr0, [r1], {-0}
    11d0:	00000397 	muleq	r0, r7, r3
    11d4:	0006e202 	andeq	lr, r6, r2, lsl #4
    11d8:	f0205500 			@ <UNDEFINED> instruction: 0xf0205500
    11dc:	1c000002 	stcne	0, cr0, [r0], {2}
    11e0:	18000001 	stmdane	r0, {r0}
    11e4:	00000001 	andeq	r0, r0, r1
    11e8:	0005a30b 	andeq	sl, r5, fp, lsl #6
    11ec:	00d64700 	sbcseq	r4, r6, r0, lsl #14
    11f0:	00000000 	andeq	r0, r0, r0
    11f4:	00240000 	eoreq	r0, r4, r0
    11f8:	9c010000 	stcls	0, cr0, [r1], {-0}
    11fc:	000003c3 	andeq	r0, r0, r3, asr #7
    1200:	0006e202 	andeq	lr, r6, r2, lsl #4
    1204:	f0294700 			@ <UNDEFINED> instruction: 0xf0294700
    1208:	33000002 	movwcc	r0, #2
    120c:	2f000001 	svccs	0x00000001
    1210:	00000001 	andeq	r0, r0, r1
    1214:	0003f907 	andeq	pc, r3, r7, lsl #18
    1218:	031c3800 	tsteq	ip, #0, 16
    121c:	00280000 	eoreq	r0, r8, r0
    1220:	9c010000 	stcls	0, cr0, [r1], {-0}
    1224:	000003fe 	strdeq	r0, [r0], -lr
    1228:	0006e202 	andeq	lr, r6, r2, lsl #4
    122c:	f0253800 			@ <UNDEFINED> instruction: 0xf0253800
    1230:	4a000002 	bmi	1240 <__exidx_end+0x1cc>
    1234:	46000001 	strmi	r0, [r0], -r1
    1238:	02000001 	andeq	r0, r0, #1
    123c:	0000010d 	andeq	r0, r0, sp, lsl #2
    1240:	00d63438 	sbcseq	r3, r6, r8, lsr r4
    1244:	01610000 	cmneq	r1, r0
    1248:	015d0000 	cmpeq	sp, r0
    124c:	0a000000 	beq	1254 <__exidx_end+0x1e0>
    1250:	0000063e 	andeq	r0, r0, lr, lsr r6
    1254:	00000033 	andeq	r0, r0, r3, lsr r0
    1258:	00001000 	andeq	r1, r0, r0
    125c:	0e9c0100 	fmleqe	f0, f4, f0
    1260:	00000585 	andeq	r0, r0, r5, lsl #11
    1264:	0000d62e 	andeq	sp, r0, lr, lsr #12
    1268:	00000000 	andeq	r0, r0, r0
    126c:	00001000 	andeq	r1, r0, r0
    1270:	159c0100 	ldrne	r0, [ip, #256]	@ 0x100
    1274:	00000681 	andeq	r0, r0, r1, lsl #13
    1278:	d60a2101 	strle	r2, [sl], -r1, lsl #2
    127c:	00000000 	andeq	r0, r0, r0
    1280:	20000000 	andcs	r0, r0, r0
    1284:	01000000 	mrseq	r0, (UNDEF: 0)
    1288:	0626029c 			@ <UNDEFINED> instruction: 0x0626029c
    128c:	2d210000 	stccs	0, cr0, [r1, #-0]
    1290:	000000d6 	ldrdeq	r0, [r0], -r6
    1294:	00000178 	andeq	r0, r0, r8, ror r1
    1298:	00000174 	andeq	r0, r0, r4, ror r1
    129c:	0006340f 	andeq	r3, r6, pc, lsl #8
    12a0:	00d62300 	sbcseq	r2, r6, r0, lsl #6
    12a4:	018f0000 	orreq	r0, pc, r0
    12a8:	018b0000 	orreq	r0, fp, r0
    12ac:	410f0000 	mrsmi	r0, CPSR
    12b0:	24000005 	strcs	r0, [r0], #-5
    12b4:	000000d6 	ldrdeq	r0, [r0], -r6
    12b8:	000001a4 	andeq	r0, r0, r4, lsr #3
    12bc:	000001a0 	andeq	r0, r0, r0, lsr #3
    12c0:	0b9e0000 	bleq	fe7812c8 <SCB_ICSR+0x1e7725c4>
    12c4:	00050000 	andeq	r0, r5, r0
    12c8:	06aa0401 	strteq	r0, [sl], r1, lsl #8
    12cc:	651e0000 	ldrvs	r0, [lr, #-0]
    12d0:	1d000002 	stcne	0, cr0, [r0, #-8]
    12d4:	00000811 	andeq	r0, r0, r1, lsl r8
    12d8:	00000371 	andeq	r0, r0, r1, ror r3
    12dc:	0000010d 	andeq	r0, r0, sp, lsl #2
    12e0:	00000000 	andeq	r0, r0, r0
    12e4:	0000077e 	andeq	r0, r0, lr, ror r7
    12e8:	6905041f 	stmdbvs	r5, {r0, r1, r2, r3, r4, sl}
    12ec:	0800746e 	stmdaeq	r0, {r1, r2, r3, r5, r6, sl, ip, sp, lr}
    12f0:	00860704 	addeq	r0, r6, r4, lsl #14
    12f4:	2d110000 	ldccs	0, cr0, [r1, #-0]
    12f8:	08000000 	stmdaeq	r0, {}	@ <UNPREDICTABLE>
    12fc:	00a10508 	adceq	r0, r1, r8, lsl #10
    1300:	08080000 	stmdaeq	r8, {}	@ <UNPREDICTABLE>
    1304:	00016804 	andeq	r6, r1, r4, lsl #16
    1308:	06010800 	streq	r0, [r1], -r0, lsl #16
    130c:	0000018c 	andeq	r0, r0, ip, lsl #3
    1310:	8a080108 	bhi	201738 <__exidx_end+0x2006c4>
    1314:	11000001 	tstne	r0, r1
    1318:	0000004e 	andeq	r0, r0, lr, asr #32
    131c:	ca050208 	bgt	141b44 <__exidx_end+0x140ad0>
    1320:	08000000 	stmdaeq	r0, {}	@ <UNPREDICTABLE>
    1324:	01d60702 	bicseq	r0, r6, r2, lsl #14
    1328:	04080000 	streq	r0, [r8], #-0
    132c:	0000a605 	andeq	sl, r0, r5, lsl #12
    1330:	07040800 	streq	r0, [r4, -r0, lsl #16]
    1334:	00000081 	andeq	r0, r0, r1, lsl #1
    1338:	7c070808 	stcvc	8, cr0, [r7], {8}
    133c:	20000000 	andcs	r0, r0, r0
    1340:	08010804 	stmdaeq	r1, {r2, fp}
    1344:	00000193 	muleq	r0, r3, r1
    1348:	18044021 	stmdane	r4, {r0, r5, lr}
    134c:	00014609 	andeq	r4, r1, r9, lsl #12
    1350:	06200100 	strteq	r0, [r0], -r0, lsl #2
    1354:	1a040000 	bne	10135c <__exidx_end+0x1002e8>
    1358:	00003417 	andeq	r3, r0, r7, lsl r4
    135c:	e2010000 	and	r0, r1, #0
    1360:	04000005 	streq	r0, [r0], #-5
    1364:	0034171b 	eorseq	r1, r4, fp, lsl r7
    1368:	01040000 	mrseq	r0, (UNDEF: 4)
    136c:	00000558 	andeq	r0, r0, r8, asr r5
    1370:	34171c04 	ldrcc	r1, [r7], #-3076	@ 0xfffff3fc
    1374:	08000000 	stmdaeq	r0, {}	@ <UNPREDICTABLE>
    1378:	00061501 	andeq	r1, r6, r1, lsl #10
    137c:	171d0400 	ldrne	r0, [sp, -r0, lsl #8]
    1380:	00000034 	andeq	r0, r0, r4, lsr r0
    1384:	43530b0c 	cmpmi	r3, #12, 22	@ 0x3000
    1388:	1e040052 	mcrne	0, 0, r0, cr4, cr2, {2}
    138c:	00003417 	andeq	r3, r0, r7, lsl r4
    1390:	430b1000 	movwmi	r1, #45056	@ 0xb000
    1394:	04005243 	streq	r5, [r0], #-579	@ 0xfffffdbd
    1398:	0034171f 	eorseq	r1, r4, pc, lsl r7
    139c:	0b140000 	bleq	5013a4 <__exidx_end+0x500330>
    13a0:	00504853 	subseq	r4, r0, r3, asr r8
    13a4:	561c2004 	ldrpl	r2, [ip], -r4
    13a8:	18000001 	stmdane	r0, {r0}
    13ac:	00052601 	andeq	r2, r5, r1, lsl #12
    13b0:	17210400 	strne	r0, [r1, -r0, lsl #8]!
    13b4:	00000034 	andeq	r0, r0, r4, lsr r0
    13b8:	05bd0124 	ldreq	r0, [sp, #292]!	@ 0x124
    13bc:	22040000 	andcs	r0, r4, #0
    13c0:	00003417 	andeq	r3, r0, r7, lsl r4
    13c4:	c2012800 	andgt	r2, r1, #0, 16
    13c8:	04000005 	streq	r0, [r0], #-5
    13cc:	00341723 	eorseq	r1, r4, r3, lsr #14
    13d0:	012c0000 			@ <UNDEFINED> instruction: 0x012c0000
    13d4:	000005dd 	ldrdeq	r0, [r0], -sp
    13d8:	34172404 	ldrcc	r2, [r7], #-1028	@ 0xfffffbfc
    13dc:	30000000 	andcc	r0, r0, r0
    13e0:	00065501 	andeq	r5, r6, r1, lsl #10
    13e4:	17250400 	strne	r0, [r5, -r0, lsl #8]!
    13e8:	00000034 	andeq	r0, r0, r4, lsr r0
    13ec:	061b0134 			@ <UNDEFINED> instruction: 0x061b0134
    13f0:	26040000 	strcs	r0, [r4], -r0
    13f4:	00003417 	andeq	r3, r0, r7, lsl r4
    13f8:	d3013800 	movwle	r3, #6144	@ 0x1800
    13fc:	04000006 	streq	r0, [r0], #-6
    1400:	00341727 	eorseq	r1, r4, r7, lsr #14
    1404:	003c0000 	eorseq	r0, ip, r0
    1408:	00005522 	andeq	r5, r0, r2, lsr #10
    140c:	00015600 	andeq	r5, r1, r0, lsl #12
    1410:	002d1600 	eoreq	r1, sp, r0, lsl #12
    1414:	000b0000 	andeq	r0, fp, r0
    1418:	00014611 	andeq	r4, r1, r1, lsl r6
    141c:	05c70400 	strbeq	r0, [r7, #1024]	@ 0x400
    1420:	28040000 	stmdacs	r4, {}	@ <UNPREDICTABLE>
    1424:	00008603 	andeq	r8, r0, r3, lsl #12
    1428:	01460400 	cmpeq	r6, r0, lsl #8
    142c:	1c030000 	stcne	0, cr0, [r3], {-0}
    1430:	00007f0e 	andeq	r7, r0, lr, lsl #30
    1434:	4e492300 	cdpmi	3, 4, cr2, cr9, cr0, {0}
    1438:	1e030054 	mcrne	0, 0, r0, cr3, cr4, {2}
    143c:	00002610 	andeq	r2, r0, r0, lsl r6
    1440:	01540400 	cmpeq	r4, r0, lsl #8
    1444:	1f030000 	svcne	0x00030000
    1448:	00002d12 	andeq	r2, r0, r2, lsl sp
    144c:	01ac0400 			@ <UNDEFINED> instruction: 0x01ac0400
    1450:	20030000 	andcs	r0, r3, r0
    1454:	00006f17 	andeq	r6, r0, r7, lsl pc
    1458:	01ad0400 			@ <UNDEFINED> instruction: 0x01ad0400
    145c:	21030000 	mrscs	r0, (UNDEF: 3)
    1460:	0000680e 	andeq	r6, r0, lr, lsl #16
    1464:	006b0400 	rsbeq	r0, fp, r0, lsl #8
    1468:	22030000 	andcs	r0, r3, #0
    146c:	00007d0f 	andeq	r7, r0, pc, lsl #26
    1470:	01a30a00 			@ <UNDEFINED> instruction: 0x01a30a00
    1474:	11040000 	mrsne	r0, (UNDEF: 4)
    1478:	03000000 	movweq	r0, #0
    147c:	002d1226 	eoreq	r1, sp, r6, lsr #4
    1480:	2f040000 	svccs	0x00040000
    1484:	03000002 	movweq	r0, #2
    1488:	004e1752 	subeq	r1, lr, r2, asr r7
    148c:	3e040000 	cdpcc	0, 0, cr0, cr4, cr0, {0}
    1490:	03000001 	movweq	r0, #1
    1494:	004e1753 	subeq	r1, lr, r3, asr r7
    1498:	14040000 	strne	r0, [r4], #-0
    149c:	03000003 	movweq	r0, #3
    14a0:	006f1754 	rsbeq	r1, pc, r4, asr r7	@ <UNPREDICTABLE>
    14a4:	d80a0000 	stmdale	sl, {}	@ <UNPREDICTABLE>
    14a8:	04000001 	streq	r0, [r0], #-1
    14ac:	00000159 	andeq	r0, r0, r9, asr r1
    14b0:	970e8703 	strls	r8, [lr, -r3, lsl #14]
    14b4:	04000001 	streq	r0, [r0], #-1
    14b8:	000007af 	andeq	r0, r0, pc, lsr #15
    14bc:	970eb903 	strls	fp, [lr, -r3, lsl #18]
    14c0:	04000001 	streq	r0, [r0], #-1
    14c4:	000002e0 	andeq	r0, r0, r0, ror #5
    14c8:	8b0fc803 	blhi	3f34dc <__exidx_end+0x3f2468>
    14cc:	04000001 	streq	r0, [r0], #-1
    14d0:	000002fa 	strdeq	r0, [r0], -sl
    14d4:	8b0fd603 	blhi	3f6ce8 <__exidx_end+0x3f5c74>
    14d8:	04000001 	streq	r0, [r0], #-1
    14dc:	000007b8 			@ <UNDEFINED> instruction: 0x000007b8
    14e0:	2515ea03 	ldrcs	lr, [r5, #-2563]	@ 0xfffff5fd
    14e4:	0c000002 	stceq	0, cr0, [r0], {2}
    14e8:	00000198 	muleq	r0, r8, r1
    14ec:	030b4258 	movweq	r4, #45656	@ 0xb258
    14f0:	730b0000 	movwvc	r0, #45056	@ 0xb000
    14f4:	45050070 	strmi	r0, [r5, #-112]	@ 0xffffff90
    14f8:	0004750a 	andeq	r7, r4, sl, lsl #10
    14fc:	e9010000 	stmdb	r1, {}	@ <UNPREDICTABLE>
    1500:	05000001 	streq	r0, [r0, #-1]
    1504:	02011446 	andeq	r1, r1, #1174405120	@ 0x46000000
    1508:	01040000 	mrseq	r0, (UNDEF: 4)
    150c:	000001f8 	strdeq	r0, [r0], -r8
    1510:	8b0b4705 	blhi	2d312c <__exidx_end+0x2d20b8>
    1514:	08000001 	stmdaeq	r0, {r0}
    1518:	00014b01 	andeq	r4, r1, r1, lsl #22
    151c:	0b490500 	bleq	1242924 <__exidx_end+0x12418b0>
    1520:	00000470 	andeq	r0, r0, r0, ror r4
    1524:	0210010c 	andseq	r0, r0, #12, 2
    1528:	4a050000 	bmi	141530 <__exidx_end+0x1404bc>
    152c:	0004750a 	andeq	r7, r4, sl, lsl #10
    1530:	95011000 	strls	r1, [r1, #-0]
    1534:	05000003 	streq	r0, [r0, #-3]
    1538:	017f0a4b 	cmneq	pc, fp, asr #20
    153c:	0b140000 	bleq	501544 <__exidx_end+0x5004d0>
    1540:	00646970 	rsbeq	r6, r4, r0, ror r9
    1544:	c00c4c05 	andgt	r4, ip, r5, lsl #24
    1548:	18000001 	stmdane	r0, {r0}
    154c:	00010d01 	andeq	r0, r1, r1, lsl #26
    1550:	0d4d0500 	cfstr64eq	mvdx0, [sp, #-0]
    1554:	000001cc 	andeq	r0, r0, ip, asr #3
    1558:	01290119 			@ <UNDEFINED> instruction: 0x01290119
    155c:	52050000 	andpl	r0, r5, #0
    1560:	0001b40a 	andeq	fp, r1, sl, lsl #8
    1564:	74011c00 	strvc	r1, [r1], #-3072	@ 0xfffff400
    1568:	05000001 	streq	r0, [r0, #-1]
    156c:	01d80d62 	bicseq	r0, r8, r2, ror #26
    1570:	01200000 			@ <UNDEFINED> instruction: 0x01200000
    1574:	00000100 	andeq	r0, r0, r0, lsl #2
    1578:	d80d6405 	stmdale	sp, {r0, r2, sl, sp, lr}
    157c:	24000001 	strcs	r0, [r0], #-1
    1580:	00011e01 	andeq	r1, r1, r1, lsl #28
    1584:	0a660500 	beq	198298c <__exidx_end+0x1981918>
    1588:	000001b4 			@ <UNDEFINED> instruction: 0x000001b4
    158c:	021d0128 	andseq	r0, sp, #40, 2
    1590:	67050000 	strvs	r0, [r5, -r0]
    1594:	0001b40a 	andeq	fp, r1, sl, lsl #8
    1598:	ef012c00 	svc	0x00012c00
    159c:	05000002 	streq	r0, [r0, #-2]
    15a0:	017f0a69 	cmneq	pc, r9, ror #20
    15a4:	01300000 	teqeq	r0, r0
    15a8:	00000243 	andeq	r0, r0, r3, asr #4
    15ac:	c00c6a05 	andgt	r6, ip, r5, lsl #20
    15b0:	34000001 	strcc	r0, [r0], #-1
    15b4:	0000db0f 	andeq	sp, r0, pc, lsl #22
    15b8:	aa196b00 	bge	65c1c0 <__exidx_end+0x65b14c>
    15bc:	38000003 	stmdacc	r0, {r0, r1}
    15c0:	0001ce0f 	andeq	ip, r1, pc, lsl #28
    15c4:	56166c00 	ldrpl	r6, [r6], -r0, lsl #24
    15c8:	50000003 	andpl	r0, r0, r3
    15cc:	00220400 	eoreq	r0, r2, r0, lsl #8
    15d0:	ec030000 	stc	0, cr0, [r3], {-0}
    15d4:	00031716 	andeq	r1, r3, r6, lsl r7
    15d8:	00fa0c00 	rscseq	r0, sl, r0, lsl #24
    15dc:	3a140000 	bcc	5015e4 <__exidx_end+0x500570>
    15e0:	00000356 	andeq	r0, r0, r6, asr r3
    15e4:	00030a0f 	andeq	r0, r3, pc, lsl #20
    15e8:	56163c00 	ldrpl	r3, [r6], -r0, lsl #24
    15ec:	00000003 	andeq	r0, r0, r3
    15f0:	00009301 	andeq	r9, r0, r1, lsl #6
    15f4:	0b3d0500 	bleq	f429fc <__exidx_end+0xf41988>
    15f8:	00000470 	andeq	r0, r0, r0, ror r4
    15fc:	03050108 	movweq	r0, #20744	@ 0x5108
    1600:	3e050000 	cdpcc	0, 0, cr0, cr5, cr0, {0}
    1604:	00018b0b 	andeq	r8, r1, fp, lsl #22
    1608:	b6010c00 	strlt	r0, [r1], -r0, lsl #24
    160c:	05000003 	streq	r0, [r0, #-3]
    1610:	01b40a3f 			@ <UNDEFINED> instruction: 0x01b40a3f
    1614:	00100000 	andseq	r0, r0, r0
    1618:	0002250c 	andeq	r2, r2, ip, lsl #10
    161c:	7c340800 	ldcvc	8, cr0, [r4], #-0
    1620:	01000003 	tsteq	r0, r3
    1624:	00000116 	andeq	r0, r0, r6, lsl r1
    1628:	6b173605 	blvs	5cee44 <__exidx_end+0x5cddd0>
    162c:	00000004 	andeq	r0, r0, r4
    1630:	00020801 	andeq	r0, r2, r1, lsl #16
    1634:	17370500 	ldrne	r0, [r7, -r0, lsl #10]!
    1638:	0000046b 	andeq	r0, r0, fp, ror #8
    163c:	6b040004 	blvs	101654 <__exidx_end+0x1005e0>
    1640:	03000007 	movweq	r0, #7
    1644:	030b11ee 	movweq	r1, #45550	@ 0xb1ee
    1648:	2a040000 	bcs	101650 <__exidx_end+0x1005dc>
    164c:	03000000 	movweq	r0, #0
    1650:	039916ef 	orrseq	r1, r9, #250609664	@ 0xef00000
    1654:	880a0000 	stmdahi	sl, {}	@ <UNPREDICTABLE>
    1658:	06000003 	streq	r0, [r0], -r3
    165c:	00000225 	andeq	r0, r0, r5, lsr #4
    1660:	00080104 	andeq	r0, r8, r4, lsl #2
    1664:	1df00300 	ldclne	3, cr0, [r0]
    1668:	000003aa 	andeq	r0, r0, sl, lsr #7
    166c:	0002360c 	andeq	r3, r2, ip, lsl #12
    1670:	041f1800 	ldreq	r1, [pc], #-2048	@ 1678 <__exidx_end+0x604>
    1674:	01000004 	tsteq	r0, r4
    1678:	00000116 	andeq	r0, r0, r6, lsl r1
    167c:	5c1a2105 	ldfpls	f2, [sl], {5}
    1680:	00000004 	andeq	r0, r0, r4
    1684:	00020801 	andeq	r0, r2, r1, lsl #16
    1688:	1a220500 	bne	882a90 <__exidx_end+0x881a1c>
    168c:	0000045c 	andeq	r0, r0, ip, asr r4
    1690:	00160104 	andseq	r0, r6, r4, lsl #2
    1694:	23050000 	movwcs	r0, #20480	@ 0x5000
    1698:	00017f0a 	andeq	r7, r1, sl, lsl #30
    169c:	ae010800 	cdpge	8, 0, cr0, cr1, cr0, {0}
    16a0:	05000003 	streq	r0, [r0, #-3]
    16a4:	01d80d24 	bicseq	r0, r8, r4, lsr #26
    16a8:	010c0000 	mrseq	r0, (UNDEF: 12)
    16ac:	00000364 	andeq	r0, r0, r4, ror #6
    16b0:	d80d2505 	stmdale	sp, {r0, r2, r8, sl, sp}
    16b4:	10000001 	andne	r0, r0, r1
    16b8:	0000ba01 	andeq	fp, r0, r1, lsl #20
    16bc:	0e260500 	cfsh64eq	mvdx0, mvdx6, #0
    16c0:	00000461 	andeq	r0, r0, r1, ror #8
    16c4:	39040014 	stmdbcc	r4, {r2, r4}
    16c8:	03000000 	movweq	r0, #0
    16cc:	041019fe 	ldreq	r1, [r0], #-2558	@ 0xfffff602
    16d0:	ff0c0000 			@ <UNDEFINED> instruction: 0xff0c0000
    16d4:	24000001 	strcs	r0, [r0], #-1
    16d8:	00045cad 	andeq	r5, r4, sp, lsr #25
    16dc:	032e0100 			@ <UNDEFINED> instruction: 0x032e0100
    16e0:	af050000 	svcge	0x00050000
    16e4:	00020d10 	andeq	r0, r2, r0, lsl sp
    16e8:	b6010000 	strlt	r0, [r1], -r0
    16ec:	05000003 	streq	r0, [r0, #-3]
    16f0:	01b40ab0 			@ <UNDEFINED> instruction: 0x01b40ab0
    16f4:	01040000 	mrseq	r0, (UNDEF: 4)
    16f8:	00000160 	andeq	r0, r0, r0, ror #2
    16fc:	a30ab105 	movwge	fp, #41221	@ 0xa105
    1700:	08000001 	stmdaeq	r0, {r0}
    1704:	0001b20f 	andeq	fp, r1, pc, lsl #4
    1708:	1712b200 	ldrne	fp, [r2, -r0, lsl #4]
    170c:	0c000003 	stceq	0, cr0, [r0], {3}
    1710:	00019d01 	andeq	r9, r1, r1, lsl #26
    1714:	12b30500 	adcsne	r0, r3, #0, 10
    1718:	00000399 	muleq	r0, r9, r3
    171c:	aa060020 	bge	1817a4 <__exidx_end+0x180730>
    1720:	06000003 	streq	r0, [r0], -r3
    1724:	0000030b 	andeq	r0, r0, fp, lsl #6
    1728:	0004610a 	andeq	r6, r4, sl, lsl #2
    172c:	03560600 	cmpeq	r6, #0, 12
    1730:	67060000 	strvs	r0, [r6, -r0]
    1734:	06000001 	streq	r0, [r0], -r1
    1738:	00000173 	andeq	r0, r0, r3, ror r1
    173c:	0007dd17 	andeq	sp, r7, r7, lsl sp
    1740:	04841200 	streq	r1, [r4], #512	@ 0x200
    1744:	19060000 	stmdbne	r6, {}	@ <UNPREDICTABLE>
    1748:	0a000002 	beq	1758 <__exidx_end+0x6e4>
    174c:	00000484 	andeq	r0, r0, r4, lsl #9
    1750:	00037c24 	andeq	r7, r3, r4, lsr #24
    1754:	049f0400 	ldreq	r0, [pc], #1024	@ 175c <__exidx_end+0x6e8>
    1758:	2d160000 	ldccs	0, cr0, [r6, #-0]
    175c:	02000000 	andeq	r0, r0, #0
    1760:	071d1700 	ldreq	r1, [sp, -r0, lsl #14]
    1764:	8e170000 	cdphi	0, 1, cr0, cr7, cr0, {0}
    1768:	10000004 	andne	r0, r0, r4
    176c:	000007e4 	andeq	r0, r0, r4, ror #15
    1770:	e9082502 	stmdb	r8, {r1, r8, sl, sp}
    1774:	c4000001 	strgt	r0, [r0], #-1
    1778:	09000004 	stmdbeq	r0, {r2}
    177c:	000004c9 	andeq	r0, r0, r9, asr #9
    1780:	0004d309 	andeq	sp, r4, r9, lsl #6
    1784:	7c060000 	stcvc	0, cr0, [r6], {-0}
    1788:	0a000003 	beq	179c <__exidx_end+0x728>
    178c:	000004c4 	andeq	r0, r0, r4, asr #9
    1790:	00048406 	andeq	r8, r4, r6, lsl #8
    1794:	04ce0a00 	strbeq	r0, [lr], #2560	@ 0xa00
    1798:	13100000 	tstne	r0, #0
    179c:	02000007 	andeq	r0, r0, #7
    17a0:	04840929 	streq	r0, [r4], #2345	@ 0x929
    17a4:	04ee0000 	strbteq	r0, [lr], #0
    17a8:	c9090000 	stmdbgt	r9, {}	@ <UNPREDICTABLE>
    17ac:	00000004 	andeq	r0, r0, r4
    17b0:	00079112 	andeq	r9, r7, r2, lsl r1
    17b4:	ff270600 			@ <UNDEFINED> instruction: 0xff270600
    17b8:	09000004 	stmdbeq	r0, {r2}
    17bc:	000004ff 	strdeq	r0, [r0], -pc	@ <UNPREDICTABLE>
    17c0:	039e0600 	orrseq	r0, lr, #0, 12
    17c4:	ed100000 	ldc	0, cr0, [r0, #-0]
    17c8:	06000007 	streq	r0, [r0], -r7
    17cc:	01e90825 	mvneq	r0, r5, lsr #16
    17d0:	051f0000 	ldreq	r0, [pc, #-0]	@ 17d8 <__exidx_end+0x764>
    17d4:	ff090000 			@ <UNDEFINED> instruction: 0xff090000
    17d8:	09000004 	stmdbeq	r0, {r2}
    17dc:	000001d8 	ldrdeq	r0, [r0], -r8
    17e0:	070a1000 	streq	r1, [sl, -r0]
    17e4:	24020000 	strcs	r0, [r2], #-0
    17e8:	0001e908 	andeq	lr, r1, r8, lsl #18
    17ec:	00053a00 	andeq	r3, r5, r0, lsl #20
    17f0:	04660900 	strbteq	r0, [r6], #-2304	@ 0xfffff700
    17f4:	89090000 	stmdbhi	r9, {}	@ <UNPREDICTABLE>
    17f8:	00000004 	andeq	r0, r0, r4
    17fc:	00075112 	andeq	r5, r7, r2, lsl r1
    1800:	4b1e0200 	blmi	782008 <__exidx_end+0x780f94>
    1804:	09000005 	stmdbeq	r0, {r0, r2}
    1808:	0000017f 	andeq	r0, r0, pc, ror r1
    180c:	07281200 	streq	r1, [r8, -r0, lsl #4]!
    1810:	13070000 	movwne	r0, #28672	@ 0x7000
    1814:	0000055c 	andeq	r0, r0, ip, asr r5
    1818:	0001f509 	andeq	pc, r1, r9, lsl #10
    181c:	cb250000 	blgt	941824 <__exidx_end+0x9407b0>
    1820:	02000007 	andeq	r0, r0, #7
    1824:	017f061d 	cmneq	pc, sp, lsl r6	@ <UNPREDICTABLE>
    1828:	7f180000 	svcvc	0x00180000
    182c:	1c000007 	stcne	0, cr0, [r0], {7}
    1830:	01e90801 	mvneq	r0, r1, lsl #16
    1834:	00000000 	andeq	r0, r0, r0
    1838:	00460000 	subeq	r0, r6, r0
    183c:	9c010000 	stcls	0, cr0, [r1], {-0}
    1840:	000005f8 	strdeq	r0, [r0], -r8
    1844:	00073e13 	andeq	r3, r7, r3, lsl lr
    1848:	22011c00 	andcs	r1, r1, #0, 24
    184c:	000005fd 	strdeq	r0, [r0], -sp
    1850:	000001cd 	andeq	r0, r0, sp, asr #3
    1854:	000001c9 	andeq	r0, r0, r9, asr #3
    1858:	0007d413 	andeq	sp, r7, r3, lsl r4
    185c:	2e011c00 	cdpcs	12, 0, cr1, cr1, cr0, {0}
    1860:	00000602 	andeq	r0, r0, r2, lsl #12
    1864:	000001e1 	andeq	r0, r0, r1, ror #3
    1868:	000001dd 	ldrdeq	r0, [r0], -sp
    186c:	00075926 	andeq	r5, r7, r6, lsr #18
    1870:	011e0100 	tsteq	lr, r0, lsl #2
    1874:	00017f05 	andeq	r7, r1, r5, lsl #30
    1878:	00020100 	andeq	r0, r2, r0, lsl #2
    187c:	0001f100 	andeq	pc, r1, r0, lsl #2
    1880:	00000500 	andeq	r0, r0, r0, lsl #10
    1884:	055c0000 	ldrbeq	r0, [ip, #-0]
    1888:	00050000 	andeq	r0, r5, r0
    188c:	4b000000 	blmi	1894 <__exidx_end+0x820>
    1890:	03000005 	movweq	r0, #5
    1894:	00000000 	andeq	r0, r0, r0
    1898:	0000053a 	andeq	r0, r0, sl, lsr r5
    189c:	000005e5 	andeq	r0, r0, r5, ror #11
    18a0:	02500102 	subseq	r0, r0, #-2147483648	@ 0x80000000
    18a4:	05000076 	streq	r0, [r0, #-118]	@ 0xffffff8a
    18a8:	00000000 	andeq	r0, r0, r0
    18ac:	0000053a 	andeq	r0, r0, sl, lsr r5
    18b0:	00000005 	andeq	r0, r0, r5
    18b4:	00053a00 	andeq	r3, r5, r0, lsl #20
    18b8:	04060000 	streq	r0, [r6], #-0
    18bc:	0a000004 	beq	18d4 <__exidx_end+0x860>
    18c0:	000005f8 	strdeq	r0, [r0], -r8
    18c4:	0001a306 	andeq	sl, r1, r6, lsl #6
    18c8:	06f11800 	ldrbteq	r1, [r1], r0, lsl #16
    18cc:	01150000 	tsteq	r5, r0
    18d0:	0001b406 	andeq	fp, r1, r6, lsl #8
    18d4:	00000000 	andeq	r0, r0, r0
    18d8:	00000a00 	andeq	r0, r0, r0, lsl #20
    18dc:	369c0100 	ldrcc	r0, [ip], r0, lsl #2
    18e0:	13000006 	movwne	r0, #6
    18e4:	0000073e 	andeq	r0, r0, lr, lsr r7
    18e8:	fd210115 	stc2	1, cr0, [r1, #-84]!	@ 0xffffffac
    18ec:	33000005 	movwcc	r0, #5
    18f0:	2f000002 	svccs	0x00000002
    18f4:	00000002 	andeq	r0, r0, r2
    18f8:	00025b0d 	andeq	r5, r2, sp, lsl #22
    18fc:	01e9ca00 	mvneq	ip, r0, lsl #20
    1900:	04ec0000 	strbteq	r0, [ip], #0
    1904:	01380000 	teqeq	r8, r0
    1908:	9c010000 	stcls	0, cr0, [r1], {-0}
    190c:	000007da 	ldrdeq	r0, [r0], -sl
    1910:	00073e07 	andeq	r3, r7, r7, lsl #28
    1914:	fd22ca00 	stc2	10, cr12, [r2, #-0]	@ <UNPREDICTABLE>
    1918:	52000005 	andpl	r0, r0, #5
    191c:	46000002 	strmi	r0, [r0], -r2
    1920:	07000002 	streq	r0, [r0, -r2]
    1924:	00000762 	andeq	r0, r0, r2, ror #14
    1928:	06022eca 	streq	r2, [r2], -sl, asr #29
    192c:	02870000 	addeq	r0, r7, #0
    1930:	02830000 	addeq	r0, r3, #0
    1934:	ae070000 	cdpge	0, 0, cr0, cr7, cr0, {0}
    1938:	ca000003 	bgt	194c <__exidx_end+0x8d8>
    193c:	0001e446 	andeq	lr, r1, r6, asr #8
    1940:	00029c00 	andeq	r9, r2, r0, lsl #24
    1944:	00029800 	andeq	r9, r2, r0, lsl #16
    1948:	07590e00 	ldrbeq	r0, [r9, -r0, lsl #28]
    194c:	7fcd0000 	svcvc	0x00cd0000
    1950:	b9000001 	stmdblt	r0, {r0}
    1954:	ad000002 	stcge	0, cr0, [r0, #-8]
    1958:	19000002 	stmdbne	r0, {r1}
    195c:	000005c0 	andeq	r0, r0, r0, asr #11
    1960:	0000004c 	andeq	r0, r0, ip, asr #32
    1964:	000006ee 	andeq	r0, r0, lr, ror #13
    1968:	00074327 	andeq	r4, r7, r7, lsr #6
    196c:	01030100 	mrseq	r0, (UNDEF: 19)
    1970:	00048411 	andeq	r8, r4, r1, lsl r4
    1974:	5c910200 	lfmpl	f0, 4, [r1], {0}
    1978:	0005c803 	andeq	ip, r5, r3, lsl #16
    197c:	0004d800 	andeq	sp, r4, r0, lsl #16
    1980:	0006ca00 	andeq	ip, r6, r0, lsl #20
    1984:	50010200 	andpl	r0, r1, r0, lsl #4
    1988:	00007402 	andeq	r7, r0, r2, lsl #8
    198c:	0005d803 	andeq	sp, r5, r3, lsl #16
    1990:	0004a900 	andeq	sl, r4, r0, lsl #18
    1994:	0006e400 	andeq	lr, r6, r0, lsl #8
    1998:	50010200 	andpl	r0, r1, r0, lsl #4
    199c:	02007402 	andeq	r7, r0, #33554432	@ 0x2000000
    19a0:	91025101 	tstls	r2, r1, lsl #2
    19a4:	e805005c 	stmda	r5, {r2, r3, r4, r6}
    19a8:	1f000005 	svcne	0x00000005
    19ac:	00000005 	andeq	r0, r0, r5
    19b0:	000b8514 	andeq	r8, fp, r4, lsl r5
    19b4:	00050000 	andeq	r0, r5, r0
    19b8:	01010100 	mrseq	r0, (UNDEF: 17)
    19bc:	09cf0000 	stmibeq	pc, {}^	@ <UNPREDICTABLE>
    19c0:	0000070e 	andeq	r0, r0, lr, lsl #14
    19c4:	0001011a 	andeq	r0, r1, sl, lsl r1
    19c8:	0b931b00 	bleq	fe4c85d0 <SCB_ICSR+0x1e4b98cc>
    19cc:	00000000 	andeq	r0, r0, r0
    19d0:	0004fa05 	andeq	pc, r4, r5, lsl #20
    19d4:	00055c00 	andeq	r5, r5, r0, lsl #24
    19d8:	05100300 	ldreq	r0, [r0, #-768]	@ 0xfffffd00
    19dc:	054b0000 	strbeq	r0, [fp, #-0]
    19e0:	072b0000 	streq	r0, [fp, -r0]!
    19e4:	01020000 	mrseq	r0, (UNDEF: 2)
    19e8:	eb090250 	bl	242330 <__exidx_end+0x2412bc>
    19ec:	051c0300 	ldreq	r0, [ip, #-768]	@ 0xfffffd00
    19f0:	054b0000 	strbeq	r0, [fp, #-0]
    19f4:	073f0000 	ldreq	r0, [pc, -r0]!
    19f8:	01020000 	mrseq	r0, (UNDEF: 2)
    19fc:	fe090250 	mcr2	2, 0, r0, cr9, cr0, {2}
    1a00:	05280300 	streq	r0, [r8, #-768]!	@ 0xfffffd00
    1a04:	054b0000 	strbeq	r0, [fp, #-0]
    1a08:	07530000 	ldrbeq	r0, [r3, -r0]
    1a0c:	01020000 	mrseq	r0, (UNDEF: 2)
    1a10:	fd090250 	stc2	2, cr0, [r9, #-320]	@ 0xfffffec0
    1a14:	05360300 	ldreq	r0, [r6, #-768]!	@ 0xfffffd00
    1a18:	053a0000 	ldreq	r0, [sl, #-0]!
    1a1c:	07670000 	strbeq	r0, [r7, -r0]!
    1a20:	01020000 	mrseq	r0, (UNDEF: 2)
    1a24:	00750250 	rsbseq	r0, r5, r0, asr r2
    1a28:	05680300 	strbeq	r0, [r8, #-768]!	@ 0xfffffd00
    1a2c:	05040000 	streq	r0, [r4, #-0]
    1a30:	077b0000 	ldrbeq	r0, [fp, -r0]!
    1a34:	01020000 	mrseq	r0, (UNDEF: 2)
    1a38:	00760251 	rsbseq	r0, r6, r1, asr r2
    1a3c:	05720300 	ldrbeq	r0, [r2, #-768]!	@ 0xfffffd00
    1a40:	051f0000 	ldreq	r0, [pc, #-0]	@ 1a48 <__exidx_end+0x9d4>
    1a44:	078f0000 	streq	r0, [pc, r0]
    1a48:	01020000 	mrseq	r0, (UNDEF: 2)
    1a4c:	007a0250 	rsbseq	r0, sl, r0, asr r2
    1a50:	058a0300 	streq	r0, [sl, #768]	@ 0x300
    1a54:	053a0000 	ldreq	r0, [sl, #-0]!
    1a58:	07a30000 	streq	r0, [r3, r0]!
    1a5c:	01020000 	mrseq	r0, (UNDEF: 2)
    1a60:	00750250 	rsbseq	r0, r5, r0, asr r2
    1a64:	058e0500 	streq	r0, [lr, #1280]	@ 0x500
    1a68:	055c0000 	ldrbeq	r0, [ip, #-0]
    1a6c:	a0030000 	andge	r0, r3, r0
    1a70:	3a000005 	bcc	1a8c <__exidx_end+0xa18>
    1a74:	c0000005 	andgt	r0, r0, r5
    1a78:	02000007 	andeq	r0, r0, #7
    1a7c:	75025001 	strvc	r5, [r2, #-1]
    1a80:	b4050000 	strlt	r0, [r5], #-0
    1a84:	ee000005 	cdp	0, 0, cr0, cr0, cr5, {0}
    1a88:	15000004 	strne	r0, [r0, #-4]
    1a8c:	00000612 	andeq	r0, r0, r2, lsl r6
    1a90:	0000053a 	andeq	r0, r0, sl, lsr r5
    1a94:	02500102 	subseq	r0, r0, #-2147483648	@ 0x80000000
    1a98:	00000075 	andeq	r0, r0, r5, ror r0
    1a9c:	0008240d 	andeq	r2, r8, sp, lsl #8
    1aa0:	01e9a000 	mvneq	sl, r0
    1aa4:	00000000 	andeq	r0, r0, r0
    1aa8:	00300000 	eorseq	r0, r0, r0
    1aac:	9c010000 	stcls	0, cr0, [r1], {-0}
    1ab0:	0000087e 	andeq	r0, r0, lr, ror r8
    1ab4:	00073e07 	andeq	r3, r7, r7, lsl #28
    1ab8:	fd25a000 	stc2	0, cr10, [r5, #-0]
    1abc:	ea000005 	b	1ad8 <__exidx_end+0xa64>
    1ac0:	e6000002 	str	r0, [r0], -r2
    1ac4:	07000002 	streq	r0, [r0, -r2]
    1ac8:	00000789 	andeq	r0, r0, r9, lsl #15
    1acc:	01af36a0 			@ <UNDEFINED> instruction: 0x01af36a0
    1ad0:	02fe0000 	rscseq	r0, lr, #0
    1ad4:	02fa0000 	rscseq	r0, sl, #0
    1ad8:	590e0000 	stmdbpl	lr, {}	@ <UNPREDICTABLE>
    1adc:	a2000007 	andge	r0, r0, #7
    1ae0:	0000017f 	andeq	r0, r0, pc, ror r1
    1ae4:	00000312 	andeq	r0, r0, r2, lsl r3
    1ae8:	0000030e 	andeq	r0, r0, lr, lsl #6
    1aec:	00083c28 	andeq	r3, r8, r8, lsr #24
    1af0:	07732900 	ldrbeq	r2, [r3, -r0, lsl #18]!
    1af4:	b3010000 	movwlt	r0, #4096	@ 0x1000
    1af8:	00048415 	andeq	r8, r4, r5, lsl r4
    1afc:	00050000 	andeq	r0, r5, r0
    1b00:	5c000000 	stcpl	0, cr0, [r0], {-0}
    1b04:	03000005 	movweq	r0, #5
    1b08:	00000000 	andeq	r0, r0, r0
    1b0c:	0000054b 	andeq	r0, r0, fp, asr #10
    1b10:	00000859 	andeq	r0, r0, r9, asr r8
    1b14:	02500102 	subseq	r0, r0, #-2147483648	@ 0x80000000
    1b18:	0300fe09 	movweq	pc, #3593	@ 0xe09	@ <UNPREDICTABLE>
    1b1c:	00000000 	andeq	r0, r0, r0
    1b20:	0000054b 	andeq	r0, r0, fp, asr #10
    1b24:	0000086d 	andeq	r0, r0, sp, ror #16
    1b28:	02500102 	subseq	r0, r0, #-2147483648	@ 0x80000000
    1b2c:	1500fd09 	strne	pc, [r0, #-3337]	@ 0xfffff2f7
    1b30:	00000000 	andeq	r0, r0, r0
    1b34:	0000053a 	andeq	r0, r0, sl, lsr r5
    1b38:	02500102 	subseq	r0, r0, #-2147483648	@ 0x80000000
    1b3c:	00000076 	andeq	r0, r0, r6, ror r0
    1b40:	0003a40d 	andeq	sl, r3, sp, lsl #8
    1b44:	01e94f00 	mvneq	r4, r0, lsl #30
    1b48:	03b40000 			@ <UNDEFINED> instruction: 0x03b40000
    1b4c:	01380000 	teqeq	r8, r0
    1b50:	9c010000 	stcls	0, cr0, [r1], {-0}
    1b54:	00000a2a 	andeq	r0, r0, sl, lsr #20
    1b58:	00073e07 	andeq	r3, r7, r7, lsl #28
    1b5c:	fd224f00 	stc2	15, cr4, [r2, #-0]
    1b60:	2e000005 	cdpcs	0, 0, cr0, cr0, cr5, {0}
    1b64:	22000003 	andcs	r0, r0, #3
    1b68:	07000003 	streq	r0, [r0, -r3]
    1b6c:	00000789 	andeq	r0, r0, r9, lsl #15
    1b70:	01af334f 			@ <UNDEFINED> instruction: 0x01af334f
    1b74:	03630000 	cmneq	r3, #0
    1b78:	035f0000 	cmpeq	pc, #0
    1b7c:	ae070000 	cdpge	0, 0, cr0, cr7, cr0, {0}
    1b80:	50000003 	andpl	r0, r0, r3
    1b84:	0001e417 	andeq	lr, r1, r7, lsl r4
    1b88:	00037800 	andeq	r7, r3, r0, lsl #16
    1b8c:	00037400 	andeq	r7, r3, r0, lsl #8
    1b90:	07590e00 	ldrbeq	r0, [r9, -r0, lsl #28]
    1b94:	7f530000 	svcvc	0x00530000
    1b98:	95000001 	strls	r0, [r0, #-1]
    1b9c:	89000003 	stmdbhi	r0, {r0, r1}
    1ba0:	19000003 	stmdbne	r0, {r0, r1}
    1ba4:	00000482 	andeq	r0, r0, r2, lsl #9
    1ba8:	00000054 	andeq	r0, r0, r4, asr r0
    1bac:	0000093e 	andeq	r0, r0, lr, lsr r9
    1bb0:	0007732a 	andeq	r7, r7, sl, lsr #6
    1bb4:	118f0100 	orrne	r0, pc, r0, lsl #2
    1bb8:	00000484 	andeq	r0, r0, r4, lsl #9
    1bbc:	035c9102 	cmpeq	ip, #-2147483648	@ 0x80000000
    1bc0:	0000048a 	andeq	r0, r0, sl, lsl #9
    1bc4:	000004d8 	ldrdeq	r0, [r0], -r8
    1bc8:	00000911 	andeq	r0, r0, r1, lsl r9
    1bcc:	02500102 	subseq	r0, r0, #-2147483648	@ 0x80000000
    1bd0:	03000074 	movweq	r0, #116	@ 0x74
    1bd4:	0000049a 	muleq	r0, sl, r4
    1bd8:	000004a9 	andeq	r0, r0, r9, lsr #9
    1bdc:	0000092b 	andeq	r0, r0, fp, lsr #18
    1be0:	02500102 	subseq	r0, r0, #-2147483648	@ 0x80000000
    1be4:	01020074 	tsteq	r2, r4, ror r0
    1be8:	5c910251 	lfmpl	f0, 4, [r1], {81}	@ 0x51
    1bec:	04a20500 	strteq	r0, [r2], #1280	@ 0x500
    1bf0:	054b0000 	strbeq	r0, [fp, #-0]
    1bf4:	b2050000 	andlt	r0, r5, #0
    1bf8:	1f000004 	svcne	0x00000004
    1bfc:	00000005 	andeq	r0, r0, r5
    1c00:	000b8514 	andeq	r8, fp, r4, lsl r5
    1c04:	0003c800 	andeq	ip, r3, r0, lsl #16
    1c08:	00f50100 	rscseq	r0, r5, r0, lsl #2
    1c0c:	09550000 	ldmdbeq	r5, {}^	@ <UNPREDICTABLE>
    1c10:	0000095e 	andeq	r0, r0, lr, asr r9
    1c14:	0000f51a 	andeq	pc, r0, sl, lsl r5	@ <UNPREDICTABLE>
    1c18:	0b931b00 	bleq	fe4c8820 <SCB_ICSR+0x1e4b9b1c>
    1c1c:	00000000 	andeq	r0, r0, r0
    1c20:	0003c205 	andeq	ip, r3, r5, lsl #4
    1c24:	00055c00 	andeq	r5, r5, r0, lsl #24
    1c28:	03d80300 	bicseq	r0, r8, #0, 6
    1c2c:	054b0000 	strbeq	r0, [fp, #-0]
    1c30:	097b0000 	ldmdbeq	fp!, {}^	@ <UNPREDICTABLE>
    1c34:	01020000 	mrseq	r0, (UNDEF: 2)
    1c38:	eb090250 	bl	242580 <__exidx_end+0x24150c>
    1c3c:	03e40300 	mvneq	r0, #0, 6
    1c40:	054b0000 	strbeq	r0, [fp, #-0]
    1c44:	098f0000 	stmibeq	pc, {}	@ <UNPREDICTABLE>
    1c48:	01020000 	mrseq	r0, (UNDEF: 2)
    1c4c:	fe090250 	mcr2	2, 0, r0, cr9, cr0, {2}
    1c50:	03f00300 	mvnseq	r0, #0, 6
    1c54:	054b0000 	strbeq	r0, [fp, #-0]
    1c58:	09a30000 	stmibeq	r3!, {}	@ <UNPREDICTABLE>
    1c5c:	01020000 	mrseq	r0, (UNDEF: 2)
    1c60:	fd090250 	stc2	2, cr0, [r9, #-320]	@ 0xfffffec0
    1c64:	03fe0300 	mvnseq	r0, #0, 6
    1c68:	053a0000 	ldreq	r0, [sl, #-0]!
    1c6c:	09b70000 	ldmibeq	r7!, {}	@ <UNPREDICTABLE>
    1c70:	01020000 	mrseq	r0, (UNDEF: 2)
    1c74:	00750250 	rsbseq	r0, r5, r0, asr r2
    1c78:	041a0300 	ldreq	r0, [sl], #-768	@ 0xfffffd00
    1c7c:	051f0000 	ldreq	r0, [pc, #-0]	@ 1c84 <__exidx_end+0xc10>
    1c80:	09cb0000 	stmibeq	fp, {}^	@ <UNPREDICTABLE>
    1c84:	01020000 	mrseq	r0, (UNDEF: 2)
    1c88:	007a0250 	rsbseq	r0, sl, r0, asr r2
    1c8c:	043a0300 	ldrteq	r0, [sl], #-768	@ 0xfffffd00
    1c90:	05040000 	streq	r0, [r4, #-0]
    1c94:	09df0000 	ldmibeq	pc, {}^	@ <UNPREDICTABLE>
    1c98:	01020000 	mrseq	r0, (UNDEF: 2)
    1c9c:	00760251 	rsbseq	r0, r6, r1, asr r2
    1ca0:	04520300 	ldrbeq	r0, [r2], #-768	@ 0xfffffd00
    1ca4:	053a0000 	ldreq	r0, [sl, #-0]!
    1ca8:	09f30000 	ldmibeq	r3!, {}^	@ <UNPREDICTABLE>
    1cac:	01020000 	mrseq	r0, (UNDEF: 2)
    1cb0:	00750250 	rsbseq	r0, r5, r0, asr r2
    1cb4:	04560500 	ldrbeq	r0, [r6], #-1280	@ 0xfffffb00
    1cb8:	055c0000 	ldrbeq	r0, [ip, #-0]
    1cbc:	68030000 	stmdavs	r3, {}	@ <UNPREDICTABLE>
    1cc0:	3a000004 	bcc	1cd8 <__exidx_end+0xc64>
    1cc4:	10000005 	andne	r0, r0, r5
    1cc8:	0200000a 	andeq	r0, r0, #10
    1ccc:	75025001 	strvc	r5, [r2, #-1]
    1cd0:	7c050000 	stcvc	0, cr0, [r5], {-0}
    1cd4:	ee000004 	cdp	0, 0, cr0, cr0, cr4, {0}
    1cd8:	15000004 	strne	r0, [r0, #-4]
    1cdc:	000004dc 	ldrdeq	r0, [r0], -ip
    1ce0:	0000053a 	andeq	r0, r0, sl, lsr r5
    1ce4:	02500102 	subseq	r0, r0, #-2147483648	@ 0x80000000
    1ce8:	00000075 	andeq	r0, r0, r5, ror r0
    1cec:	0006fc0d 	andeq	pc, r6, sp, lsl #24
    1cf0:	01e94100 	mvneq	r4, r0, lsl #2
    1cf4:	00000000 	andeq	r0, r0, r0
    1cf8:	00260000 	eoreq	r0, r6, r0
    1cfc:	9c010000 	stcls	0, cr0, [r1], {-0}
    1d00:	00000a96 	muleq	r0, r6, sl
    1d04:	00073e07 	andeq	r3, r7, r7, lsl #28
    1d08:	fd264100 	stc2	1, cr4, [r6, #-0]
    1d0c:	c6000005 	strgt	r0, [r0], -r5
    1d10:	c2000003 	andgt	r0, r0, #3
    1d14:	07000003 	streq	r0, [r0, -r3]
    1d18:	000007a4 	andeq	r0, r0, r4, lsr #15
    1d1c:	03944141 	orrseq	r4, r4, #1073741840	@ 0x40000010
    1d20:	03da0000 	bicseq	r0, sl, #0
    1d24:	03d60000 	bicseq	r0, r6, #0
    1d28:	590e0000 	stmdbpl	lr, {}	@ <UNPREDICTABLE>
    1d2c:	43000007 	movwmi	r0, #7
    1d30:	0000017f 	andeq	r0, r0, pc, ror r1
    1d34:	000003f0 	strdeq	r0, [r0], -r0	@ <UNPREDICTABLE>
    1d38:	000003ea 	andeq	r0, r0, sl, ror #7
    1d3c:	00000005 	andeq	r0, r0, r5
    1d40:	00055c00 	andeq	r5, r5, r0, lsl #24
    1d44:	00000500 	andeq	r0, r0, r0, lsl #10
    1d48:	053a0000 	ldreq	r0, [sl, #-0]!
    1d4c:	00050000 	andeq	r0, r5, r0
    1d50:	3a000000 	bcc	1d58 <__exidx_end+0xce4>
    1d54:	00000005 	andeq	r0, r0, r5
    1d58:	0001c40d 	andeq	ip, r1, sp, lsl #8
    1d5c:	01e92c00 	mvneq	r2, r0, lsl #24
    1d60:	03640000 	cmneq	r4, #0
    1d64:	00500000 	subseq	r0, r0, r0
    1d68:	9c010000 	stcls	0, cr0, [r1], {-0}
    1d6c:	00000b5d 	andeq	r0, r0, sp, asr fp
    1d70:	00073e07 	andeq	r3, r7, r7, lsl #28
    1d74:	fd222c00 	stc2	12, cr2, [r2, #-0]
    1d78:	09000005 	stmdbeq	r0, {r0, r2}
    1d7c:	05000004 	streq	r0, [r0, #-4]
    1d80:	07000004 	streq	r0, [r0, -r4]
    1d84:	000007bf 			@ <UNDEFINED> instruction: 0x000007bf
    1d88:	01af332c 			@ <UNDEFINED> instruction: 0x01af332c
    1d8c:	04250000 	strteq	r0, [r5], #-0
    1d90:	04190000 	ldreq	r0, [r9], #-0
    1d94:	590e0000 	stmdbpl	lr, {}	@ <UNPREDICTABLE>
    1d98:	2e000007 	cdpcs	0, 0, cr0, cr0, cr7, {0}
    1d9c:	0000017f 	andeq	r0, r0, pc, ror r1
    1da0:	00000458 	andeq	r0, r0, r8, asr r4
    1da4:	00000450 	andeq	r0, r0, r0, asr r4
    1da8:	0008312b 	andeq	r3, r8, fp, lsr #2
    1dac:	0c370100 	ldfeqs	f0, [r7], #-0
    1db0:	000001e9 	andeq	r0, r0, r9, ror #3
    1db4:	0b5d1400 	bleq	1746dbc <__exidx_end+0x1745d48>
    1db8:	03920000 	orrseq	r0, r2, #0
    1dbc:	e9020000 	stmdb	r2, {}	@ <UNPREDICTABLE>
    1dc0:	38000000 	stmdacc	r0, {}	@ <UNPREDICTABLE>
    1dc4:	000b220f 	andeq	r2, fp, pc, lsl #4
    1dc8:	0b791c00 	bleq	1e48dd0 <__exidx_end+0x1e47d5c>
    1dcc:	04740000 	ldrbteq	r0, [r4], #-0
    1dd0:	04720000 	ldrbteq	r0, [r2], #-0
    1dd4:	6e1c0000 	cdpvs	0, 1, cr0, cr12, cr0, {0}
    1dd8:	8400000b 	strhi	r0, [r0], #-11
    1ddc:	82000004 	andhi	r0, r0, #4
    1de0:	00000004 	andeq	r0, r0, r4
    1de4:	00036e05 	andeq	r6, r3, r5, lsl #28
    1de8:	00055c00 	andeq	r5, r5, r0, lsl #24
    1dec:	037a0300 	cmneq	sl, #0, 6
    1df0:	054b0000 	strbeq	r0, [fp, #-0]
    1df4:	0b3f0000 	bleq	fc1dfc <__exidx_end+0xfc0d88>
    1df8:	01020000 	mrseq	r0, (UNDEF: 2)
    1dfc:	fe090250 	mcr2	2, 0, r0, cr9, cr0, {2}
    1e00:	03800300 	orreq	r0, r0, #0, 6
    1e04:	053a0000 	ldreq	r0, [sl, #-0]!
    1e08:	0b530000 	bleq	14c1e10 <__exidx_end+0x14c0d9c>
    1e0c:	01020000 	mrseq	r0, (UNDEF: 2)
    1e10:	00760250 	rsbseq	r0, r6, r0, asr r2
    1e14:	03aa0500 			@ <UNDEFINED> instruction: 0x03aa0500
    1e18:	053a0000 	ldreq	r0, [sl, #-0]!
    1e1c:	2c000000 	stccs	0, cr0, [r0], {-0}
    1e20:	00000734 	andeq	r0, r0, r4, lsr r7
    1e24:	e9353c02 	ldmdb	r5!, {r1, sl, fp, ip, sp}
    1e28:	03000001 	movweq	r0, #1
    1e2c:	00000b85 	andeq	r0, r0, r5, lsl #23
    1e30:	00073e1d 	andeq	r3, r7, sp, lsl lr
    1e34:	664e3c00 	strbvs	r3, [lr], -r0, lsl #24
    1e38:	1d000004 	stcne	0, cr0, [r0, #-16]
    1e3c:	00000093 	muleq	r0, r3, r0
    1e40:	04700f3d 	ldrbteq	r0, [r0], #-3901	@ 0xfffff0c3
    1e44:	2d000000 	stccs	0, cr0, [r0, #-0]
    1e48:	0000081d 	andeq	r0, r0, sp, lsl r8
    1e4c:	0a013e03 	beq	51660 <__exidx_end+0x505ec>
    1e50:	0000002d 	andeq	r0, r0, sp, lsr #32
    1e54:	07f62e03 	ldrbeq	r2, [r6, r3, lsl #28]!
    1e58:	40030000 	andmi	r0, r3, r0
    1e5c:	002d0e01 	eoreq	r0, sp, r1, lsl #28
    1e60:	00000000 	andeq	r0, r0, r0
    1e64:	000015b1 			@ <UNDEFINED> instruction: 0x000015b1
    1e68:	04010005 	streq	r0, [r1], #-5
    1e6c:	0000096e 	andeq	r0, r0, lr, ror #18
    1e70:	00026537 	andeq	r6, r2, r7, lsr r5
    1e74:	086d1d00 	stmdaeq	sp!, {r8, sl, fp, ip}^
    1e78:	03710000 	cmneq	r1, #0
    1e7c:	01f50000 	mvnseq	r0, r0
    1e80:	00000000 	andeq	r0, r0, r0
    1e84:	0c580000 	mraeq	r0, r8, acc0
    1e88:	04380000 	ldrteq	r0, [r8], #-0
    1e8c:	746e6905 	strbtvc	r6, [lr], #-2309	@ 0xfffff6fb
    1e90:	07040d00 	streq	r0, [r4, -r0, lsl #26]
    1e94:	00000086 	andeq	r0, r0, r6, lsl #1
    1e98:	00002d11 	andeq	r2, r0, r1, lsl sp
    1e9c:	05080d00 	streq	r0, [r8, #-3328]	@ 0xfffff300
    1ea0:	000000a1 	andeq	r0, r0, r1, lsr #1
    1ea4:	6804080d 	stmdavs	r4, {r0, r2, r3, fp}
    1ea8:	0d000001 	stceq	0, cr0, [r0, #-4]
    1eac:	018c0601 	orreq	r0, ip, r1, lsl #12
    1eb0:	010d0000 	mrseq	r0, (UNDEF: 13)
    1eb4:	00018a08 	andeq	r8, r1, r8, lsl #20
    1eb8:	004e1100 	subeq	r1, lr, r0, lsl #2
    1ebc:	020d0000 	andeq	r0, sp, #0
    1ec0:	0000ca05 	andeq	ip, r0, r5, lsl #20
    1ec4:	07020d00 	streq	r0, [r2, -r0, lsl #26]
    1ec8:	000001d6 	ldrdeq	r0, [r0], -r6
    1ecc:	a605040d 	strge	r0, [r5], -sp, lsl #8
    1ed0:	03000000 	movweq	r0, #0
    1ed4:	00000477 	andeq	r0, r0, r7, ror r4
    1ed8:	7b194f04 	blvc	655af0 <__exidx_end+0x654a7c>
    1edc:	0d000000 	stceq	0, cr0, [r0, #-0]
    1ee0:	00810704 	addeq	r0, r1, r4, lsl #14
    1ee4:	080d0000 	stmdaeq	sp, {}	@ <UNPREDICTABLE>
    1ee8:	00007c07 	andeq	r7, r0, r7, lsl #24
    1eec:	0d043900 	vstreq.16	s6, [r4, #-0]	@ <UNPREDICTABLE>
    1ef0:	01930801 	orrseq	r0, r3, r1, lsl #16
    1ef4:	79030000 	stmdbvc	r3, {}	@ <UNPREDICTABLE>
    1ef8:	05000004 	streq	r0, [r0, #-4]
    1efc:	006f1430 	rsbeq	r1, pc, r0, lsr r4	@ <UNPREDICTABLE>
    1f00:	403a0000 	eorsmi	r0, sl, r0
    1f04:	5e091806 	cdppl	8, 0, cr1, cr9, cr6, {0}
    1f08:	01000001 	tsteq	r0, r1
    1f0c:	00000620 	andeq	r0, r0, r0, lsr #12
    1f10:	34171a06 	ldrcc	r1, [r7], #-2566	@ 0xfffff5fa
    1f14:	00000000 	andeq	r0, r0, r0
    1f18:	0005e201 	andeq	lr, r5, r1, lsl #4
    1f1c:	171b0600 	ldrne	r0, [fp, -r0, lsl #12]
    1f20:	00000034 	andeq	r0, r0, r4, lsr r0
    1f24:	05580104 	ldrbeq	r0, [r8, #-260]	@ 0xfffffefc
    1f28:	1c060000 	stcne	0, cr0, [r6], {-0}
    1f2c:	00003417 	andeq	r3, r0, r7, lsl r4
    1f30:	15010800 	strne	r0, [r1, #-2048]	@ 0xfffff800
    1f34:	06000006 	streq	r0, [r0], -r6
    1f38:	0034171d 	eorseq	r1, r4, sp, lsl r7
    1f3c:	160c0000 	strne	r0, [ip], -r0
    1f40:	00524353 	subseq	r4, r2, r3, asr r3
    1f44:	34171e06 	ldrcc	r1, [r7], #-3590	@ 0xfffff1fa
    1f48:	10000000 	andne	r0, r0, r0
    1f4c:	52434316 	subpl	r4, r3, #1476395008	@ 0x58000000
    1f50:	171f0600 	ldrne	r0, [pc, -r0, lsl #12]
    1f54:	00000034 	andeq	r0, r0, r4, lsr r0
    1f58:	48531614 	ldmdami	r3, {r2, r4, r9, sl, ip}^
    1f5c:	20060050 	andcs	r0, r6, r0, asr r0
    1f60:	00016e1c 	andeq	r6, r1, ip, lsl lr
    1f64:	26011800 	strcs	r1, [r1], -r0, lsl #16
    1f68:	06000005 	streq	r0, [r0], -r5
    1f6c:	00341721 	eorseq	r1, r4, r1, lsr #14
    1f70:	01240000 			@ <UNDEFINED> instruction: 0x01240000
    1f74:	000005bd 			@ <UNDEFINED> instruction: 0x000005bd
    1f78:	34172206 	ldrcc	r2, [r7], #-518	@ 0xfffffdfa
    1f7c:	28000000 	stmdacs	r0, {}	@ <UNPREDICTABLE>
    1f80:	0005c201 	andeq	ip, r5, r1, lsl #4
    1f84:	17230600 	strne	r0, [r3, -r0, lsl #12]!
    1f88:	00000034 	andeq	r0, r0, r4, lsr r0
    1f8c:	05dd012c 	ldrbeq	r0, [sp, #300]	@ 0x12c
    1f90:	24060000 	strcs	r0, [r6], #-0
    1f94:	00003417 	andeq	r3, r0, r7, lsl r4
    1f98:	55013000 	strpl	r3, [r1, #-0]
    1f9c:	06000006 	streq	r0, [r0], -r6
    1fa0:	00341725 	eorseq	r1, r4, r5, lsr #14
    1fa4:	01340000 	teqeq	r4, r0
    1fa8:	0000061b 	andeq	r0, r0, fp, lsl r6
    1fac:	34172606 	ldrcc	r2, [r7], #-1542	@ 0xfffff9fa
    1fb0:	38000000 	stmdacc	r0, {}	@ <UNPREDICTABLE>
    1fb4:	0006d301 	andeq	sp, r6, r1, lsl #6
    1fb8:	17270600 	strne	r0, [r7, -r0, lsl #12]!
    1fbc:	00000034 	andeq	r0, r0, r4, lsr r0
    1fc0:	5527003c 	strpl	r0, [r7, #-60]!	@ 0xffffffc4
    1fc4:	6e000000 	cdpvs	0, 0, cr0, cr0, cr0, {0}
    1fc8:	1c000001 	stcne	0, cr0, [r0], {1}
    1fcc:	0000002d 	andeq	r0, r0, sp, lsr #32
    1fd0:	5e11000b 	cdppl	0, 1, cr0, cr1, cr11, {0}
    1fd4:	03000001 	movweq	r0, #1
    1fd8:	000005c7 	andeq	r0, r0, r7, asr #11
    1fdc:	9e032806 	cdpls	8, 0, cr2, cr3, cr6, {0}
    1fe0:	3b000000 	blcc	1fe8 <__exidx_end+0xf74>
    1fe4:	000001bf 			@ <UNDEFINED> instruction: 0x000001bf
    1fe8:	030e1b07 	movweq	r1, #60167	@ 0xeb07
    1fec:	00000146 	andeq	r0, r0, r6, asr #2
    1ff0:	8b0e1c07 	blhi	389014 <__exidx_end+0x387fa0>
    1ff4:	3c000000 	stccc	0, cr0, [r0], {-0}
    1ff8:	00544e49 	subseq	r4, r4, r9, asr #28
    1ffc:	26101e07 	ldrcs	r1, [r0], -r7, lsl #28
    2000:	03000000 	movweq	r0, #0
    2004:	00000154 	andeq	r0, r0, r4, asr r1
    2008:	2d121f07 	ldccs	15, cr1, [r2, #-28]	@ 0xffffffe4
    200c:	0b000000 	bleq	2014 <__exidx_end+0xfa0>
    2010:	0000019f 	muleq	r0, pc, r1	@ <UNPREDICTABLE>
    2014:	0001ac03 	andeq	sl, r1, r3, lsl #24
    2018:	17200700 	strne	r0, [r0, -r0, lsl #14]!
    201c:	0000007b 	andeq	r0, r0, fp, ror r0
    2020:	0001b011 	andeq	fp, r1, r1, lsl r0
    2024:	01ad0300 			@ <UNDEFINED> instruction: 0x01ad0300
    2028:	21070000 	mrscs	r0, (UNDEF: 7)
    202c:	0000680e 	andeq	r6, r0, lr, lsl #16
    2030:	006b0300 	rsbeq	r0, fp, r0, lsl #6
    2034:	22070000 	andcs	r0, r7, #0
    2038:	0000890f 	andeq	r8, r0, pc, lsl #18
    203c:	00110300 	andseq	r0, r1, r0, lsl #6
    2040:	26070000 	strcs	r0, [r7], -r0
    2044:	00002d12 	andeq	r2, r0, r2, lsl sp
    2048:	01d91100 	bicseq	r1, r9, r0, lsl #2
    204c:	d90b0000 	stmdble	fp, {}	@ <UNPREDICTABLE>
    2050:	03000001 	movweq	r0, #1
    2054:	0000022f 	andeq	r0, r0, pc, lsr #4
    2058:	4e175207 	cdpmi	2, 1, cr5, cr7, cr7, {0}
    205c:	03000000 	movweq	r0, #0
    2060:	0000013e 	andeq	r0, r0, lr, lsr r1
    2064:	4e175307 	cdpmi	3, 1, cr5, cr7, cr7, {0}
    2068:	0b000000 	bleq	2070 <__exidx_end+0xffc>
    206c:	000001fb 	strdeq	r0, [r0], -fp
    2070:	00031403 	andeq	r1, r3, r3, lsl #8
    2074:	17540700 	ldrbne	r0, [r4, -r0, lsl #14]
    2078:	0000007b 	andeq	r0, r0, fp, ror r0
    207c:	0003d903 	andeq	sp, r3, r3, lsl #18
    2080:	10580700 	subsne	r0, r8, r0, lsl #14
    2084:	00000229 	andeq	r0, r0, r9, lsr #4
    2088:	0002180b 	andeq	r1, r2, fp, lsl #16
    208c:	022e0500 	eoreq	r0, lr, #0, 10
    2090:	393d0000 	ldmdbcc	sp!, {}	@ <UNPREDICTABLE>
    2094:	17000002 	strne	r0, [r0, -r2]
    2098:	00000089 	andeq	r0, r0, r9, lsl #1
    209c:	0a790300 	beq	1e42ca4 <__exidx_end+0x1e41c30>
    20a0:	59070000 	stmdbpl	r7, {}	@ <UNPREDICTABLE>
    20a4:	00022910 	andeq	r2, r2, r0, lsl r9
    20a8:	01590300 	cmpeq	r9, r0, lsl #6
    20ac:	87070000 	strhi	r0, [r7, -r0]
    20b0:	0001c10e 	andeq	ip, r1, lr, lsl #2
    20b4:	07af0300 	streq	r0, [pc, r0, lsl #6]!
    20b8:	b9070000 	stmdblt	r7, {}	@ <UNPREDICTABLE>
    20bc:	0001c10e 	andeq	ip, r1, lr, lsl #2
    20c0:	02e00300 	rsceq	r0, r0, #0, 6
    20c4:	c8070000 	stmdagt	r7, {}	@ <UNPREDICTABLE>
    20c8:	0001b00f 	andeq	fp, r1, pc
    20cc:	07b80300 	ldreq	r0, [r8, r0, lsl #6]!
    20d0:	ea070000 	b	1c20d8 <__exidx_end+0x1c1064>
    20d4:	00027515 	andeq	r7, r2, r5, lsl r5
    20d8:	01981400 	orrseq	r1, r8, r0, lsl #8
    20dc:	42580000 	subsmi	r0, r8, #0
    20e0:	0000035b 	andeq	r0, r0, fp, asr r3
    20e4:	00707316 	rsbseq	r7, r0, r6, lsl r3
    20e8:	d60a4508 	strle	r4, [sl], -r8, lsl #10
    20ec:	00000004 	andeq	r0, r0, r4
    20f0:	0001e901 	andeq	lr, r1, r1, lsl #18
    20f4:	14460800 	strbne	r0, [r6], #-2048	@ 0xfffff800
    20f8:	0000025d 	andeq	r0, r0, sp, asr r2
    20fc:	01f80104 	mvnseq	r0, r4, lsl #2
    2100:	47080000 	strmi	r0, [r8, -r0]
    2104:	0001b00b 	andeq	fp, r1, fp
    2108:	4b010800 	blmi	44110 <__exidx_end+0x4309c>
    210c:	08000001 	stmdaeq	r0, {r0}
    2110:	04d10b49 	ldrbeq	r0, [r1], #2889	@ 0xb49
    2114:	010c0000 	mrseq	r0, (UNDEF: 12)
    2118:	00000210 	andeq	r0, r0, r0, lsl r2
    211c:	d60a4a08 	strle	r4, [sl], -r8, lsl #20
    2120:	10000004 	andne	r0, r0, r4
    2124:	00039501 	andeq	r9, r3, r1, lsl #10
    2128:	0a4b0800 	beq	12c4130 <__exidx_end+0x12c30bc>
    212c:	0000019f 	muleq	r0, pc, r1	@ <UNPREDICTABLE>
    2130:	69701614 	ldmdbvs	r0!, {r2, r4, r9, sl, ip}^
    2134:	4c080064 	stcmi	0, cr0, [r8], {100}	@ 0x64
    2138:	0001ef0c 	andeq	lr, r1, ip, lsl #30
    213c:	0d011800 	stceq	8, cr1, [r1, #-0]
    2140:	08000001 	stmdaeq	r0, {r0}
    2144:	01fb0d4d 	mvnseq	r0, sp, asr #26
    2148:	01190000 	tsteq	r9, r0
    214c:	00000129 	andeq	r0, r0, r9, lsr #2
    2150:	d90a5208 	stmdble	sl, {r3, r9, ip, lr}
    2154:	1c000001 	stcne	0, cr0, [r0], {1}
    2158:	00017401 	andeq	r7, r1, r1, lsl #8
    215c:	0d620800 	stcleq	8, cr0, [r2, #-0]
    2160:	0000020c 	andeq	r0, r0, ip, lsl #4
    2164:	01000120 	tsteq	r0, r0, lsr #2
    2168:	64080000 	strvs	r0, [r8], #-0
    216c:	00020c0d 	andeq	r0, r2, sp, lsl #24
    2170:	1e012400 	cfcpysne	mvf2, mvf1
    2174:	08000001 	stmdaeq	r0, {r0}
    2178:	01d90a66 	bicseq	r0, r9, r6, ror #20
    217c:	01280000 			@ <UNDEFINED> instruction: 0x01280000
    2180:	0000021d 	andeq	r0, r0, sp, lsl r2
    2184:	d90a6708 	stmdble	sl, {r3, r8, r9, sl, sp, lr}
    2188:	2c000001 	stccs	0, cr0, [r0], {1}
    218c:	0002ef01 	andeq	lr, r2, r1, lsl #30
    2190:	0a690800 	beq	1a44198 <__exidx_end+0x1a43124>
    2194:	0000019f 	muleq	r0, pc, r1	@ <UNPREDICTABLE>
    2198:	02430130 	subeq	r0, r3, #48, 2
    219c:	6a080000 	bvs	2021a4 <__exidx_end+0x201130>
    21a0:	0001ef0c 	andeq	lr, r1, ip, lsl #30
    21a4:	db1d3400 	blle	74f1ac <__exidx_end+0x74e138>
    21a8:	6b000000 	blvs	21b0 <__exidx_end+0x113c>
    21ac:	00040619 	andeq	r0, r4, r9, lsl r6
    21b0:	ce1d3800 	cdpgt	8, 1, cr3, cr13, cr0, {0}
    21b4:	6c000001 	stcvs	0, cr0, [r0], {1}
    21b8:	0003b216 	andeq	fp, r3, r6, lsl r2
    21bc:	03005000 	movweq	r5, #0
    21c0:	00000022 	andeq	r0, r0, r2, lsr #32
    21c4:	6716ec07 	ldrvs	lr, [r6, -r7, lsl #24]
    21c8:	14000003 	strne	r0, [r0], #-3
    21cc:	000000fa 	strdeq	r0, [r0], -sl
    21d0:	03a63a14 			@ <UNDEFINED> instruction: 0x03a63a14
    21d4:	0a1d0000 	beq	7421dc <__exidx_end+0x741168>
    21d8:	3c000003 	stccc	0, cr0, [r0], {3}
    21dc:	0003b216 	andeq	fp, r3, r6, lsl r2
    21e0:	93010000 	movwls	r0, #4096	@ 0x1000
    21e4:	08000000 	stmdaeq	r0, {}	@ <UNPREDICTABLE>
    21e8:	04d10b3d 	ldrbeq	r0, [r1], #2877	@ 0xb3d
    21ec:	01080000 	mrseq	r0, (UNDEF: 8)
    21f0:	00000305 	andeq	r0, r0, r5, lsl #6
    21f4:	b00b3e08 	andlt	r3, fp, r8, lsl #28
    21f8:	0c000001 	stceq	0, cr0, [r0], {1}
    21fc:	0003b601 	andeq	fp, r3, r1, lsl #12
    2200:	0a3f0800 	beq	fc4208 <__exidx_end+0xfc3194>
    2204:	000001d9 	ldrdeq	r0, [r0], -r9
    2208:	aa030010 	bge	c2250 <__exidx_end+0xc11dc>
    220c:	07000009 	streq	r0, [r0, -r9]
    2210:	03b21aed 			@ <UNDEFINED> instruction: 0x03b21aed
    2214:	25140000 	ldrcs	r0, [r4, #-0]
    2218:	08000002 	stmdaeq	r0, {r1}
    221c:	0003d834 	andeq	sp, r3, r4, lsr r8
    2220:	01160100 	tsteq	r6, r0, lsl #2
    2224:	36080000 	strcc	r0, [r8], -r0
    2228:	0004cc17 	andeq	ip, r4, r7, lsl ip
    222c:	08010000 	stmdaeq	r1, {}	@ <UNPREDICTABLE>
    2230:	08000002 	stmdaeq	r0, {r1}
    2234:	04cc1737 	strbeq	r1, [ip], #1847	@ 0x737
    2238:	00040000 	andeq	r0, r4, r0
    223c:	00076b03 	andeq	r6, r7, r3, lsl #22
    2240:	11ee0700 	mvnne	r0, r0, lsl #14
    2244:	0000035b 	andeq	r0, r0, fp, asr r3
    2248:	00002a03 	andeq	r2, r0, r3, lsl #20
    224c:	16ef0700 	strbtne	r0, [pc], r0, lsl #14
    2250:	000003f0 	strdeq	r0, [r0], -r0	@ <UNPREDICTABLE>
    2254:	00027505 	andeq	r7, r2, r5, lsl #10
    2258:	08010300 	stmdaeq	r1, {r8, r9}
    225c:	f0070000 			@ <UNDEFINED> instruction: 0xf0070000
    2260:	0004061d 	andeq	r0, r4, sp, lsl r6
    2264:	03f51100 	mvnseq	r1, #0, 2
    2268:	36140000 	ldrcc	r0, [r4], -r0
    226c:	18000002 	stmdane	r0, {r1}
    2270:	0004601f 	andeq	r6, r4, pc, lsl r0
    2274:	01160100 	tsteq	r6, r0, lsl #2
    2278:	21080000 	mrscs	r0, (UNDEF: 8)
    227c:	0004bd1a 	andeq	fp, r4, sl, lsl sp
    2280:	08010000 	stmdaeq	r1, {}	@ <UNPREDICTABLE>
    2284:	08000002 	stmdaeq	r0, {r1}
    2288:	04bd1a22 	ldrteq	r1, [sp], #2594	@ 0xa22
    228c:	01040000 	mrseq	r0, (UNDEF: 4)
    2290:	00000016 	andeq	r0, r0, r6, lsl r0
    2294:	9f0a2308 	svcls	0x000a2308
    2298:	08000001 	stmdaeq	r0, {r0}
    229c:	0003ae01 	andeq	sl, r3, r1, lsl #28
    22a0:	0d240800 	stceq	8, cr0, [r4, #-0]
    22a4:	0000020c 	andeq	r0, r0, ip, lsl #4
    22a8:	0364010c 	cmneq	r4, #12, 2
    22ac:	25080000 	strcs	r0, [r8, #-0]
    22b0:	00020c0d 	andeq	r0, r2, sp, lsl #24
    22b4:	ba011000 	blt	462bc <__exidx_end+0x45248>
    22b8:	08000000 	stmdaeq	r0, {}	@ <UNPREDICTABLE>
    22bc:	04c20e26 	strbeq	r0, [r2], #3622	@ 0xe26
    22c0:	00140000 	andseq	r0, r4, r0
    22c4:	000a4903 	andeq	r4, sl, r3, lsl #18
    22c8:	17f20700 	ldrbne	r0, [r2, r0, lsl #14]!
    22cc:	00000471 	andeq	r0, r0, r1, ror r4
    22d0:	00046011 	andeq	r6, r4, r1, lsl r0
    22d4:	0bc31400 	bleq	ff0c72dc <SCB_ICSR+0x1f0b85d8>
    22d8:	2a280000 	bcs	a022e0 <__exidx_end+0xa0126c>
    22dc:	000004bd 			@ <UNDEFINED> instruction: 0x000004bd
    22e0:	000b4401 	andeq	r4, fp, r1, lsl #8
    22e4:	0a2c0800 	beq	b042ec <__exidx_end+0xb03278>
    22e8:	000001d9 	ldrdeq	r0, [r0], -r9
    22ec:	08780100 	ldmdaeq	r8!, {r8}^
    22f0:	2d080000 	stccs	0, cr0, [r8, #-0]
    22f4:	00020c0d 	andeq	r0, r2, sp, lsl #24
    22f8:	d3010400 	movwle	r0, #5120	@ 0x1400
    22fc:	08000009 	stmdaeq	r0, {r0, r3}
    2300:	0239162e 	eorseq	r1, r9, #48234496	@ 0x2e00000
    2304:	01080000 	mrseq	r0, (UNDEF: 8)
    2308:	00000a10 	andeq	r0, r0, r0, lsl sl
    230c:	cd0a2f08 	stcgt	15, cr2, [sl, #-32]	@ 0xffffffe0
    2310:	0c000001 	stceq	0, cr0, [r0], {1}
    2314:	0000db1d 	andeq	sp, r0, sp, lsl fp
    2318:	06193000 	ldreq	r3, [r9], -r0
    231c:	10000004 	andne	r0, r0, r4
    2320:	04060500 	streq	r0, [r6], #-1280	@ 0xfffffb00
    2324:	5b050000 	blpl	14232c <__exidx_end+0x1412b8>
    2328:	0b000003 	bleq	233c <__exidx_end+0x12c8>
    232c:	000004c2 	andeq	r0, r0, r2, asr #9
    2330:	0003b205 	andeq	fp, r3, r5, lsl #4
    2334:	01870500 	orreq	r0, r7, r0, lsl #10
    2338:	93050000 	movwls	r0, #20480	@ 0x5000
    233c:	0b000001 	bleq	2348 <__exidx_end+0x12d4>
    2340:	000004d6 	ldrdeq	r0, [r0], -r6
    2344:	000b7d14 	andeq	r7, fp, r4, lsl sp
    2348:	066f0800 	strbteq	r0, [pc], -r0, lsl #16
    234c:	01000005 	tsteq	r0, r5
    2350:	000009f4 	strdeq	r0, [r0], -r4
    2354:	0c0d7108 	stfeqs	f7, [sp], {8}
    2358:	00000002 	andeq	r0, r0, r2
    235c:	000a4201 	andeq	r4, sl, r1, lsl #4
    2360:	0a720800 	beq	1c84368 <__exidx_end+0x1c832f4>
    2364:	0000019f 	muleq	r0, pc, r1	@ <UNPREDICTABLE>
    2368:	750a0004 	strvc	r0, [sl, #-4]
    236c:	0800000b 	stmdaeq	r0, {r0, r1, r3}
    2370:	04e01875 	strbteq	r1, [r0], #2165	@ 0x875
    2374:	ba3e0000 	blt	f8237c <__exidx_end+0xf81308>
    2378:	0300000b 	movweq	r0, #11
    237c:	47082109 	strmi	r2, [r8, -r9, lsl #2]
    2380:	01000005 	tsteq	r0, r5
    2384:	000009cd 	andeq	r0, r0, sp, asr #19
    2388:	4e132309 	cdpmi	3, 1, cr2, cr3, cr9, {0}
    238c:	00000000 	andeq	r0, r0, r0
    2390:	000a9601 	andeq	r9, sl, r1, lsl #12
    2394:	13240900 			@ <UNDEFINED> instruction: 0x13240900
    2398:	0000004e 	andeq	r0, r0, lr, asr #32
    239c:	0a250101 	beq	9427a8 <__exidx_end+0x941734>
    23a0:	25090000 	strcs	r0, [r9, #-0]
    23a4:	00004e13 	andeq	r4, r0, r3, lsl lr
    23a8:	0b000200 	bleq	2bb0 <__exidx_end+0x1b3c>
    23ac:	00000512 	andeq	r0, r0, r2, lsl r5
    23b0:	0008390a 	andeq	r3, r8, sl, lsl #18
    23b4:	1e140900 	vnmlsne.f16	s0, s8, s0	@ <UNPREDICTABLE>
    23b8:	00000547 	andeq	r0, r0, r7, asr #10
    23bc:	0007dd0a 	andeq	sp, r7, sl, lsl #26
    23c0:	10120200 	andsne	r0, r2, r0, lsl #4
    23c4:	00000564 	andeq	r0, r0, r4, ror #10
    23c8:	00026905 	andeq	r6, r2, r5, lsl #18
    23cc:	05640b00 	strbeq	r0, [r4, #-2816]!	@ 0xfffff500
    23d0:	69280000 	stmdbvs	r8!, {}	@ <UNPREDICTABLE>
    23d4:	7e000002 	cdpvc	0, 0, cr0, cr0, cr2, {0}
    23d8:	1c000005 	stcne	0, cr0, [r0], {5}
    23dc:	0000002d 	andeq	r0, r0, sp, lsr #32
    23e0:	210a0004 	tstcs	sl, r4
    23e4:	02000009 	andeq	r0, r0, #9
    23e8:	056e0f13 	strbeq	r0, [lr, #-3859]!	@ 0xfffff0ed
    23ec:	93270000 			@ <UNDEFINED> instruction: 0x93270000
    23f0:	9a000001 	bls	23fc <__exidx_end+0x1388>
    23f4:	1c000005 	stcne	0, cr0, [r0], {5}
    23f8:	0000002d 	andeq	r0, r0, sp, lsr #32
    23fc:	860a003f 			@ <UNDEFINED> instruction: 0x860a003f
    2400:	0200000b 	andeq	r0, r0, #11
    2404:	058a0c15 	streq	r0, [sl, #3093]	@ 0xc15
    2408:	4b0a0000 	blmi	282410 <__exidx_end+0x28139c>
    240c:	0200000b 	andeq	r0, r0, #11
    2410:	058a0c16 	streq	r0, [sl, #3094]	@ 0xc16
    2414:	d8280000 	stmdale	r8!, {}	@ <UNPREDICTABLE>
    2418:	c2000003 	andgt	r0, r0, #3
    241c:	1c000005 	stcne	0, cr0, [r0], {5}
    2420:	0000002d 	andeq	r0, r0, sp, lsr #32
    2424:	1d0a0002 	stcne	0, cr0, [sl, #-8]
    2428:	02000007 	andeq	r0, r0, #7
    242c:	05b21017 	ldreq	r1, [r2, #23]!
    2430:	7e0a0000 	cdpvc	0, 0, cr0, cr10, cr0, {0}
    2434:	02000008 	andeq	r0, r0, #8
    2438:	01e51619 	mvneq	r1, r9, lsl r6
    243c:	60050000 	andvs	r0, r5, r0
    2440:	0a000004 	beq	2458 <__exidx_end+0x13e4>
    2444:	00000842 	andeq	r0, r0, r2, asr #16
    2448:	eb22210a 	bl	88a878 <__exidx_end+0x889804>
    244c:	05000005 	streq	r0, [r0, #-5]
    2450:	00000401 	andeq	r0, r0, r1, lsl #8
    2454:	0008550a 	andeq	r5, r8, sl, lsl #10
    2458:	22220a00 	eorcs	r0, r2, #0, 20
    245c:	000005eb 	andeq	r0, r0, fp, ror #11
    2460:	0009640a 	andeq	r6, r9, sl, lsl #8
    2464:	22230a00 	eorcs	r0, r3, #0, 20
    2468:	000005eb 	andeq	r0, r0, fp, ror #11
    246c:	000bac0a 	andeq	sl, fp, sl, lsl #24
    2470:	17120b00 	ldrne	r0, [r2, -r0, lsl #22]
    2474:	000003e4 	andeq	r0, r0, r4, ror #7
    2478:	000aca0a 	andeq	ip, sl, sl, lsl #20
    247c:	17130b00 	ldrne	r0, [r3, -r0, lsl #22]
    2480:	000003e4 	andeq	r0, r0, r4, ror #7
    2484:	0005ce12 	andeq	ip, r5, r2, lsl lr
    2488:	050f2300 	streq	r2, [pc, #-768]	@ 2190 <__exidx_end+0x111c>
    248c:	00000003 	andeq	r0, r0, r3
    2490:	05c21200 	strbeq	r1, [r2, #512]	@ 0x200
    2494:	09240000 	stmdbeq	r4!, {}	@ <UNPREDICTABLE>
    2498:	0e1c0305 	cdpeq	3, 1, cr0, cr12, cr5, {0}
    249c:	58122000 	ldmdapl	r2, {sp}
    24a0:	25000005 	strcs	r0, [r0, #-5]
    24a4:	18030509 	stmdane	r3, {r0, r3, r8, sl}
    24a8:	1220000e 	eorne	r0, r0, #14
    24ac:	0000057e 	andeq	r0, r0, lr, ror r5
    24b0:	03050826 	movweq	r0, #22566	@ 0x5826
    24b4:	20000c60 	andcs	r0, r0, r0, ror #24
    24b8:	00060812 	andeq	r0, r6, r2, lsl r8
    24bc:	05102700 	ldreq	r2, [r0, #-1792]	@ 0xfffff900
    24c0:	000c5c03 	andeq	r5, ip, r3, lsl #24
    24c4:	06141220 	ldreq	r1, [r4], -r0, lsr #4
    24c8:	10280000 	eorne	r0, r8, r0
    24cc:	0c580305 	mrrceq	3, 0, r0, r8, cr5
    24d0:	06122000 	ldreq	r2, [r2], -r0
    24d4:	29000005 	stmdbcs	r0, {r0, r2}
    24d8:	50030511 	andpl	r0, r3, r1, lsl r5
    24dc:	1820000c 	stmdane	r0!, {r2, r3}
    24e0:	00000ba0 	andeq	r0, r0, r0, lsr #23
    24e4:	01fb102b 	mvnseq	r1, fp, lsr #32
    24e8:	03050000 	movweq	r0, #20480	@ 0x5000
    24ec:	20000c4d 	andcs	r0, r0, sp, asr #24
    24f0:	000b303f 	andeq	r3, fp, pc, lsr r0
    24f4:	162c0100 	strtne	r0, [ip], -r0, lsl #2
    24f8:	00000207 	andeq	r0, r0, r7, lsl #4
    24fc:	098a1801 	stmibeq	sl, {r0, fp, ip}
    2500:	102d0000 	eorne	r0, sp, r0
    2504:	000001fb 	strdeq	r0, [r0], -fp
    2508:	0c4c0305 	mcrreq	3, 0, r0, ip, cr5
    250c:	6c292000 	stcvs	0, cr2, [r9], #-0
    2510:	0100000a 	tsteq	r0, sl
    2514:	01fb102e 	mvnseq	r1, lr, lsr #32
    2518:	07180000 	ldreq	r0, [r8, -r0]
    251c:	2f00000b 	svccs	0x0000000b
    2520:	0001bc17 	andeq	fp, r1, r7, lsl ip
    2524:	48030500 	stmdami	r3, {r8, sl}
    2528:	1820000c 	stmdane	r0!, {r2, r3}
    252c:	00000bd8 	ldrdeq	r0, [r0], -r8
    2530:	01bc1730 			@ <UNDEFINED> instruction: 0x01bc1730
    2534:	03050000 	movweq	r0, #20480	@ 0x5000
    2538:	20000c44 	andcs	r0, r0, r4, asr #24
    253c:	000bbb18 	andeq	fp, fp, r8, lsl fp
    2540:	bc173100 	ldflts	f3, [r7], {-0}
    2544:	05000001 	streq	r0, [r0, #-1]
    2548:	000c4003 	andeq	r4, ip, r3
    254c:	0b902a20 	bleq	fe40cdd4 <SCB_ICSR+0x1e3fe0d0>
    2550:	01080000 	mrseq	r0, (UNDEF: 8)
    2554:	0001ef0f 	andeq	lr, r1, pc, lsl #30
    2558:	3c030500 	cfstr32cc	mvfx0, [r3], {-0}
    255c:	2020000c 	eorcs	r0, r0, ip
    2560:	000005df 	ldrdeq	r0, [r0], -pc	@ <UNPREDICTABLE>
    2564:	0305024c 	movweq	r0, #21068	@ 0x524c
    2568:	20000c38 	andcs	r0, r0, r8, lsr ip
    256c:	0005f020 	andeq	pc, r5, r0, lsr #32
    2570:	05024d00 	streq	r4, [r2, #-3328]	@ 0xfffff300
    2574:	000c3403 	andeq	r3, ip, r3, lsl #8
    2578:	0a2b4020 	beq	ad2600 <__exidx_end+0xad158c>
    257c:	4e010000 	cdpmi	0, 0, cr0, cr1, cr0, {0}
    2580:	07281402 	streq	r1, [r8, -r2, lsl #8]!
    2584:	03050000 	movweq	r0, #20480	@ 0x5000
    2588:	00000000 	andeq	r0, r0, r0
    258c:	00046c05 	andeq	r6, r4, r5, lsl #24
    2590:	05fc2000 	ldrbeq	r2, [ip, #0]!
    2594:	024f0000 	subeq	r0, pc, #0
    2598:	0c300305 	ldceq	3, cr0, [r0], #-20	@ 0xffffffec
    259c:	972b2000 	strls	r2, [fp, -r0]!
    25a0:	0a000009 	beq	25cc <__exidx_end+0x1558>
    25a4:	01d90626 	bicseq	r0, r9, r6, lsr #12
    25a8:	e8410000 	stmda	r1, {}^	@ <UNPREDICTABLE>
    25ac:	0200000b 	andeq	r0, r0, #11
    25b0:	002d1122 	eoreq	r1, sp, r2, lsr #2
    25b4:	075c0000 	ldrbeq	r0, [ip, -r0]
    25b8:	2d170000 	ldccs	0, cr0, [r7, #-0]
    25bc:	00000000 	andeq	r0, r0, r0
    25c0:	00000042 	andeq	r0, r0, r2, asr #32
    25c4:	06210200 	strteq	r0, [r1], -r0, lsl #4
    25c8:	0009472b 	andeq	r4, r9, fp, lsr #14
    25cc:	0e280900 	vmuleq.f16	s0, s16, s0	@ <UNPREDICTABLE>
    25d0:	0000002d 	andeq	r0, r0, sp, lsr #32
    25d4:	0009ff21 	andeq	pc, r9, r1, lsr #30
    25d8:	81160b00 	tsthi	r6, r0, lsl #22
    25dc:	17000007 	strne	r0, [r0, -r7]
    25e0:	00000089 	andeq	r0, r0, r9, lsl #1
    25e4:	0a522100 	beq	148a9ec <__exidx_end+0x1489978>
    25e8:	150b0000 	strne	r0, [fp, #-0]
    25ec:	00000792 	muleq	r0, r2, r7
    25f0:	00008917 	andeq	r8, r0, r7, lsl r9
    25f4:	28210000 	stmdacs	r1!, {}	@ <UNPREDICTABLE>
    25f8:	0c000007 	stceq	0, cr0, [r0], {7}
    25fc:	0007a313 	andeq	sl, r7, r3, lsl r3
    2600:	02511700 	subseq	r1, r1, #0, 14
    2604:	2c000000 	stccs	0, cr0, [r0], {-0}
    2608:	00000901 	andeq	r0, r0, r1, lsl #18
    260c:	d9060251 	stmdble	r6, {r0, r4, r6, r9}
    2610:	68000001 	stmdavs	r0, {r0}
    2614:	f400000b 	vst4.8	{d0-d3}, [r0], fp
    2618:	01000000 	mrseq	r0, (UNDEF: 0)
    261c:	00088b9c 	muleq	r8, ip, fp
    2620:	011e1500 	tsteq	lr, r0, lsl #10
    2624:	02540000 	subseq	r0, r4, #0
    2628:	0001d90a 	andeq	sp, r1, sl, lsl #18
    262c:	0004a200 	andeq	sl, r4, r0, lsl #4
    2630:	00049a00 	andeq	r9, r4, r0, lsl #20
    2634:	0aae1500 	beq	feb87a3c <SCB_ICSR+0x1eb78d38>
    2638:	02550000 	subseq	r0, r5, #0
    263c:	0001d90a 	andeq	sp, r1, sl, lsl #18
    2640:	0004cd00 	andeq	ip, r4, r0, lsl #26
    2644:	0004c300 	andeq	ip, r4, r0, lsl #6
    2648:	65722200 	ldrbvs	r2, [r2, #-512]!	@ 0xfffffe00
    264c:	02560074 	subseq	r0, r6, #116	@ 0x74
    2650:	0001d90a 	andeq	sp, r1, sl, lsl #18
    2654:	0004fa00 	andeq	pc, r4, r0, lsl #20
    2658:	0004f400 	andeq	pc, r4, r0, lsl #8
    265c:	0a2b1500 	beq	ac7a64 <__exidx_end+0xac69f0>
    2660:	02800000 	addeq	r0, r0, #0
    2664:	0005da0f 	andeq	sp, r5, pc, lsl #20
    2668:	00053000 	andeq	r3, r5, r0
    266c:	00052c00 	andeq	r2, r5, r0, lsl #24
    2670:	01e92d00 	mvneq	r2, r0, lsl #26
    2674:	084d0000 	stmdaeq	sp, {}^	@ <UNPREDICTABLE>
    2678:	59150000 	ldmdbpl	r5, {}	@ <UNPREDICTABLE>
    267c:	93000007 	movwls	r0, #7
    2680:	019f0902 	orrseq	r0, pc, r2, lsl #18
    2684:	05490000 	strbeq	r0, [r9, #-0]
    2688:	05450000 	strbeq	r0, [r5, #-0]
    268c:	ce060000 	cdpgt	0, 0, cr0, cr6, cr0, {0}
    2690:	f000000b 			@ <UNDEFINED> instruction: 0xf000000b
    2694:	0600000a 	streq	r0, [r0], -sl
    2698:	00000bf0 	strdeq	r0, [r0], -r0	@ <UNPREDICTABLE>
    269c:	000011b7 			@ <UNDEFINED> instruction: 0x000011b7
    26a0:	000bfc08 	andeq	pc, fp, r8, lsl #24
    26a4:	000aaa00 	andeq	sl, sl, r0, lsl #20
    26a8:	50010200 	andpl	r0, r1, r0, lsl #4
    26ac:	00007002 	andeq	r7, r0, r2
    26b0:	0c062e00 	stceq	14, cr2, [r6], {-0}
    26b4:	00100000 	andseq	r0, r0, r0
    26b8:	08810000 	stmeq	r1, {}	@ <UNPREDICTABLE>
    26bc:	53150000 	tstpl	r5, #0
    26c0:	9c000009 	stcls	0, cr0, [r0], {9}
    26c4:	01fb1102 	mvnseq	r1, r2, lsl #2
    26c8:	055b0000 	ldrbeq	r0, [fp, #-0]
    26cc:	05590000 	ldrbeq	r0, [r9, #-0]
    26d0:	0a060000 	beq	1826d8 <__exidx_end+0x181664>
    26d4:	0400000c 	streq	r0, [r0], #-12
    26d8:	06000009 	streq	r0, [r0], -r9
    26dc:	00000c16 	andeq	r0, r0, r6, lsl ip
    26e0:	0000088b 	andeq	r0, r0, fp, lsl #17
    26e4:	0b960600 	bleq	fe583eec <SCB_ICSR+0x1e5751e8>
    26e8:	073a0000 	ldreq	r0, [sl, -r0]!
    26ec:	23000000 	movwcs	r0, #0
    26f0:	000008cc 	andeq	r0, r0, ip, asr #17
    26f4:	14022b01 	strne	r2, [r2], #-2817	@ 0xfffff4ff
    26f8:	09ea2403 	stmibeq	sl!, {r0, r1, sl, sp}^
    26fc:	020f0000 	andeq	r0, pc, #0
    2700:	00000b08 	andeq	r0, r0, r8, lsl #22
    2704:	00000060 	andeq	r0, r0, r0, rrx
    2708:	09049c01 	stmdbeq	r4, {r0, sl, fp, ip, pc}
    270c:	b22a0000 	eorlt	r0, sl, #0
    2710:	12000009 	andne	r0, r0, #9
    2714:	05640d02 	strbeq	r0, [r4, #-3330]!	@ 0xfffff2fe
    2718:	91020000 	mrsls	r0, (UNDEF: 2)
    271c:	0b95156c 	bleq	fe547cd4 <SCB_ICSR+0x1e538fd0>
    2720:	02130000 	andseq	r0, r3, #0
    2724:	0005640d 	andeq	r6, r5, sp, lsl #8
    2728:	00056600 	andeq	r6, r5, r0, lsl #12
    272c:	00056400 	andeq	r6, r5, r0, lsl #8
    2730:	0b1c0600 	bleq	703f38 <__exidx_end+0x702ec4>
    2734:	088b0000 	stmeq	fp, {}	@ <UNPREDICTABLE>
    2738:	20060000 	andcs	r0, r6, r0
    273c:	0400000b 	streq	r0, [r0], #-11
    2740:	07000009 	streq	r0, [r0, -r9]
    2744:	00000b32 	andeq	r0, r0, r2, lsr fp
    2748:	000010da 	ldrdeq	r1, [r0], -sl
    274c:	000008f3 	strdeq	r0, [r0], -r3
    2750:	02510102 	subseq	r0, r1, #-2147483648	@ 0x80000000
    2754:	08006c91 	stmdaeq	r0, {r0, r4, r7, sl, fp, sp, lr}
    2758:	00000b3e 	andeq	r0, r0, lr, lsr fp
    275c:	00000792 	muleq	r0, r2, r7
    2760:	02500102 	subseq	r0, r0, #-2147483648	@ 0x80000000
    2764:	0000fe09 	andeq	pc, r0, r9, lsl #28
    2768:	00090e43 	andeq	r0, r9, r3, asr #28
    276c:	02020100 	andeq	r0, r2, #0, 2
    2770:	0001fb17 	andeq	pc, r1, r7, lsl fp	@ <UNPREDICTABLE>
    2774:	09240300 	stmdbeq	r4!, {r8, r9}
    2778:	da1e0000 	ble	782780 <__exidx_end+0x78170c>
    277c:	01000009 	tsteq	r0, r9
    2780:	fb0d0209 	blx	342fae <__exidx_end+0x341f3a>
    2784:	00000001 	andeq	r0, r0, r1
    2788:	0003d324 	andeq	sp, r3, r4, lsr #6
    278c:	1001db00 	andne	sp, r1, r0, lsl #22
    2790:	f800000a 			@ <UNDEFINED> instruction: 0xf800000a
    2794:	01000000 	mrseq	r0, (UNDEF: 0)
    2798:	000a729c 	muleq	sl, ip, r2
    279c:	01dd2d00 	bicseq	r2, sp, r0, lsl #26
    27a0:	09550000 	ldmdbeq	r5, {}^	@ <UNPREDICTABLE>
    27a4:	69220000 	stmdbvs	r2!, {}	@ <UNPREDICTABLE>
    27a8:	1001e400 	andne	lr, r1, r0, lsl #8
    27ac:	000001b0 			@ <UNDEFINED> instruction: 0x000001b0
    27b0:	00000577 	andeq	r0, r0, r7, ror r5
    27b4:	0000056f 	andeq	r0, r0, pc, ror #10
    27b8:	0a922e00 	beq	fe48dfc0 <SCB_ICSR+0x1e47f2bc>
    27bc:	001c0000 	andseq	r0, ip, r0
    27c0:	09850000 	stmibeq	r5, {}	@ <UNPREDICTABLE>
    27c4:	69220000 	stmdbvs	r2!, {}	@ <UNPREDICTABLE>
    27c8:	1001ec00 	andne	lr, r1, r0, lsl #24
    27cc:	000001b0 			@ <UNDEFINED> instruction: 0x000001b0
    27d0:	0000059a 	muleq	r0, sl, r5
    27d4:	00000594 	muleq	r0, r4, r5
    27d8:	000aa608 	andeq	sl, sl, r8, lsl #12
    27dc:	0011b700 	andseq	fp, r1, r0, lsl #14
    27e0:	51010200 	mrspl	r0, R9_usr
    27e4:	00007402 	andeq	r7, r0, r2, lsl #8
    27e8:	0a724400 	beq	1c937f0 <__exidx_end+0x1c9277c>
    27ec:	01b60000 			@ <UNDEFINED> instruction: 0x01b60000
    27f0:	e1010000 	mrs	r0, (UNDEF: 1)
    27f4:	09ea0501 	stmibeq	sl!, {r0, r8, sl}^
    27f8:	b62f0000 	strtlt	r0, [pc], -r0
    27fc:	13000001 	movwne	r0, #1
    2800:	00000a84 	andeq	r0, r0, r4, lsl #21
    2804:	000005b5 			@ <UNDEFINED> instruction: 0x000005b5
    2808:	000005b1 			@ <UNDEFINED> instruction: 0x000005b1
    280c:	000a9045 	andeq	r9, sl, r5, asr #32
    2810:	0001c200 	andeq	ip, r1, r0, lsl #4
    2814:	0009d900 	andeq	sp, r9, r0, lsl #18
    2818:	0a911300 	beq	fe447420 <SCB_ICSR+0x1e43871c>
    281c:	05ca0000 	strbeq	r0, [sl]
    2820:	05c60000 	strbeq	r0, [r6]
    2824:	4e080000 	cdpmi	0, 0, cr0, cr8, cr0, {0}
    2828:	b100000a 	tstlt	r0, sl
    282c:	02000012 	andeq	r0, r0, #18
    2830:	75025001 	strvc	r5, [r2, #-1]
    2834:	51010200 	mrspl	r0, R9_usr
    2838:	00007802 	andeq	r7, r0, r2, lsl #16
    283c:	0a640800 	beq	1904844 <__exidx_end+0x19037d0>
    2840:	07920000 	ldreq	r0, [r2, r0]
    2844:	01020000 	mrseq	r0, (UNDEF: 2)
    2848:	00300150 	eorseq	r0, r0, r0, asr r1
    284c:	a0460000 	subge	r0, r6, r0
    2850:	6400000a 	strvs	r0, [r0], #-10
    2854:	0300000a 	movweq	r0, #10
    2858:	000001ce 	andeq	r0, r0, lr, asr #3
    285c:	0501e201 	streq	lr, [r1, #-513]	@ 0xfffffdff
    2860:	0014c430 	andseq	ip, r4, r0, lsr r4
    2864:	000adc00 	andeq	sp, sl, r0, lsl #24
    2868:	0adc0100 	beq	ff702c70 <SCB_ICSR+0x1f6f3f6c>
    286c:	00020000 	andeq	r0, r2, r0
    2870:	01f60000 	mvnseq	r0, r0
    2874:	0a180605 	beq	604090 <__exidx_end+0x60301c>
    2878:	07640000 	strbeq	r0, [r4, -r0]!
    287c:	3a070000 	bcc	1c2884 <__exidx_end+0x1c1810>
    2880:	9200000a 	andls	r0, r0, #10
    2884:	2e000007 	cdpcs	0, 0, cr0, cr0, cr7, {0}
    2888:	0200000a 	andeq	r0, r0, #10
    288c:	09025001 	stmdbeq	r2, {r0, ip, lr}
    2890:	b80700ef 	stmdalt	r7, {r0, r1, r2, r3, r5, r6, r7}
    2894:	8d00000a 	stchi	0, cr0, [r0, #-40]	@ 0xffffffd8
    2898:	4200000d 	andmi	r0, r0, #13
    289c:	0200000a 	andeq	r0, r0, #10
    28a0:	74025001 	strvc	r5, [r2], #-1
    28a4:	c6070000 	strgt	r0, [r7], -r0
    28a8:	9200000a 	andls	r0, r0, #10
    28ac:	55000007 	strpl	r0, [r0, #-7]
    28b0:	0200000a 	andeq	r0, r0, #10
    28b4:	30015001 	andcc	r5, r1, r1
    28b8:	0ad40700 	beq	ff5044c0 <SCB_ICSR+0x1f4f57bc>
    28bc:	07920000 	ldreq	r0, [r2, r0]
    28c0:	0a680000 	beq	1a028c8 <__exidx_end+0x1a01854>
    28c4:	01020000 	mrseq	r0, (UNDEF: 2)
    28c8:	00300150 	eorseq	r0, r0, r0, asr r1
    28cc:	000ad806 	andeq	sp, sl, r6, lsl #16
    28d0:	00075c00 	andeq	r5, r7, r0, lsl #24
    28d4:	9a250000 	bls	9428dc <__exidx_end+0x941868>
    28d8:	01000008 	tsteq	r0, r8
    28dc:	450f01d0 	strmi	r0, [pc, #-464]	@ 2714 <__exidx_end+0x16a0>
    28e0:	01000002 	tsteq	r0, r2
    28e4:	00000aa0 	andeq	r0, r0, r0, lsr #21
    28e8:	72726531 	rsbsvc	r6, r2, #205520896	@ 0xc400000
    28ec:	0c01d200 	sfmeq	f5, 1, [r1], {-0}
    28f0:	00000245 	andeq	r0, r0, r5, asr #4
    28f4:	09da1e32 	ldmibeq	sl, {r1, r4, r5, r9, sl, fp, ip}^
    28f8:	d3010000 	movwle	r0, #4096	@ 0x1000
    28fc:	01fb1201 	mvnseq	r1, r1, lsl #4
    2900:	00000000 	andeq	r0, r0, r0
    2904:	000aee23 	andeq	lr, sl, r3, lsr #28
    2908:	01cb0100 	biceq	r0, fp, r0, lsl #2
    290c:	5124010d 			@ <UNDEFINED> instruction: 0x5124010d
    2910:	a7000007 	strge	r0, [r0, -r7]
    2914:	00096001 	andeq	r6, r9, r1
    2918:	00000e00 	andeq	r0, r0, r0, lsl #28
    291c:	f09c0100 			@ <UNDEFINED> instruction: 0xf09c0100
    2920:	3300000a 	movwcc	r0, #10
    2924:	00000b6d 	andeq	r0, r0, sp, ror #22
    2928:	019f01a7 	orrseq	r0, pc, r7, lsr #3
    292c:	50010000 	andpl	r0, r1, r0
    2930:	00148826 	andseq	r8, r4, r6, lsr #16
    2934:	00096400 	andeq	r6, r9, r0, lsl #8
    2938:	09640100 	stmdbeq	r4!, {r8}^
    293c:	00040000 	andeq	r0, r4, r0
    2940:	01aa0000 			@ <UNDEFINED> instruction: 0x01aa0000
    2944:	14960405 	ldrne	r0, [r6], #1029	@ 0x405
    2948:	05dd0000 	ldrbeq	r0, [sp]
    294c:	05db0000 	ldrbeq	r0, [fp]
    2950:	00000000 	andeq	r0, r0, r0
    2954:	0007cb47 	andeq	ip, r7, r7, asr #22
    2958:	01940100 	orrseq	r0, r4, r0, lsl #2
    295c:	00019f06 	andeq	r9, r1, r6, lsl #30
    2960:	0b100100 	bleq	402d68 <__exidx_end+0x401cf4>
    2964:	6d1e0000 	ldcvs	0, cr0, [lr, #-0]
    2968:	0100000b 	tsteq	r0, fp
    296c:	9f0a0198 	svcls	0x000a0198
    2970:	00000001 	andeq	r0, r0, r1
    2974:	0003e62c 	andeq	lr, r3, ip, lsr #12
    2978:	08013c00 	stmdaeq	r1, {sl, fp, ip, sp}
    297c:	00000245 	andeq	r0, r0, r5, asr #4
    2980:	00000854 	andeq	r0, r0, r4, asr r8
    2984:	000000f0 	strdeq	r0, [r0], -r0	@ <UNPREDICTABLE>
    2988:	0c6d9c01 	stcleq	12, cr9, [sp], #-4
    298c:	ca0e0000 	bgt	382994 <__exidx_end+0x381920>
    2990:	3c00000b 	stccc	0, cr0, [r0], {11}
    2994:	0c6d2501 	cfstr64eq	mvdx2, [sp], #-4
    2998:	05ea0000 	strbeq	r0, [sl, #0]!
    299c:	05e60000 	strbeq	r0, [r6, #0]!
    29a0:	e20e0000 	and	r0, lr, #0
    29a4:	3d00000a 	stccc	0, cr0, [r0, #-40]	@ 0xffffffd8
    29a8:	02241c01 	eoreq	r1, r4, #256	@ 0x100
    29ac:	05ff0000 	ldrbeq	r0, [pc, #0]!	@ 29b4 <__exidx_end+0x1940>
    29b0:	05fb0000 	ldrbeq	r0, [fp, #0]!
    29b4:	4b0e0000 	blmi	3829bc <__exidx_end+0x381948>
    29b8:	3d000001 	stccc	0, cr0, [r0, #-4]
    29bc:	04d12f01 	ldrbeq	r2, [r1], #3841	@ 0xf01
    29c0:	06140000 	ldreq	r0, [r4], -r0
    29c4:	06100000 	ldreq	r0, [r0], -r0
    29c8:	100e0000 	andne	r0, lr, r0
    29cc:	3d000002 	stccc	0, cr0, [r0, #-8]
    29d0:	04db4401 	ldrbeq	r4, [fp], #1025	@ 0x401
    29d4:	062f0000 	strteq	r0, [pc], -r0
    29d8:	06250000 	strteq	r0, [r5], -r0
    29dc:	950e0000 	strls	r0, [lr, #-0]
    29e0:	3e000003 	cdpcc	0, 0, cr0, cr0, cr3, {0}
    29e4:	01ab1401 			@ <UNDEFINED> instruction: 0x01ab1401
    29e8:	06590000 	ldrbeq	r0, [r9], -r0
    29ec:	06550000 	ldrbeq	r0, [r5], -r0
    29f0:	100e0000 	andne	r0, lr, r0
    29f4:	3e00000a 	cdpcc	0, 0, cr0, cr0, cr10, {0}
    29f8:	0c722501 	cfldr64eq	mvdx2, [r2], #-4
    29fc:	06720000 	ldrbteq	r0, [r2], -r0
    2a00:	066e0000 	strbteq	r0, [lr], -r0
    2a04:	0d0e0000 	stceq	0, cr0, [lr, #-0]
    2a08:	42000001 	andmi	r0, r0, #1
    2a0c:	02071701 	andeq	r1, r7, #262144	@ 0x40000
    2a10:	068b0000 	streq	r0, [fp], r0
    2a14:	06870000 	streq	r0, [r7], r0
    2a18:	1e0e0000 	cdpne	0, 0, cr0, cr14, cr0, {0}
    2a1c:	42000001 	andmi	r0, r0, #1
    2a20:	01ea2c01 	mvneq	r2, r1, lsl #24
    2a24:	06a40000 	strteq	r0, [r4], r0
    2a28:	06a00000 	strteq	r0, [r0], r0
    2a2c:	78070000 	stmdavc	r7, {}	@ <UNPREDICTABLE>
    2a30:	77000008 	strvc	r0, [r0, -r8]
    2a34:	eb00000c 	bl	2a6c <__exidx_end+0x19f8>
    2a38:	0200000b 	andeq	r0, r0, #11
    2a3c:	91035101 	tstls	r3, r1, lsl #2
    2a40:	01020604 	tsteq	r2, r4, lsl #12
    2a44:	00720252 	rsbseq	r0, r2, r2, asr r2
    2a48:	02530102 	subseq	r0, r3, #-2147483648	@ 0x80000000
    2a4c:	07004008 	streq	r4, [r0, -r8]
    2a50:	00000880 	andeq	r0, r0, r0, lsl #17
    2a54:	00000792 	muleq	r0, r2, r7
    2a58:	00000bff 	strdeq	r0, [r0], -pc	@ <UNPREDICTABLE>
    2a5c:	02500102 	subseq	r0, r0, #-2147483648	@ 0x80000000
    2a60:	07000075 	smlsdxeq	r0, r5, r0, r0
    2a64:	000008ae 	andeq	r0, r0, lr, lsr #17
    2a68:	00000c77 	andeq	r0, r0, r7, ror ip
    2a6c:	00000c20 	andeq	r0, r0, r0, lsr #24
    2a70:	03510102 	cmpeq	r1, #-2147483648	@ 0x80000000
    2a74:	02060491 	andeq	r0, r6, #-1862270976	@ 0x91000000
    2a78:	72025201 	andvc	r5, r2, #268435456	@ 0x10000000
    2a7c:	53010200 	movwpl	r0, #4608	@ 0x1200
    2a80:	00400802 	subeq	r0, r0, r2, lsl #16
    2a84:	0008b607 	andeq	fp, r8, r7, lsl #12
    2a88:	00079200 	andeq	r9, r7, r0, lsl #4
    2a8c:	000c3400 	andeq	r3, ip, r0, lsl #8
    2a90:	50010200 	andpl	r0, r1, r0, lsl #4
    2a94:	00007b02 	andeq	r7, r0, r2, lsl #22
    2a98:	0008de07 	andeq	sp, r8, r7, lsl #28
    2a9c:	000c7700 	andeq	r7, ip, r0, lsl #14
    2aa0:	000c5c00 	andeq	r5, ip, r0, lsl #24
    2aa4:	50010200 	andpl	r0, r1, r0, lsl #4
    2aa8:	02007802 	andeq	r7, r0, #131072	@ 0x20000
    2aac:	91035101 	tstls	r3, r1, lsl #2
    2ab0:	01020604 	tsteq	r2, r4, lsl #12
    2ab4:	00720252 	rsbseq	r0, r2, r2, asr r2
    2ab8:	03530102 	cmpeq	r3, #-2147483648	@ 0x80000000
    2abc:	00060091 	muleq	r6, r1, r0
    2ac0:	0008f008 	andeq	pc, r8, r8
    2ac4:	00079200 	andeq	r9, r7, r0, lsl #4
    2ac8:	50010200 	andpl	r0, r1, r0, lsl #4
    2acc:	00f50902 	rscseq	r0, r5, r2, lsl #18
    2ad0:	03e40500 	mvneq	r0, #0, 10
    2ad4:	7f050000 	svcvc	0x00050000
    2ad8:	48000001 	stmdami	r0, {r0}
    2adc:	00000c0a 	andeq	r0, r0, sl, lsl #24
    2ae0:	0f012b01 	svceq	0x00012b01
    2ae4:	00000245 	andeq	r0, r0, r5, asr #4
    2ae8:	00000624 	andeq	r0, r0, r4, lsr #12
    2aec:	000000cc 	andeq	r0, r0, ip, asr #1
    2af0:	0d3a9c01 	ldceq	12, cr9, [sl, #-4]!
    2af4:	e20e0000 	and	r0, lr, #0
    2af8:	2b00000a 	blcs	2b28 <__exidx_end+0x1ab4>
    2afc:	02242d01 	eoreq	r2, r4, #1, 26	@ 0x40
    2b00:	06c50000 	strbeq	r0, [r5], r0
    2b04:	06b90000 	ldrteq	r0, [r9], r0
    2b08:	100e0000 	andne	r0, lr, r0
    2b0c:	2b00000a 	blcs	2b3c <__exidx_end+0x1ac8>
    2b10:	0c724001 	ldcleq	0, cr4, [r2], #-4
    2b14:	070f0000 	streq	r0, [pc, -r0]
    2b18:	07050000 	streq	r0, [r5, -r0]
    2b1c:	10330000 	eorsne	r0, r3, r0
    2b20:	2c000002 	stccs	0, cr0, [r0], {2}
    2b24:	0004db01 	andeq	sp, r4, r1, lsl #22
    2b28:	0e520100 	rdfeqs	f0, f2, f0
    2b2c:	00000395 	muleq	r0, r5, r3
    2b30:	ab2d012c 	blge	b42fe8 <__exidx_end+0xb41f74>
    2b34:	4d000001 	stcmi	0, cr0, [r0, #-4]
    2b38:	45000007 	strmi	r0, [r0, #-7]
    2b3c:	49000007 	stmdbmi	r0, {r0, r1, r2}
    2b40:	00000d3a 	andeq	r0, r0, sl, lsr sp
    2b44:	00000624 	andeq	r0, r0, r4, lsr #12
    2b48:	00014602 	andeq	r4, r1, r2, lsl #12
    2b4c:	012e0100 			@ <UNDEFINED> instruction: 0x012e0100
    2b50:	0d730409 	cfldrdeq	mvd0, [r3, #-36]!	@ 0xffffffdc
    2b54:	077e0000 	ldrbeq	r0, [lr, -r0]!
    2b58:	07720000 	ldrbeq	r0, [r2, -r0]!
    2b5c:	66040000 	strvs	r0, [r4], -r0
    2b60:	ca00000d 	bgt	2b9c <__exidx_end+0x1b28>
    2b64:	be000007 	cdplt	0, 0, cr0, cr0, cr7, {0}
    2b68:	04000007 	streq	r0, [r0], #-7
    2b6c:	00000d59 	andeq	r0, r0, r9, asr sp
    2b70:	0000080e 	andeq	r0, r0, lr, lsl #16
    2b74:	0000080a 	andeq	r0, r0, sl, lsl #16
    2b78:	000d4c04 	andeq	r4, sp, r4, lsl #24
    2b7c:	00082500 	andeq	r2, r8, r0, lsl #10
    2b80:	00082100 	andeq	r2, r8, r0, lsl #2
    2b84:	0d804a00 	vstreq	s8, [r0]
    2b88:	01620000 	cmneq	r2, r0
    2b8c:	81130000 	tsthi	r3, r0
    2b90:	3e00000d 	cdpcc	0, 0, cr0, cr0, cr13, {0}
    2b94:	38000008 	stmdacc	r0, {r3}
    2b98:	00000008 	andeq	r0, r0, r8
    2b9c:	f5250000 			@ <UNDEFINED> instruction: 0xf5250000
    2ba0:	01000008 	tsteq	r0, r8
    2ba4:	450f010a 	strmi	r0, [pc, #-266]	@ 2aa2 <__exidx_end+0x1a2e>
    2ba8:	01000002 	tsteq	r0, r2
    2bac:	00000d8d 	andeq	r0, r0, sp, lsl #27
    2bb0:	00021019 	andeq	r1, r2, r9, lsl r0
    2bb4:	010a0100 	mrseq	r0, (UNDEF: 26)
    2bb8:	0004db27 	andeq	sp, r4, r7, lsr #22
    2bbc:	03951900 	orrseq	r1, r5, #0, 18
    2bc0:	0a010000 	beq	42bc8 <__exidx_end+0x41b54>
    2bc4:	01ab4001 			@ <UNDEFINED> instruction: 0x01ab4001
    2bc8:	e2190000 	ands	r0, r9, #0
    2bcc:	0100000a 	tsteq	r0, sl
    2bd0:	241c010b 	ldrcs	r0, [ip], #-267	@ 0xfffffef5
    2bd4:	19000002 	stmdbne	r0, {r1}
    2bd8:	00000a10 	andeq	r0, r0, r0, lsl sl
    2bdc:	2f010b01 	svccs	0x00010b01
    2be0:	00000c72 	andeq	r0, r0, r2, ror ip
    2be4:	006a3132 	rsbeq	r3, sl, r2, lsr r1
    2be8:	b0100123 	andslt	r0, r0, r3, lsr #2
    2bec:	00000001 	andeq	r0, r0, r1
    2bf0:	0afc1000 	beq	fff06bf8 <SCB_ICSR+0x1fef7ef4>
    2bf4:	08fc0000 	ldmeq	ip!, {}^	@ <UNPREDICTABLE>
    2bf8:	00000245 	andeq	r0, r0, r5, asr #4
    2bfc:	00000830 	andeq	r0, r0, r0, lsr r8
    2c00:	00000024 	andeq	r0, r0, r4, lsr #32
    2c04:	0e039c01 	cdpeq	12, 0, cr9, cr3, cr1, {0}
    2c08:	f7090000 			@ <UNDEFINED> instruction: 0xf7090000
    2c0c:	fc00000b 	stc2	0, cr0, [r0], {11}
    2c10:	000e0823 	andeq	r0, lr, r3, lsr #16
    2c14:	00085a00 	andeq	r5, r8, r0, lsl #20
    2c18:	00085400 	andeq	r5, r8, r0, lsl #8
    2c1c:	010d0900 	tsteq	sp, r0, lsl #18
    2c20:	34fc0000 	ldrbtcc	r0, [ip], #0
    2c24:	000001fb 	strdeq	r0, [r0], -fp
    2c28:	00000876 	andeq	r0, r0, r6, ror r8
    2c2c:	00000872 	andeq	r0, r0, r2, ror r8
    2c30:	7272651a 	rsbsvc	r6, r2, #109051904	@ 0x6800000
    2c34:	0245ff00 	subeq	pc, r5, #0, 30
    2c38:	088f0000 	stmeq	pc, {}	@ <UNPREDICTABLE>
    2c3c:	08890000 	stmeq	r9, {}	@ <UNPREDICTABLE>
    2c40:	42070000 	andmi	r0, r7, #0
    2c44:	da000008 	ble	2c6c <__exidx_end+0x1bf8>
    2c48:	f3000010 	vqadd.u8	d0, d0, d0
    2c4c:	0200000d 	andeq	r0, r0, #13
    2c50:	a3035101 	movwge	r5, #12545	@ 0x3101
    2c54:	08005001 	stmdaeq	r0, {r0, ip, lr}
    2c58:	0000084c 	andeq	r0, r0, ip, asr #16
    2c5c:	00000792 	muleq	r0, r2, r7
    2c60:	01500102 	cmpeq	r0, r2, lsl #2
    2c64:	05000030 	streq	r0, [r0, #-48]	@ 0xffffffd0
    2c68:	00000564 	andeq	r0, r0, r4, ror #10
    2c6c:	000e030b 	andeq	r0, lr, fp, lsl #6
    2c70:	09bd1000 	ldmibeq	sp!, {ip}
    2c74:	08e20000 	stmiaeq	r2!, {}^	@ <UNPREDICTABLE>
    2c78:	00000245 	andeq	r0, r0, r5, asr #4
    2c7c:	00000000 	andeq	r0, r0, r0
    2c80:	00000090 	muleq	r0, r0, r0
    2c84:	0ebf9c01 	cdpeq	12, 11, cr9, cr15, cr1, {0}
    2c88:	a7090000 	strge	r0, [r9, -r0]
    2c8c:	e200000a 	and	r0, r0, #10
    2c90:	00056927 	andeq	r6, r5, r7, lsr #18
    2c94:	0008ae00 	andeq	sl, r8, r0, lsl #28
    2c98:	0008a400 	andeq	sl, r8, r0, lsl #8
    2c9c:	07590c00 	ldrbeq	r0, [r9, -r0, lsl #24]
    2ca0:	05e40000 	strbeq	r0, [r4, #0]!
    2ca4:	0000019f 	muleq	r0, pc, r1	@ <UNPREDICTABLE>
    2ca8:	000008dc 	ldrdeq	r0, [r0], -ip
    2cac:	000008d4 	ldrdeq	r0, [r0], -r4
    2cb0:	00000006 	andeq	r0, r0, r6
    2cb4:	000af000 	andeq	pc, sl, r0
    2cb8:	00000700 	andeq	r0, r0, r0, lsl #14
    2cbc:	07920000 	ldreq	r0, [r2, r0]
    2cc0:	0e690000 	cdpeq	0, 6, cr0, cr9, cr0, {0}
    2cc4:	01020000 	mrseq	r0, (UNDEF: 2)
    2cc8:	fe090250 	mcr2	2, 0, r0, cr9, cr0, {2}
    2ccc:	00000700 	andeq	r0, r0, r0, lsl #14
    2cd0:	0aaa0000 	beq	fea82cd8 <SCB_ICSR+0x1ea73fd4>
    2cd4:	0e7d0000 	cdpeq	0, 7, cr0, cr13, cr0, {0}
    2cd8:	01020000 	mrseq	r0, (UNDEF: 2)
    2cdc:	00750250 	rsbseq	r0, r5, r0, asr r2
    2ce0:	00000700 	andeq	r0, r0, r0, lsl #14
    2ce4:	11b70000 			@ <UNDEFINED> instruction: 0x11b70000
    2ce8:	0e910000 	cdpeq	0, 9, cr0, cr1, cr0, {0}
    2cec:	01020000 	mrseq	r0, (UNDEF: 2)
    2cf0:	00740251 	rsbseq	r0, r4, r1, asr r2
    2cf4:	00000600 	andeq	r0, r0, r0, lsl #12
    2cf8:	11b70000 			@ <UNDEFINED> instruction: 0x11b70000
    2cfc:	00070000 	andeq	r0, r7, r0
    2d00:	92000000 	andls	r0, r0, #0
    2d04:	ae000007 	cdpge	0, 0, cr0, cr0, cr7, {0}
    2d08:	0200000e 	andeq	r0, r0, #14
    2d0c:	76025001 	strvc	r5, [r2], -r1
    2d10:	00080000 	andeq	r0, r8, r0
    2d14:	aa000000 	bge	2d1c <__exidx_end+0x1ca8>
    2d18:	0200000a 	andeq	r0, r0, #10
    2d1c:	70025001 	andvc	r5, r2, r1
    2d20:	10000000 	andne	r0, r0, r0
    2d24:	00000926 	andeq	r0, r0, r6, lsr #18
    2d28:	024508c0 	subeq	r0, r5, #192, 16	@ 0xc00000
    2d2c:	00000000 	andeq	r0, r0, r0
    2d30:	00620000 	rsbeq	r0, r2, r0
    2d34:	9c010000 	stcls	0, cr0, [r1], {-0}
    2d38:	00000fac 	andeq	r0, r0, ip, lsr #31
    2d3c:	00073e09 	andeq	r3, r7, r9, lsl #28
    2d40:	b127c000 			@ <UNDEFINED> instruction: 0xb127c000
    2d44:	0100000f 	tsteq	r0, pc
    2d48:	f7000009 			@ <UNDEFINED> instruction: 0xf7000009
    2d4c:	09000008 	stmdbeq	r0, {r3}
    2d50:	00000aa7 	andeq	r0, r0, r7, lsr #21
    2d54:	05693bc0 	strbeq	r3, [r9, #-3008]!	@ 0xfffff440
    2d58:	092d0000 	pusheq	{}	@ <UNPREDICTABLE>
    2d5c:	09230000 	stmdbeq	r3!, {}	@ <UNPREDICTABLE>
    2d60:	651a0000 	ldrvs	r0, [sl, #-0]
    2d64:	c2007272 	andgt	r7, r0, #536870919	@ 0x20000007
    2d68:	00000245 	andeq	r0, r0, r5, asr #4
    2d6c:	00000953 	andeq	r0, r0, r3, asr r9
    2d70:	0000094f 	andeq	r0, r0, pc, asr #18
    2d74:	0008c00c 	andeq	ip, r8, ip
    2d78:	b60ecf00 	strlt	ip, [lr], -r0, lsl #30
    2d7c:	6a00000f 	bvs	2dc0 <__exidx_end+0x1d4c>
    2d80:	66000009 	strvs	r0, [r0], -r9
    2d84:	0c000009 	stceq	0, cr0, [r0], {9}
    2d88:	00000a9c 	muleq	r0, ip, sl
    2d8c:	05640dd0 	strbeq	r0, [r4, #-3536]!	@ 0xfffff230
    2d90:	097e0000 	ldmdbeq	lr!, {}^	@ <UNPREDICTABLE>
    2d94:	097a0000 	ldmdbeq	sl!, {}^	@ <UNPREDICTABLE>
    2d98:	311f0000 	tstcc	pc, r0
    2d9c:	00000014 	andeq	r0, r0, r4, lsl r0
    2da0:	00000000 	andeq	r0, r0, r0
    2da4:	000001aa 	andeq	r0, r0, sl, lsr #3
    2da8:	0f720bdb 	svceq	0x00720bdb
    2dac:	56040000 	strpl	r0, [r4], -r0
    2db0:	90000014 	andls	r0, r0, r4, lsl r0
    2db4:	8e000009 	cdphi	0, 0, cr0, cr0, cr9, {0}
    2db8:	04000009 	streq	r0, [r0], #-9
    2dbc:	0000144b 	andeq	r1, r0, fp, asr #8
    2dc0:	0000099b 	muleq	r0, fp, r9
    2dc4:	00000999 	muleq	r0, r9, r9
    2dc8:	00144004 	andseq	r4, r4, r4
    2dcc:	0009a600 	andeq	sl, r9, r0, lsl #12
    2dd0:	0009a400 	andeq	sl, r9, r0, lsl #8
    2dd4:	00070000 	andeq	r0, r7, r0
    2dd8:	92000000 	andls	r0, r0, #0
    2ddc:	86000007 	strhi	r0, [r0], -r7
    2de0:	0200000f 	andeq	r0, r0, #15
    2de4:	09025001 	stmdbeq	r2, {r0, ip, lr}
    2de8:	004b00fe 	strdeq	r0, [fp], #-14
    2dec:	b7000000 	strlt	r0, [r0, -r0]
    2df0:	a2000011 	andge	r0, r0, #17
    2df4:	0200000f 	andeq	r0, r0, #15
    2df8:	a3035001 	movwge	r5, #12289	@ 0x3001
    2dfc:	01025001 	tsteq	r2, r1
    2e00:	01a30351 			@ <UNDEFINED> instruction: 0x01a30351
    2e04:	00060051 	andeq	r0, r6, r1, asr r0
    2e08:	92000000 	andls	r0, r0, #0
    2e0c:	00000007 	andeq	r0, r0, r7
    2e10:	0003d805 	andeq	sp, r3, r5, lsl #16
    2e14:	0fac0b00 	svceq	0x00ac0b00
    2e18:	a6050000 	strge	r0, [r5], -r0
    2e1c:	0b000003 	bleq	2e30 <__exidx_end+0x1dbc>
    2e20:	00000fb6 			@ <UNDEFINED> instruction: 0x00000fb6
    2e24:	00071310 	andeq	r1, r7, r0, lsl r3
    2e28:	6409b600 	strvs	fp, [r9], #-1536	@ 0xfffffa00
    2e2c:	1c000005 	stcne	0, cr0, [r0], {5}
    2e30:	14000008 	strne	r0, [r0], #-8
    2e34:	01000000 	mrseq	r0, (UNDEF: 0)
    2e38:	0010109c 	mulseq	r0, ip, r0
    2e3c:	073e0900 	ldreq	r0, [lr, -r0, lsl #18]!
    2e40:	23b60000 			@ <UNDEFINED> instruction: 0x23b60000
    2e44:	00000fb1 			@ <UNDEFINED> instruction: 0x00000fb1
    2e48:	000009b3 			@ <UNDEFINED> instruction: 0x000009b3
    2e4c:	000009af 	andeq	r0, r0, pc, lsr #19
    2e50:	000b5d0c 	andeq	r5, fp, ip, lsl #26
    2e54:	b60ebc00 	strlt	fp, [lr], -r0, lsl #24
    2e58:	c500000f 	strgt	r0, [r0, #-15]
    2e5c:	c3000009 	movwgt	r0, #9
    2e60:	08000009 	stmdaeq	r0, {r0, r3}
    2e64:	0000082a 	andeq	r0, r0, sl, lsr #16
    2e68:	00000792 	muleq	r0, r2, r7
    2e6c:	02500102 	subseq	r0, r0, #-2147483648	@ 0x80000000
    2e70:	0000fe09 	andeq	pc, r0, r9, lsl #28
    2e74:	000b3b10 	andeq	r3, fp, r0, lsl fp
    2e78:	45089e00 	strmi	r9, [r8, #-3584]	@ 0xfffff200
    2e7c:	ac000002 	stcge	0, cr0, [r0], {2}
    2e80:	70000007 	andvc	r0, r0, r7
    2e84:	01000000 	mrseq	r0, (UNDEF: 0)
    2e88:	0010da9c 	mulseq	r0, ip, sl
    2e8c:	073e0900 	ldreq	r0, [lr, -r0, lsl #18]!
    2e90:	219e0000 	orrscs	r0, lr, r0
    2e94:	00000fb1 			@ <UNDEFINED> instruction: 0x00000fb1
    2e98:	000009d7 	ldrdeq	r0, [r0], -r7
    2e9c:	000009cf 	andeq	r0, r0, pc, asr #19
    2ea0:	000bf709 	andeq	pc, fp, r9, lsl #14
    2ea4:	08369e00 	ldmdaeq	r6!, {r9, sl, fp, ip, pc}
    2ea8:	f900000e 			@ <UNDEFINED> instruction: 0xf900000e
    2eac:	f1000009 	cps	#9
    2eb0:	0c000009 	stceq	0, cr0, [r0], {9}
    2eb4:	0000097a 	andeq	r0, r0, sl, ror r9
    2eb8:	0fb60ea4 	svceq	0x00b60ea4
    2ebc:	0a170000 	beq	5c2ec4 <__exidx_end+0x5c1e50>
    2ec0:	0a130000 	beq	4c2ec8 <__exidx_end+0x4c1e54>
    2ec4:	651a0000 	ldrvs	r0, [sl, #-0]
    2ec8:	a5007272 	strge	r7, [r0, #-626]	@ 0xfffffd8e
    2ecc:	00000245 	andeq	r0, r0, r5, asr #4
    2ed0:	00000a31 	andeq	r0, r0, r1, lsr sl
    2ed4:	00000a2d 	andeq	r0, r0, sp, lsr #20
    2ed8:	000b280c 	andeq	r2, fp, ip, lsl #16
    2edc:	640daf00 	strvs	sl, [sp], #-3840	@ 0xfffff100
    2ee0:	49000005 	stmdbmi	r0, {r0, r2}
    2ee4:	4300000a 	movwmi	r0, #10
    2ee8:	0c00000a 	stceq	0, cr0, [r0], {10}
    2eec:	00000b22 	andeq	r0, r0, r2, lsr #22
    2ef0:	01fb0db0 	ldrheq	r0, [fp, #208]!	@ 0xd0
    2ef4:	0a640000 	beq	1902efc <__exidx_end+0x1901e88>
    2ef8:	0a600000 	beq	1802f00 <__exidx_end+0x1801e8c>
    2efc:	0b1f0000 	bleq	7c2f04 <__exidx_end+0x7c1e90>
    2f00:	b8000014 	stmdalt	r0, {r2, r4}
    2f04:	01000007 	tsteq	r0, r7
    2f08:	0000017d 	andeq	r0, r0, sp, ror r1
    2f0c:	10c912a5 	sbcne	r1, r9, r5, lsr #5
    2f10:	25040000 	strcs	r0, [r4, #-0]
    2f14:	78000014 	stmdavc	r0, {r2, r4}
    2f18:	7400000a 	strvc	r0, [r0], #-10
    2f1c:	0400000a 	streq	r0, [r0], #-10
    2f20:	0000141a 	andeq	r1, r0, sl, lsl r4
    2f24:	00000a96 	muleq	r0, r6, sl
    2f28:	00000a8e 	andeq	r0, r0, lr, lsl #21
    2f2c:	07f20800 	ldrbeq	r0, [r2, r0, lsl #16]!
    2f30:	07920000 	ldreq	r0, [r2, r0]
    2f34:	01020000 	mrseq	r0, (UNDEF: 2)
    2f38:	fe090250 	mcr2	2, 0, r0, cr9, cr0, {2}
    2f3c:	e4100000 	ldr	r0, [r0], #-0
    2f40:	83000007 	movwhi	r0, #7
    2f44:	00024508 	andeq	r4, r2, r8, lsl #10
    2f48:	00074400 	andeq	r4, r7, r0, lsl #8
    2f4c:	00006800 	andeq	r6, r0, r0, lsl #16
    2f50:	b79c0100 	ldrlt	r0, [ip, r0, lsl #2]
    2f54:	09000011 	stmdbeq	r0, {r0, r4}
    2f58:	0000073e 	andeq	r0, r0, lr, lsr r7
    2f5c:	0fb12183 	svceq	0x00b12183
    2f60:	0ab40000 	beq	fed02f68 <SCB_ICSR+0x1ecf4264>
    2f64:	0ab00000 	beq	fec02f6c <SCB_ICSR+0x1ebf4268>
    2f68:	f7090000 			@ <UNDEFINED> instruction: 0xf7090000
    2f6c:	8300000b 	movwhi	r0, #11
    2f70:	000e0836 	andeq	r0, lr, r6, lsr r8
    2f74:	000ac800 	andeq	ip, sl, r0, lsl #16
    2f78:	000ac400 	andeq	ip, sl, r0, lsl #8
    2f7c:	097a0c00 	ldmdbeq	sl!, {sl, fp}^
    2f80:	0e890000 	cdpeq	0, 8, cr0, cr9, cr0, {0}
    2f84:	00000fb6 			@ <UNDEFINED> instruction: 0x00000fb6
    2f88:	00000ae6 	andeq	r0, r0, r6, ror #21
    2f8c:	00000ad8 	ldrdeq	r0, [r0], -r8
    2f90:	7272651a 	rsbsvc	r6, r2, #109051904	@ 0x6800000
    2f94:	02458a00 	subeq	r8, r5, #0, 20
    2f98:	0b250000 	bleq	942fa0 <__exidx_end+0x941f2c>
    2f9c:	0b210000 	bleq	842fa4 <__exidx_end+0x841f30>
    2fa0:	280c0000 	stmdacs	ip, {}	@ <UNPREDICTABLE>
    2fa4:	9700000b 	strls	r0, [r0, -fp]
    2fa8:	0005640d 	andeq	r6, r5, sp, lsl #8
    2fac:	000b3f00 	andeq	r3, fp, r0, lsl #30
    2fb0:	000b3700 	andeq	r3, fp, r0, lsl #14
    2fb4:	0b220c00 	bleq	885fbc <__exidx_end+0x884f48>
    2fb8:	0d980000 	ldceq	0, cr0, [r8]
    2fbc:	000001fb 	strdeq	r0, [r0], -fp
    2fc0:	00000b5f 	andeq	r0, r0, pc, asr fp
    2fc4:	00000b5b 	andeq	r0, r0, fp, asr fp
    2fc8:	0013cf1f 	andseq	ip, r3, pc, lsl pc
    2fcc:	00075400 	andeq	r5, r7, r0, lsl #8
    2fd0:	01710200 	cmneq	r1, r0, lsl #4
    2fd4:	128a0000 	addne	r0, sl, #0
    2fd8:	000011a6 	andeq	r1, r0, r6, lsr #3
    2fdc:	0013e904 	andseq	lr, r3, r4, lsl #18
    2fe0:	000b7300 	andeq	r7, fp, r0, lsl #6
    2fe4:	000b6f00 	andeq	r6, fp, r0, lsl #30
    2fe8:	13de0400 	bicsne	r0, lr, #0, 8
    2fec:	0b910000 	bleq	fe442ff4 <SCB_ICSR+0x1e4342f0>
    2ff0:	0b8d0000 	bleq	fe342ff8 <SCB_ICSR+0x1e3342f4>
    2ff4:	712f0000 			@ <UNDEFINED> instruction: 0x712f0000
    2ff8:	13000001 	movwne	r0, #1
    2ffc:	000013f4 	strdeq	r1, [r0], -r4
    3000:	00000ba3 	andeq	r0, r0, r3, lsr #23
    3004:	00000ba1 	andeq	r0, r0, r1, lsr #23
    3008:	54080000 	strpl	r0, [r8], #-0
    300c:	92000007 	andls	r0, r0, #7
    3010:	02000007 	andeq	r0, r0, #7
    3014:	09025001 	stmdbeq	r2, {r0, ip, lr}
    3018:	100000fe 	strdne	r0, [r0], -lr
    301c:	0000070a 	andeq	r0, r0, sl, lsl #14
    3020:	02450870 	subeq	r0, r5, #112, 16	@ 0x700000
    3024:	09700000 	ldmdbeq	r0!, {}^	@ <UNPREDICTABLE>
    3028:	006c0000 	rsbeq	r0, ip, r0
    302c:	9c010000 	stcls	0, cr0, [r1], {-0}
    3030:	000012b1 			@ <UNDEFINED> instruction: 0x000012b1
    3034:	00073e09 	andeq	r3, r7, r9, lsl #28
    3038:	b1217000 			@ <UNDEFINED> instruction: 0xb1217000
    303c:	b000000f 	andlt	r0, r0, pc
    3040:	ac00000b 	stcge	0, cr0, [r0], {11}
    3044:	0900000b 	stmdbeq	r0, {r0, r1, r3}
    3048:	00000aa7 	andeq	r0, r0, r7, lsr #21
    304c:	05693570 	strbeq	r3, [r9, #-1392]!	@ 0xfffffa90
    3050:	0bc80000 	bleq	ff203058 <SCB_ICSR+0x1f1f4354>
    3054:	0bc00000 	bleq	ff00305c <SCB_ICSR+0x1eff4358>
    3058:	590c0000 	stmdbpl	ip, {}	@ <UNPREDICTABLE>
    305c:	73000007 	movwvc	r0, #7
    3060:	00019f05 	andeq	r9, r1, r5, lsl #30
    3064:	000bea00 	andeq	lr, fp, r0, lsl #20
    3068:	000be200 	andeq	lr, fp, r0, lsl #4
    306c:	72651a00 	rsbvc	r1, r5, #0, 20
    3070:	45790072 	ldrbmi	r0, [r9, #-114]!	@ 0xffffff8e
    3074:	06000002 	streq	r0, [r0], -r2
    3078:	0400000c 	streq	r0, [r0], #-12
    307c:	1f00000c 	svcne	0x0000000c
    3080:	000013a9 	andeq	r1, r0, r9, lsr #7
    3084:	00000984 	andeq	r0, r0, r4, lsl #19
    3088:	00018c01 	andeq	r8, r1, r1, lsl #24
    308c:	83127900 	tsthi	r2, #0, 18
    3090:	04000012 	streq	r0, [r0], #-18	@ 0xffffffee
    3094:	000013c3 	andeq	r1, r0, r3, asr #7
    3098:	00000c14 	andeq	r0, r0, r4, lsl ip
    309c:	00000c10 	andeq	r0, r0, r0, lsl ip
    30a0:	0013b804 	andseq	fp, r3, r4, lsl #16
    30a4:	000c2e00 	andeq	r2, ip, r0, lsl #28
    30a8:	000c2a00 	andeq	r2, ip, r0, lsl #20
    30ac:	14314c00 	ldrtne	r4, [r1], #-3072	@ 0xfffff400
    30b0:	09860000 	stmibeq	r6, {}	@ <UNPREDICTABLE>
    30b4:	9b000000 	blls	30bc <__exidx_end+0x2048>
    30b8:	02000001 	andeq	r0, r0, #1
    30bc:	56040d80 	strpl	r0, [r4], -r0, lsl #27
    30c0:	42000014 	andmi	r0, r0, #20
    30c4:	3e00000c 	cdpcc	0, 0, cr0, cr0, cr12, {0}
    30c8:	0400000c 	streq	r0, [r0], #-12
    30cc:	0000144b 	andeq	r1, r0, fp, asr #8
    30d0:	00000c60 	andeq	r0, r0, r0, ror #24
    30d4:	00000c58 	andeq	r0, r0, r8, asr ip
    30d8:	00144004 	andseq	r4, r4, r4
    30dc:	000c8100 	andeq	r8, ip, r0, lsl #2
    30e0:	000c7d00 	andeq	r7, ip, r0, lsl #26
    30e4:	06000000 	streq	r0, [r0], -r0
    30e8:	00000978 	andeq	r0, r0, r8, ror r9
    30ec:	00000af0 	strdeq	r0, [r0], -r0	@ <UNPREDICTABLE>
    30f0:	0009be07 	andeq	fp, r9, r7, lsl #28
    30f4:	000aaa00 	andeq	sl, sl, r0, lsl #20
    30f8:	0012a000 	andseq	sl, r2, r0
    30fc:	50010200 	andpl	r0, r1, r0, lsl #4
    3100:	00007002 	andeq	r7, r0, r2
    3104:	0009ca08 	andeq	ip, r9, r8, lsl #20
    3108:	00079200 	andeq	r9, r7, r0, lsl #4
    310c:	50010200 	andpl	r0, r1, r0, lsl #4
    3110:	00fe0902 	rscseq	r0, lr, r2, lsl #18
    3114:	08eb1000 	stmiaeq	fp!, {ip}^
    3118:	08660000 	stmdaeq	r6!, {}^	@ <UNPREDICTABLE>
    311c:	00000245 	andeq	r0, r0, r5, asr #4
    3120:	0000071c 	andeq	r0, r0, ip, lsl r7
    3124:	00000028 	andeq	r0, r0, r8, lsr #32
    3128:	13359c01 	teqne	r5, #256	@ 0x100
    312c:	3e090000 	cdpcc	0, 0, cr0, cr9, cr0, {0}
    3130:	66000007 	strvs	r0, [r0], -r7
    3134:	000fb122 	andeq	fp, pc, r2, lsr #2
    3138:	000c9900 	andeq	r9, ip, r0, lsl #18
    313c:	000c9100 	andeq	r9, ip, r0, lsl #2
    3140:	00930900 	addseq	r0, r3, r0, lsl #18
    3144:	2e660000 	cdpcs	0, 6, cr0, cr6, cr0, {0}
    3148:	000004d1 	ldrdeq	r0, [r0], -r1
    314c:	00000cbf 			@ <UNDEFINED> instruction: 0x00000cbf
    3150:	00000cb9 			@ <UNDEFINED> instruction: 0x00000cb9
    3154:	0014624d 	andseq	r6, r4, sp, asr #4
    3158:	00072e00 	andeq	r2, r7, r0, lsl #28
    315c:	072e0100 	streq	r0, [lr, -r0, lsl #2]!
    3160:	00120000 	andseq	r0, r2, r0
    3164:	6d010000 	stcvs	0, cr0, [r1, #-0]
    3168:	0013240d 	andseq	r2, r3, sp, lsl #8
    316c:	147c0400 	ldrbtne	r0, [ip], #-1024	@ 0xfffffc00
    3170:	0cd90000 	ldcleq	0, cr0, [r9], {0}
    3174:	0cd70000 	ldcleq	0, cr0, [r7], {0}
    3178:	71040000 	mrsvc	r0, (UNDEF: 4)
    317c:	e4000014 	str	r0, [r0], #-20	@ 0xffffffec
    3180:	e200000c 	and	r0, r0, #12
    3184:	0000000c 	andeq	r0, r0, ip
    3188:	00072808 	andeq	r2, r7, r8, lsl #16
    318c:	00079200 	andeq	r9, r7, r0, lsl #4
    3190:	50010200 	andpl	r0, r1, r0, lsl #4
    3194:	00fe0902 	rscseq	r0, lr, r2, lsl #18
    3198:	08b53400 	ldmeq	r5!, {sl, ip, sp}
    319c:	d9590000 	ldmdble	r9, {}^	@ <UNPREDICTABLE>
    31a0:	00000001 	andeq	r0, r0, r1
    31a4:	1c000000 	stcne	0, cr0, [r0], {-0}
    31a8:	01000000 	mrseq	r0, (UNDEF: 0)
    31ac:	0ad9349c 	beq	ff650424 <SCB_ICSR+0x1f641720>
    31b0:	d9500000 	ldmdble	r0, {}^	@ <UNPREDICTABLE>
    31b4:	00000001 	andeq	r0, r0, r1
    31b8:	14000000 	strne	r0, [r0], #-0
    31bc:	01000000 	mrseq	r0, (UNDEF: 0)
    31c0:	08664e9c 	stmdaeq	r6!, {r2, r3, r4, r7, r9, sl, fp, lr}^
    31c4:	3e010000 	cdpcc	0, 0, cr0, cr1, cr0, {0}
    31c8:	00000006 	andeq	r0, r0, r6
    31cc:	00002c00 	andeq	r2, r0, r0, lsl #24
    31d0:	a99c0100 	ldmibge	ip, {r8}
    31d4:	0c000013 	stceq	0, cr0, [r0], {19}
    31d8:	00000759 	andeq	r0, r0, r9, asr r7
    31dc:	019f0540 	orrseq	r0, pc, r0, asr #10
    31e0:	0cf30000 	ldcleq	0, cr0, [r3]
    31e4:	0ced0000 	stcleq	0, cr0, [sp]
    31e8:	00060000 	andeq	r0, r6, r0
    31ec:	f0000000 			@ <UNDEFINED> instruction: 0xf0000000
    31f0:	0600000a 	streq	r0, [r0], -sl
    31f4:	00000000 	andeq	r0, r0, r0
    31f8:	0000088b 	andeq	r0, r0, fp, lsl #17
    31fc:	0000004f 	andeq	r0, r0, pc, asr #32
    3200:	000aaa00 	andeq	sl, sl, r0, lsl #20
    3204:	50010200 	andpl	r0, r1, r0, lsl #4
    3208:	00007002 	andeq	r7, r0, r2
    320c:	0a181b00 	beq	609e14 <__exidx_end+0x608da0>
    3210:	387d0000 	ldmdacc	sp!, {}^	@ <UNPREDICTABLE>
    3214:	00000245 	andeq	r0, r0, r5, asr #4
    3218:	000013cf 	andeq	r1, r0, pc, asr #7
    321c:	00073e0f 	andeq	r3, r7, pc, lsl #28
    3220:	c7187e00 	ldrgt	r7, [r8, -r0, lsl #28]
    3224:	0f000004 	svceq	0x00000004
    3228:	0000093c 	andeq	r0, r0, ip, lsr r9
    322c:	0fbb2d7e 	svceq	0x00bb2d7e
    3230:	1b000000 	blne	3238 <__exidx_end+0x21c4>
    3234:	00000aba 			@ <UNDEFINED> instruction: 0x00000aba
    3238:	0245386d 	subeq	r3, r5, #7143424	@ 0x6d0000
    323c:	14010000 	strne	r0, [r1], #-0
    3240:	3e0f0000 	cdpcc	0, 0, cr0, cr15, cr0, {0}
    3244:	6e000007 	cdpvs	0, 0, cr0, cr0, cr7, {0}
    3248:	0004c718 	andeq	ip, r4, r8, lsl r7
    324c:	0a360f00 	beq	d86e54 <__exidx_end+0xd85de0>
    3250:	2e6e0000 	cdpcs	0, 6, cr0, cr14, cr0, {0}
    3254:	00001406 	andeq	r1, r0, r6, lsl #8
    3258:	0008df29 	andeq	sp, r8, r9, lsr #30
    325c:	0e760200 	cdpeq	2, 7, cr0, cr6, cr0, {0}
    3260:	00000fb6 			@ <UNDEFINED> instruction: 0x00000fb6
    3264:	0fb60500 	svceq	0x00b60500
    3268:	010b0000 	mrseq	r0, (UNDEF: 11)
    326c:	1b000014 	blne	32c4 <__exidx_end+0x2250>
    3270:	00000a8a 	andeq	r0, r0, sl, lsl #21
    3274:	0245385c 	subeq	r3, r5, #92, 16	@ 0x5c0000
    3278:	14310000 	ldrtne	r0, [r1], #-0
    327c:	3e0f0000 	cdpcc	0, 0, cr0, cr15, cr0, {0}
    3280:	5c000007 	stcpl	0, cr0, [r0], {7}
    3284:	0004c753 	andeq	ip, r4, r3, asr r7
    3288:	09df0f00 	ldmibeq	pc, {r8, r9, sl, fp}^	@ <UNPREDICTABLE>
    328c:	185d0000 	ldmdane	sp, {}^	@ <UNPREDICTABLE>
    3290:	00000fbb 			@ <UNDEFINED> instruction: 0x00000fbb
    3294:	0a5b1b00 	beq	16c9e9c <__exidx_end+0x16c8e28>
    3298:	384b0000 	stmdacc	fp, {}^	@ <UNPREDICTABLE>
    329c:	00000245 	andeq	r0, r0, r5, asr #4
    32a0:	00001462 	andeq	r1, r0, r2, ror #8
    32a4:	00073e0f 	andeq	r3, r7, pc, lsl #28
    32a8:	c7184c00 	ldrgt	r4, [r8, -r0, lsl #24]
    32ac:	0f000004 	svceq	0x00000004
    32b0:	00000bff 	strdeq	r0, [r0], -pc	@ <UNPREDICTABLE>
    32b4:	0fbb2d4c 	svceq	0x00bb2d4c
    32b8:	3c0f0000 	stccc	0, cr0, [pc], {-0}
    32bc:	4d000009 	stcmi	0, cr0, [r0, #-36]	@ 0xffffffdc
    32c0:	000fbb18 	andeq	fp, pc, r8, lsl fp	@ <UNPREDICTABLE>
    32c4:	341b0000 	ldrcc	r0, [fp], #-0
    32c8:	3c000007 	stccc	0, cr0, [r0], {7}
    32cc:	00024535 	andeq	r4, r2, r5, lsr r5
    32d0:	00148800 	andseq	r8, r4, r0, lsl #16
    32d4:	073e0f00 	ldreq	r0, [lr, -r0, lsl #30]!
    32d8:	4e3c0000 	cdpmi	0, 3, cr0, cr12, cr0, {0}
    32dc:	000004c7 	andeq	r0, r0, r7, asr #9
    32e0:	0000930f 	andeq	r9, r0, pc, lsl #6
    32e4:	d10f3d00 	tstle	pc, r0, lsl #26
    32e8:	00000004 	andeq	r0, r0, r4
    32ec:	00088c50 	andeq	r8, r8, r0, asr ip
    32f0:	04d20300 	ldrbeq	r0, [r2], #768	@ 0x300
    32f4:	14a4031b 	strtne	r0, [r4], #795	@ 0x31b
    32f8:	65190000 	ldrvs	r0, [r9, #-0]
    32fc:	0300000b 	movweq	r0, #11
    3300:	923204d2 	eorsls	r0, r2, #-771751936	@ 0xd2000000
    3304:	00000000 	andeq	r0, r0, r0
    3308:	0008a725 	andeq	sl, r8, r5, lsr #14
    330c:	04b40300 	ldrteq	r0, [r4], #768	@ 0x300
    3310:	0000921f 	andeq	r9, r0, pc, lsl r2
    3314:	14c40300 	strbne	r0, [r4], #768	@ 0x300
    3318:	351e0000 	ldrcc	r0, [lr, #-0]
    331c:	03000009 	movweq	r0, #9
    3320:	920c04b6 	andls	r0, ip, #-1241513984	@ 0xb6000000
    3324:	00000000 	andeq	r0, r0, r0
    3328:	000b1523 	andeq	r1, fp, r3, lsr #10
    332c:	03b50300 			@ <UNDEFINED> instruction: 0x03b50300
    3330:	0435031b 	ldrteq	r0, [r5], #-795	@ 0xfffffce5
    3334:	f0000009 			@ <UNDEFINED> instruction: 0xf0000009
    3338:	2c000006 	stccs	0, cr0, [r0], {6}
    333c:	01000000 	mrseq	r0, (UNDEF: 0)
    3340:	0015139c 	mulseq	r5, ip, r3
    3344:	09163600 	ldmdbeq	r6, {r9, sl, ip, sp}
    3348:	04260000 	strteq	r0, [r6], #-0
    334c:	f8000009 			@ <UNDEFINED> instruction: 0xf8000009
    3350:	00000006 	andeq	r0, r0, r6
    3354:	000006f8 	strdeq	r0, [r0], -r8
    3358:	00000014 	andeq	r0, r0, r4, lsl r0
    335c:	13170202 	tstne	r7, #536870912	@ 0x20000000
    3360:	00000916 	andeq	r0, r0, r6, lsl r9
    3364:	00000d0a 	andeq	r0, r0, sl, lsl #26
    3368:	00000d08 	andeq	r0, r0, r8, lsl #26
    336c:	00070a06 	andeq	r0, r7, r6, lsl #20
    3370:	00074600 	andeq	r4, r7, r0, lsl #12
    3374:	35000000 	strcc	r0, [r0, #-0]
    3378:	00000af0 	strdeq	r0, [r0], -r0	@ <UNPREDICTABLE>
    337c:	00000944 	andeq	r0, r0, r4, asr #18
    3380:	0000001c 	andeq	r0, r0, ip, lsl r0
    3384:	15779c01 	ldrbne	r9, [r7, #-3073]!	@ 0xfffff3ff
    3388:	02130000 	andseq	r0, r3, #0
    338c:	1500000b 	strne	r0, [r0, #-11]
    3390:	1300000d 	movwne	r0, #13
    3394:	5100000d 	tstpl	r0, sp
    3398:	000014a4 	andeq	r1, r0, r4, lsr #9
    339c:	00000948 	andeq	r0, r0, r8, asr #18
    33a0:	00094802 	andeq	r4, r9, r2, lsl #16
    33a4:	00000400 	andeq	r0, r0, r0, lsl #8
    33a8:	019a0100 	orrseq	r0, sl, r0, lsl #2
    33ac:	00155b0f 	andseq	r5, r5, pc, lsl #22
    33b0:	14b61300 	ldrtne	r1, [r6], #768	@ 0x300
    33b4:	0d200000 	stceq	0, cr0, [r0, #-0]
    33b8:	0d1e0000 	ldceq	0, cr0, [lr, #-0]
    33bc:	26000000 	strcs	r0, [r0], -r0
    33c0:	00000af0 	strdeq	r0, [r0], -r0	@ <UNPREDICTABLE>
    33c4:	0000094e 	andeq	r0, r0, lr, asr #18
    33c8:	00094e00 	andeq	r4, r9, r0, lsl #28
    33cc:	00000c00 	andeq	r0, r0, r0, lsl #24
    33d0:	06019400 	streq	r9, [r1], -r0, lsl #8
    33d4:	000b0236 	andeq	r0, fp, r6, lsr r2
    33d8:	52000000 	andpl	r0, r0, #0
    33dc:	0000088b 	andeq	r0, r0, fp, lsl #17
    33e0:	000009dc 	ldrdeq	r0, [r0], -ip
    33e4:	00000034 	andeq	r0, r0, r4, lsr r0
    33e8:	8b309c01 	blhi	c2a3f4 <__exidx_end+0xc29380>
    33ec:	fe000008 	cdp2	0, 0, cr0, cr0, cr8, {0}
    33f0:	00000009 	andeq	r0, r0, r9
    33f4:	000009fe 	strdeq	r0, [r0], -lr
    33f8:	00000006 	andeq	r0, r0, r6
    33fc:	0614022b 	ldreq	r0, [r4], -fp, lsr #4
    3400:	000009f6 	strdeq	r0, [r0], -r6
    3404:	000011b7 			@ <UNDEFINED> instruction: 0x000011b7
    3408:	0009fe08 	andeq	pc, r9, r8, lsl #28
    340c:	00079200 	andeq	r9, r7, r0, lsl #4
    3410:	50010200 	andpl	r0, r1, r0, lsl #4
    3414:	00003001 	andeq	r3, r0, r1
    3418:	0006cb00 	andeq	ip, r6, r0, lsl #22
    341c:	01000500 	tsteq	r0, r0, lsl #10
    3420:	000ecb04 	andeq	ip, lr, r4, lsl #22
    3424:	02651600 	rsbeq	r1, r5, #0, 12
    3428:	4b1d0000 	blmi	743430 <__exidx_end+0x7423bc>
    342c:	7100000c 	tstvc	r0, ip
    3430:	9b000003 	blls	3444 <__exidx_end+0x23d0>
    3434:	00000002 	andeq	r0, r0, r2
    3438:	d6000000 	strle	r0, [r0], -r0
    343c:	17000019 	smladne	r0, r9, r0, r0
    3440:	6e690504 	cdpvs	5, 6, cr0, cr9, cr4, {0}
    3444:	04030074 	streq	r0, [r3], #-116	@ 0xffffff8c
    3448:	00008607 	andeq	r8, r0, r7, lsl #12
    344c:	002d0700 	eoreq	r0, sp, r0, lsl #14
    3450:	08030000 	stmdaeq	r3, {}	@ <UNPREDICTABLE>
    3454:	0000a105 	andeq	sl, r0, r5, lsl #2
    3458:	04080300 	streq	r0, [r8], #-768	@ 0xfffffd00
    345c:	00000168 	andeq	r0, r0, r8, ror #2
    3460:	8c060103 	stfhis	f0, [r6], {3}
    3464:	03000001 	movweq	r0, #1
    3468:	018a0801 	orreq	r0, sl, r1, lsl #16
    346c:	4e070000 	cdpmi	0, 0, cr0, cr7, cr0, {0}
    3470:	03000000 	movweq	r0, #0
    3474:	00ca0502 	sbceq	r0, sl, r2, lsl #10
    3478:	02030000 	andeq	r0, r3, #0
    347c:	0001d607 	andeq	sp, r1, r7, lsl #12
    3480:	05040300 	streq	r0, [r4, #-768]	@ 0xfffffd00
    3484:	000000a6 	andeq	r0, r0, r6, lsr #1
    3488:	81070403 	tsthi	r7, r3, lsl #8
    348c:	03000000 	movweq	r0, #0
    3490:	007c0708 	rsbseq	r0, ip, r8, lsl #14
    3494:	04180000 	ldreq	r0, [r8], #-0
    3498:	93080103 	movwls	r0, #33027	@ 0x8103
    349c:	0e000001 	cdpeq	0, 0, cr0, cr0, cr1, {0}
    34a0:	01441840 	cmpeq	r4, r0, asr #16
    34a4:	20010000 	andcs	r0, r1, r0
    34a8:	03000006 	movweq	r0, #6
    34ac:	0034171a 	eorseq	r1, r4, sl, lsl r7
    34b0:	01000000 	mrseq	r0, (UNDEF: 0)
    34b4:	000005e2 	andeq	r0, r0, r2, ror #11
    34b8:	34171b03 	ldrcc	r1, [r7], #-2819	@ 0xfffff4fd
    34bc:	04000000 	streq	r0, [r0], #-0
    34c0:	00055801 	andeq	r5, r5, r1, lsl #16
    34c4:	171c0300 	ldrne	r0, [ip, -r0, lsl #6]
    34c8:	00000034 	andeq	r0, r0, r4, lsr r0
    34cc:	06150108 	ldreq	r0, [r5], -r8, lsl #2
    34d0:	1d030000 	stcne	0, cr0, [r3, #-0]
    34d4:	00003417 	andeq	r3, r0, r7, lsl r4
    34d8:	53060c00 	movwpl	r0, #27648	@ 0x6c00
    34dc:	03005243 	movweq	r5, #579	@ 0x243
    34e0:	0034171e 	eorseq	r1, r4, lr, lsl r7
    34e4:	06100000 	ldreq	r0, [r0], -r0
    34e8:	00524343 	subseq	r4, r2, r3, asr #6
    34ec:	34171f03 	ldrcc	r1, [r7], #-3843	@ 0xfffff0fd
    34f0:	14000000 	strne	r0, [r0], #-0
    34f4:	50485306 	subpl	r5, r8, r6, lsl #6
    34f8:	1c200300 	stcne	3, cr0, [r0], #-0
    34fc:	00000154 	andeq	r0, r0, r4, asr r1
    3500:	05260118 	streq	r0, [r6, #-280]!	@ 0xfffffee8
    3504:	21030000 	mrscs	r0, (UNDEF: 3)
    3508:	00003417 	andeq	r3, r0, r7, lsl r4
    350c:	bd012400 	cfstrslt	mvf2, [r1, #-0]
    3510:	03000005 	movweq	r0, #5
    3514:	00341722 	eorseq	r1, r4, r2, lsr #14
    3518:	01280000 			@ <UNDEFINED> instruction: 0x01280000
    351c:	000005c2 	andeq	r0, r0, r2, asr #11
    3520:	34172303 	ldrcc	r2, [r7], #-771	@ 0xfffffcfd
    3524:	2c000000 	stccs	0, cr0, [r0], {-0}
    3528:	0005dd01 	andeq	sp, r5, r1, lsl #26
    352c:	17240300 	strne	r0, [r4, -r0, lsl #6]!
    3530:	00000034 	andeq	r0, r0, r4, lsr r0
    3534:	06550130 			@ <UNDEFINED> instruction: 0x06550130
    3538:	25030000 	strcs	r0, [r3, #-0]
    353c:	00003417 	andeq	r3, r0, r7, lsl r4
    3540:	1b013400 	blne	50548 <__exidx_end+0x4f4d4>
    3544:	03000006 	movweq	r0, #6
    3548:	00341726 	eorseq	r1, r4, r6, lsr #14
    354c:	01380000 	teqeq	r8, r0
    3550:	000006d3 	ldrdeq	r0, [r0], -r3
    3554:	34172703 	ldrcc	r2, [r7], #-1795	@ 0xfffff8fd
    3558:	3c000000 	stccc	0, cr0, [r0], {-0}
    355c:	00550f00 	subseq	r0, r5, r0, lsl #30
    3560:	01540000 	cmpeq	r4, r0
    3564:	2d100000 	ldccs	0, cr0, [r0, #-0]
    3568:	0b000000 	bleq	3570 <__exidx_end+0x24fc>
    356c:	01440700 	cmpeq	r4, r0, lsl #14
    3570:	c7020000 	strgt	r0, [r2, -r0]
    3574:	03000005 	movweq	r0, #5
    3578:	00860328 	addeq	r0, r6, r8, lsr #6
    357c:	100e0000 	andne	r0, lr, r0
    3580:	0001a12a 	andeq	sl, r1, sl, lsr #2
    3584:	01a70100 			@ <UNDEFINED> instruction: 0x01a70100
    3588:	2c030000 	stccs	0, cr0, [r3], {-0}
    358c:	00003417 	andeq	r3, r0, r7, lsl r4
    3590:	29010000 	stmdbcs	r1, {}	@ <UNPREDICTABLE>
    3594:	03000003 	movweq	r0, #3
    3598:	0034172d 	eorseq	r1, r4, sp, lsr #14
    359c:	06040000 	streq	r0, [r4], -r0
    35a0:	004c4156 	subeq	r4, ip, r6, asr r1
    35a4:	34172e03 	ldrcc	r2, [r7], #-3587	@ 0xfffff1fd
    35a8:	08000000 	stmdaeq	r0, {}	@ <UNPREDICTABLE>
    35ac:	00013801 	andeq	r3, r1, r1, lsl #16
    35b0:	172f0300 	strne	r0, [pc, -r0, lsl #6]!
    35b4:	00000034 	andeq	r0, r0, r4, lsr r0
    35b8:	4f02000c 	svcmi	0x0002000c
    35bc:	03000003 	movweq	r0, #3
    35c0:	01650330 	cmneq	r5, r0, lsr r3
    35c4:	bf190000 	svclt	0x00190000
    35c8:	04000001 	streq	r0, [r0], #-1
    35cc:	46020e1b 			@ <UNDEFINED> instruction: 0x46020e1b
    35d0:	04000001 	streq	r0, [r0], #-1
    35d4:	007f0e1c 	rsbseq	r0, pc, ip, lsl lr	@ <UNPREDICTABLE>
    35d8:	491a0000 	ldmdbmi	sl, {}	@ <UNPREDICTABLE>
    35dc:	0400544e 	streq	r5, [r0], #-1102	@ 0xfffffbb2
    35e0:	0026101e 	eoreq	r1, r6, lr, lsl r0
    35e4:	54020000 	strpl	r0, [r2], #-0
    35e8:	04000001 	streq	r0, [r0], #-1
    35ec:	002d121f 	eoreq	r1, sp, pc, lsl r2
    35f0:	ac020000 	stcge	0, cr0, [r2], {-0}
    35f4:	04000001 	streq	r0, [r0], #-1
    35f8:	006f1720 	rsbeq	r1, pc, r0, lsr #14
    35fc:	d9070000 	stmdble	r7, {}	@ <UNPREDICTABLE>
    3600:	02000001 	andeq	r0, r0, #1
    3604:	000001ad 	andeq	r0, r0, sp, lsr #3
    3608:	680e2104 	stmdavs	lr, {r2, r8, sp}
    360c:	02000000 	andeq	r0, r0, #0
    3610:	0000006b 	andeq	r0, r0, fp, rrx
    3614:	7d0f2204 	sfmvc	f2, 4, [pc, #-16]	@ 360c <__exidx_end+0x2598>
    3618:	02000000 	andeq	r0, r0, #0
    361c:	00000011 	andeq	r0, r0, r1, lsl r0
    3620:	2d122604 	ldccs	6, cr2, [r2, #-16]
    3624:	02000000 	andeq	r0, r0, #0
    3628:	0000022f 	andeq	r0, r0, pc, lsr #4
    362c:	4e175204 	cdpmi	2, 1, cr5, cr7, cr4, {0}
    3630:	02000000 	andeq	r0, r0, #0
    3634:	0000013e 	andeq	r0, r0, lr, lsr r1
    3638:	4e175304 	cdpmi	3, 1, cr5, cr7, cr4, {0}
    363c:	02000000 	andeq	r0, r0, #0
    3640:	00000314 	andeq	r0, r0, r4, lsl r3
    3644:	6f175404 	svcvs	0x00175404
    3648:	04000000 	streq	r0, [r0], #-0
    364c:	00000237 	andeq	r0, r0, r7, lsr r2
    3650:	0002421b 	andeq	r4, r2, fp, lsl r2
    3654:	007d0500 	rsbseq	r0, sp, r0, lsl #10
    3658:	02000000 	andeq	r0, r0, #0
    365c:	00000a79 	andeq	r0, r0, r9, ror sl
    3660:	32105904 	andscc	r5, r0, #4, 18	@ 0x10000
    3664:	02000002 	andeq	r0, r0, #2
    3668:	00000159 	andeq	r0, r0, r9, asr r1
    366c:	ea0e8704 	b	3a5284 <__exidx_end+0x3a4210>
    3670:	02000001 	andeq	r0, r0, #1
    3674:	000002e0 	andeq	r0, r0, r0, ror #5
    3678:	d90fc804 	stmdble	pc, {r2, fp, lr, pc}	@ <UNPREDICTABLE>
    367c:	02000001 	andeq	r0, r0, #1
    3680:	000007b8 			@ <UNDEFINED> instruction: 0x000007b8
    3684:	7215ea04 	andsvc	lr, r5, #4, 20	@ 0x4000
    3688:	08000002 	stmdaeq	r0, {r1}
    368c:	00000198 	muleq	r0, r8, r1
    3690:	03584258 	cmpeq	r8, #88, 4	@ 0x80000005
    3694:	73060000 	movwvc	r0, #24576	@ 0x6000
    3698:	45050070 	strmi	r0, [r5, #-112]	@ 0xffffff90
    369c:	0004a00a 	andeq	sl, r4, sl
    36a0:	e9010000 	stmdb	r1, {}	@ <UNPREDICTABLE>
    36a4:	05000001 	streq	r0, [r0, #-1]
    36a8:	025a1446 	subseq	r1, sl, #1174405120	@ 0x46000000
    36ac:	01040000 	mrseq	r0, (UNDEF: 4)
    36b0:	000001f8 	strdeq	r0, [r0], -r8
    36b4:	d90b4705 	stmdble	fp, {r0, r2, r8, r9, sl, lr}
    36b8:	08000001 	stmdaeq	r0, {r0}
    36bc:	00014b01 	andeq	r4, r1, r1, lsl #22
    36c0:	0b490500 	bleq	1244ac8 <__exidx_end+0x1243a54>
    36c4:	0000049b 	muleq	r0, fp, r4
    36c8:	0210010c 	andseq	r0, r0, #12, 2
    36cc:	4a050000 	bmi	1436d4 <__exidx_end+0x142660>
    36d0:	0004a00a 	andeq	sl, r4, sl
    36d4:	95011000 	strls	r1, [r1, #-0]
    36d8:	05000003 	streq	r0, [r0, #-3]
    36dc:	01cd0a4b 	biceq	r0, sp, fp, asr #20
    36e0:	06140000 	ldreq	r0, [r4], -r0
    36e4:	00646970 	rsbeq	r6, r4, r0, ror r9
    36e8:	0e0c4c05 	cdpeq	12, 0, cr4, cr12, cr5, {0}
    36ec:	18000002 	stmdane	r0, {r1}
    36f0:	00010d01 	andeq	r0, r1, r1, lsl #26
    36f4:	0d4d0500 	cfstr64eq	mvdx0, [sp, #-0]
    36f8:	0000021a 	andeq	r0, r0, sl, lsl r2
    36fc:	01290119 			@ <UNDEFINED> instruction: 0x01290119
    3700:	52050000 	andpl	r0, r5, #0
    3704:	0002020a 	andeq	r0, r2, sl, lsl #4
    3708:	74011c00 	strvc	r1, [r1], #-3072	@ 0xfffff400
    370c:	05000001 	streq	r0, [r0, #-1]
    3710:	02260d62 	eoreq	r0, r6, #6272	@ 0x1880
    3714:	01200000 			@ <UNDEFINED> instruction: 0x01200000
    3718:	00000100 	andeq	r0, r0, r0, lsl #2
    371c:	260d6405 	strcs	r6, [sp], -r5, lsl #8
    3720:	24000002 	strcs	r0, [r0], #-2
    3724:	00011e01 	andeq	r1, r1, r1, lsl #28
    3728:	0a660500 	beq	1984b30 <__exidx_end+0x1983abc>
    372c:	00000202 	andeq	r0, r0, r2, lsl #4
    3730:	021d0128 	andseq	r0, sp, #40, 2
    3734:	67050000 	strvs	r0, [r5, -r0]
    3738:	0002020a 	andeq	r0, r2, sl, lsl #4
    373c:	ef012c00 	svc	0x00012c00
    3740:	05000002 	streq	r0, [r0, #-2]
    3744:	01cd0a69 	biceq	r0, sp, r9, ror #20
    3748:	01300000 	teqeq	r0, r0
    374c:	00000243 	andeq	r0, r0, r3, asr #4
    3750:	0e0c6a05 	vmlaeq.f32	s12, s24, s10
    3754:	34000002 	strcc	r0, [r0], #-2
    3758:	0000db0a 	andeq	sp, r0, sl, lsl #22
    375c:	da196b00 	ble	65e364 <__exidx_end+0x65d2f0>
    3760:	38000003 	stmdacc	r0, {r0, r1}
    3764:	0001ce0a 	andeq	ip, r1, sl, lsl #28
    3768:	a3166c00 	tstge	r6, #0, 24
    376c:	50000003 	andpl	r0, r0, r3
    3770:	00220200 	eoreq	r0, r2, r0, lsl #4
    3774:	ec040000 	stc	0, cr0, [r4], {-0}
    3778:	00036416 	andeq	r6, r3, r6, lsl r4
    377c:	00fa0800 	rscseq	r0, sl, r0, lsl #16
    3780:	3a140000 	bcc	503788 <__exidx_end+0x502714>
    3784:	000003a3 	andeq	r0, r0, r3, lsr #7
    3788:	00030a0a 	andeq	r0, r3, sl, lsl #20
    378c:	a3163c00 	tstge	r6, #0, 24
    3790:	00000003 	andeq	r0, r0, r3
    3794:	00009301 	andeq	r9, r0, r1, lsl #6
    3798:	0b3d0500 	bleq	f44ba0 <__exidx_end+0xf43b2c>
    379c:	0000049b 	muleq	r0, fp, r4
    37a0:	03050108 	movweq	r0, #20744	@ 0x5108
    37a4:	3e050000 	cdpcc	0, 0, cr0, cr5, cr0, {0}
    37a8:	0001d90b 	andeq	sp, r1, fp, lsl #18
    37ac:	b6010c00 	strlt	r0, [r1], -r0, lsl #24
    37b0:	05000003 	streq	r0, [r0, #-3]
    37b4:	02020a3f 	andeq	r0, r2, #258048	@ 0x3f000
    37b8:	00100000 	andseq	r0, r0, r0
    37bc:	00022508 	andeq	r2, r2, r8, lsl #10
    37c0:	c9340800 	ldmdbgt	r4!, {fp}
    37c4:	01000003 	tsteq	r0, r3
    37c8:	00000116 	andeq	r0, r0, r6, lsl r1
    37cc:	96173605 	ldrls	r3, [r7], -r5, lsl #12
    37d0:	00000004 	andeq	r0, r0, r4
    37d4:	00020801 	andeq	r0, r2, r1, lsl #16
    37d8:	17370500 	ldrne	r0, [r7, -r0, lsl #10]!
    37dc:	00000496 	muleq	r0, r6, r4
    37e0:	01020004 	tsteq	r2, r4
    37e4:	04000008 	streq	r0, [r0], #-8
    37e8:	03da1df0 	bicseq	r1, sl, #240, 26	@ 0x3c00
    37ec:	c9070000 	stmdbgt	r7, {}	@ <UNPREDICTABLE>
    37f0:	08000003 	stmdaeq	r0, {r0, r1}
    37f4:	00000236 	andeq	r0, r0, r6, lsr r2
    37f8:	04341f18 	ldrteq	r1, [r4], #-3864	@ 0xfffff0e8
    37fc:	16010000 	strne	r0, [r1], -r0
    3800:	05000001 	streq	r0, [r0, #-1]
    3804:	048c1a21 	streq	r1, [ip], #2593	@ 0xa21
    3808:	01000000 	mrseq	r0, (UNDEF: 0)
    380c:	00000208 	andeq	r0, r0, r8, lsl #4
    3810:	8c1a2205 	lfmhi	f2, 4, [sl], {5}
    3814:	04000004 	streq	r0, [r0], #-4
    3818:	00001601 	andeq	r1, r0, r1, lsl #12
    381c:	0a230500 	beq	8c4c24 <__exidx_end+0x8c3bb0>
    3820:	000001cd 	andeq	r0, r0, sp, asr #3
    3824:	03ae0108 			@ <UNDEFINED> instruction: 0x03ae0108
    3828:	24050000 	strcs	r0, [r5], #-0
    382c:	0002260d 	andeq	r2, r2, sp, lsl #12
    3830:	64010c00 	strvs	r0, [r1], #-3072	@ 0xfffff400
    3834:	05000003 	streq	r0, [r0, #-3]
    3838:	02260d25 	eoreq	r0, r6, #2368	@ 0x940
    383c:	01100000 	tsteq	r0, r0
    3840:	000000ba 	strheq	r0, [r0], -sl
    3844:	910e2605 	tstls	lr, r5, lsl #12
    3848:	14000004 	strne	r0, [r0], #-4
    384c:	0a490200 	beq	1244054 <__exidx_end+0x1242fe0>
    3850:	f2040000 	vhadd.s8	d0, d4, d0
    3854:	00044017 	andeq	r4, r4, r7, lsl r0
    3858:	0bc30800 	bleq	ff0c5860 <SCB_ICSR+0x1f0b6b5c>
    385c:	2a280000 	bcs	a03864 <__exidx_end+0xa027f0>
    3860:	0000048c 	andeq	r0, r0, ip, lsl #9
    3864:	000b4401 	andeq	r4, fp, r1, lsl #8
    3868:	0a2c0500 	beq	b04c70 <__exidx_end+0xb03bfc>
    386c:	00000202 	andeq	r0, r0, r2, lsl #4
    3870:	08780100 	ldmdaeq	r8!, {r8}^
    3874:	2d050000 	stccs	0, cr0, [r5, #-0]
    3878:	0002260d 	andeq	r2, r2, sp, lsl #12
    387c:	d3010400 	movwle	r0, #5120	@ 0x1400
    3880:	05000009 	streq	r0, [r0, #-9]
    3884:	0242162e 	subeq	r1, r2, #48234496	@ 0x2e00000
    3888:	01080000 	mrseq	r0, (UNDEF: 8)
    388c:	00000a10 	andeq	r0, r0, r0, lsl sl
    3890:	f60a2f05 			@ <UNDEFINED> instruction: 0xf60a2f05
    3894:	0c000001 	stceq	0, cr0, [r0], {1}
    3898:	0000db0a 	andeq	sp, r0, sl, lsl #22
    389c:	da193000 	ble	64f8a4 <__exidx_end+0x64e830>
    38a0:	10000003 	andne	r0, r0, r3
    38a4:	03da0400 	bicseq	r0, sl, #0, 8
    38a8:	58040000 	stmdapl	r4, {}	@ <UNPREDICTABLE>
    38ac:	04000003 	streq	r0, [r0], #-3
    38b0:	000003a3 	andeq	r0, r0, r3, lsr #7
    38b4:	0001b504 	andeq	fp, r1, r4, lsl #10
    38b8:	01c10400 	biceq	r0, r1, r0, lsl #8
    38bc:	dd090000 	stcle	0, cr0, [r9, #-0]
    38c0:	06000007 	streq	r0, [r0], -r7
    38c4:	04b11012 	ldrteq	r1, [r1], #18
    38c8:	66040000 	strvs	r0, [r4], -r0
    38cc:	0f000002 	svceq	0x00000002
    38d0:	000001c1 	andeq	r0, r0, r1, asr #3
    38d4:	000004c6 	andeq	r0, r0, r6, asr #9
    38d8:	00002d10 	andeq	r2, r0, r0, lsl sp
    38dc:	09003f00 	stmdbeq	r0, {r8, r9, sl, fp, ip, sp}
    38e0:	00000b86 	andeq	r0, r0, r6, lsl #23
    38e4:	b60c1506 	strlt	r1, [ip], -r6, lsl #10
    38e8:	09000004 	stmdbeq	r0, {r2}
    38ec:	00000b4b 	andeq	r0, r0, fp, asr #22
    38f0:	b60c1606 	strlt	r1, [ip], -r6, lsl #12
    38f4:	09000004 	stmdbeq	r0, {r2}
    38f8:	00000c2b 	andeq	r0, r0, fp, lsr #24
    38fc:	e5171a06 	ldr	r1, [r7, #-2566]	@ 0xfffff5fa
    3900:	04000001 	streq	r0, [r0], #-1
    3904:	00000434 	andeq	r0, r0, r4, lsr r4
    3908:	0003d504 	andeq	sp, r3, r4, lsl #10
    390c:	08550900 	ldmdaeq	r5, {r8, fp}^
    3910:	22070000 	andcs	r0, r7, #0
    3914:	0004ef22 	andeq	lr, r4, r2, lsr #30
    3918:	04c61100 	strbeq	r1, [r6], #256	@ 0x100
    391c:	05160000 	ldreq	r0, [r6, #-0]
    3920:	000f5c03 	andeq	r5, pc, r3, lsl #24
    3924:	04d21120 	ldrbeq	r1, [r2], #288	@ 0x120
    3928:	05170000 	ldreq	r0, [r7, #-0]
    392c:	000e5c03 	andeq	r5, lr, r3, lsl #24
    3930:	04de1c20 	ldrbeq	r1, [lr], #3104	@ 0xc20
    3934:	10010000 	andne	r0, r1, r0
    3938:	0e580305 	cdpeq	3, 5, cr0, cr8, cr5, {0}
    393c:	351d2000 	ldrcc	r2, [sp, #-0]
    3940:	0700000c 	streq	r0, [r0, -ip]
    3944:	024e081b 	subeq	r0, lr, #1769472	@ 0x1b0000
    3948:	05540000 	ldrbeq	r0, [r4, #-0]
    394c:	ea050000 	b	143954 <__exidx_end+0x1428e0>
    3950:	05000004 	streq	r0, [r0, #-4]
    3954:	00000226 	andeq	r0, r0, r6, lsr #4
    3958:	00022605 	andeq	r2, r2, r5, lsl #12
    395c:	02420500 	subeq	r0, r2, #0, 10
    3960:	f6050000 			@ <UNDEFINED> instruction: 0xf6050000
    3964:	05000001 	streq	r0, [r0, #-1]
    3968:	00000202 	andeq	r0, r0, r2, lsl #4
    396c:	0c141200 	lfmeq	f1, 4, [r4], {-0}
    3970:	1d070000 	stcne	0, cr0, [r7, #-0]
    3974:	00000565 	andeq	r0, r0, r5, ror #10
    3978:	00056505 	andeq	r6, r5, r5, lsl #10
    397c:	c9040000 	stmdbgt	r4, {}	@ <UNPREDICTABLE>
    3980:	12000003 	andne	r0, r0, #3
    3984:	00000751 	andeq	r0, r0, r1, asr r7
    3988:	057b1e06 	ldrbeq	r1, [fp, #-3590]!	@ 0xfffff1fa
    398c:	cd050000 	stcgt	0, cr0, [r5, #-0]
    3990:	00000001 	andeq	r0, r0, r1
    3994:	0007cb1e 	andeq	ip, r7, lr, lsl fp
    3998:	061d0600 	ldreq	r0, [sp], -r0, lsl #12
    399c:	000001cd 	andeq	r0, r0, sp, asr #3
    39a0:	0009ff1f 	andeq	pc, r9, pc, lsl pc	@ <UNPREDICTABLE>
    39a4:	062b0100 	strteq	r0, [fp], -r0, lsl #2
    39a8:	00000c74 	andeq	r0, r0, r4, ror ip
    39ac:	00000094 	muleq	r0, r4, r0
    39b0:	06709c01 	ldrbteq	r9, [r0], -r1, lsl #24
    39b4:	f5200000 			@ <UNDEFINED> instruction: 0xf5200000
    39b8:	01000000 	mrseq	r0, (UNDEF: 0)
    39bc:	06701e2b 	ldrbteq	r1, [r0], -fp, lsr #28
    39c0:	0d390000 	ldceq	0, cr0, [r9, #-0]
    39c4:	0d350000 	ldceq	0, cr0, [r5, #-0]
    39c8:	7f210000 	svcvc	0x00210000
    39cc:	0b000002 	bleq	39dc <__exidx_end+0x2968>
    39d0:	00000759 	andeq	r0, r0, r9, asr r7
    39d4:	01cd0936 	biceq	r0, sp, r6, lsr r9
    39d8:	0d510000 	ldcleq	0, cr0, [r1, #-0]
    39dc:	0d4d0000 	stcleq	0, cr0, [sp, #-0]
    39e0:	8f220000 	svchi	0x00220000
    39e4:	f8000002 			@ <UNDEFINED> instruction: 0xf8000002
    39e8:	0b000005 	bleq	3a04 <__exidx_end+0x2990>
    39ec:	00000759 	andeq	r0, r0, r9, asr r7
    39f0:	01cd0934 	biceq	r0, sp, r4, lsr r9
    39f4:	0d630000 	stcleq	0, cr0, [r3, #-0]
    39f8:	0d610000 	stcleq	0, cr0, [r1, #-0]
    39fc:	900d0000 	andls	r0, sp, r0
    3a00:	7b00000c 	blvc	3a38 <__exidx_end+0x29c4>
    3a04:	0d000005 	stceq	0, cr0, [r0, #-20]	@ 0xffffffec
    3a08:	00000cac 	andeq	r0, r0, ip, lsr #25
    3a0c:	0000056a 	andeq	r0, r0, sl, ror #10
    3a10:	0cc22300 	stcleq	3, cr2, [r2], {0}
    3a14:	00460000 	subeq	r0, r6, r0
    3a18:	06550000 	ldrbeq	r0, [r5], -r0
    3a1c:	400b0000 	andmi	r0, fp, r0
    3a20:	3c00000c 	stccc	0, cr0, [r0], {12}
    3a24:	0005651e 	andeq	r6, r5, lr, lsl r5
    3a28:	000d6e00 	andeq	r6, sp, r0, lsl #28
    3a2c:	000d6c00 	andeq	r6, sp, r0, lsl #24
    3a30:	0c250b00 			@ <UNDEFINED> instruction: 0x0c250b00
    3a34:	17400000 	strbne	r0, [r0, -r0]
    3a38:	000004ea 	andeq	r0, r0, sl, ror #9
    3a3c:	00000d79 	andeq	r0, r0, r9, ror sp
    3a40:	00000d77 	andeq	r0, r0, r7, ror sp
    3a44:	000ccc24 	andeq	ip, ip, r4, lsr #24
    3a48:	00055400 	andeq	r5, r5, r0, lsl #8
    3a4c:	00063f00 	andeq	r3, r6, r0, lsl #30
    3a50:	50010c00 	andpl	r0, r1, r0, lsl #24
    3a54:	00007402 	andeq	r7, r0, r2, lsl #8
    3a58:	000cf813 	andeq	pc, ip, r3, lsl r8	@ <UNPREDICTABLE>
    3a5c:	00052500 	andeq	r2, r5, r0, lsl #10
    3a60:	50010c00 	andpl	r0, r1, r0, lsl #24
    3a64:	0c707402 	cfldrdeq	mvd7, [r0], #-8
    3a68:	30015101 	andcc	r5, r1, r1, lsl #2
    3a6c:	b00d0000 	andlt	r0, sp, r0
    3a70:	7b00000c 	blvc	3aa8 <__exidx_end+0x2a34>
    3a74:	13000005 	movwne	r0, #5
    3a78:	00000cc0 	andeq	r0, r0, r0, asr #25
    3a7c:	0000056a 	andeq	r0, r0, sl, ror #10
    3a80:	0250010c 	subseq	r0, r0, #12, 2
    3a84:	00000075 	andeq	r0, r0, r5, ror r0
    3a88:	01ad0400 			@ <UNDEFINED> instruction: 0x01ad0400
    3a8c:	52250000 	eorpl	r0, r5, #0
    3a90:	0100000a 	tsteq	r0, sl
    3a94:	0c5c061c 	mrrceq	6, 1, r0, ip, cr12
    3a98:	00180000 	andseq	r0, r8, r0
    3a9c:	9c010000 	stcls	0, cr0, [r1], {-0}
    3aa0:	000006c0 	andeq	r0, r0, r0, asr #13
    3aa4:	0000f526 	andeq	pc, r0, r6, lsr #10
    3aa8:	161c0100 	ldrne	r0, [ip], -r0, lsl #2
    3aac:	00000670 	andeq	r0, r0, r0, ror r6
    3ab0:	c0145001 	andsgt	r5, r4, r1
    3ab4:	5e000006 	cdppl	0, 0, cr0, cr0, cr6, {0}
    3ab8:	0300000c 	movweq	r0, #12
    3abc:	00000c5e 	andeq	r0, r0, lr, asr ip
    3ac0:	00000004 	andeq	r0, r0, r4
    3ac4:	06c71422 	strbeq	r1, [r7], r2, lsr #8
    3ac8:	0c6a0000 	stcleq	0, cr0, [sl], #-0
    3acc:	6a010000 	bvs	43ad4 <__exidx_end+0x42a60>
    3ad0:	0a00000c 	beq	3b08 <__exidx_end+0x2a94>
    3ad4:	27000000 	strcs	r0, [r0, -r0]
    3ad8:	0c451500 	cfstr64eq	mvdx1, [r5], {-0}
    3adc:	010d0000 	mrseq	r0, (UNDEF: 13)
    3ae0:	000c5b15 	andeq	r5, ip, r5, lsl fp
    3ae4:	00010200 	andeq	r0, r1, r0, lsl #4
    3ae8:	00000a4a 	andeq	r0, r0, sl, asr #20
    3aec:	04010005 	streq	r0, [r1], #-5
    3af0:	0000110a 	andeq	r1, r0, sl, lsl #2
    3af4:	0002651d 	andeq	r6, r2, sp, lsl r5
    3af8:	0cd71d00 	ldcleq	13, cr1, [r7], {0}
    3afc:	03710000 	cmneq	r1, #0
    3b00:	02f40000 	rscseq	r0, r4, #0
    3b04:	00000000 	andeq	r0, r0, r0
    3b08:	1b4f0000 	blne	13c3b10 <__exidx_end+0x13c2a9c>
    3b0c:	041e0000 	ldreq	r0, [lr], #-0
    3b10:	746e6905 	strbtvc	r6, [lr], #-2309	@ 0xfffff6fb
    3b14:	07040400 	streq	r0, [r4, -r0, lsl #8]
    3b18:	00000086 	andeq	r0, r0, r6, lsl #1
    3b1c:	00002d10 	andeq	r2, r0, r0, lsl sp
    3b20:	05080400 	streq	r0, [r8, #-1024]	@ 0xfffffc00
    3b24:	000000a1 	andeq	r0, r0, r1, lsr #1
    3b28:	68040804 	stmdavs	r4, {r2, fp}
    3b2c:	04000001 	streq	r0, [r0], #-1
    3b30:	018c0601 	orreq	r0, ip, r1, lsl #12
    3b34:	01040000 	mrseq	r0, (UNDEF: 4)
    3b38:	00018a08 	andeq	r8, r1, r8, lsl #20
    3b3c:	004e1000 	subeq	r1, lr, r0
    3b40:	02040000 	andeq	r0, r4, #0
    3b44:	0000ca05 	andeq	ip, r0, r5, lsl #20
    3b48:	07020400 	streq	r0, [r2, -r0, lsl #8]
    3b4c:	000001d6 	ldrdeq	r0, [r0], -r6
    3b50:	a6050404 	strge	r0, [r5], -r4, lsl #8
    3b54:	04000000 	streq	r0, [r0], #-0
    3b58:	00810704 	addeq	r0, r1, r4, lsl #14
    3b5c:	08040000 	stmdaeq	r4, {}	@ <UNPREDICTABLE>
    3b60:	00007c07 	andeq	r7, r0, r7, lsl #24
    3b64:	04041f00 	streq	r1, [r4], #-3840	@ 0xfffff100
    3b68:	01930801 	orrseq	r0, r3, r1, lsl #16
    3b6c:	40200000 	eormi	r0, r0, r0
    3b70:	46091802 	strmi	r1, [r9], -r2, lsl #16
    3b74:	01000001 	tsteq	r0, r1
    3b78:	00000620 	andeq	r0, r0, r0, lsr #12
    3b7c:	34171a02 	ldrcc	r1, [r7], #-2562	@ 0xfffff5fe
    3b80:	00000000 	andeq	r0, r0, r0
    3b84:	0005e201 	andeq	lr, r5, r1, lsl #4
    3b88:	171b0200 	ldrne	r0, [fp, -r0, lsl #4]
    3b8c:	00000034 	andeq	r0, r0, r4, lsr r0
    3b90:	05580104 	ldrbeq	r0, [r8, #-260]	@ 0xfffffefc
    3b94:	1c020000 	stcne	0, cr0, [r2], {-0}
    3b98:	00003417 	andeq	r3, r0, r7, lsl r4
    3b9c:	15010800 	strne	r0, [r1, #-2048]	@ 0xfffff800
    3ba0:	02000006 	andeq	r0, r0, #6
    3ba4:	0034171d 	eorseq	r1, r4, sp, lsl r7
    3ba8:	0f0c0000 	svceq	0x000c0000
    3bac:	00524353 	subseq	r4, r2, r3, asr r3
    3bb0:	34171e02 	ldrcc	r1, [r7], #-3586	@ 0xfffff1fe
    3bb4:	10000000 	andne	r0, r0, r0
    3bb8:	5243430f 	subpl	r4, r3, #1006632960	@ 0x3c000000
    3bbc:	171f0200 	ldrne	r0, [pc, -r0, lsl #4]
    3bc0:	00000034 	andeq	r0, r0, r4, lsr r0
    3bc4:	48530f14 	ldmdami	r3, {r2, r4, r8, r9, sl, fp}^
    3bc8:	20020050 	andcs	r0, r2, r0, asr r0
    3bcc:	0001561c 	andeq	r5, r1, ip, lsl r6
    3bd0:	26011800 	strcs	r1, [r1], -r0, lsl #16
    3bd4:	02000005 	andeq	r0, r0, #5
    3bd8:	00341721 	eorseq	r1, r4, r1, lsr #14
    3bdc:	01240000 			@ <UNDEFINED> instruction: 0x01240000
    3be0:	000005bd 			@ <UNDEFINED> instruction: 0x000005bd
    3be4:	34172202 	ldrcc	r2, [r7], #-514	@ 0xfffffdfe
    3be8:	28000000 	stmdacs	r0, {}	@ <UNPREDICTABLE>
    3bec:	0005c201 	andeq	ip, r5, r1, lsl #4
    3bf0:	17230200 	strne	r0, [r3, -r0, lsl #4]!
    3bf4:	00000034 	andeq	r0, r0, r4, lsr r0
    3bf8:	05dd012c 	ldrbeq	r0, [sp, #300]	@ 0x12c
    3bfc:	24020000 	strcs	r0, [r2], #-0
    3c00:	00003417 	andeq	r3, r0, r7, lsl r4
    3c04:	55013000 	strpl	r3, [r1, #-0]
    3c08:	02000006 	andeq	r0, r0, #6
    3c0c:	00341725 	eorseq	r1, r4, r5, lsr #14
    3c10:	01340000 	teqeq	r4, r0
    3c14:	0000061b 	andeq	r0, r0, fp, lsl r6
    3c18:	34172602 	ldrcc	r2, [r7], #-1538	@ 0xfffff9fe
    3c1c:	38000000 	stmdacc	r0, {}	@ <UNPREDICTABLE>
    3c20:	0006d301 	andeq	sp, r6, r1, lsl #6
    3c24:	17270200 	strne	r0, [r7, -r0, lsl #4]!
    3c28:	00000034 	andeq	r0, r0, r4, lsr r0
    3c2c:	5521003c 	strpl	r0, [r1, #-60]!	@ 0xffffffc4
    3c30:	56000000 	strpl	r0, [r0], -r0
    3c34:	16000001 	strne	r0, [r0], -r1
    3c38:	0000002d 	andeq	r0, r0, sp, lsr #32
    3c3c:	4610000b 	ldrmi	r0, [r0], -fp
    3c40:	02000001 	andeq	r0, r0, #1
    3c44:	000005c7 	andeq	r0, r0, r7, asr #11
    3c48:	86032802 	strhi	r2, [r3], -r2, lsl #16
    3c4c:	02000000 	andeq	r0, r0, #0
    3c50:	00000146 	andeq	r0, r0, r6, asr #2
    3c54:	7f0e1c03 	svcvc	0x000e1c03
    3c58:	22000000 	andcs	r0, r0, #0
    3c5c:	00544e49 	subseq	r4, r4, r9, asr #28
    3c60:	26101e03 	ldrcs	r1, [r0], -r3, lsl #28
    3c64:	02000000 	andeq	r0, r0, #0
    3c68:	00000154 	andeq	r0, r0, r4, asr r1
    3c6c:	2d121f03 	ldccs	15, cr1, [r2, #-12]
    3c70:	02000000 	andeq	r0, r0, #0
    3c74:	000001ac 	andeq	r0, r0, ip, lsr #3
    3c78:	6f172003 	svcvs	0x00172003
    3c7c:	02000000 	andeq	r0, r0, #0
    3c80:	000001ad 	andeq	r0, r0, sp, lsr #3
    3c84:	680e2103 	stmdavs	lr, {r0, r1, r8, sp}
    3c88:	02000000 	andeq	r0, r0, #0
    3c8c:	0000006b 	andeq	r0, r0, fp, rrx
    3c90:	7d0f2203 	sfmvc	f2, 4, [pc, #-12]	@ 3c8c <__exidx_end+0x2c18>
    3c94:	08000000 	stmdaeq	r0, {}	@ <UNPREDICTABLE>
    3c98:	000001a3 	andeq	r0, r0, r3, lsr #3
    3c9c:	00001102 	andeq	r1, r0, r2, lsl #2
    3ca0:	12260300 	eorne	r0, r6, #0, 6
    3ca4:	0000002d 	andeq	r0, r0, sp, lsr #32
    3ca8:	0001b408 	andeq	fp, r1, r8, lsl #8
    3cac:	022f0200 	eoreq	r0, pc, #0, 4
    3cb0:	52030000 	andpl	r0, r3, #0
    3cb4:	00004e17 	andeq	r4, r0, r7, lsl lr
    3cb8:	013e0200 	teqeq	lr, r0, lsl #4
    3cbc:	53030000 	movwpl	r0, #12288	@ 0x3000
    3cc0:	00004e17 	andeq	r4, r0, r7, lsl lr
    3cc4:	03140200 	tsteq	r4, #0, 4
    3cc8:	54030000 	strpl	r0, [r3], #-0
    3ccc:	00006f17 	andeq	r6, r0, r7, lsl pc
    3cd0:	01dd0800 	bicseq	r0, sp, r0, lsl #16
    3cd4:	f3030000 	vhadd.u8	d0, d3, d0
    3cd8:	23000001 	movwcs	r0, #1
    3cdc:	000001fe 	strdeq	r0, [r0], -lr
    3ce0:	00007d09 	andeq	r7, r0, r9, lsl #26
    3ce4:	79020000 	stmdbvc	r2, {}	@ <UNPREDICTABLE>
    3ce8:	0300000a 	movweq	r0, #10
    3cec:	01ee1059 	mvneq	r1, r9, asr r0
    3cf0:	fe080000 	cdp2	0, 0, cr0, cr8, cr0, {0}
    3cf4:	02000001 	andeq	r0, r0, #1
    3cf8:	00000159 	andeq	r0, r0, r9, asr r1
    3cfc:	970e8703 	strls	r8, [lr, -r3, lsl #14]
    3d00:	02000001 	andeq	r0, r0, #1
    3d04:	000002e0 	andeq	r0, r0, r0, ror #5
    3d08:	8b0fc803 	blhi	3f5d1c <__exidx_end+0x3f4ca8>
    3d0c:	02000001 	andeq	r0, r0, #1
    3d10:	000007b8 			@ <UNDEFINED> instruction: 0x000007b8
    3d14:	3315ea03 	tstcc	r5, #12288	@ 0x3000
    3d18:	0a000002 	beq	3d28 <__exidx_end+0x2cb4>
    3d1c:	00000198 	muleq	r0, r8, r1
    3d20:	03194258 	tsteq	r9, #88, 4	@ 0x80000005
    3d24:	730f0000 	movwvc	r0, #61440	@ 0xf000
    3d28:	45040070 	strmi	r0, [r4, #-112]	@ 0xffffff90
    3d2c:	0004720a 	andeq	r7, r4, sl, lsl #4
    3d30:	e9010000 	stmdb	r1, {}	@ <UNPREDICTABLE>
    3d34:	04000001 	streq	r0, [r0], #-1
    3d38:	021b1446 	andseq	r1, fp, #1174405120	@ 0x46000000
    3d3c:	01040000 	mrseq	r0, (UNDEF: 4)
    3d40:	000001f8 	strdeq	r0, [r0], -r8
    3d44:	8b0b4704 	blhi	2d595c <__exidx_end+0x2d48e8>
    3d48:	08000001 	stmdaeq	r0, {r0}
    3d4c:	00014b01 	andeq	r4, r1, r1, lsl #22
    3d50:	0b490400 	bleq	1244d58 <__exidx_end+0x1243ce4>
    3d54:	0000046d 	andeq	r0, r0, sp, ror #8
    3d58:	0210010c 	andseq	r0, r0, #12, 2
    3d5c:	4a040000 	bmi	103d64 <__exidx_end+0x102cf0>
    3d60:	0004720a 	andeq	r7, r4, sl, lsl #4
    3d64:	95011000 	strls	r1, [r1, #-0]
    3d68:	04000003 	streq	r0, [r0], #-3
    3d6c:	017f0a4b 	cmneq	pc, fp, asr #20
    3d70:	0f140000 	svceq	0x00140000
    3d74:	00646970 	rsbeq	r6, r4, r0, ror r9
    3d78:	c50c4c04 	strgt	r4, [ip, #-3076]	@ 0xfffff3fc
    3d7c:	18000001 	stmdane	r0, {r0}
    3d80:	00010d01 	andeq	r0, r1, r1, lsl #26
    3d84:	0d4d0400 	cfstrdeq	mvd0, [sp, #-0]
    3d88:	000001d1 	ldrdeq	r0, [r0], -r1
    3d8c:	01290119 			@ <UNDEFINED> instruction: 0x01290119
    3d90:	52040000 	andpl	r0, r4, #0
    3d94:	0001b40a 	andeq	fp, r1, sl, lsl #8
    3d98:	74011c00 	strvc	r1, [r1], #-3072	@ 0xfffff400
    3d9c:	04000001 	streq	r0, [r0], #-1
    3da0:	01dd0d62 	bicseq	r0, sp, r2, ror #26
    3da4:	01200000 			@ <UNDEFINED> instruction: 0x01200000
    3da8:	00000100 	andeq	r0, r0, r0, lsl #2
    3dac:	dd0d6404 	cfstrsle	mvf6, [sp, #-16]
    3db0:	24000001 	strcs	r0, [r0], #-1
    3db4:	00011e01 	andeq	r1, r1, r1, lsl #28
    3db8:	0a660400 	beq	1984dc0 <__exidx_end+0x1983d4c>
    3dbc:	000001b4 			@ <UNDEFINED> instruction: 0x000001b4
    3dc0:	021d0128 	andseq	r0, sp, #40, 2
    3dc4:	67040000 	strvs	r0, [r4, -r0]
    3dc8:	0001b40a 	andeq	fp, r1, sl, lsl #8
    3dcc:	ef012c00 	svc	0x00012c00
    3dd0:	04000002 	streq	r0, [r0], #-2
    3dd4:	017f0a69 	cmneq	pc, r9, ror #20
    3dd8:	01300000 	teqeq	r0, r0
    3ddc:	00000243 	andeq	r0, r0, r3, asr #4
    3de0:	c50c6a04 	strgt	r6, [ip, #-2564]	@ 0xfffff5fc
    3de4:	34000001 	strcc	r0, [r0], #-1
    3de8:	0000db11 	andeq	sp, r0, r1, lsl fp
    3dec:	a7196b00 	ldrge	r6, [r9, -r0, lsl #22]
    3df0:	38000003 	stmdacc	r0, {r0, r1}
    3df4:	0001ce11 	andeq	ip, r1, r1, lsl lr
    3df8:	64166c00 	ldrvs	r6, [r6], #-3072	@ 0xfffff400
    3dfc:	50000003 	andpl	r0, r0, r3
    3e00:	00220200 	eoreq	r0, r2, r0, lsl #4
    3e04:	ec030000 	stc	0, cr0, [r3], {-0}
    3e08:	00032516 	andeq	r2, r3, r6, lsl r5
    3e0c:	00fa0a00 	rscseq	r0, sl, r0, lsl #20
    3e10:	3a140000 	bcc	503e18 <__exidx_end+0x502da4>
    3e14:	00000364 	andeq	r0, r0, r4, ror #6
    3e18:	00030a11 	andeq	r0, r3, r1, lsl sl
    3e1c:	64163c00 	ldrvs	r3, [r6], #-3072	@ 0xfffff400
    3e20:	00000003 	andeq	r0, r0, r3
    3e24:	00009301 	andeq	r9, r0, r1, lsl #6
    3e28:	0b3d0400 	bleq	f44e30 <__exidx_end+0xf43dbc>
    3e2c:	0000046d 	andeq	r0, r0, sp, ror #8
    3e30:	03050108 	movweq	r0, #20744	@ 0x5108
    3e34:	3e040000 	cdpcc	0, 0, cr0, cr4, cr0, {0}
    3e38:	00018b0b 	andeq	r8, r1, fp, lsl #22
    3e3c:	b6010c00 	strlt	r0, [r1], -r0, lsl #24
    3e40:	04000003 	streq	r0, [r0], #-3
    3e44:	01b40a3f 			@ <UNDEFINED> instruction: 0x01b40a3f
    3e48:	00100000 	andseq	r0, r0, r0
    3e4c:	0002250a 	andeq	r2, r2, sl, lsl #10
    3e50:	8a340800 	bhi	d05e58 <__exidx_end+0xd04de4>
    3e54:	01000003 	tsteq	r0, r3
    3e58:	00000116 	andeq	r0, r0, r6, lsl r1
    3e5c:	68173604 	ldmdavs	r7, {r2, r9, sl, ip, sp}
    3e60:	00000004 	andeq	r0, r0, r4
    3e64:	00020801 	andeq	r0, r2, r1, lsl #16
    3e68:	17370400 	ldrne	r0, [r7, -r0, lsl #8]!
    3e6c:	00000468 	andeq	r0, r0, r8, ror #8
    3e70:	6b020004 	blvs	83e88 <__exidx_end+0x82e14>
    3e74:	03000007 	movweq	r0, #7
    3e78:	031911ee 	tsteq	r9, #-2147483589	@ 0x8000003b
    3e7c:	01020000 	mrseq	r0, (UNDEF: 2)
    3e80:	03000008 	movweq	r0, #8
    3e84:	03a71df0 			@ <UNDEFINED> instruction: 0x03a71df0
    3e88:	96100000 	ldrls	r0, [r0], -r0
    3e8c:	0a000003 	beq	3ea0 <__exidx_end+0x2e2c>
    3e90:	00000236 	andeq	r0, r0, r6, lsr r2
    3e94:	04011f18 	streq	r1, [r1], #-3864	@ 0xfffff0e8
    3e98:	16010000 	strne	r0, [r1], -r0
    3e9c:	04000001 	streq	r0, [r0], #-1
    3ea0:	04591a21 	ldrbeq	r1, [r9], #-2593	@ 0xfffff5df
    3ea4:	01000000 	mrseq	r0, (UNDEF: 0)
    3ea8:	00000208 	andeq	r0, r0, r8, lsl #4
    3eac:	591a2204 	ldmdbpl	sl, {r2, r9, sp}
    3eb0:	04000004 	streq	r0, [r0], #-4
    3eb4:	00001601 	andeq	r1, r0, r1, lsl #12
    3eb8:	0a230400 	beq	8c4ec0 <__exidx_end+0x8c3e4c>
    3ebc:	0000017f 	andeq	r0, r0, pc, ror r1
    3ec0:	03ae0108 			@ <UNDEFINED> instruction: 0x03ae0108
    3ec4:	24040000 	strcs	r0, [r4], #-0
    3ec8:	0001dd0d 	andeq	sp, r1, sp, lsl #26
    3ecc:	64010c00 	strvs	r0, [r1], #-3072	@ 0xfffff400
    3ed0:	04000003 	streq	r0, [r0], #-3
    3ed4:	01dd0d25 	bicseq	r0, sp, r5, lsr #26
    3ed8:	01100000 	tsteq	r0, r0
    3edc:	000000ba 	strheq	r0, [r0], -sl
    3ee0:	5e0e2604 	cfmadd32pl	mvax0, mvfx2, mvfx14, mvfx4
    3ee4:	14000004 	strne	r0, [r0], #-4
    3ee8:	0a490200 	beq	12446f0 <__exidx_end+0x124367c>
    3eec:	f2030000 	vhadd.s8	d0, d3, d0
    3ef0:	00040d17 	andeq	r0, r4, r7, lsl sp
    3ef4:	0bc30a00 	bleq	ff0c66fc <SCB_ICSR+0x1f0b79f8>
    3ef8:	2a280000 	bcs	a03f00 <__exidx_end+0xa02e8c>
    3efc:	00000459 	andeq	r0, r0, r9, asr r4
    3f00:	000b4401 	andeq	r4, fp, r1, lsl #8
    3f04:	0a2c0400 	beq	b04f0c <__exidx_end+0xb03e98>
    3f08:	000001b4 			@ <UNDEFINED> instruction: 0x000001b4
    3f0c:	08780100 	ldmdaeq	r8!, {r8}^
    3f10:	2d040000 	stccs	0, cr0, [r4, #-0]
    3f14:	0001dd0d 	andeq	sp, r1, sp, lsl #26
    3f18:	d3010400 	movwle	r0, #5120	@ 0x1400
    3f1c:	04000009 	streq	r0, [r0], #-9
    3f20:	01fe162e 	mvnseq	r1, lr, lsr #12
    3f24:	01080000 	mrseq	r0, (UNDEF: 8)
    3f28:	00000a10 	andeq	r0, r0, r0, lsl sl
    3f2c:	a30a2f04 	movwge	r2, #44804	@ 0xaf04
    3f30:	0c000001 	stceq	0, cr0, [r0], {1}
    3f34:	0000db11 	andeq	sp, r0, r1, lsl fp
    3f38:	a7193000 	ldrge	r3, [r9, -r0]
    3f3c:	10000003 	andne	r0, r0, r3
    3f40:	03a70300 			@ <UNDEFINED> instruction: 0x03a70300
    3f44:	19030000 	stmdbne	r3, {}	@ <UNPREDICTABLE>
    3f48:	08000003 	stmdaeq	r0, {r0, r1}
    3f4c:	0000045e 	andeq	r0, r0, lr, asr r4
    3f50:	00036403 	andeq	r6, r3, r3, lsl #8
    3f54:	01670300 	cmneq	r7, r0, lsl #6
    3f58:	73030000 	movwvc	r0, #12288	@ 0x3000
    3f5c:	0a000001 	beq	3f68 <__exidx_end+0x2ef4>
    3f60:	00000b7d 	andeq	r0, r0, sp, ror fp
    3f64:	049d6f08 	ldreq	r6, [sp], #3848	@ 0xf08
    3f68:	f4010000 	vst4.8	{d0-d3}, [r1], r0
    3f6c:	04000009 	streq	r0, [r0], #-9
    3f70:	01dd0d71 	bicseq	r0, sp, r1, ror sp
    3f74:	01000000 	mrseq	r0, (UNDEF: 0)
    3f78:	00000a42 	andeq	r0, r0, r2, asr #20
    3f7c:	7f0a7204 	svcvc	0x000a7204
    3f80:	04000001 	streq	r0, [r0], #-1
    3f84:	0b750b00 	bleq	1d46b8c <__exidx_end+0x1d45b18>
    3f88:	75040000 	strvc	r0, [r4, #-0]
    3f8c:	00047718 	andeq	r7, r4, r8, lsl r7
    3f90:	07dd0b00 	ldrbeq	r0, [sp, r0, lsl #22]
    3f94:	12050000 	andne	r0, r5, #0
    3f98:	0004b510 	andeq	fp, r4, r0, lsl r5
    3f9c:	02270300 	eoreq	r0, r7, #0, 6
    3fa0:	b5080000 	strlt	r0, [r8, #-0]
    3fa4:	24000004 	strcs	r0, [r0], #-4
    3fa8:	0000038a 	andeq	r0, r0, sl, lsl #7
    3fac:	0004d004 	andeq	sp, r4, r4
    3fb0:	002d1600 	eoreq	r1, sp, r0, lsl #12
    3fb4:	00020000 	andeq	r0, r2, r0
    3fb8:	00071d0b 	andeq	r1, r7, fp, lsl #26
    3fbc:	10170500 	andsne	r0, r7, r0, lsl #10
    3fc0:	000004bf 			@ <UNDEFINED> instruction: 0x000004bf
    3fc4:	000ce40b 	andeq	lr, ip, fp, lsl #8
    3fc8:	121c0600 	andsne	r0, ip, #0, 12
    3fcc:	000004e8 	andeq	r0, r0, r8, ror #9
    3fd0:	00040103 	andeq	r0, r4, r3, lsl #2
    3fd4:	04e80800 	strbteq	r0, [r8], #2048	@ 0x800
    3fd8:	420b0000 	andmi	r0, fp, #0
    3fdc:	06000008 	streq	r0, [r0], -r8
    3fe0:	04fe2221 	ldrbteq	r2, [lr], #545	@ 0x221
    3fe4:	a2030000 	andge	r0, r3, #0
    3fe8:	0b000003 	bleq	3ffc <__exidx_end+0x2f88>
    3fec:	00000855 	andeq	r0, r0, r5, asr r8
    3ff0:	fe222206 	cdp2	2, 2, cr2, cr2, cr6, {0}
    3ff4:	25000004 	strcs	r0, [r0, #-4]
    3ff8:	000004dc 	ldrdeq	r0, [r0], -ip
    3ffc:	050b3201 	streq	r3, [fp, #-513]	@ 0xfffffdff
    4000:	00000003 	andeq	r0, r0, r3
    4004:	0c401700 	mcrreq	7, 0, r1, r0, cr0
    4008:	012b0000 			@ <UNDEFINED> instruction: 0x012b0000
    400c:	0004fe22 	andeq	pc, r4, r2, lsr #28
    4010:	5c030500 	cfstr32pl	mvfx0, [r3], {-0}
    4014:	18200010 	stmdane	r0!, {r4}
    4018:	0000070a 	andeq	r0, r0, sl, lsl #14
    401c:	00020f24 	andeq	r0, r2, r4, lsr #30
    4020:	00054800 	andeq	r4, r5, r0, lsl #16
    4024:	04630900 	strbteq	r0, [r3], #-2304	@ 0xfffff700
    4028:	ba090000 	blt	244030 <__exidx_end+0x242fbc>
    402c:	00000004 	andeq	r0, r0, r4
    4030:	000b3b18 	andeq	r3, fp, r8, lsl fp
    4034:	020f2600 	andeq	r2, pc, #0, 12
    4038:	05610000 	strbeq	r0, [r1, #-0]!
    403c:	66090000 	strvs	r0, [r9], -r0
    4040:	09000005 	stmdbeq	r0, {r0, r2}
    4044:	00000570 	andeq	r0, r0, r0, ror r5
    4048:	038a0300 	orreq	r0, sl, #0, 6
    404c:	61080000 	mrsvs	r0, (UNDEF: 8)
    4050:	03000005 	movweq	r0, #5
    4054:	000004b5 			@ <UNDEFINED> instruction: 0x000004b5
    4058:	00056b08 	andeq	r6, r5, r8, lsl #22
    405c:	07512600 	ldrbeq	r2, [r1, -r0, lsl #12]
    4060:	1e050000 	cdpne	0, 0, cr0, cr5, cr0, {0}
    4064:	00058706 	andeq	r8, r5, r6, lsl #14
    4068:	017f0900 	cmneq	pc, r0, lsl #18
    406c:	27000000 	strcs	r0, [r0, -r0]
    4070:	000007cb 	andeq	r0, r0, fp, asr #15
    4074:	7f061d05 	svcvc	0x00061d05
    4078:	28000001 	stmdacs	r0, {r0}
    407c:	00000791 	muleq	r0, r1, r7
    4080:	06014301 	streq	r4, [r1], -r1, lsl #6
    4084:	00000f3c 	andeq	r0, r0, ip, lsr pc
    4088:	0000002c 	andeq	r0, r0, ip, lsr #32
    408c:	05ba9c01 	ldreq	r9, [sl, #3073]!	@ 0xc01
    4090:	40290000 	eormi	r0, r9, r0
    4094:	0100000c 	tsteq	r0, ip
    4098:	ba2b0143 	blt	ac45ac <__exidx_end+0xac3538>
    409c:	01000005 	tsteq	r0, r5
    40a0:	96030050 			@ <UNDEFINED> instruction: 0x96030050
    40a4:	19000003 	stmdbne	r0, {r0, r1}
    40a8:	00000997 	muleq	r0, r7, r9
    40ac:	b406012c 	strlt	r0, [r6], #-300	@ 0xfffffed4
    40b0:	68000001 	stmdavs	r0, {r0}
    40b4:	4000000f 	andmi	r0, r0, pc
    40b8:	01000000 	mrseq	r0, (UNDEF: 0)
    40bc:	00060b9c 	muleq	r6, ip, fp
    40c0:	72651a00 	rsbvc	r1, r5, #0, 20
    40c4:	012e0072 			@ <UNDEFINED> instruction: 0x012e0072
    40c8:	00020f0c 	andeq	r0, r2, ip, lsl #30
    40cc:	000d9400 	andeq	r9, sp, r0, lsl #8
    40d0:	000d9000 	andeq	r9, sp, r0
    40d4:	0f981200 	svceq	0x00981200
    40d8:	05930000 	ldreq	r0, [r3]
    40dc:	06010000 	streq	r0, [r1], -r0
    40e0:	01050000 	mrseq	r0, (UNDEF: 5)
    40e4:	00700250 	rsbseq	r0, r0, r0, asr r2
    40e8:	0f9c0c00 	svceq	0x009c0c00
    40ec:	060b0000 	streq	r0, [fp], -r0
    40f0:	19000000 	stmdbne	r0, {}	@ <UNPREDICTABLE>
    40f4:	00000c81 	andeq	r0, r0, r1, lsl #25
    40f8:	0f080109 	svceq	0x00080109
    40fc:	d4000002 	strle	r0, [r0], #-2
    4100:	6800000e 	stmdavs	r0, {r1, r2, r3}
    4104:	01000000 	mrseq	r0, (UNDEF: 0)
    4108:	00068e9c 	muleq	r6, ip, lr
    410c:	0c402a00 	mcrreq	10, 0, r2, r0, cr0
    4110:	09010000 	stmdbeq	r1, {}	@ <UNPREDICTABLE>
    4114:	04fe3501 	ldrbteq	r3, [lr], #1281	@ 0x501
    4118:	0db20000 	ldceq	0, cr0, [r2]
    411c:	0da60000 	stceq	0, cr0, [r6]
    4120:	61170000 	tstvs	r7, r0
    4124:	0b00000c 	bleq	415c <__exidx_end+0x30e8>
    4128:	04b50d01 	ldrteq	r0, [r5], #3329	@ 0xd01
    412c:	91020000 	mrsls	r0, (UNDEF: 2)
    4130:	02e81b74 	rsceq	r1, r8, #116, 22	@ 0x1d000
    4134:	06840000 	streq	r0, [r4], r0
    4138:	651a0000 	ldrvs	r0, [sl, #-0]
    413c:	0f007272 	svceq	0x00007272
    4140:	020f1001 	andeq	r1, pc, #1
    4144:	0de20000 	stcleq	0, cr0, [r2]
    4148:	0dde0000 	ldcleq	0, cr0, [lr]
    414c:	e8120000 	ldmda	r2, {}	@ <UNPREDICTABLE>
    4150:	4800000e 	stmdami	r0, {r1, r2, r3}
    4154:	7a000005 	bvc	4170 <__exidx_end+0x30fc>
    4158:	05000006 	streq	r0, [r0, #-6]
    415c:	91025101 	tstls	r2, r1, lsl #2
    4160:	040c0074 	streq	r0, [ip], #-116	@ 0xffffff8c
    4164:	2f00000f 	svccs	0x0000000f
    4168:	00000005 	andeq	r0, r0, r5
    416c:	000f260c 	andeq	r2, pc, ip, lsl #12
    4170:	00052f00 	andeq	r2, r5, r0, lsl #30
    4174:	ed130000 	ldc	0, cr0, [r3, #-0]
    4178:	b0000007 	andlt	r0, r0, r7
    417c:	0000020f 	andeq	r0, r0, pc, lsl #4
    4180:	00000d34 	andeq	r0, r0, r4, lsr sp
    4184:	0000008c 	andeq	r0, r0, ip, lsl #1
    4188:	07299c01 	streq	r9, [r9, -r1, lsl #24]!
    418c:	cb060000 	blgt	184194 <__exidx_end+0x183120>
    4190:	b000000c 	andlt	r0, r0, ip
    4194:	0005ba23 	andeq	fp, r5, r3, lsr #20
    4198:	000dfe00 	andeq	pc, sp, r0, lsl #28
    419c:	000df200 	andeq	pc, sp, r0, lsl #4
    41a0:	03ae0600 			@ <UNDEFINED> instruction: 0x03ae0600
    41a4:	38b00000 	ldmcc	r0!, {}	@ <UNPREDICTABLE>
    41a8:	000001dd 	ldrdeq	r0, [r0], -sp
    41ac:	00000e3c 	andeq	r0, r0, ip, lsr lr
    41b0:	00000e2c 	andeq	r0, r0, ip, lsr #28
    41b4:	0002b51b 	andeq	fp, r2, fp, lsl r5
    41b8:	0006fc00 	andeq	pc, r6, r0, lsl #24
    41bc:	0cba0700 	ldceq	7, cr0, [sl]
    41c0:	1ac30000 	bne	ff0c41c8 <SCB_ICSR+0x1f0b54c4>
    41c4:	000005ba 			@ <UNDEFINED> instruction: 0x000005ba
    41c8:	00000e7a 	andeq	r0, r0, sl, ror lr
    41cc:	00000e74 	andeq	r0, r0, r4, ror lr
    41d0:	00020807 	andeq	r0, r2, r7, lsl #16
    41d4:	ba1ac400 	blt	6b51dc <__exidx_end+0x6b4168>
    41d8:	94000005 	strls	r0, [r0], #-5
    41dc:	9000000e 	andls	r0, r0, lr
    41e0:	0000000e 	andeq	r0, r0, lr
    41e4:	0002c12b 	andeq	ip, r2, fp, lsr #2
    41e8:	0cba0700 	ldceq	7, cr0, [sl]
    41ec:	1ae50000 	bne	ff9441f4 <SCB_ICSR+0x1f9354f0>
    41f0:	000005ba 			@ <UNDEFINED> instruction: 0x000005ba
    41f4:	00000eab 	andeq	r0, r0, fp, lsr #29
    41f8:	00000ea5 	andeq	r0, r0, r5, lsr #29
    41fc:	00020807 	andeq	r0, r2, r7, lsl #16
    4200:	ba1ae600 	blt	6bda08 <__exidx_end+0x6bc994>
    4204:	c7000005 	strgt	r0, [r0, -r5]
    4208:	c100000e 	tstgt	r0, lr
    420c:	0000000e 	andeq	r0, r0, lr
    4210:	00701300 	rsbseq	r1, r0, r0, lsl #6
    4214:	0f7e0000 	svceq	0x007e0000
    4218:	50000002 	andpl	r0, r0, r2
    421c:	8400000e 	strhi	r0, [r0], #-14
    4220:	01000000 	mrseq	r0, (UNDEF: 0)
    4224:	0008059c 	muleq	r8, ip, r5
    4228:	0c7a0600 	ldcleq	6, cr0, [sl], #-0
    422c:	237e0000 	cmncs	lr, #0
    4230:	000001e9 	andeq	r0, r0, r9, ror #3
    4234:	00000eeb 	andeq	r0, r0, fp, ror #29
    4238:	00000edd 	ldrdeq	r0, [r0], -sp
    423c:	00075907 	andeq	r5, r7, r7, lsl #18
    4240:	7f058000 	svcvc	0x00058000
    4244:	28000001 	stmdacs	r0, {r0}
    4248:	1e00000f 	cdpne	0, 0, cr0, cr0, cr15, {0}
    424c:	2c00000f 	stccs	0, cr0, [r0], {15}
    4250:	00727265 	rsbseq	r7, r2, r5, ror #4
    4254:	0f0c8201 	svceq	0x000c8201
    4258:	4f000002 	svcmi	0x00000002
    425c:	4700000f 	strmi	r0, [r0, -pc]
    4260:	2d00000f 	stccs	0, cr0, [r0, #-60]	@ 0xffffffc4
    4264:	00000cb5 			@ <UNDEFINED> instruction: 0x00000cb5
    4268:	ac05a601 	stcge	6, cr10, [r5], {1}
    426c:	0700000e 	streq	r0, [r0, -lr]
    4270:	00000ca9 	andeq	r0, r0, r9, lsr #25
    4274:	01dd0d89 	bicseq	r0, sp, r9, lsl #27
    4278:	0f6f0000 	svceq	0x006f0000
    427c:	0f6b0000 	svceq	0x006b0000
    4280:	93070000 	movwls	r0, #28672	@ 0x7000
    4284:	8a00000c 	bhi	42bc <__exidx_end+0x3248>
    4288:	0001dd0d 	andeq	sp, r1, sp, lsl #26
    428c:	000f8100 	andeq	r8, pc, r0, lsl #2
    4290:	000f7f00 	andeq	r7, pc, r0, lsl #30
    4294:	0c690700 	stcleq	7, cr0, [r9], #-0
    4298:	0d920000 	ldceq	0, cr0, [r2]
    429c:	000001dd 	ldrdeq	r0, [r0], -sp
    42a0:	00000f8e 	andeq	r0, r0, lr, lsl #31
    42a4:	00000f8a 	andeq	r0, r0, sl, lsl #31
    42a8:	000a312e 	andeq	r3, sl, lr, lsr #2
    42ac:	000e5e00 	andeq	r5, lr, r0, lsl #28
    42b0:	02d90200 	sbcseq	r0, r9, #0, 4
    42b4:	89010000 	stmdbhi	r1, {}	@ <UNPREDICTABLE>
    42b8:	0e5a0c1b 	mrceq	12, 2, r0, cr10, cr11, {0}
    42bc:	05870000 	streq	r0, [r7]
    42c0:	86120000 	ldrhi	r0, [r2], -r0
    42c4:	8e00000e 	cdphi	0, 0, cr0, cr0, cr14, {0}
    42c8:	f4000006 	vst4.8	{d0-d3}, [r0], r6
    42cc:	05000007 	streq	r0, [r0, #-7]
    42d0:	76025001 	strvc	r5, [r2], -r1
    42d4:	51010538 	tstpl	r1, r8, lsr r5
    42d8:	00007402 	andeq	r7, r0, r2, lsl #8
    42dc:	000eb614 	andeq	fp, lr, r4, lsl r6
    42e0:	00057500 	andeq	r7, r5, r0, lsl #10
    42e4:	50010500 	andpl	r0, r1, r0, lsl #10
    42e8:	00007702 	andeq	r7, r0, r2, lsl #14
    42ec:	036a1500 	cmneq	sl, #0, 10
    42f0:	086b0000 	stmdaeq	fp!, {}^	@ <UNPREDICTABLE>
    42f4:	4800000e 	stmdami	r0, {r1, r2, r3}
    42f8:	01000000 	mrseq	r0, (UNDEF: 0)
    42fc:	00086c9c 	muleq	r8, ip, ip
    4300:	05520600 	ldrbeq	r0, [r2, #-1536]	@ 0xfffffa00
    4304:	166b0000 	strbtne	r0, [fp], -r0
    4308:	000001dd 	ldrdeq	r0, [r0], -sp
    430c:	00000fae 	andeq	r0, r0, lr, lsr #31
    4310:	00000fa8 	andeq	r0, r0, r8, lsr #31
    4314:	00075907 	andeq	r5, r7, r7, lsl #18
    4318:	7f056d00 	svcvc	0x00056d00
    431c:	cc000001 	stcgt	0, cr0, [r0], {1}
    4320:	c600000f 	strgt	r0, [r0], -pc
    4324:	0c00000f 	stceq	0, cr0, [r0], {15}
    4328:	00000e10 	andeq	r0, r0, r0, lsl lr
    432c:	00000587 	andeq	r0, r0, r7, lsl #11
    4330:	000e2812 	andeq	r2, lr, r2, lsl r8
    4334:	00068e00 	andeq	r8, r6, r0, lsl #28
    4338:	00086200 	andeq	r6, r8, r0, lsl #4
    433c:	50010500 	andpl	r0, r1, r0, lsl #10
    4340:	05387402 	ldreq	r7, [r8, #-1026]!	@ 0xfffffbfe
    4344:	76025101 	strvc	r5, [r2], -r1, lsl #2
    4348:	482f0000 	stmdami	pc!, {}	@ <UNPREDICTABLE>
    434c:	7500000e 	strvc	r0, [r0, #-14]
    4350:	00000005 	andeq	r0, r0, r5
    4354:	000c1415 	andeq	r1, ip, r5, lsl r4
    4358:	0d084e00 	stceq	14, cr4, [r8, #-0]
    435c:	002c0000 	eoreq	r0, ip, r0
    4360:	9c010000 	stcls	0, cr0, [r1], {-0}
    4364:	0000088e 	andeq	r0, r0, lr, lsl #17
    4368:	000c401c 	andeq	r4, ip, ip, lsl r0
    436c:	ba294e00 	blt	a57b74 <__exidx_end+0xa56b00>
    4370:	01000005 	tsteq	r0, r5
    4374:	35130050 	ldrcc	r0, [r3, #-80]	@ 0xffffffb0
    4378:	4100000c 	tstmi	r0, ip
    437c:	0000020f 	andeq	r0, r0, pc, lsl #4
    4380:	00000dc0 	andeq	r0, r0, r0, asr #27
    4384:	00000046 	andeq	r0, r0, r6, asr #32
    4388:	09bf9c01 	ldmibeq	pc!, {r0, sl, fp, ip, pc}	@ <UNPREDICTABLE>
    438c:	3e060000 	cdpcc	0, 0, cr0, cr6, cr0, {0}
    4390:	41000007 	tstmi	r0, r7
    4394:	0004ed24 	andeq	lr, r4, r4, lsr #26
    4398:	000fe900 	andeq	lr, pc, r0, lsl #18
    439c:	000fe100 	andeq	lr, pc, r0, lsl #2
    43a0:	08780600 	ldmdaeq	r8!, {r9, sl}^
    43a4:	38410000 	stmdacc	r1, {}^	@ <UNPREDICTABLE>
    43a8:	000001e9 	andeq	r0, r0, r9, ror #3
    43ac:	00001009 	andeq	r1, r0, r9
    43b0:	00001003 	andeq	r1, r0, r3
    43b4:	000cc206 	andeq	ip, ip, r6, lsl #4
    43b8:	e94d4100 	stmdb	sp, {r8, lr}^
    43bc:	24000001 	strcs	r0, [r0], #-1
    43c0:	1e000010 	mcrne	0, 0, r0, cr0, cr0, {0}
    43c4:	06000010 			@ <UNDEFINED> instruction: 0x06000010
    43c8:	000009d3 	ldrdeq	r0, [r0], -r3
    43cc:	020a2042 	andeq	r2, sl, #66	@ 0x42
    43d0:	103f0000 	eorsne	r0, pc, r0
    43d4:	10390000 	eorsne	r0, r9, r0
    43d8:	10060000 	andne	r0, r6, r0
    43dc:	4200000a 	andmi	r0, r0, #10
    43e0:	0001af33 	andeq	sl, r1, r3, lsr pc
    43e4:	00105800 	andseq	r5, r0, r0, lsl #16
    43e8:	00105400 	andseq	r5, r0, r0, lsl #8
    43ec:	0b440600 	bleq	1105bf4 <__exidx_end+0x1104b80>
    43f0:	47420000 	strbmi	r0, [r2, -r0]
    43f4:	000001c0 	andeq	r0, r0, r0, asr #3
    43f8:	0000106e 	andeq	r1, r0, lr, rrx
    43fc:	0000106a 	andeq	r1, r0, sl, rrx
    4400:	00075907 	andeq	r5, r7, r7, lsl #18
    4404:	7f054800 	svcvc	0x00054800
    4408:	84000001 	strhi	r0, [r0], #-1
    440c:	80000010 	andhi	r0, r0, r0, lsl r0
    4410:	30000010 	andcc	r0, r0, r0, lsl r0
    4414:	000009bf 			@ <UNDEFINED> instruction: 0x000009bf
    4418:	00000dd8 	ldrdeq	r0, [r0], -r8
    441c:	0002cd01 	andeq	ip, r2, r1, lsl #26
    4420:	054a0100 	strbeq	r0, [sl, #-256]	@ 0xffffff00
    4424:	000009a5 	andeq	r0, r0, r5, lsr #19
    4428:	000a030d 	andeq	r0, sl, sp, lsl #6
    442c:	00109600 	andseq	r9, r0, r0, lsl #12
    4430:	00109400 	andseq	r9, r0, r0, lsl #8
    4434:	09f80d00 	ldmibeq	r8!, {r8, sl, fp}^
    4438:	10a20000 	adcne	r0, r2, r0
    443c:	10a00000 	adcne	r0, r0, r0
    4440:	ed0d0000 	stc	0, cr0, [sp, #-0]
    4444:	ae000009 	cdpge	0, 0, cr0, cr0, cr9, {0}
    4448:	ac000010 	stcge	0, cr0, [r0], {16}
    444c:	0d000010 	stceq	0, cr0, [r0, #-64]	@ 0xffffffc0
    4450:	000009e2 	andeq	r0, r0, r2, ror #19
    4454:	000010b9 	strheq	r1, [r0], -r9
    4458:	000010b7 	strheq	r1, [r0], -r7
    445c:	0009d70d 	andeq	sp, r9, sp, lsl #14
    4460:	0010c400 	andseq	ip, r0, r0, lsl #8
    4464:	0010c200 	andseq	ip, r0, r0, lsl #4
    4468:	09cc0d00 	stmibeq	ip, {r8, sl, fp}^
    446c:	10cf0000 	sbcne	r0, pc, r0
    4470:	10cd0000 	sbcne	r0, sp, r0
    4474:	f4140000 			@ <UNDEFINED> instruction: 0xf4140000
    4478:	8e00000d 	cdphi	0, 0, cr0, cr0, cr13, {0}
    447c:	05000006 	streq	r0, [r0, #-6]
    4480:	74025001 	strvc	r5, [r2], #-1
    4484:	51010510 	tstpl	r1, r0, lsl r5
    4488:	00007502 	andeq	r7, r0, r2, lsl #10
    448c:	0dd40c00 	ldcleq	12, cr0, [r4]
    4490:	05870000 	streq	r0, [r7]
    4494:	fa140000 	blx	50449c <__exidx_end+0x503428>
    4498:	7500000d 	strvc	r0, [r0, #-13]
    449c:	05000005 	streq	r0, [r0, #-5]
    44a0:	77025001 	strvc	r5, [r2, -r1]
    44a4:	31000000 	mrscc	r0, (UNDEF: 0)
    44a8:	00000cf1 	strdeq	r0, [r0], -r1
    44ac:	03143401 	tsteq	r4, #16777216	@ 0x1000000
    44b0:	00000a0f 	andeq	r0, r0, pc, lsl #20
    44b4:	00073e0e 	andeq	r3, r7, lr, lsl #28
    44b8:	e82e3400 	stmda	lr!, {sl, ip, sp}
    44bc:	0e000004 	cdpeq	0, 0, cr0, cr0, cr4, {0}
    44c0:	00000878 	andeq	r0, r0, r8, ror r8
    44c4:	01dd3c34 	bicseq	r3, sp, r4, lsr ip
    44c8:	c20e0000 	andgt	r0, lr, #0
    44cc:	3400000c 	strcc	r0, [r0], #-12
    44d0:	0001dd4b 	andeq	sp, r1, fp, asr #26
    44d4:	09d30e00 	ldmibeq	r3, {r9, sl, fp}^
    44d8:	1a350000 	bne	d444e0 <__exidx_end+0xd4346c>
    44dc:	000001fe 	strdeq	r0, [r0], -lr
    44e0:	000a100e 	andeq	r1, sl, lr
    44e4:	a3273500 			@ <UNDEFINED> instruction: 0xa3273500
    44e8:	0e000001 	cdpeq	0, 0, cr0, cr0, cr1, {0}
    44ec:	00000b44 	andeq	r0, r0, r4, asr #22
    44f0:	01b43535 			@ <UNDEFINED> instruction: 0x01b43535
    44f4:	15000000 	strne	r0, [r0, #-0]
    44f8:	00000c6f 	andeq	r0, r0, pc, ror #24
    44fc:	00000023 	andeq	r0, r0, r3, lsr #32
    4500:	00001800 	andeq	r1, r0, r0, lsl #16
    4504:	319c0100 	orrscc	r0, ip, r0, lsl #2
    4508:	1c00000a 	stcne	0, cr0, [r0], {10}
    450c:	00000c69 	andeq	r0, r0, r9, ror #24
    4510:	01dd1a23 	bicseq	r1, sp, r3, lsr #20
    4514:	50010000 	andpl	r0, r1, r0
    4518:	0ca03200 	sfmeq	f3, 4, [r0]
    451c:	1b010000 	blne	44524 <__exidx_end+0x434b0>
    4520:	0001dd09 	andeq	sp, r1, r9, lsl #26
    4524:	31330100 	teqcc	r3, r0, lsl #2
    4528:	0000000a 	andeq	r0, r0, sl
    452c:	0c000000 	stceq	0, cr0, [r0], {-0}
    4530:	01000000 	mrseq	r0, (UNDEF: 0)
    4534:	00ca009c 	smulleq	r0, sl, ip, r0
    4538:	00050000 	andeq	r0, r5, r0
    453c:	14410401 	strbne	r0, [r1], #-1025	@ 0xfffffbff
    4540:	65030000 	strvs	r0, [r3, #-0]
    4544:	1d000002 	stcne	0, cr0, [r0, #-8]
    4548:	00000d10 	andeq	r0, r0, r0, lsl sp
    454c:	00000371 	andeq	r0, r0, r1, ror r3
    4550:	0000033f 	andeq	r0, r0, pc, lsr r3
    4554:	00000000 	andeq	r0, r0, r0
    4558:	000020bf 	strheq	r2, [r0], -pc	@ <UNPREDICTABLE>
    455c:	000bba04 	andeq	fp, fp, r4, lsl #20
    4560:	21020300 	mrscs	r0, LR_svc
    4564:	00005508 	andeq	r5, r0, r8, lsl #10
    4568:	09cd0100 	stmibeq	sp, {r8}^
    456c:	66230000 	strtvs	r0, [r3], -r0
    4570:	00000000 	andeq	r0, r0, r0
    4574:	000a9601 	andeq	r9, sl, r1, lsl #12
    4578:	00662400 	rsbeq	r2, r6, r0, lsl #8
    457c:	01010000 	mrseq	r0, (UNDEF: 1)
    4580:	00000a25 	andeq	r0, r0, r5, lsr #20
    4584:	00006625 	andeq	r6, r0, r5, lsr #12
    4588:	05000200 	streq	r0, [r0, #-512]	@ 0xfffffe00
    458c:	00000026 	andeq	r0, r0, r6, lsr #32
    4590:	00083906 	andeq	r3, r8, r6, lsl #18
    4594:	1e140200 	cdpne	2, 1, cr0, cr4, cr0, {0}
    4598:	00000055 	andeq	r0, r0, r5, asr r0
    459c:	8a080102 	bhi	2049ac <__exidx_end+0x203938>
    45a0:	07000001 	streq	r0, [r0, -r1]
    45a4:	0000005a 	andeq	r0, r0, sl, asr r0
    45a8:	05171601 	ldreq	r1, [r7, #-1537]	@ 0xfffff9ff
    45ac:	00106803 	andseq	r6, r0, r3, lsl #16
    45b0:	0d000800 	stceq	8, cr0, [r0, #-0]
    45b4:	20010000 	andcs	r0, r1, r0
    45b8:	0000910e 	andeq	r9, r0, lr, lsl #2
    45bc:	00000000 	andeq	r0, r0, r0
    45c0:	00000400 	andeq	r0, r0, r0, lsl #8
    45c4:	029c0100 	addseq	r0, ip, #0, 2
    45c8:	00860704 	addeq	r0, r6, r4, lsl #14
    45cc:	47090000 	strmi	r0, [r9, -r0]
    45d0:	01000009 	tsteq	r0, r9
    45d4:	00910e19 	addseq	r0, r1, r9, lsl lr
    45d8:	b6010000 	strlt	r0, [r1], -r0
    45dc:	0a000000 	beq	45e4 <__exidx_end+0x3570>
    45e0:	00000bbb 			@ <UNDEFINED> instruction: 0x00000bbb
    45e4:	910f1b01 	tstls	pc, r1, lsl #22
    45e8:	00000000 	andeq	r0, r0, r0
    45ec:	0000980b 	andeq	r9, r0, fp, lsl #16
    45f0:	000fa800 	andeq	sl, pc, r0, lsl #16
    45f4:	00000600 	andeq	r0, r0, r0, lsl #12
    45f8:	0c9c0100 	ldfeqs	f0, [ip], {0}
    45fc:	000000a9 	andeq	r0, r0, r9, lsr #1
    4600:	00000400 	andeq	r0, r0, r0, lsl #8
    4604:	000000cb 	andeq	r0, r0, fp, asr #1
    4608:	04010005 	streq	r0, [r1], #-5
    460c:	00001506 	andeq	r1, r0, r6, lsl #10
    4610:	00026503 	andeq	r6, r2, r3, lsl #10
    4614:	0d1f1d00 	ldceq	13, cr1, [pc, #-0]	@ 461c <__exidx_end+0x35a8>
    4618:	03710000 	cmneq	r1, #0
    461c:	03580000 	cmpeq	r8, #0
    4620:	00000000 	andeq	r0, r0, r0
    4624:	21310000 	teqcs	r1, r0
    4628:	04040000 	streq	r0, [r4], #-0
    462c:	746e6905 	strbtvc	r6, [lr], #-2309	@ 0xfffff6fb
    4630:	07040100 	streq	r0, [r4, -r0, lsl #2]
    4634:	00000086 	andeq	r0, r0, r6, lsl #1
    4638:	a1050801 	tstge	r5, r1, lsl #16
    463c:	01000000 	mrseq	r0, (UNDEF: 0)
    4640:	01680408 	cmneq	r8, r8, lsl #8
    4644:	01010000 	mrseq	r0, (UNDEF: 1)
    4648:	00018c06 	andeq	r8, r1, r6, lsl #24
    464c:	08010100 	stmdaeq	r1, {r8}
    4650:	0000018a 	andeq	r0, r0, sl, lsl #3
    4654:	ca050201 	bgt	144e60 <__exidx_end+0x143dec>
    4658:	01000000 	mrseq	r0, (UNDEF: 0)
    465c:	01d60702 	bicseq	r0, r6, r2, lsl #14
    4660:	04010000 	streq	r0, [r1], #-0
    4664:	0000a605 	andeq	sl, r0, r5, lsl #12
    4668:	07040100 	streq	r0, [r4, -r0, lsl #2]
    466c:	00000081 	andeq	r0, r0, r1, lsl #1
    4670:	7c070801 	stcvc	8, cr0, [r7], {1}
    4674:	01000000 	mrseq	r0, (UNDEF: 0)
    4678:	01930801 	orrseq	r0, r3, r1, lsl #16
    467c:	ad020000 	stcge	0, cr0, [r2, #-0]
    4680:	21000001 	tstcs	r0, r1
    4684:	0000005e 	andeq	r0, r0, lr, asr r0
    4688:	0007af02 	andeq	sl, r7, r2, lsl #30
    468c:	007ab900 	rsbseq	fp, sl, r0, lsl #18
    4690:	84050000 	strhi	r0, [r5], #-0
    4694:	06000000 	streq	r0, [r0], -r0
    4698:	00000d30 	andeq	r0, r0, r0, lsr sp
    469c:	8e1a1103 	mufhie	f1, f2, f3
    46a0:	07000000 	streq	r0, [r0, -r0]
    46a4:	00000093 	muleq	r0, r3, r0
    46a8:	05133001 	ldreq	r3, [r3, #-1]
    46ac:	00106003 	andseq	r6, r0, r3
    46b0:	07280820 	streq	r0, [r8, -r0, lsr #16]!
    46b4:	33010000 	movwcc	r0, #4096	@ 0x1000
    46b8:	000fb006 	andeq	fp, pc, r6
    46bc:	00000c00 	andeq	r0, r0, r0, lsl #24
    46c0:	099c0100 	ldmibeq	ip, {r8}
    46c4:	00000d2a 	andeq	r0, r0, sl, lsr #26
    46c8:	841c3301 	ldrhi	r3, [ip], #-769	@ 0xfffffcff
    46cc:	01000000 	mrseq	r0, (UNDEF: 0)
    46d0:	Address 0x46d0 is out of bounds.


Disassembly of section .debug_abbrev:

00000000 <.debug_abbrev>:
       0:	03000d01 	movweq	r0, #3329	@ 0xd01
       4:	3b0b3a0e 	blcc	2ce844 <__exidx_end+0x2cd7d0>
       8:	490b390b 	stmdbmi	fp, {r0, r1, r3, r8, fp, ip, sp}
       c:	000b3813 	andeq	r3, fp, r3, lsl r8
      10:	00160200 	andseq	r0, r6, r0, lsl #4
      14:	0b3a0e03 	bleq	e83828 <__exidx_end+0xe827b4>
      18:	0b390b3b 	bleq	e42d0c <__exidx_end+0xe41c98>
      1c:	00001349 	andeq	r1, r0, r9, asr #6
      20:	02004903 	andeq	r4, r0, #49152	@ 0xc000
      24:	00187e18 	andseq	r7, r8, r8, lsl lr
      28:	000f0400 	andeq	r0, pc, r0, lsl #8
      2c:	4904210b 	stmdbmi	r4, {r0, r1, r3, r8, sp}
      30:	05000013 	streq	r0, [r0, #-19]	@ 0xffffffed
      34:	0b0b0024 	bleq	2c00cc <__exidx_end+0x2bf058>
      38:	0e030b3e 	vmoveq.16	d3[0], r0
      3c:	05060000 	streq	r0, [r6, #-0]
      40:	00134900 	andseq	r4, r3, r0, lsl #18
      44:	00340700 	eorseq	r0, r4, r0, lsl #14
      48:	213a0e03 	teqcs	sl, r3, lsl #28
      4c:	390b3b05 	stmdbcc	fp, {r0, r2, r8, r9, fp, ip, sp}
      50:	3f13490b 	svccc	0x0013490b
      54:	00193c19 	andseq	r3, r9, r9, lsl ip
      58:	00340800 	eorseq	r0, r4, r0, lsl #16
      5c:	213a1347 	teqcs	sl, r7, asr #6
      60:	390b3b01 	stmdbcc	fp, {r0, r8, r9, fp, ip, sp}
      64:	0018020b 	andseq	r0, r8, fp, lsl #4
      68:	01480900 	cmpeq	r8, r0, lsl #18
      6c:	137f017d 	cmnne	pc, #1073741855	@ 0x4000001f
      70:	00001301 	andeq	r1, r0, r1, lsl #6
      74:	4900260a 	stmdbmi	r0, {r1, r3, r9, sl, sp}
      78:	0b000013 	bleq	cc <SysTick_Handler>
      7c:	0e030113 	mcreq	1, 0, r0, cr3, cr3, {0}
      80:	01880b0b 	orreq	r0, r8, fp, lsl #22
      84:	213a0421 	teqcs	sl, r1, lsr #8
      88:	390b3b04 	stmdbcc	fp, {r2, r8, r9, fp, ip, sp}
      8c:	13010821 	movwne	r0, #6177	@ 0x1821
      90:	2e0c0000 	cdpcs	0, 0, cr0, cr12, cr0, {0}
      94:	03193f01 	tsteq	r9, #1, 30
      98:	01213a0e 			@ <UNDEFINED> instruction: 0x01213a0e
      9c:	21390b3b 	teqcs	r9, fp, lsr fp
      a0:	11192706 	tstne	r9, r6, lsl #14
      a4:	40061201 	andmi	r1, r6, r1, lsl #4
      a8:	01197a18 	tsteq	r9, r8, lsl sl
      ac:	0d000013 	stceq	0, cr0, [r0, #-76]	@ 0xffffffb4
      b0:	0e03000d 	cdpeq	0, 0, cr0, cr3, cr13, {0}
      b4:	3b04213a 	blcc	1085a4 <__exidx_end+0x107530>
      b8:	490b390b 	stmdbmi	fp, {r0, r1, r3, r8, fp, ip, sp}
      bc:	21018813 	tstcs	r1, r3, lsl r8
      c0:	000b3804 	andeq	r3, fp, r4, lsl #16
      c4:	000d0e00 	andeq	r0, sp, r0, lsl #28
      c8:	0b3a0803 	bleq	e820dc <__exidx_end+0xe81068>
      cc:	0b390b3b 	bleq	e42dc0 <__exidx_end+0xe41d4c>
      d0:	0b381349 	bleq	e04dfc <__exidx_end+0xe03d88>
      d4:	340f0000 	strcc	r0, [pc], #-0	@ dc <TICKHANDLER+0xc>
      d8:	3a0e0300 	bcc	380ce0 <__exidx_end+0x37fc6c>
      dc:	0b3b0121 	bleq	ec0568 <__exidx_end+0xebf4f4>
      e0:	13490b39 	movtne	r0, #39737	@ 0x9b39
      e4:	1802193f 	stmdane	r2, {r0, r1, r2, r3, r4, r5, r8, fp, ip}
      e8:	2e100000 	cdpcs	0, 1, cr0, cr0, cr0, {0}
      ec:	03193f01 	tsteq	r9, #1, 30
      f0:	06213a0e 	strteq	r3, [r1], -lr, lsl #20
      f4:	21390b3b 	teqcs	r9, fp, lsr fp
      f8:	49192708 	ldmdbmi	r9, {r3, r8, r9, sl, sp}
      fc:	01193c13 	tsteq	r9, r3, lsl ip
     100:	11000013 	tstne	r0, r3, lsl r0
     104:	0e030005 	cdpeq	0, 0, cr0, cr3, cr5, {0}
     108:	3b01213a 	blcc	485f8 <__exidx_end+0x47584>
     10c:	1221390b 	eorne	r3, r1, #180224	@ 0x2c000
     110:	17021349 	strne	r1, [r2, -r9, asr #6]
     114:	001742b7 			@ <UNDEFINED> instruction: 0x001742b7
     118:	01481200 	mrseq	r1, (UNDEF: 104)
     11c:	137f017d 	cmnne	pc, #1073741855	@ 0x4000001f
     120:	34130000 	ldrcc	r0, [r3], #-0
     124:	3a0e0300 	bcc	380d2c <__exidx_end+0x37fcb8>
     128:	0b3b0121 	bleq	ec05b4 <__exidx_end+0xebf540>
     12c:	13490b39 	movtne	r0, #39737	@ 0x9b39
     130:	00001802 	andeq	r1, r0, r2, lsl #16
     134:	25011114 	strcs	r1, [r1, #-276]	@ 0xfffffeec
     138:	030b130e 	movweq	r1, #45838	@ 0xb30e
     13c:	550e1b0e 	strpl	r1, [lr, #-2830]	@ 0xfffff4f2
     140:	10011117 	andne	r1, r1, r7, lsl r1
     144:	15000017 	strne	r0, [r0, #-23]	@ 0xffffffe9
     148:	0b0b0024 	bleq	2c01e0 <__exidx_end+0x2bf16c>
     14c:	08030b3e 	stmdaeq	r3, {r1, r2, r3, r4, r5, r8, r9, fp}
     150:	35160000 	ldrcc	r0, [r6, #-0]
     154:	00134900 	andseq	r4, r3, r0, lsl #18
     158:	000f1700 	andeq	r1, pc, r0, lsl #14
     15c:	00000b0b 	andeq	r0, r0, fp, lsl #22
     160:	0b011318 	bleq	44dc8 <__exidx_end+0x43d54>
     164:	3b0b3a0b 	blcc	2ce998 <__exidx_end+0x2cd924>
     168:	010b390b 	tsteq	fp, fp, lsl #18
     16c:	19000013 	stmdbne	r0, {r0, r1, r4}
     170:	0e030016 	mcreq	0, 0, r0, cr3, cr6, {0}
     174:	0b3b0b3a 	bleq	ec2e64 <__exidx_end+0xec1df0>
     178:	00000b39 	andeq	r0, r0, r9, lsr fp
     17c:	0300161a 	movweq	r1, #1562	@ 0x61a
     180:	3b0b3a08 	blcc	2ce9a8 <__exidx_end+0x2cd934>
     184:	490b390b 	stmdbmi	fp, {r0, r1, r3, r8, fp, ip, sp}
     188:	1b000013 	blne	1dc <Task2+0xc>
     18c:	13490101 	movtne	r0, #37121	@ 0x9101
     190:	00001301 	andeq	r1, r0, r1, lsl #6
     194:	4900211c 	stmdbmi	r0, {r2, r3, r4, r8, sp}
     198:	000b2f13 	andeq	r2, fp, r3, lsl pc
     19c:	012e1d00 			@ <UNDEFINED> instruction: 0x012e1d00
     1a0:	0e03193f 			@ <UNDEFINED> instruction: 0x0e03193f
     1a4:	053b0b3a 	ldreq	r0, [fp, #-2874]!	@ 0xfffff4c6
     1a8:	19270b39 	stmdbne	r7!, {r0, r3, r4, r5, r8, r9, fp}
     1ac:	1301193c 	movwne	r1, #6460	@ 0x193c
     1b0:	2e1e0000 	cdpcs	0, 1, cr0, cr14, cr0, {0}
     1b4:	03193f01 	tsteq	r9, #1, 30
     1b8:	3b0b3a0e 	blcc	2ce9f8 <__exidx_end+0x2cd984>
     1bc:	270b3905 	strcs	r3, [fp, -r5, lsl #18]
     1c0:	3c134919 			@ <UNDEFINED> instruction: 0x3c134919
     1c4:	00130119 	andseq	r0, r3, r9, lsl r1
     1c8:	010b1f00 	tsteq	fp, r0, lsl #30
     1cc:	00001755 	andeq	r1, r0, r5, asr r7
     1d0:	03003420 	movweq	r3, #1056	@ 0x420
     1d4:	3b0b3a0e 	blcc	2cea14 <__exidx_end+0x2cd9a0>
     1d8:	490b390b 	stmdbmi	fp, {r0, r1, r3, r8, fp, ip, sp}
     1dc:	b7170213 			@ <UNDEFINED> instruction: 0xb7170213
     1e0:	00001742 	andeq	r1, r0, r2, asr #14
     1e4:	7d014821 	stcvc	8, cr4, [r1, #-132]	@ 0xffffff7c
     1e8:	19018201 	stmdbne	r1, {r0, r9, pc}
     1ec:	0000137f 	andeq	r1, r0, pc, ror r3
     1f0:	03000522 	movweq	r0, #1314	@ 0x522
     1f4:	3b0b3a08 	blcc	2cea1c <__exidx_end+0x2cd9a8>
     1f8:	490b390b 	stmdbmi	fp, {r0, r1, r3, r8, fp, ip, sp}
     1fc:	b7170213 			@ <UNDEFINED> instruction: 0xb7170213
     200:	00001742 	andeq	r1, r0, r2, asr #14
     204:	31011d23 	tstcc	r1, r3, lsr #26
     208:	b8015213 	stmdalt	r1, {r0, r1, r4, r9, ip, lr}
     20c:	17550b42 	ldrbne	r0, [r5, -r2, asr #22]
     210:	0b590b58 	bleq	1642f78 <__exidx_end+0x1641f04>
     214:	00000b57 	andeq	r0, r0, r7, asr fp
     218:	31000524 	tstcc	r0, r4, lsr #10
     21c:	b7170213 			@ <UNDEFINED> instruction: 0xb7170213
     220:	00001742 	andeq	r1, r0, r2, asr #14
     224:	3f012e25 	svccc	0x00012e25
     228:	3a0e0319 	bcc	380e94 <__exidx_end+0x37fe20>
     22c:	390b3b0b 	stmdbcc	fp, {r0, r1, r3, r8, r9, fp, ip, sp}
     230:	2019270b 	andscs	r2, r9, fp, lsl #14
     234:	0013010b 	andseq	r0, r3, fp, lsl #2
     238:	00052600 	andeq	r2, r5, r0, lsl #12
     23c:	0b3a0803 	bleq	e82250 <__exidx_end+0xe811dc>
     240:	0b390b3b 	bleq	e42f34 <__exidx_end+0xe41ec0>
     244:	00001349 	andeq	r1, r0, r9, asr #6
     248:	31012e27 	tstcc	r1, r7, lsr #28
     24c:	12011113 	andne	r1, r1, #-1073741820	@ 0xc0000004
     250:	7a184006 	bvc	610270 <__exidx_end+0x60f1fc>
     254:	28000019 	stmdacs	r0, {r0, r3, r4}
     258:	13310005 	teqne	r1, #5
     25c:	00001802 	andeq	r1, r0, r2, lsl #16
     260:	000d0100 	andeq	r0, sp, r0, lsl #2
     264:	0b3a0e03 	bleq	e83a78 <__exidx_end+0xe82a04>
     268:	0b390b3b 	bleq	e42f5c <__exidx_end+0xe41ee8>
     26c:	0b381349 	bleq	e04f98 <__exidx_end+0xe03f24>
     270:	49020000 	stmdbmi	r2, {}	@ <UNPREDICTABLE>
     274:	7e180200 	cdpvc	2, 1, cr0, cr8, cr0, {0}
     278:	03000018 	movweq	r0, #24
     27c:	13490005 	movtne	r0, #36869	@ 0x9005
     280:	16040000 	strne	r0, [r4], -r0
     284:	3a0e0300 	bcc	380e8c <__exidx_end+0x37fe18>
     288:	390b3b0b 	stmdbcc	fp, {r0, r1, r3, r8, r9, fp, ip, sp}
     28c:	0013490b 	andseq	r4, r3, fp, lsl #18
     290:	00240500 	eoreq	r0, r4, r0, lsl #10
     294:	0b3e0b0b 	bleq	f82ec8 <__exidx_end+0xf81e54>
     298:	00000e03 	andeq	r0, r0, r3, lsl #28
     29c:	0b000f06 	bleq	3ebc <__exidx_end+0x2e48>
     2a0:	13490421 	movtne	r0, #37921	@ 0x9421
     2a4:	48070000 	stmdami	r7, {}	@ <UNPREDICTABLE>
     2a8:	7f017d01 	svcvc	0x00017d01
     2ac:	00130113 	andseq	r0, r3, r3, lsl r1
     2b0:	00340800 	eorseq	r0, r4, r0, lsl #16
     2b4:	213a0e03 	teqcs	sl, r3, lsl #28
     2b8:	390b3b05 	stmdbcc	fp, {r0, r2, r8, r9, fp, ip, sp}
     2bc:	3f13490b 	svccc	0x0013490b
     2c0:	00193c19 	andseq	r3, r9, r9, lsl ip
     2c4:	00260900 	eoreq	r0, r6, r0, lsl #18
     2c8:	00001349 	andeq	r1, r0, r9, asr #6
     2cc:	0301130a 	movweq	r1, #4874	@ 0x130a
     2d0:	880b0b0e 	stmdahi	fp, {r1, r2, r3, r8, r9, fp}
     2d4:	3a042101 	bcc	1086e0 <__exidx_end+0x10766c>
     2d8:	0b3b0421 	bleq	ec1364 <__exidx_end+0xec02f0>
     2dc:	01082139 	tsteq	r8, r9, lsr r1
     2e0:	0b000013 	bleq	334 <kCoreSetInterruptPriority+0x18>
     2e4:	193f012e 	ldmdbne	pc!, {r1, r2, r3, r5, r8}	@ <UNPREDICTABLE>
     2e8:	0b3a0e03 	bleq	e83afc <__exidx_end+0xe82a88>
     2ec:	21390b3b 	teqcs	r9, fp, lsr fp
     2f0:	3c192706 	ldccc	7, cr2, [r9], {6}
     2f4:	00130119 	andseq	r0, r3, r9, lsl r1
     2f8:	000d0c00 	andeq	r0, sp, r0, lsl #24
     2fc:	0b3a0803 	bleq	e82310 <__exidx_end+0xe8129c>
     300:	0b390b3b 	bleq	e42ff4 <__exidx_end+0xe41f80>
     304:	0b381349 	bleq	e05030 <__exidx_end+0xe03fbc>
     308:	0d0d0000 	stceq	0, cr0, [sp, #-0]
     30c:	3a0e0300 	bcc	380f14 <__exidx_end+0x37fea0>
     310:	0b3b0421 	bleq	ec139c <__exidx_end+0xec0328>
     314:	13490b39 	movtne	r0, #39737	@ 0x9b39
     318:	04210188 	strteq	r0, [r1], #-392	@ 0xfffffe78
     31c:	00000b38 	andeq	r0, r0, r8, lsr fp
     320:	3f012e0e 	svccc	0x00012e0e
     324:	3a0e0319 	bcc	380f90 <__exidx_end+0x37ff1c>
     328:	390b3b0b 	stmdbcc	fp, {r0, r1, r3, r8, r9, fp, ip, sp}
     32c:	4919270b 	ldmdbmi	r9, {r0, r1, r3, r8, r9, sl, sp}
     330:	01193c13 	tsteq	r9, r3, lsl ip
     334:	0f000013 	svceq	0x00000013
     338:	0e250111 	mcreq	1, 1, r0, cr5, cr1, {0}
     33c:	0e030b13 	vmoveq.32	d3[0], r0
     340:	17550e1b 	smmlane	r5, fp, lr, r0
     344:	17100111 			@ <UNDEFINED> instruction: 0x17100111
     348:	24100000 	ldrcs	r0, [r0], #-0
     34c:	3e0b0b00 	vmlacc.f64	d0, d11, d0
     350:	0008030b 	andeq	r0, r8, fp, lsl #6
     354:	00351100 	eorseq	r1, r5, r0, lsl #2
     358:	00001349 	andeq	r1, r0, r9, asr #6
     35c:	0b000f12 	bleq	3fac <__exidx_end+0x2f38>
     360:	1300000b 	movwne	r0, #11
     364:	0b0b0113 	bleq	2c07b8 <__exidx_end+0x2bf744>
     368:	0b3b0b3a 	bleq	ec3058 <__exidx_end+0xec1fe4>
     36c:	13010b39 	movwne	r0, #6969	@ 0x1b39
     370:	16140000 	ldrne	r0, [r4], -r0
     374:	3a0e0300 	bcc	380f7c <__exidx_end+0x37ff08>
     378:	390b3b0b 	stmdbcc	fp, {r0, r1, r3, r8, r9, fp, ip, sp}
     37c:	1500000b 	strne	r0, [r0, #-11]
     380:	08030016 	stmdaeq	r3, {r1, r2, r4}
     384:	0b3b0b3a 	bleq	ec3074 <__exidx_end+0xec2000>
     388:	13490b39 	movtne	r0, #39737	@ 0x9b39
     38c:	15160000 	ldrne	r0, [r6, #-0]
     390:	01192701 	tsteq	r9, r1, lsl #14
     394:	17000013 	smladne	r0, r3, r0, r0
     398:	13490101 	movtne	r0, #37121	@ 0x9101
     39c:	00001301 	andeq	r1, r0, r1, lsl #6
     3a0:	49002118 	stmdbmi	r0, {r3, r4, r8, sp}
     3a4:	000b2f13 	andeq	r2, fp, r3, lsl pc
     3a8:	002e1900 	eoreq	r1, lr, r0, lsl #18
     3ac:	0e03193f 			@ <UNDEFINED> instruction: 0x0e03193f
     3b0:	0b3b0b3a 	bleq	ec30a0 <__exidx_end+0xec202c>
     3b4:	19270b39 	stmdbne	r7!, {r0, r3, r4, r5, r8, r9, fp}
     3b8:	0000193c 	andeq	r1, r0, ip, lsr r9
     3bc:	3f012e1a 	svccc	0x00012e1a
     3c0:	3a0e0319 	bcc	38102c <__exidx_end+0x37ffb8>
     3c4:	390b3b0b 	stmdbcc	fp, {r0, r1, r3, r8, r9, fp, ip, sp}
     3c8:	4919270b 	ldmdbmi	r9, {r0, r1, r3, r8, r9, sl, sp}
     3cc:	12011113 	andne	r1, r1, #-1073741820	@ 0xc0000004
     3d0:	7a184006 	bvc	6103f0 <__exidx_end+0x60f37c>
     3d4:	1b000019 	blne	440 <kMboxPost+0x8c>
     3d8:	017d0048 	cmneq	sp, r8, asr #32
     3dc:	0000137f 	andeq	r1, r0, pc, ror r3
     3e0:	00240100 	eoreq	r0, r4, r0, lsl #2
     3e4:	0b3e0b0b 	bleq	f83018 <__exidx_end+0xf81fa4>
     3e8:	00000e03 	andeq	r0, r0, r3, lsl #28
     3ec:	03003402 	movweq	r3, #1026	@ 0x402
     3f0:	01213a0e 			@ <UNDEFINED> instruction: 0x01213a0e
     3f4:	21390b3b 	teqcs	r9, fp, lsr fp
     3f8:	3f134911 	svccc	0x00134911
     3fc:	00193c19 	andseq	r3, r9, r9, lsl ip
     400:	002e0300 	eoreq	r0, lr, r0, lsl #6
     404:	0e03193f 			@ <UNDEFINED> instruction: 0x0e03193f
     408:	3b01213a 	blcc	488f8 <__exidx_end+0x47884>
     40c:	0621390b 	strteq	r3, [r1], -fp, lsl #18
     410:	193c1927 	ldmdbne	ip!, {r0, r1, r2, r5, r8, fp, ip}
     414:	16040000 	strne	r0, [r4], -r0
     418:	3a0e0300 	bcc	381020 <__exidx_end+0x37ffac>
     41c:	390b3b0b 	stmdbcc	fp, {r0, r1, r3, r8, r9, fp, ip, sp}
     420:	0013490b 	andseq	r4, r3, fp, lsl #18
     424:	00260500 	eoreq	r0, r6, r0, lsl #10
     428:	00001349 	andeq	r1, r0, r9, asr #6
     42c:	0b000f06 	bleq	404c <__exidx_end+0x2fd8>
     430:	13490421 	movtne	r0, #37921	@ 0x9421
     434:	34070000 	strcc	r0, [r7], #-0
     438:	3a0e0300 	bcc	381040 <__exidx_end+0x37ffcc>
     43c:	0b3b0121 	bleq	ec08c8 <__exidx_end+0xebf854>
     440:	13490b39 	movtne	r0, #39737	@ 0x9b39
     444:	48080000 	stmdami	r8, {}	@ <UNPREDICTABLE>
     448:	7f017d00 	svcvc	0x00017d00
     44c:	09000013 	stmdbeq	r0, {r0, r1, r4}
     450:	193f002e 	ldmdbne	pc!, {r1, r2, r3, r5}	@ <UNPREDICTABLE>
     454:	0e6e193c 			@ <UNDEFINED> instruction: 0x0e6e193c
     458:	213a0e03 	teqcs	sl, r3, lsl #28
     45c:	00213b04 	eoreq	r3, r1, r4, lsl #22
     460:	110a0000 	mrsne	r0, (UNDEF: 10)
     464:	130e2501 	movwne	r2, #58625	@ 0xe501
     468:	1b0e030b 	blne	38109c <__exidx_end+0x380028>
     46c:	1117550e 	tstne	r7, lr, lsl #10
     470:	00171001 	andseq	r1, r7, r1
     474:	00240b00 	eoreq	r0, r4, r0, lsl #22
     478:	0b3e0b0b 	bleq	f830ac <__exidx_end+0xf82038>
     47c:	00000803 	andeq	r0, r0, r3, lsl #16
     480:	4901010c 	stmdbmi	r1, {r2, r3, r8}
     484:	00130113 	andseq	r0, r3, r3, lsl r1
     488:	00210d00 	eoreq	r0, r1, r0, lsl #26
     48c:	0b2f1349 	bleq	bc51b8 <__exidx_end+0xbc4144>
     490:	150e0000 	strne	r0, [lr, #-0]
     494:	00192700 	andseq	r2, r9, r0, lsl #14
     498:	00340f00 	eorseq	r0, r4, r0, lsl #30
     49c:	0b3a0e03 	bleq	e83cb0 <__exidx_end+0xe82c3c>
     4a0:	0b390b3b 	bleq	e43194 <__exidx_end+0xe42120>
     4a4:	193f1349 	ldmdbne	pc!, {r0, r3, r6, r8, r9, ip}	@ <UNPREDICTABLE>
     4a8:	00001802 	andeq	r1, r0, r2, lsl #16
     4ac:	3f002e10 	svccc	0x00002e10
     4b0:	3a0e0319 	bcc	38111c <__exidx_end+0x3800a8>
     4b4:	390b3b0b 	stmdbcc	fp, {r0, r1, r3, r8, r9, fp, ip, sp}
     4b8:	4919270b 	ldmdbmi	r9, {r0, r1, r3, r8, r9, sl, sp}
     4bc:	00193c13 	andseq	r3, r9, r3, lsl ip
     4c0:	002e1100 	eoreq	r1, lr, r0, lsl #2
     4c4:	0e03193f 			@ <UNDEFINED> instruction: 0x0e03193f
     4c8:	0b3b0b3a 	bleq	ec31b8 <__exidx_end+0xec2144>
     4cc:	19270b39 	stmdbne	r7!, {r0, r3, r4, r5, r8, r9, fp}
     4d0:	06120111 			@ <UNDEFINED> instruction: 0x06120111
     4d4:	197a1840 	ldmdbne	sl!, {r6, fp, ip}^
     4d8:	2e120000 	cdpcs	0, 1, cr0, cr2, cr0, {0}
     4dc:	03193f01 	tsteq	r9, #1, 30
     4e0:	3b0b3a0e 	blcc	2ced20 <__exidx_end+0x2cdcac>
     4e4:	270b390b 	strcs	r3, [fp, -fp, lsl #18]
     4e8:	12011119 	andne	r1, r1, #1073741830	@ 0x40000006
     4ec:	7a184006 	bvc	61050c <__exidx_end+0x60f498>
     4f0:	00130119 	andseq	r0, r3, r9, lsl r1
     4f4:	01481300 	mrseq	r1, (UNDEF: 120)
     4f8:	137f017d 	cmnne	pc, #1073741855	@ 0x4000001f
     4fc:	00001301 	andeq	r1, r0, r1, lsl #6
     500:	02004914 	andeq	r4, r0, #20, 18	@ 0x50000
     504:	00187e18 	andseq	r7, r8, r8, lsl lr
     508:	002e1500 	eoreq	r1, lr, r0, lsl #10
     50c:	0e03193f 			@ <UNDEFINED> instruction: 0x0e03193f
     510:	0b3b0b3a 	bleq	ec3200 <__exidx_end+0xec218c>
     514:	19270b39 	stmdbne	r7!, {r0, r3, r4, r5, r8, r9, fp}
     518:	00000b20 	andeq	r0, r0, r0, lsr #22
     51c:	31002e16 	tstcc	r0, r6, lsl lr
     520:	12011113 	andne	r1, r1, #-1073741820	@ 0xc0000004
     524:	7a184006 	bvc	610544 <__exidx_end+0x60f4d0>
     528:	00000019 	andeq	r0, r0, r9, lsl r0
     52c:	03000d01 	movweq	r0, #3329	@ 0xd01
     530:	02213a0e 	eoreq	r3, r1, #57344	@ 0xe000
     534:	0b390b3b 	bleq	e43228 <__exidx_end+0xe421b4>
     538:	0b381349 	bleq	e05264 <__exidx_end+0xe041f0>
     53c:	05020000 	streq	r0, [r2, #-0]
     540:	3a0e0300 	bcc	381148 <__exidx_end+0x3800d4>
     544:	0b3b0121 	bleq	ec09d0 <__exidx_end+0xebf95c>
     548:	13490b39 	movtne	r0, #39737	@ 0x9b39
     54c:	42b71702 	adcsmi	r1, r7, #524288	@ 0x80000
     550:	03000017 	movweq	r0, #23
     554:	0e03000d 	cdpeq	0, 0, cr0, cr3, cr13, {0}
     558:	3b02213a 	blcc	88a48 <__exidx_end+0x879d4>
     55c:	490b390b 	stmdbmi	fp, {r0, r1, r3, r8, fp, ip, sp}
     560:	00053813 	andeq	r3, r5, r3, lsl r8
     564:	01010400 	tsteq	r1, r0, lsl #8
     568:	13011349 	movwne	r1, #4937	@ 0x1349
     56c:	35050000 	strcc	r0, [r5, #-0]
     570:	00134900 	andseq	r4, r3, r0, lsl #18
     574:	00210600 	eoreq	r0, r1, r0, lsl #12
     578:	0b2f1349 	bleq	bc52a4 <__exidx_end+0xbc4230>
     57c:	2e070000 	cdpcs	0, 0, cr0, cr7, cr0, {0}
     580:	03193f01 	tsteq	r9, #1, 30
     584:	01213a0e 			@ <UNDEFINED> instruction: 0x01213a0e
     588:	21390b3b 	teqcs	r9, fp, lsr fp
     58c:	11192706 	tstne	r9, r6, lsl #14
     590:	40061201 	andmi	r1, r6, r1, lsl #4
     594:	01197a18 	tsteq	r9, r8, lsl sl
     598:	08000013 	stmdaeq	r0, {r0, r1, r4}
     59c:	0803000d 	stmdaeq	r3, {r0, r2, r3}
     5a0:	3b02213a 	blcc	88a90 <__exidx_end+0x87a1c>
     5a4:	490b390b 	stmdbmi	fp, {r0, r1, r3, r8, fp, ip, sp}
     5a8:	000b3813 	andeq	r3, fp, r3, lsl r8
     5ac:	00160900 	andseq	r0, r6, r0, lsl #18
     5b0:	213a0e03 	teqcs	sl, r3, lsl #28
     5b4:	390b3b02 	stmdbcc	fp, {r1, r8, r9, fp, ip, sp}
     5b8:	13490321 	movtne	r0, #37665	@ 0x9321
     5bc:	2e0a0000 	cdpcs	0, 0, cr0, cr10, cr0, {0}
     5c0:	03193f00 	tsteq	r9, #0, 30
     5c4:	01213a0e 			@ <UNDEFINED> instruction: 0x01213a0e
     5c8:	21390b3b 	teqcs	r9, fp, lsr fp
     5cc:	11192706 	tstne	r9, r6, lsl #14
     5d0:	40061201 	andmi	r1, r6, r1, lsl #4
     5d4:	00197a18 	andseq	r7, r9, r8, lsl sl
     5d8:	012e0b00 			@ <UNDEFINED> instruction: 0x012e0b00
     5dc:	0e03193f 			@ <UNDEFINED> instruction: 0x0e03193f
     5e0:	3b01213a 	blcc	48ad0 <__exidx_end+0x47a5c>
     5e4:	0a21390b 	beq	84ea18 <__exidx_end+0x84d9a4>
     5e8:	13491927 	movtne	r1, #39207	@ 0x9927
     5ec:	06120111 			@ <UNDEFINED> instruction: 0x06120111
     5f0:	197a1840 	ldmdbne	sl!, {r6, fp, ip}^
     5f4:	00001301 	andeq	r1, r0, r1, lsl #6
     5f8:	0b01130c 	bleq	45230 <__exidx_end+0x441bc>
     5fc:	02213a0b 	eoreq	r3, r1, #45056	@ 0xb000
     600:	21390b3b 	teqcs	r9, fp, lsr fp
     604:	00130109 	andseq	r0, r3, r9, lsl #2
     608:	00240d00 	eoreq	r0, r4, r0, lsl #26
     60c:	0b3e0b0b 	bleq	f83240 <__exidx_end+0xf821cc>
     610:	00000e03 	andeq	r0, r0, r3, lsl #28
     614:	3f002e0e 	svccc	0x00002e0e
     618:	3a0e0319 	bcc	381284 <__exidx_end+0x380210>
     61c:	0b3b0121 	bleq	ec0aa8 <__exidx_end+0xebfa34>
     620:	270a2139 	smladxcs	sl, r9, r1, r2
     624:	11134919 	tstne	r3, r9, lsl r9
     628:	40061201 	andmi	r1, r6, r1, lsl #4
     62c:	00197a18 	andseq	r7, r9, r8, lsl sl
     630:	00340f00 	eorseq	r0, r4, r0, lsl #30
     634:	213a0e03 	teqcs	sl, r3, lsl #28
     638:	390b3b01 	stmdbcc	fp, {r0, r8, r9, fp, ip, sp}
     63c:	13490e21 	movtne	r0, #40481	@ 0x9e21
     640:	42b71702 	adcsmi	r1, r7, #524288	@ 0x80000
     644:	10000017 	andne	r0, r0, r7, lsl r0
     648:	0e250111 	mcreq	1, 1, r0, cr5, cr1, {0}
     64c:	0e030b13 	vmoveq.32	d3[0], r0
     650:	17550e1b 	smmlane	r5, fp, lr, r0
     654:	17100111 			@ <UNDEFINED> instruction: 0x17100111
     658:	13110000 	tstne	r1, #0
     65c:	3a050b01 	bcc	143268 <__exidx_end+0x1421f4>
     660:	390b3b0b 	stmdbcc	fp, {r0, r1, r3, r8, r9, fp, ip, sp}
     664:	0013010b 	andseq	r0, r3, fp, lsl #2
     668:	000d1200 	andeq	r1, sp, r0, lsl #4
     66c:	0b3a0803 	bleq	e82680 <__exidx_end+0xe8160c>
     670:	0b390b3b 	bleq	e43364 <__exidx_end+0xe422f0>
     674:	05381349 	ldreq	r1, [r8, #-841]!	@ 0xfffffcb7
     678:	21130000 	tstcs	r3, r0
     67c:	2f134900 	svccs	0x00134900
     680:	14000005 	strne	r0, [r0], #-5
     684:	0b0b0024 	bleq	2c071c <__exidx_end+0x2bf6a8>
     688:	08030b3e 	stmdaeq	r3, {r1, r2, r3, r4, r5, r8, r9, fp}
     68c:	2e150000 	cdpcs	0, 1, cr0, cr5, cr0, {0}
     690:	03193f01 	tsteq	r9, #1, 30
     694:	3b0b3a0e 	blcc	2ceed4 <__exidx_end+0x2cde60>
     698:	270b390b 	strcs	r3, [fp, -fp, lsl #18]
     69c:	11134919 	tstne	r3, r9, lsl r9
     6a0:	40061201 	andmi	r1, r6, r1, lsl #4
     6a4:	00197a18 	andseq	r7, r9, r8, lsl sl
     6a8:	0d010000 	stceq	0, cr0, [r1, #-0]
     6ac:	3a0e0300 	bcc	3812b4 <__exidx_end+0x380240>
     6b0:	390b3b0b 	stmdbcc	fp, {r0, r1, r3, r8, r9, fp, ip, sp}
     6b4:	3813490b 	ldmdacc	r3, {r0, r1, r3, r8, fp, lr}
     6b8:	0200000b 	andeq	r0, r0, #11
     6bc:	18020049 	stmdane	r2, {r0, r3, r6}
     6c0:	0000187e 	andeq	r1, r0, lr, ror r8
     6c4:	7d014803 	stcvc	8, cr4, [r1, #-12]
     6c8:	01137f01 	tsteq	r3, r1, lsl #30
     6cc:	04000013 	streq	r0, [r0], #-19	@ 0xffffffed
     6d0:	0e030016 	mcreq	0, 0, r0, cr3, cr6, {0}
     6d4:	0b3b0b3a 	bleq	ec33c4 <__exidx_end+0xec2350>
     6d8:	13490b39 	movtne	r0, #39737	@ 0x9b39
     6dc:	48050000 	stmdami	r5, {}	@ <UNPREDICTABLE>
     6e0:	7f017d00 	svcvc	0x00017d00
     6e4:	06000013 			@ <UNDEFINED> instruction: 0x06000013
     6e8:	210b000f 	tstcs	fp, pc
     6ec:	00134904 	andseq	r4, r3, r4, lsl #18
     6f0:	00050700 	andeq	r0, r5, r0, lsl #14
     6f4:	213a0e03 	teqcs	sl, r3, lsl #28
     6f8:	390b3b01 	stmdbcc	fp, {r0, r8, r9, fp, ip, sp}
     6fc:	0213490b 	andseq	r4, r3, #180224	@ 0x2c000
     700:	1742b717 	smlaldne	fp, r2, r7, r7
     704:	24080000 	strcs	r0, [r8], #-0
     708:	3e0b0b00 	vmlacc.f64	d0, d11, d0
     70c:	000e030b 	andeq	r0, lr, fp, lsl #6
     710:	00050900 	andeq	r0, r5, r0, lsl #18
     714:	00001349 	andeq	r1, r0, r9, asr #6
     718:	4900260a 	stmdbmi	r0, {r1, r3, r9, sl, sp}
     71c:	0b000013 	bleq	770 <kTCBQDeq+0x2c>
     720:	0803000d 	stmdaeq	r3, {r0, r2, r3}
     724:	0b3b0b3a 	bleq	ec3414 <__exidx_end+0xec23a0>
     728:	13490b39 	movtne	r0, #39737	@ 0x9b39
     72c:	00000b38 	andeq	r0, r0, r8, lsr fp
     730:	0301130c 	movweq	r1, #4876	@ 0x130c
     734:	880b0b0e 	stmdahi	fp, {r1, r2, r3, r8, r9, fp}
     738:	3a042101 	bcc	108b44 <__exidx_end+0x107ad0>
     73c:	0b3b0521 	bleq	ec1bc8 <__exidx_end+0xec0b54>
     740:	01082139 	tsteq	r8, r9, lsr r1
     744:	0d000013 	stceq	0, cr0, [r0, #-76]	@ 0xffffffb4
     748:	193f012e 	ldmdbne	pc!, {r1, r2, r3, r5, r8}	@ <UNPREDICTABLE>
     74c:	213a0e03 	teqcs	sl, r3, lsl #28
     750:	390b3b01 	stmdbcc	fp, {r0, r8, r9, fp, ip, sp}
     754:	19270821 	stmdbne	r7!, {r0, r5, fp}
     758:	01111349 	tsteq	r1, r9, asr #6
     75c:	18400612 	stmdane	r0, {r1, r4, r9, sl}^
     760:	1301197a 	movwne	r1, #6522	@ 0x197a
     764:	340e0000 	strcc	r0, [lr], #-0
     768:	3a0e0300 	bcc	381370 <__exidx_end+0x3802fc>
     76c:	0b3b0121 	bleq	ec0bf8 <__exidx_end+0xebfb84>
     770:	49052139 	stmdbmi	r5, {r0, r3, r4, r5, r8, sp}
     774:	b7170213 			@ <UNDEFINED> instruction: 0xb7170213
     778:	00001742 	andeq	r1, r0, r2, asr #14
     77c:	03000d0f 	movweq	r0, #3343	@ 0xd0f
     780:	05213a0e 	streq	r3, [r1, #-2574]!	@ 0xfffff5f2
     784:	0b390b3b 	bleq	e43478 <__exidx_end+0xe42404>
     788:	01881349 	orreq	r1, r8, r9, asr #6
     78c:	0b380421 	bleq	e01818 <__exidx_end+0xe007a4>
     790:	2e100000 	cdpcs	0, 1, cr0, cr0, cr0, {0}
     794:	03193f01 	tsteq	r9, #1, 30
     798:	3b0b3a0e 	blcc	2cefd8 <__exidx_end+0x2cdf64>
     79c:	270b390b 	strcs	r3, [fp, -fp, lsl #18]
     7a0:	3c134919 			@ <UNDEFINED> instruction: 0x3c134919
     7a4:	00130119 	andseq	r0, r3, r9, lsl r1
     7a8:	00351100 	eorseq	r1, r5, r0, lsl #2
     7ac:	00001349 	andeq	r1, r0, r9, asr #6
     7b0:	3f012e12 	svccc	0x00012e12
     7b4:	3a0e0319 	bcc	381420 <__exidx_end+0x3803ac>
     7b8:	390b3b0b 	stmdbcc	fp, {r0, r1, r3, r8, r9, fp, ip, sp}
     7bc:	19270621 	stmdbne	r7!, {r0, r5, r9, sl}
     7c0:	1301193c 	movwne	r1, #6460	@ 0x193c
     7c4:	05130000 	ldreq	r0, [r3, #-0]
     7c8:	3a0e0300 	bcc	3813d0 <__exidx_end+0x38035c>
     7cc:	053b0121 	ldreq	r0, [fp, #-289]!	@ 0xfffffedf
     7d0:	13490b39 	movtne	r0, #39737	@ 0x9b39
     7d4:	42b71702 	adcsmi	r1, r7, #524288	@ 0x80000
     7d8:	14000017 	strne	r0, [r0], #-23	@ 0xffffffe9
     7dc:	1331011d 	teqne	r1, #1073741831	@ 0x40000007
     7e0:	42b80152 	adcsmi	r0, r8, #-2147483628	@ 0x80000014
     7e4:	5817550b 	ldmdapl	r7, {r0, r1, r3, r8, sl, ip, lr}
     7e8:	0b590121 	bleq	1640c74 <__exidx_end+0x163fc00>
     7ec:	13010b57 	movwne	r0, #6999	@ 0x1b57
     7f0:	48150000 	ldmdami	r5, {}	@ <UNPREDICTABLE>
     7f4:	7f017d01 	svcvc	0x00017d01
     7f8:	16000013 			@ <UNDEFINED> instruction: 0x16000013
     7fc:	13490021 	movtne	r0, #36897	@ 0x9021
     800:	00000b2f 	andeq	r0, r0, pc, lsr #22
     804:	03003417 	movweq	r3, #1047	@ 0x417
     808:	02213a0e 	eoreq	r3, r1, #57344	@ 0xe000
     80c:	21390b3b 	teqcs	r9, fp, lsr fp
     810:	3f134910 	svccc	0x00134910
     814:	00193c19 	andseq	r3, r9, r9, lsl ip
     818:	012e1800 			@ <UNDEFINED> instruction: 0x012e1800
     81c:	0e03193f 			@ <UNDEFINED> instruction: 0x0e03193f
     820:	3b01213a 	blcc	48d10 <__exidx_end+0x47c9c>
     824:	270b3905 	strcs	r3, [fp, -r5, lsl #18]
     828:	11134919 	tstne	r3, r9, lsl r9
     82c:	40061201 	andmi	r1, r6, r1, lsl #4
     830:	01197a18 	tsteq	r9, r8, lsl sl
     834:	19000013 	stmdbne	r0, {r0, r1, r4}
     838:	0111010b 	tsteq	r1, fp, lsl #2
     83c:	13010612 	movwne	r0, #5650	@ 0x1612
     840:	0b1a0000 	bleq	680848 <__exidx_end+0x67f7d4>
     844:	00175501 	andseq	r5, r7, r1, lsl #10
     848:	00341b00 	eorseq	r1, r4, r0, lsl #22
     84c:	00001331 	andeq	r1, r0, r1, lsr r3
     850:	3100051c 	tstcc	r0, ip, lsl r5
     854:	b7170213 			@ <UNDEFINED> instruction: 0xb7170213
     858:	00001742 	andeq	r1, r0, r2, asr #14
     85c:	0300051d 	movweq	r0, #1309	@ 0x51d
     860:	02213a0e 	eoreq	r3, r1, #57344	@ 0xe000
     864:	0b390b3b 	bleq	e43558 <__exidx_end+0xe424e4>
     868:	00001349 	andeq	r1, r0, r9, asr #6
     86c:	2501111e 	strcs	r1, [r1, #-286]	@ 0xfffffee2
     870:	030b130e 	movweq	r1, #45838	@ 0xb30e
     874:	550e1b0e 	strpl	r1, [lr, #-2830]	@ 0xfffff4f2
     878:	10011117 	andne	r1, r1, r7, lsl r1
     87c:	1f000017 	svcne	0x00000017
     880:	0b0b0024 	bleq	2c0918 <__exidx_end+0x2bf8a4>
     884:	08030b3e 	stmdaeq	r3, {r1, r2, r3, r4, r5, r8, r9, fp}
     888:	0f200000 	svceq	0x00200000
     88c:	000b0b00 	andeq	r0, fp, r0, lsl #22
     890:	01132100 	tsteq	r3, r0, lsl #2
     894:	0b3a0b0b 	bleq	e834c8 <__exidx_end+0xe82454>
     898:	0b390b3b 	bleq	e4358c <__exidx_end+0xe42518>
     89c:	00001301 	andeq	r1, r0, r1, lsl #6
     8a0:	49010122 	stmdbmi	r1, {r1, r5, r8}
     8a4:	00130113 	andseq	r0, r3, r3, lsl r1
     8a8:	00162300 	andseq	r2, r6, r0, lsl #6
     8ac:	0b3a0803 	bleq	e828c0 <__exidx_end+0xe8184c>
     8b0:	0b390b3b 	bleq	e435a4 <__exidx_end+0xe42530>
     8b4:	00001349 	andeq	r1, r0, r9, asr #6
     8b8:	49010124 	stmdbmi	r1, {r2, r5, r8}
     8bc:	0b018813 	bleq	62910 <__exidx_end+0x6189c>
     8c0:	00001301 	andeq	r1, r0, r1, lsl #6
     8c4:	3f002e25 	svccc	0x00002e25
     8c8:	3a0e0319 	bcc	381534 <__exidx_end+0x3804c0>
     8cc:	390b3b0b 	stmdbcc	fp, {r0, r1, r3, r8, r9, fp, ip, sp}
     8d0:	4919270b 	ldmdbmi	r9, {r0, r1, r3, r8, r9, sl, sp}
     8d4:	00193c13 	andseq	r3, r9, r3, lsl ip
     8d8:	00342600 	eorseq	r2, r4, r0, lsl #12
     8dc:	0b3a0e03 	bleq	e840f0 <__exidx_end+0xe8307c>
     8e0:	0b39053b 	bleq	e41dd4 <__exidx_end+0xe40d60>
     8e4:	17021349 	strne	r1, [r2, -r9, asr #6]
     8e8:	001742b7 			@ <UNDEFINED> instruction: 0x001742b7
     8ec:	00342700 	eorseq	r2, r4, r0, lsl #14
     8f0:	0b3a0e03 	bleq	e84104 <__exidx_end+0xe83090>
     8f4:	0b39053b 	bleq	e41de8 <__exidx_end+0xe40d74>
     8f8:	18021349 	stmdane	r2, {r0, r3, r6, r8, r9, ip}
     8fc:	0b280000 	bleq	a00904 <__exidx_end+0x9ff890>
     900:	00130101 	andseq	r0, r3, r1, lsl #2
     904:	00342900 	eorseq	r2, r4, r0, lsl #18
     908:	0b3a0e03 	bleq	e8411c <__exidx_end+0xe830a8>
     90c:	0b390b3b 	bleq	e43600 <__exidx_end+0xe4258c>
     910:	00001349 	andeq	r1, r0, r9, asr #6
     914:	0300342a 	movweq	r3, #1066	@ 0x42a
     918:	3b0b3a0e 	blcc	2cf158 <__exidx_end+0x2ce0e4>
     91c:	490b390b 	stmdbmi	fp, {r0, r1, r3, r8, fp, ip, sp}
     920:	00180213 	andseq	r0, r8, r3, lsl r2
     924:	00342b00 	eorseq	r2, r4, r0, lsl #22
     928:	0b3a0e03 	bleq	e8413c <__exidx_end+0xe830c8>
     92c:	0b390b3b 	bleq	e43620 <__exidx_end+0xe425ac>
     930:	0b1c1349 	bleq	70565c <__exidx_end+0x7045e8>
     934:	2e2c0000 	cdpcs	0, 2, cr0, cr12, cr0, {0}
     938:	3a0e0301 	bcc	381544 <__exidx_end+0x3804d0>
     93c:	390b3b0b 	stmdbcc	fp, {r0, r1, r3, r8, r9, fp, ip, sp}
     940:	4919270b 	ldmdbmi	r9, {r0, r1, r3, r8, r9, sl, sp}
     944:	010b2013 	tsteq	fp, r3, lsl r0
     948:	2d000013 	stccs	0, cr0, [r0, #-76]	@ 0xffffffb4
     94c:	0e03012e 	adfeqsp	f0, f3, #0.5
     950:	053b0b3a 	ldreq	r0, [fp, #-2874]!	@ 0xfffff4c6
     954:	19270b39 	stmdbne	r7!, {r0, r3, r4, r5, r8, r9, fp}
     958:	0b201349 	bleq	805684 <__exidx_end+0x804610>
     95c:	342e0000 	strtcc	r0, [lr], #-0
     960:	3a0e0300 	bcc	381568 <__exidx_end+0x3804f4>
     964:	39053b0b 	stmdbcc	r5, {r0, r1, r3, r8, r9, fp, ip, sp}
     968:	0013490b 	andseq	r4, r3, fp, lsl #18
     96c:	0d010000 	stceq	0, cr0, [r1, #-0]
     970:	3a0e0300 	bcc	381578 <__exidx_end+0x380504>
     974:	390b3b0b 	stmdbcc	fp, {r0, r1, r3, r8, r9, fp, ip, sp}
     978:	3813490b 	ldmdacc	r3, {r0, r1, r3, r8, fp, lr}
     97c:	0200000b 	andeq	r0, r0, #11
     980:	18020049 	stmdane	r2, {r0, r3, r6}
     984:	0000187e 	andeq	r1, r0, lr, ror r8
     988:	03001603 	movweq	r1, #1539	@ 0x603
     98c:	3b0b3a0e 	blcc	2cf1cc <__exidx_end+0x2ce158>
     990:	490b390b 	stmdbmi	fp, {r0, r1, r3, r8, fp, ip, sp}
     994:	04000013 	streq	r0, [r0], #-19	@ 0xffffffed
     998:	13310005 	teqne	r1, #5
     99c:	42b71702 	adcsmi	r1, r7, #524288	@ 0x80000
     9a0:	05000017 	streq	r0, [r0, #-23]	@ 0xffffffe9
     9a4:	210b000f 	tstcs	fp, pc
     9a8:	00134904 	andseq	r4, r3, r4, lsl #18
     9ac:	00480600 	subeq	r0, r8, r0, lsl #12
     9b0:	137f017d 	cmnne	pc, #1073741855	@ 0x4000001f
     9b4:	48070000 	stmdami	r7, {}	@ <UNPREDICTABLE>
     9b8:	7f017d01 	svcvc	0x00017d01
     9bc:	00130113 	andseq	r0, r3, r3, lsl r1
     9c0:	01480800 	cmpeq	r8, r0, lsl #16
     9c4:	137f017d 	cmnne	pc, #1073741855	@ 0x4000001f
     9c8:	05090000 	streq	r0, [r9, #-0]
     9cc:	3a0e0300 	bcc	3815d4 <__exidx_end+0x380560>
     9d0:	0b3b0121 	bleq	ec0e5c <__exidx_end+0xebfde8>
     9d4:	13490b39 	movtne	r0, #39737	@ 0x9b39
     9d8:	42b71702 	adcsmi	r1, r7, #524288	@ 0x80000
     9dc:	0a000017 	beq	a40 <kInit+0x30>
     9e0:	0e030034 	mcreq	0, 0, r0, cr3, cr4, {1}
     9e4:	0b3b0b3a 	bleq	ec36d4 <__exidx_end+0xec2660>
     9e8:	13490b39 	movtne	r0, #39737	@ 0x9b39
     9ec:	193c193f 	ldmdbne	ip!, {r0, r1, r2, r3, r4, r5, r8, fp, ip}
     9f0:	260b0000 	strcs	r0, [fp], -r0
     9f4:	00134900 	andseq	r4, r3, r0, lsl #18
     9f8:	00340c00 	eorseq	r0, r4, r0, lsl #24
     9fc:	213a0e03 	teqcs	sl, r3, lsl #28
     a00:	390b3b01 	stmdbcc	fp, {r0, r8, r9, fp, ip, sp}
     a04:	0213490b 	andseq	r4, r3, #180224	@ 0x2c000
     a08:	1742b717 	smlaldne	fp, r2, r7, r7
     a0c:	240d0000 	strcs	r0, [sp], #-0
     a10:	3e0b0b00 	vmlacc.f64	d0, d11, d0
     a14:	000e030b 	andeq	r0, lr, fp, lsl #6
     a18:	00050e00 	andeq	r0, r5, r0, lsl #28
     a1c:	213a0e03 	teqcs	sl, r3, lsl #28
     a20:	39053b01 	stmdbcc	r5, {r0, r8, r9, fp, ip, sp}
     a24:	0213490b 	andseq	r4, r3, #180224	@ 0x2c000
     a28:	1742b717 	smlaldne	fp, r2, r7, r7
     a2c:	050f0000 	streq	r0, [pc, #-0]	@ a34 <kInit+0x24>
     a30:	3a0e0300 	bcc	381638 <__exidx_end+0x3805c4>
     a34:	0b3b0221 	bleq	ec12c0 <__exidx_end+0xec024c>
     a38:	13490b39 	movtne	r0, #39737	@ 0x9b39
     a3c:	2e100000 	cdpcs	0, 1, cr0, cr0, cr0, {0}
     a40:	03193f01 	tsteq	r9, #1, 30
     a44:	01213a0e 			@ <UNDEFINED> instruction: 0x01213a0e
     a48:	0b390b3b 	bleq	e4373c <__exidx_end+0xe426c8>
     a4c:	13491927 	movtne	r1, #39207	@ 0x9927
     a50:	06120111 			@ <UNDEFINED> instruction: 0x06120111
     a54:	197a1840 	ldmdbne	sl!, {r6, fp, ip}^
     a58:	00001301 	andeq	r1, r0, r1, lsl #6
     a5c:	49003511 	stmdbmi	r0, {r0, r4, r8, sl, ip, sp}
     a60:	12000013 	andne	r0, r0, #19
     a64:	13470034 	movtne	r0, #28724	@ 0x7034
     a68:	3b01213a 	blcc	48f58 <__exidx_end+0x47ee4>
     a6c:	020b390b 	andeq	r3, fp, #180224	@ 0x2c000
     a70:	13000018 	movwne	r0, #24
     a74:	13310034 	teqne	r1, #52	@ 0x34
     a78:	42b71702 	adcsmi	r1, r7, #524288	@ 0x80000
     a7c:	14000017 	strne	r0, [r0], #-23	@ 0xffffffe9
     a80:	0e030113 	mcreq	1, 0, r0, cr3, cr3, {0}
     a84:	01880b0b 	orreq	r0, r8, fp, lsl #22
     a88:	213a0421 	teqcs	sl, r1, lsr #8
     a8c:	390b3b08 	stmdbcc	fp, {r3, r8, r9, fp, ip, sp}
     a90:	13010821 	movwne	r0, #6177	@ 0x1821
     a94:	34150000 	ldrcc	r0, [r5], #-0
     a98:	3a0e0300 	bcc	3816a0 <__exidx_end+0x38062c>
     a9c:	053b0121 	ldreq	r0, [fp, #-289]!	@ 0xfffffedf
     aa0:	13490b39 	movtne	r0, #39737	@ 0x9b39
     aa4:	42b71702 	adcsmi	r1, r7, #524288	@ 0x80000
     aa8:	16000017 			@ <UNDEFINED> instruction: 0x16000017
     aac:	0803000d 	stmdaeq	r3, {r0, r2, r3}
     ab0:	0b3b0b3a 	bleq	ec37a0 <__exidx_end+0xec272c>
     ab4:	13490b39 	movtne	r0, #39737	@ 0x9b39
     ab8:	00000b38 	andeq	r0, r0, r8, lsr fp
     abc:	49000517 	stmdbmi	r0, {r0, r1, r2, r4, r8, sl}
     ac0:	18000013 	stmdane	r0, {r0, r1, r4}
     ac4:	0e030034 	mcreq	0, 0, r0, cr3, cr4, {1}
     ac8:	3b01213a 	blcc	48fb8 <__exidx_end+0x47f44>
     acc:	490b390b 	stmdbmi	fp, {r0, r1, r3, r8, fp, ip, sp}
     ad0:	00180213 	andseq	r0, r8, r3, lsl r2
     ad4:	00051900 	andeq	r1, r5, r0, lsl #18
     ad8:	0b3a0e03 	bleq	e842ec <__exidx_end+0xe83278>
     adc:	0b39053b 	bleq	e41fd0 <__exidx_end+0xe40f5c>
     ae0:	00001349 	andeq	r1, r0, r9, asr #6
     ae4:	0300341a 	movweq	r3, #1050	@ 0x41a
     ae8:	01213a08 			@ <UNDEFINED> instruction: 0x01213a08
     aec:	21390b3b 	teqcs	r9, fp, lsr fp
     af0:	0213490c 	andseq	r4, r3, #12, 18	@ 0x30000
     af4:	1742b717 	smlaldne	fp, r2, r7, r7
     af8:	2e1b0000 	cdpcs	0, 1, cr0, cr11, cr0, {0}
     afc:	3a0e0301 	bcc	381708 <__exidx_end+0x380694>
     b00:	0b3b0221 	bleq	ec138c <__exidx_end+0xec0318>
     b04:	19270b39 	stmdbne	r7!, {r0, r3, r4, r5, r8, r9, fp}
     b08:	21201349 			@ <UNDEFINED> instruction: 0x21201349
     b0c:	00130103 	andseq	r0, r3, r3, lsl #2
     b10:	00211c00 	eoreq	r1, r1, r0, lsl #24
     b14:	0b2f1349 	bleq	bc5840 <__exidx_end+0xbc47cc>
     b18:	0d1d0000 	ldceq	0, cr0, [sp, #-0]
     b1c:	3a0e0300 	bcc	381724 <__exidx_end+0x3806b0>
     b20:	0b3b0821 	bleq	ec2bac <__exidx_end+0xec1b38>
     b24:	13490b39 	movtne	r0, #39737	@ 0x9b39
     b28:	04210188 	strteq	r0, [r1], #-392	@ 0xfffffe78
     b2c:	00000b38 	andeq	r0, r0, r8, lsr fp
     b30:	0300341e 	movweq	r3, #1054	@ 0x41e
     b34:	3b0b3a0e 	blcc	2cf374 <__exidx_end+0x2ce300>
     b38:	490b3905 	stmdbmi	fp, {r0, r2, r8, fp, ip, sp}
     b3c:	1f000013 	svcne	0x00000013
     b40:	1331011d 	teqne	r1, #1073741831	@ 0x40000007
     b44:	42b80152 	adcsmi	r0, r8, #-2147483628	@ 0x80000014
     b48:	5817550b 	ldmdapl	r7, {r0, r1, r3, r8, sl, ip, lr}
     b4c:	0b590121 	bleq	1640fd8 <__exidx_end+0x163ff64>
     b50:	13010b57 	movwne	r0, #6999	@ 0x1b57
     b54:	34200000 	strtcc	r0, [r0], #-0
     b58:	3a134700 	bcc	4d2760 <__exidx_end+0x4d16ec>
     b5c:	053b0121 	ldreq	r0, [fp, #-289]!	@ 0xfffffedf
     b60:	021b2139 	andseq	r2, fp, #1073741838	@ 0x4000000e
     b64:	21000018 	tstcs	r0, r8, lsl r0
     b68:	193f012e 	ldmdbne	pc!, {r1, r2, r3, r5, r8}	@ <UNPREDICTABLE>
     b6c:	0b3a0e03 	bleq	e84380 <__exidx_end+0xe8330c>
     b70:	21390b3b 	teqcs	r9, fp, lsr fp
     b74:	3c192706 	ldccc	7, cr2, [r9], {6}
     b78:	00130119 	andseq	r0, r3, r9, lsl r1
     b7c:	00342200 	eorseq	r2, r4, r0, lsl #4
     b80:	213a0803 	teqcs	sl, r3, lsl #16
     b84:	39053b01 	stmdbcc	r5, {r0, r8, r9, fp, ip, sp}
     b88:	0213490b 	andseq	r4, r3, #180224	@ 0x2c000
     b8c:	1742b717 	smlaldne	fp, r2, r7, r7
     b90:	2e230000 	cdpcs	0, 2, cr0, cr3, cr0, {0}
     b94:	3a0e0300 	bcc	38179c <__exidx_end+0x380728>
     b98:	39053b0b 	stmdbcc	r5, {r0, r1, r3, r8, r9, fp, ip, sp}
     b9c:	2019270b 	andscs	r2, r9, fp, lsl #14
     ba0:	2400000b 	strcs	r0, [r0], #-11
     ba4:	193f012e 	ldmdbne	pc!, {r1, r2, r3, r5, r8}	@ <UNPREDICTABLE>
     ba8:	213a0e03 	teqcs	sl, r3, lsl #28
     bac:	39053b01 	stmdbcc	r5, {r0, r8, r9, fp, ip, sp}
     bb0:	19270621 	stmdbne	r7!, {r0, r5, r9, sl}
     bb4:	06120111 			@ <UNDEFINED> instruction: 0x06120111
     bb8:	197a1840 	ldmdbne	sl!, {r6, fp, ip}^
     bbc:	00001301 	andeq	r1, r0, r1, lsl #6
     bc0:	03012e25 	movweq	r2, #7717	@ 0x1e25
     bc4:	3b0b3a0e 	blcc	2cf404 <__exidx_end+0x2ce390>
     bc8:	270b3905 	strcs	r3, [fp, -r5, lsl #18]
     bcc:	20134919 	andscs	r4, r3, r9, lsl r9
     bd0:	0013010b 	andseq	r0, r3, fp, lsl #2
     bd4:	011d2600 	tsteq	sp, r0, lsl #12
     bd8:	01521331 	cmpeq	r2, r1, lsr r3
     bdc:	110b42b8 			@ <UNDEFINED> instruction: 0x110b42b8
     be0:	58061201 	stmdapl	r6, {r0, r9, ip}
     be4:	05590121 	ldrbeq	r0, [r9, #-289]	@ 0xfffffedf
     be8:	00000b57 	andeq	r0, r0, r7, asr fp
     bec:	49010127 	stmdbmi	r1, {r0, r1, r2, r5, r8}
     bf0:	00130113 	andseq	r0, r3, r3, lsl r1
     bf4:	01012800 	tsteq	r1, r0, lsl #16
     bf8:	01881349 	orreq	r1, r8, r9, asr #6
     bfc:	13010421 	movwne	r0, #5153	@ 0x1421
     c00:	34290000 	strtcc	r0, [r9], #-0
     c04:	3a0e0300 	bcc	38180c <__exidx_end+0x380798>
     c08:	390b3b0b 	stmdbcc	fp, {r0, r1, r3, r8, r9, fp, ip, sp}
     c0c:	0013490b 	andseq	r4, r3, fp, lsl #18
     c10:	00342a00 	eorseq	r2, r4, r0, lsl #20
     c14:	213a0e03 	teqcs	sl, r3, lsl #28
     c18:	39053b01 	stmdbcc	r5, {r0, r8, r9, fp, ip, sp}
     c1c:	0213490b 	andseq	r4, r3, #180224	@ 0x2c000
     c20:	2b000018 	blcs	c88 <TimerHandlerTask+0x14>
     c24:	193f002e 	ldmdbne	pc!, {r1, r2, r3, r5}	@ <UNPREDICTABLE>
     c28:	0b3a0e03 	bleq	e8443c <__exidx_end+0xe833c8>
     c2c:	0b390b3b 	bleq	e43920 <__exidx_end+0xe428ac>
     c30:	13491927 	movtne	r1, #39207	@ 0x9927
     c34:	0000193c 	andeq	r1, r0, ip, lsr r9
     c38:	3f012e2c 	svccc	0x00012e2c
     c3c:	3a0e0319 	bcc	3818a8 <__exidx_end+0x380834>
     c40:	053b0121 	ldreq	r0, [fp, #-289]!	@ 0xfffffedf
     c44:	19270b39 	stmdbne	r7!, {r0, r3, r4, r5, r8, r9, fp}
     c48:	01111349 	tsteq	r1, r9, asr #6
     c4c:	18400612 	stmdane	r0, {r1, r4, r9, sl}^
     c50:	1301197a 	movwne	r1, #6522	@ 0x197a
     c54:	0b2d0000 	bleq	b40c5c <__exidx_end+0xb3fbe8>
     c58:	01175501 	tsteq	r7, r1, lsl #10
     c5c:	2e000013 	mcrcs	0, 0, r0, cr0, cr3, {0}
     c60:	0111010b 	tsteq	r1, fp, lsl #2
     c64:	13010612 	movwne	r0, #5650	@ 0x1612
     c68:	0b2f0000 	bleq	bc0c70 <__exidx_end+0xbbfbfc>
     c6c:	00175501 	andseq	r5, r7, r1, lsl #10
     c70:	001d3000 	andseq	r3, sp, r0
     c74:	01521331 	cmpeq	r2, r1, lsr r3
     c78:	110b42b8 			@ <UNDEFINED> instruction: 0x110b42b8
     c7c:	58061201 	stmdapl	r6, {r0, r9, ip}
     c80:	05590121 	ldrbeq	r0, [r9, #-289]	@ 0xfffffedf
     c84:	00000b57 	andeq	r0, r0, r7, asr fp
     c88:	03003431 	movweq	r3, #1073	@ 0x431
     c8c:	01213a08 			@ <UNDEFINED> instruction: 0x01213a08
     c90:	0b39053b 	bleq	e42184 <__exidx_end+0xe41110>
     c94:	00001349 	andeq	r1, r0, r9, asr #6
     c98:	00010b32 	andeq	r0, r1, r2, lsr fp
     c9c:	00053300 	andeq	r3, r5, r0, lsl #6
     ca0:	213a0e03 	teqcs	sl, r3, lsl #28
     ca4:	39053b01 	stmdbcc	r5, {r0, r8, r9, fp, ip, sp}
     ca8:	13491421 	movtne	r1, #37921	@ 0x9421
     cac:	00001802 	andeq	r1, r0, r2, lsl #16
     cb0:	3f002e34 	svccc	0x00002e34
     cb4:	3a0e0319 	bcc	381920 <__exidx_end+0x3808ac>
     cb8:	0b3b0121 	bleq	ec1144 <__exidx_end+0xec00d0>
     cbc:	27062139 	smladxcs	r6, r9, r1, r2
     cc0:	11134919 	tstne	r3, r9, lsl r9
     cc4:	40061201 	andmi	r1, r6, r1, lsl #4
     cc8:	00197a18 	andseq	r7, r9, r8, lsl sl
     ccc:	012e3500 			@ <UNDEFINED> instruction: 0x012e3500
     cd0:	01111331 	tsteq	r1, r1, lsr r3
     cd4:	18400612 	stmdane	r0, {r1, r4, r9, sl}^
     cd8:	1301197a 	movwne	r1, #6522	@ 0x197a
     cdc:	34360000 	ldrtcc	r0, [r6], #-0
     ce0:	00133100 	andseq	r3, r3, r0, lsl #2
     ce4:	01113700 	tsteq	r1, r0, lsl #14
     ce8:	0b130e25 	bleq	4c4584 <__exidx_end+0x4c3510>
     cec:	0e1b0e03 	cdpeq	14, 1, cr0, cr11, cr3, {0}
     cf0:	01111755 	tsteq	r1, r5, asr r7
     cf4:	00001710 	andeq	r1, r0, r0, lsl r7
     cf8:	0b002438 	bleq	9de0 <__exidx_end+0x8d6c>
     cfc:	030b3e0b 	movweq	r3, #48651	@ 0xbe0b
     d00:	39000008 	stmdbcc	r0, {r3}
     d04:	0b0b000f 	bleq	2c0d48 <__exidx_end+0x2bfcd4>
     d08:	133a0000 	teqne	sl, #0
     d0c:	3a0b0b01 	bcc	2c3918 <__exidx_end+0x2c28a4>
     d10:	390b3b0b 	stmdbcc	fp, {r0, r1, r3, r8, r9, fp, ip, sp}
     d14:	0013010b 	andseq	r0, r3, fp, lsl #2
     d18:	00163b00 	andseq	r3, r6, r0, lsl #22
     d1c:	0b3a0e03 	bleq	e84530 <__exidx_end+0xe834bc>
     d20:	0b390b3b 	bleq	e43a14 <__exidx_end+0xe429a0>
     d24:	163c0000 	ldrtne	r0, [ip], -r0
     d28:	3a080300 	bcc	201930 <__exidx_end+0x2008bc>
     d2c:	390b3b0b 	stmdbcc	fp, {r0, r1, r3, r8, r9, fp, ip, sp}
     d30:	0013490b 	andseq	r4, r3, fp, lsl #18
     d34:	01153d00 	tsteq	r5, r0, lsl #26
     d38:	13011927 	movwne	r1, #6439	@ 0x1927
     d3c:	133e0000 	teqne	lr, #0
     d40:	0b0e0301 	bleq	38194c <__exidx_end+0x3808d8>
     d44:	3b0b3a0b 	blcc	2cf578 <__exidx_end+0x2ce504>
     d48:	010b390b 	tsteq	fp, fp, lsl #18
     d4c:	3f000013 	svccc	0x00000013
     d50:	0e030034 	mcreq	0, 0, r0, cr3, cr4, {1}
     d54:	0b3b0b3a 	bleq	ec3a44 <__exidx_end+0xec29d0>
     d58:	13490b39 	movtne	r0, #39737	@ 0x9b39
     d5c:	00000b1c 	andeq	r0, r0, ip, lsl fp
     d60:	03003440 	movweq	r3, #1088	@ 0x440
     d64:	3b0b3a0e 	blcc	2cf5a4 <__exidx_end+0x2ce530>
     d68:	490b3905 	stmdbmi	fp, {r0, r2, r8, fp, ip, sp}
     d6c:	02193f13 	andseq	r3, r9, #19, 30	@ 0x4c
     d70:	41000018 	tstmi	r0, r8, lsl r0
     d74:	193f012e 	ldmdbne	pc!, {r1, r2, r3, r5, r8}	@ <UNPREDICTABLE>
     d78:	0b3a0e03 	bleq	e8458c <__exidx_end+0xe83518>
     d7c:	0b390b3b 	bleq	e43a70 <__exidx_end+0xe429fc>
     d80:	13491927 	movtne	r1, #39207	@ 0x9927
     d84:	1301193c 	movwne	r1, #6460	@ 0x193c
     d88:	2e420000 	cdpcs	0, 4, cr0, cr2, cr0, {0}
     d8c:	03193f00 	tsteq	r9, #0, 30
     d90:	3b0b3a0e 	blcc	2cf5d0 <__exidx_end+0x2ce55c>
     d94:	270b390b 	strcs	r3, [fp, -fp, lsl #18]
     d98:	00193c19 	andseq	r3, r9, r9, lsl ip
     d9c:	012e4300 			@ <UNDEFINED> instruction: 0x012e4300
     da0:	0b3a0e03 	bleq	e845b4 <__exidx_end+0xe83540>
     da4:	0b39053b 	bleq	e42298 <__exidx_end+0xe41224>
     da8:	0b201349 	bleq	805ad4 <__exidx_end+0x804a60>
     dac:	00001301 	andeq	r1, r0, r1, lsl #6
     db0:	31011d44 	tstcc	r1, r4, asr #26
     db4:	58175513 	ldmdapl	r7, {r0, r1, r4, r8, sl, ip, lr}
     db8:	5705590b 	strpl	r5, [r5, -fp, lsl #18]
     dbc:	0013010b 	andseq	r0, r3, fp, lsl #2
     dc0:	010b4500 	tsteq	fp, r0, lsl #10
     dc4:	17551331 	smmlarne	r5, r1, r3, r1
     dc8:	00001301 	andeq	r1, r0, r1, lsl #6
     dcc:	31001d46 	tstcc	r0, r6, asr #26
     dd0:	b8015213 	stmdalt	r1, {r0, r1, r4, r9, ip, lr}
     dd4:	17550b42 	ldrbne	r0, [r5, -r2, asr #22]
     dd8:	05590b58 	ldrbeq	r0, [r9, #-2904]	@ 0xfffff4a8
     ddc:	00000b57 	andeq	r0, r0, r7, asr fp
     de0:	3f012e47 	svccc	0x00012e47
     de4:	3a0e0319 	bcc	381a50 <__exidx_end+0x3809dc>
     de8:	39053b0b 	stmdbcc	r5, {r0, r1, r3, r8, r9, fp, ip, sp}
     dec:	4919270b 	ldmdbmi	r9, {r0, r1, r3, r8, r9, sl, sp}
     df0:	010b2013 	tsteq	fp, r3, lsl r0
     df4:	48000013 	stmdami	r0, {r0, r1, r4}
     df8:	0e03012e 	adfeqsp	f0, f3, #0.5
     dfc:	053b0b3a 	ldreq	r0, [fp, #-2874]!	@ 0xfffff4c6
     e00:	19270b39 	stmdbne	r7!, {r0, r3, r4, r5, r8, r9, fp}
     e04:	01111349 	tsteq	r1, r9, asr #6
     e08:	18400612 	stmdane	r0, {r1, r4, r9, sl}^
     e0c:	1301197a 	movwne	r1, #6522	@ 0x197a
     e10:	1d490000 	stclne	0, cr0, [r9, #-0]
     e14:	52133101 	andspl	r3, r3, #1073741824	@ 0x40000000
     e18:	0b42b801 	bleq	10aee24 <__exidx_end+0x10addb0>
     e1c:	0b581755 	bleq	1606b78 <__exidx_end+0x1605b04>
     e20:	0b570559 	bleq	15c238c <__exidx_end+0x15c1318>
     e24:	0b4a0000 	bleq	1280e2c <__exidx_end+0x127fdb8>
     e28:	55133101 	ldrpl	r3, [r3, #-257]	@ 0xfffffeff
     e2c:	4b000017 	blmi	e90 <kSleepUntil+0x40>
     e30:	017d0148 	cmneq	sp, r8, asr #2
     e34:	7f190182 	svcvc	0x00190182
     e38:	00130113 	andseq	r0, r3, r3, lsl r1
     e3c:	011d4c00 	tsteq	sp, r0, lsl #24
     e40:	01521331 	cmpeq	r2, r1, lsr r3
     e44:	550b42b8 	strpl	r4, [fp, #-696]	@ 0xfffffd48
     e48:	590b5817 	stmdbpl	fp, {r0, r1, r2, r4, fp, ip, lr}
     e4c:	000b570b 	andeq	r5, fp, fp, lsl #14
     e50:	011d4d00 	tsteq	sp, r0, lsl #26
     e54:	01521331 	cmpeq	r2, r1, lsr r3
     e58:	110b42b8 			@ <UNDEFINED> instruction: 0x110b42b8
     e5c:	58061201 	stmdapl	r6, {r0, r9, ip}
     e60:	570b590b 	strpl	r5, [fp, -fp, lsl #18]
     e64:	0013010b 	andseq	r0, r3, fp, lsl #2
     e68:	012e4e00 			@ <UNDEFINED> instruction: 0x012e4e00
     e6c:	0e03193f 			@ <UNDEFINED> instruction: 0x0e03193f
     e70:	0b3b0b3a 	bleq	ec3b60 <__exidx_end+0xec2aec>
     e74:	19270b39 	stmdbne	r7!, {r0, r3, r4, r5, r8, r9, fp}
     e78:	06120111 			@ <UNDEFINED> instruction: 0x06120111
     e7c:	197a1840 	ldmdbne	sl!, {r6, fp, ip}^
     e80:	00001301 	andeq	r1, r0, r1, lsl #6
     e84:	7d01484f 	stcvc	8, cr4, [r1, #-316]	@ 0xfffffec4
     e88:	19018201 	stmdbne	r1, {r0, r9, pc}
     e8c:	0000137f 	andeq	r1, r0, pc, ror r3
     e90:	03012e50 	movweq	r2, #7760	@ 0x1e50
     e94:	3b0b3a0e 	blcc	2cf6d4 <__exidx_end+0x2ce660>
     e98:	270b3905 	strcs	r3, [fp, -r5, lsl #18]
     e9c:	010b2019 	tsteq	fp, r9, lsl r0
     ea0:	51000013 	tstpl	r0, r3, lsl r0
     ea4:	1331011d 	teqne	r1, #1073741831	@ 0x40000007
     ea8:	42b80152 	adcsmi	r0, r8, #-2147483628	@ 0x80000014
     eac:	1201110b 	andne	r1, r1, #-1073741822	@ 0xc0000002
     eb0:	590b5806 	stmdbpl	fp, {r1, r2, fp, ip, lr}
     eb4:	010b5705 	tsteq	fp, r5, lsl #14
     eb8:	52000013 	andpl	r0, r0, #19
     ebc:	1331012e 	teqne	r1, #-2147483637	@ 0x8000000b
     ec0:	06120111 			@ <UNDEFINED> instruction: 0x06120111
     ec4:	197a1840 	ldmdbne	sl!, {r6, fp, ip}^
     ec8:	01000000 	mrseq	r0, (UNDEF: 0)
     ecc:	0e03000d 	cdpeq	0, 0, cr0, cr3, cr13, {0}
     ed0:	0b3b0b3a 	bleq	ec3bc0 <__exidx_end+0xec2b4c>
     ed4:	13490b39 	movtne	r0, #39737	@ 0x9b39
     ed8:	00000b38 	andeq	r0, r0, r8, lsr fp
     edc:	03001602 	movweq	r1, #1538	@ 0x602
     ee0:	3b0b3a0e 	blcc	2cf720 <__exidx_end+0x2ce6ac>
     ee4:	490b390b 	stmdbmi	fp, {r0, r1, r3, r8, fp, ip, sp}
     ee8:	03000013 	movweq	r0, #19
     eec:	0b0b0024 	bleq	2c0f84 <__exidx_end+0x2bff10>
     ef0:	0e030b3e 	vmoveq.16	d3[0], r0
     ef4:	0f040000 	svceq	0x00040000
     ef8:	04210b00 	strteq	r0, [r1], #-2816	@ 0xfffff500
     efc:	00001349 	andeq	r1, r0, r9, asr #6
     f00:	49000505 	stmdbmi	r0, {r0, r2, r8, sl}
     f04:	06000013 			@ <UNDEFINED> instruction: 0x06000013
     f08:	0803000d 	stmdaeq	r3, {r0, r2, r3}
     f0c:	0b3b0b3a 	bleq	ec3bfc <__exidx_end+0xec2b88>
     f10:	13490b39 	movtne	r0, #39737	@ 0x9b39
     f14:	00000b38 	andeq	r0, r0, r8, lsr fp
     f18:	49003507 	stmdbmi	r0, {r0, r1, r2, r8, sl, ip, sp}
     f1c:	08000013 	stmdaeq	r0, {r0, r1, r4}
     f20:	0e030113 	mcreq	1, 0, r0, cr3, cr3, {0}
     f24:	01880b0b 	orreq	r0, r8, fp, lsl #22
     f28:	213a0421 	teqcs	sl, r1, lsr #8
     f2c:	390b3b05 	stmdbcc	fp, {r0, r2, r8, r9, fp, ip, sp}
     f30:	13010821 	movwne	r0, #6177	@ 0x1821
     f34:	34090000 	strcc	r0, [r9], #-0
     f38:	3a0e0300 	bcc	381b40 <__exidx_end+0x380acc>
     f3c:	390b3b0b 	stmdbcc	fp, {r0, r1, r3, r8, r9, fp, ip, sp}
     f40:	3f13490b 	svccc	0x0013490b
     f44:	00193c19 	andseq	r3, r9, r9, lsl ip
     f48:	000d0a00 	andeq	r0, sp, r0, lsl #20
     f4c:	213a0e03 	teqcs	sl, r3, lsl #28
     f50:	390b3b05 	stmdbcc	fp, {r0, r2, r8, r9, fp, ip, sp}
     f54:	8813490b 	ldmdahi	r3, {r0, r1, r3, r8, fp, lr}
     f58:	38042101 	stmdacc	r4, {r0, r8, sp}
     f5c:	0b00000b 	bleq	f90 <kHandleTimeoutList+0x28>
     f60:	0e030034 	mcreq	0, 0, r0, cr3, cr4, {1}
     f64:	3b01213a 	blcc	49454 <__exidx_end+0x483e0>
     f68:	490b390b 	stmdbmi	fp, {r0, r1, r3, r8, fp, ip, sp}
     f6c:	b7170213 			@ <UNDEFINED> instruction: 0xb7170213
     f70:	00001742 	andeq	r1, r0, r2, asr #14
     f74:	0200490c 	andeq	r4, r0, #12, 18	@ 0x30000
     f78:	00187e18 	andseq	r7, r8, r8, lsl lr
     f7c:	00480d00 	subeq	r0, r8, r0, lsl #26
     f80:	137f017d 	cmnne	pc, #1073741855	@ 0x4000001f
     f84:	130e0000 	movwne	r0, #57344	@ 0xe000
     f88:	3a0b0b01 	bcc	2c3b94 <__exidx_end+0x2c2b20>
     f8c:	0b3b0321 	bleq	ec1c18 <__exidx_end+0xec0ba4>
     f90:	01092139 	tsteq	r9, r9, lsr r1
     f94:	0f000013 	svceq	0x00000013
     f98:	13490101 	movtne	r0, #37121	@ 0x9101
     f9c:	00001301 	andeq	r1, r0, r1, lsl #6
     fa0:	49002110 	stmdbmi	r0, {r4, r8, sp}
     fa4:	000b2f13 	andeq	r2, fp, r3, lsl pc
     fa8:	00341100 	eorseq	r1, r4, r0, lsl #2
     fac:	213a1347 	teqcs	sl, r7, asr #6
     fb0:	390b3b01 	stmdbcc	fp, {r0, r8, r9, fp, ip, sp}
     fb4:	18020521 	stmdane	r2, {r0, r5, r8, sl}
     fb8:	2e120000 	cdpcs	0, 1, cr0, cr2, cr0, {0}
     fbc:	03193f01 	tsteq	r9, #1, 30
     fc0:	3b0b3a0e 	blcc	2cf800 <__exidx_end+0x2ce78c>
     fc4:	0621390b 	strteq	r3, [r1], -fp, lsl #18
     fc8:	193c1927 	ldmdbne	ip!, {r0, r1, r2, r5, r8, fp, ip}
     fcc:	00001301 	andeq	r1, r0, r1, lsl #6
     fd0:	7d014813 	stcvc	8, cr4, [r1, #-76]	@ 0xffffffb4
     fd4:	00137f01 	andseq	r7, r3, r1, lsl #30
     fd8:	001d1400 	andseq	r1, sp, r0, lsl #8
     fdc:	01521331 	cmpeq	r2, r1, lsr r3
     fe0:	110b42b8 			@ <UNDEFINED> instruction: 0x110b42b8
     fe4:	58061201 	stmdapl	r6, {r0, r9, ip}
     fe8:	0b590121 	bleq	1641474 <__exidx_end+0x1640400>
     fec:	00092157 	andeq	r2, r9, r7, asr r1
     ff0:	002e1500 	eoreq	r1, lr, r0, lsl #10
     ff4:	213a0e03 	teqcs	sl, r3, lsl #28
     ff8:	39053b02 	stmdbcc	r5, {r1, r8, r9, fp, ip, sp}
     ffc:	19271b21 	stmdbne	r7!, {r0, r5, r8, r9, fp, ip}
    1000:	00032120 	andeq	r2, r3, r0, lsr #2
    1004:	01111600 	tsteq	r1, r0, lsl #12
    1008:	0b130e25 	bleq	4c48a4 <__exidx_end+0x4c3830>
    100c:	0e1b0e03 	cdpeq	14, 1, cr0, cr11, cr3, {0}
    1010:	01111755 	tsteq	r1, r5, asr r7
    1014:	00001710 	andeq	r1, r0, r0, lsl r7
    1018:	0b002417 	bleq	a07c <__exidx_end+0x9008>
    101c:	030b3e0b 	movweq	r3, #48651	@ 0xbe0b
    1020:	18000008 	stmdane	r0, {r3}
    1024:	0b0b000f 	bleq	2c1068 <__exidx_end+0x2bfff4>
    1028:	16190000 	ldrne	r0, [r9], -r0
    102c:	3a0e0300 	bcc	381c34 <__exidx_end+0x380bc0>
    1030:	390b3b0b 	stmdbcc	fp, {r0, r1, r3, r8, r9, fp, ip, sp}
    1034:	1a00000b 	bne	1068 <KVERSION>
    1038:	08030016 	stmdaeq	r3, {r1, r2, r4}
    103c:	0b3b0b3a 	bleq	ec3d2c <__exidx_end+0xec2cb8>
    1040:	13490b39 	movtne	r0, #39737	@ 0x9b39
    1044:	151b0000 	ldrne	r0, [fp, #-0]
    1048:	01192701 	tsteq	r9, r1, lsl #14
    104c:	1c000013 	stcne	0, cr0, [r0], {19}
    1050:	13470034 	movtne	r0, #28724	@ 0x7034
    1054:	0b390b3a 	bleq	e43d44 <__exidx_end+0xe42cd0>
    1058:	00001802 	andeq	r1, r0, r2, lsl #16
    105c:	3f012e1d 	svccc	0x00012e1d
    1060:	3a0e0319 	bcc	381ccc <__exidx_end+0x380c58>
    1064:	390b3b0b 	stmdbcc	fp, {r0, r1, r3, r8, r9, fp, ip, sp}
    1068:	4919270b 	ldmdbmi	r9, {r0, r1, r3, r8, r9, sl, sp}
    106c:	01193c13 	tsteq	r9, r3, lsl ip
    1070:	1e000013 	mcrne	0, 0, r0, cr0, cr3, {0}
    1074:	193f002e 	ldmdbne	pc!, {r1, r2, r3, r5}	@ <UNPREDICTABLE>
    1078:	0b3a0e03 	bleq	e8488c <__exidx_end+0xe83818>
    107c:	0b390b3b 	bleq	e43d70 <__exidx_end+0xe42cfc>
    1080:	13491927 	movtne	r1, #39207	@ 0x9927
    1084:	0000193c 	andeq	r1, r0, ip, lsr r9
    1088:	3f012e1f 	svccc	0x00012e1f
    108c:	3a0e0319 	bcc	381cf8 <__exidx_end+0x380c84>
    1090:	390b3b0b 	stmdbcc	fp, {r0, r1, r3, r8, r9, fp, ip, sp}
    1094:	1119270b 	tstne	r9, fp, lsl #14
    1098:	40061201 	andmi	r1, r6, r1, lsl #4
    109c:	01197c18 	tsteq	r9, r8, lsl ip
    10a0:	20000013 	andcs	r0, r0, r3, lsl r0
    10a4:	0e030005 	cdpeq	0, 0, cr0, cr3, cr5, {0}
    10a8:	0b3b0b3a 	bleq	ec3d98 <__exidx_end+0xec2d24>
    10ac:	13490b39 	movtne	r0, #39737	@ 0x9b39
    10b0:	42b71702 	adcsmi	r1, r7, #524288	@ 0x80000
    10b4:	21000017 	tstcs	r0, r7, lsl r0
    10b8:	1755010b 	ldrbne	r0, [r5, -fp, lsl #2]
    10bc:	0b220000 	bleq	8810c4 <__exidx_end+0x880050>
    10c0:	01175501 	tsteq	r7, r1, lsl #10
    10c4:	23000013 	movwcs	r0, #19
    10c8:	0111010b 	tsteq	r1, fp, lsl #2
    10cc:	13010612 	movwne	r0, #5650	@ 0x1612
    10d0:	48240000 	stmdami	r4!, {}	@ <UNPREDICTABLE>
    10d4:	7f017d01 	svcvc	0x00017d01
    10d8:	00130113 	andseq	r0, r3, r3, lsl r1
    10dc:	012e2500 			@ <UNDEFINED> instruction: 0x012e2500
    10e0:	0e03193f 			@ <UNDEFINED> instruction: 0x0e03193f
    10e4:	0b3b0b3a 	bleq	ec3dd4 <__exidx_end+0xec2d60>
    10e8:	19270b39 	stmdbne	r7!, {r0, r3, r4, r5, r8, r9, fp}
    10ec:	06120111 			@ <UNDEFINED> instruction: 0x06120111
    10f0:	197a1840 	ldmdbne	sl!, {r6, fp, ip}^
    10f4:	00001301 	andeq	r1, r0, r1, lsl #6
    10f8:	03000526 	movweq	r0, #1318	@ 0x526
    10fc:	3b0b3a0e 	blcc	2cf93c <__exidx_end+0x2ce8c8>
    1100:	490b390b 	stmdbmi	fp, {r0, r1, r3, r8, fp, ip, sp}
    1104:	00180213 	andseq	r0, r8, r3, lsl r2
    1108:	0d010000 	stceq	0, cr0, [r1, #-0]
    110c:	3a0e0300 	bcc	381d14 <__exidx_end+0x380ca0>
    1110:	390b3b0b 	stmdbcc	fp, {r0, r1, r3, r8, r9, fp, ip, sp}
    1114:	3813490b 	ldmdacc	r3, {r0, r1, r3, r8, fp, lr}
    1118:	0200000b 	andeq	r0, r0, #11
    111c:	0e030016 	mcreq	0, 0, r0, cr3, cr6, {0}
    1120:	0b3b0b3a 	bleq	ec3e10 <__exidx_end+0xec2d9c>
    1124:	13490b39 	movtne	r0, #39737	@ 0x9b39
    1128:	0f030000 	svceq	0x00030000
    112c:	04210b00 	strteq	r0, [r1], #-2816	@ 0xfffff500
    1130:	00001349 	andeq	r1, r0, r9, asr #6
    1134:	0b002404 	bleq	a14c <__exidx_end+0x90d8>
    1138:	030b3e0b 	movweq	r3, #48651	@ 0xbe0b
    113c:	0500000e 	streq	r0, [r0, #-14]
    1140:	18020049 	stmdane	r2, {r0, r3, r6}
    1144:	0000187e 	andeq	r1, r0, lr, ror r8
    1148:	03000506 	movweq	r0, #1286	@ 0x506
    114c:	01213a0e 			@ <UNDEFINED> instruction: 0x01213a0e
    1150:	0b390b3b 	bleq	e43e44 <__exidx_end+0xe42dd0>
    1154:	17021349 	strne	r1, [r2, -r9, asr #6]
    1158:	001742b7 			@ <UNDEFINED> instruction: 0x001742b7
    115c:	00340700 	eorseq	r0, r4, r0, lsl #14
    1160:	213a0e03 	teqcs	sl, r3, lsl #28
    1164:	390b3b01 	stmdbcc	fp, {r0, r8, r9, fp, ip, sp}
    1168:	0213490b 	andseq	r4, r3, #180224	@ 0x2c000
    116c:	1742b717 	smlaldne	fp, r2, r7, r7
    1170:	26080000 	strcs	r0, [r8], -r0
    1174:	00134900 	andseq	r4, r3, r0, lsl #18
    1178:	00050900 	andeq	r0, r5, r0, lsl #18
    117c:	00001349 	andeq	r1, r0, r9, asr #6
    1180:	0301130a 	movweq	r1, #4874	@ 0x130a
    1184:	880b0b0e 	stmdahi	fp, {r1, r2, r3, r8, r9, fp}
    1188:	3a042101 	bcc	109594 <__exidx_end+0x108520>
    118c:	0b3b0421 	bleq	ec2218 <__exidx_end+0xec11a4>
    1190:	01082139 	tsteq	r8, r9, lsr r1
    1194:	0b000013 	bleq	11e8 <__exidx_end+0x174>
    1198:	0e030034 	mcreq	0, 0, r0, cr3, cr4, {1}
    119c:	0b3b0b3a 	bleq	ec3e8c <__exidx_end+0xec2e18>
    11a0:	13490b39 	movtne	r0, #39737	@ 0x9b39
    11a4:	193c193f 	ldmdbne	ip!, {r0, r1, r2, r3, r4, r5, r8, fp, ip}
    11a8:	480c0000 	stmdami	ip, {}	@ <UNPREDICTABLE>
    11ac:	7f017d00 	svcvc	0x00017d00
    11b0:	0d000013 	stceq	0, cr0, [r0, #-76]	@ 0xffffffb4
    11b4:	13310005 	teqne	r1, #5
    11b8:	42b71702 	adcsmi	r1, r7, #524288	@ 0x80000
    11bc:	0e000017 	mcreq	0, 0, r0, cr0, cr7, {0}
    11c0:	0e030005 	cdpeq	0, 0, cr0, cr3, cr5, {0}
    11c4:	3b01213a 	blcc	496b4 <__exidx_end+0x48640>
    11c8:	490b390b 	stmdbmi	fp, {r0, r1, r3, r8, fp, ip, sp}
    11cc:	0f000013 	svceq	0x00000013
    11d0:	0803000d 	stmdaeq	r3, {r0, r2, r3}
    11d4:	0b3b0b3a 	bleq	ec3ec4 <__exidx_end+0xec2e50>
    11d8:	13490b39 	movtne	r0, #39737	@ 0x9b39
    11dc:	00000b38 	andeq	r0, r0, r8, lsr fp
    11e0:	49003510 	stmdbmi	r0, {r4, r8, sl, ip, sp}
    11e4:	11000013 	tstne	r0, r3, lsl r0
    11e8:	0e03000d 	cdpeq	0, 0, cr0, cr3, cr13, {0}
    11ec:	3b04213a 	blcc	1096dc <__exidx_end+0x108668>
    11f0:	490b390b 	stmdbmi	fp, {r0, r1, r3, r8, fp, ip, sp}
    11f4:	21018813 	tstcs	r1, r3, lsl r8
    11f8:	000b3804 	andeq	r3, fp, r4, lsl #16
    11fc:	01481200 	mrseq	r1, (UNDEF: 104)
    1200:	137f017d 	cmnne	pc, #1073741855	@ 0x4000001f
    1204:	00001301 	andeq	r1, r0, r1, lsl #6
    1208:	3f012e13 	svccc	0x00012e13
    120c:	3a0e0319 	bcc	381e78 <__exidx_end+0x380e04>
    1210:	0b3b0121 	bleq	ec169c <__exidx_end+0xec0628>
    1214:	27082139 	smladxcs	r8, r9, r1, r2
    1218:	11134919 	tstne	r3, r9, lsl r9
    121c:	40061201 	andmi	r1, r6, r1, lsl #4
    1220:	01197a18 	tsteq	r9, r8, lsl sl
    1224:	14000013 	strne	r0, [r0], #-19	@ 0xffffffed
    1228:	017d0148 	cmneq	sp, r8, asr #2
    122c:	0000137f 	andeq	r1, r0, pc, ror r3
    1230:	3f012e15 	svccc	0x00012e15
    1234:	3a0e0319 	bcc	381ea0 <__exidx_end+0x380e2c>
    1238:	0b3b0121 	bleq	ec16c4 <__exidx_end+0xec0650>
    123c:	27062139 	smladxcs	r6, r9, r1, r2
    1240:	12011119 	andne	r1, r1, #1073741830	@ 0x40000006
    1244:	7a184006 	bvc	611264 <__exidx_end+0x6101f0>
    1248:	00130119 	andseq	r0, r3, r9, lsl r1
    124c:	00211600 	eoreq	r1, r1, r0, lsl #12
    1250:	0b2f1349 	bleq	bc5f7c <__exidx_end+0xbc4f08>
    1254:	34170000 	ldrcc	r0, [r7], #-0
    1258:	3a0e0300 	bcc	381e60 <__exidx_end+0x380dec>
    125c:	053b0121 	ldreq	r0, [fp, #-289]!	@ 0xfffffedf
    1260:	13490b39 	movtne	r0, #39737	@ 0x9b39
    1264:	00001802 	andeq	r1, r0, r2, lsl #16
    1268:	3f012e18 	svccc	0x00012e18
    126c:	3a0e0319 	bcc	381ed8 <__exidx_end+0x380e64>
    1270:	0b3b0521 	bleq	ec26fc <__exidx_end+0xec1688>
    1274:	27082139 	smladxcs	r8, r9, r1, r2
    1278:	3c134919 			@ <UNDEFINED> instruction: 0x3c134919
    127c:	00130119 	andseq	r0, r3, r9, lsl r1
    1280:	012e1900 			@ <UNDEFINED> instruction: 0x012e1900
    1284:	0e03193f 			@ <UNDEFINED> instruction: 0x0e03193f
    1288:	3b01213a 	blcc	49778 <__exidx_end+0x48704>
    128c:	270b3905 	strcs	r3, [fp, -r5, lsl #18]
    1290:	11134919 	tstne	r3, r9, lsl r9
    1294:	40061201 	andmi	r1, r6, r1, lsl #4
    1298:	01197a18 	tsteq	r9, r8, lsl sl
    129c:	1a000013 	bne	12f0 <__exidx_end+0x27c>
    12a0:	08030034 	stmdaeq	r3, {r2, r4, r5}
    12a4:	3b01213a 	blcc	49794 <__exidx_end+0x48720>
    12a8:	490b3905 	stmdbmi	fp, {r0, r2, r8, fp, ip, sp}
    12ac:	b7170213 			@ <UNDEFINED> instruction: 0xb7170213
    12b0:	00001742 	andeq	r1, r0, r2, asr #14
    12b4:	55010b1b 	strpl	r0, [r1, #-2843]	@ 0xfffff4e5
    12b8:	00130117 	andseq	r0, r3, r7, lsl r1
    12bc:	00051c00 	andeq	r1, r5, r0, lsl #24
    12c0:	213a0e03 	teqcs	sl, r3, lsl #28
    12c4:	390b3b01 	stmdbcc	fp, {r0, r8, r9, fp, ip, sp}
    12c8:	0213490b 	andseq	r4, r3, #180224	@ 0x2c000
    12cc:	1d000018 	stcne	0, cr0, [r0, #-96]	@ 0xffffffa0
    12d0:	0e250111 	mcreq	1, 1, r0, cr5, cr1, {0}
    12d4:	0e030b13 	vmoveq.32	d3[0], r0
    12d8:	17550e1b 	smmlane	r5, fp, lr, r0
    12dc:	17100111 			@ <UNDEFINED> instruction: 0x17100111
    12e0:	241e0000 	ldrcs	r0, [lr], #-0
    12e4:	3e0b0b00 	vmlacc.f64	d0, d11, d0
    12e8:	0008030b 	andeq	r0, r8, fp, lsl #6
    12ec:	000f1f00 	andeq	r1, pc, r0, lsl #30
    12f0:	00000b0b 	andeq	r0, r0, fp, lsl #22
    12f4:	0b011320 	bleq	45f7c <__exidx_end+0x44f08>
    12f8:	3b0b3a0b 	blcc	2cfb2c <__exidx_end+0x2ceab8>
    12fc:	010b390b 	tsteq	fp, fp, lsl #18
    1300:	21000013 	tstcs	r0, r3, lsl r0
    1304:	13490101 	movtne	r0, #37121	@ 0x9101
    1308:	00001301 	andeq	r1, r0, r1, lsl #6
    130c:	03001622 	movweq	r1, #1570	@ 0x622
    1310:	3b0b3a08 	blcc	2cfb38 <__exidx_end+0x2ceac4>
    1314:	490b390b 	stmdbmi	fp, {r0, r1, r3, r8, fp, ip, sp}
    1318:	23000013 	movwcs	r0, #19
    131c:	19270115 	stmdbne	r7!, {r0, r2, r4, r8}
    1320:	00001301 	andeq	r1, r0, r1, lsl #6
    1324:	49010124 	stmdbmi	r1, {r2, r5, r8}
    1328:	0b018813 	bleq	6337c <__exidx_end+0x62308>
    132c:	00001301 	andeq	r1, r0, r1, lsl #6
    1330:	47003425 	strmi	r3, [r0, -r5, lsr #8]
    1334:	3b0b3a13 	blcc	2cfb88 <__exidx_end+0x2ceb14>
    1338:	020b390b 	andeq	r3, fp, #180224	@ 0x2c000
    133c:	26000018 			@ <UNDEFINED> instruction: 0x26000018
    1340:	193f012e 	ldmdbne	pc!, {r1, r2, r3, r5, r8}	@ <UNPREDICTABLE>
    1344:	0b3a0e03 	bleq	e84b58 <__exidx_end+0xe83ae4>
    1348:	0b390b3b 	bleq	e4403c <__exidx_end+0xe42fc8>
    134c:	193c1927 	ldmdbne	ip!, {r0, r1, r2, r5, r8, fp, ip}
    1350:	00001301 	andeq	r1, r0, r1, lsl #6
    1354:	3f002e27 	svccc	0x00002e27
    1358:	3a0e0319 	bcc	381fc4 <__exidx_end+0x380f50>
    135c:	390b3b0b 	stmdbcc	fp, {r0, r1, r3, r8, r9, fp, ip, sp}
    1360:	4919270b 	ldmdbmi	r9, {r0, r1, r3, r8, r9, sl, sp}
    1364:	00193c13 	andseq	r3, r9, r3, lsl ip
    1368:	012e2800 			@ <UNDEFINED> instruction: 0x012e2800
    136c:	0e03193f 			@ <UNDEFINED> instruction: 0x0e03193f
    1370:	053b0b3a 	ldreq	r0, [fp, #-2874]!	@ 0xfffff4c6
    1374:	19270b39 	stmdbne	r7!, {r0, r3, r4, r5, r8, r9, fp}
    1378:	06120111 			@ <UNDEFINED> instruction: 0x06120111
    137c:	197a1840 	ldmdbne	sl!, {r6, fp, ip}^
    1380:	00001301 	andeq	r1, r0, r1, lsl #6
    1384:	03000529 	movweq	r0, #1321	@ 0x529
    1388:	3b0b3a0e 	blcc	2cfbc8 <__exidx_end+0x2ceb54>
    138c:	490b3905 	stmdbmi	fp, {r0, r2, r8, fp, ip, sp}
    1390:	00180213 	andseq	r0, r8, r3, lsl r2
    1394:	00052a00 	andeq	r2, r5, r0, lsl #20
    1398:	0b3a0e03 	bleq	e84bac <__exidx_end+0xe83b38>
    139c:	0b39053b 	bleq	e42890 <__exidx_end+0xe4181c>
    13a0:	17021349 	strne	r1, [r2, -r9, asr #6]
    13a4:	001742b7 			@ <UNDEFINED> instruction: 0x001742b7
    13a8:	010b2b00 	tsteq	fp, r0, lsl #22
    13ac:	00001755 	andeq	r1, r0, r5, asr r7
    13b0:	0300342c 	movweq	r3, #1068	@ 0x42c
    13b4:	3b0b3a08 	blcc	2cfbdc <__exidx_end+0x2ceb68>
    13b8:	490b390b 	stmdbmi	fp, {r0, r1, r3, r8, fp, ip, sp}
    13bc:	b7170213 			@ <UNDEFINED> instruction: 0xb7170213
    13c0:	00001742 	andeq	r1, r0, r2, asr #14
    13c4:	03000a2d 	movweq	r0, #2605	@ 0xa2d
    13c8:	3b0b3a0e 	blcc	2cfc08 <__exidx_end+0x2ceb94>
    13cc:	110b390b 	tstne	fp, fp, lsl #18
    13d0:	2e000001 	cdpcs	0, 0, cr0, cr0, cr1, {0}
    13d4:	1331001d 	teqne	r1, #29
    13d8:	42b80152 	adcsmi	r0, r8, #-2147483628	@ 0x80000014
    13dc:	5817550b 	ldmdapl	r7, {r0, r1, r3, r8, sl, ip, lr}
    13e0:	570b590b 	strpl	r5, [fp, -fp, lsl #18]
    13e4:	2f00000b 	svccs	0x0000000b
    13e8:	017d0048 	cmneq	sp, r8, asr #32
    13ec:	7f190182 	svcvc	0x00190182
    13f0:	30000013 	andcc	r0, r0, r3, lsl r0
    13f4:	1331011d 	teqne	r1, #1073741831	@ 0x40000007
    13f8:	42b80152 	adcsmi	r0, r8, #-2147483628	@ 0x80000014
    13fc:	5817550b 	ldmdapl	r7, {r0, r1, r3, r8, sl, ip, lr}
    1400:	570b590b 	strpl	r5, [fp, -fp, lsl #18]
    1404:	0013010b 	andseq	r0, r3, fp, lsl #2
    1408:	012e3100 			@ <UNDEFINED> instruction: 0x012e3100
    140c:	0b3a0e03 	bleq	e84c20 <__exidx_end+0xe83bac>
    1410:	0b390b3b 	bleq	e44104 <__exidx_end+0xe43090>
    1414:	0b201927 	bleq	8078b8 <__exidx_end+0x806844>
    1418:	00001301 	andeq	r1, r0, r1, lsl #6
    141c:	3f002e32 	svccc	0x00002e32
    1420:	3a0e0319 	bcc	38208c <__exidx_end+0x381018>
    1424:	390b3b0b 	stmdbcc	fp, {r0, r1, r3, r8, r9, fp, ip, sp}
    1428:	4919270b 	ldmdbmi	r9, {r0, r1, r3, r8, r9, sl, sp}
    142c:	000b2013 	andeq	r2, fp, r3, lsl r0
    1430:	002e3300 	eoreq	r3, lr, r0, lsl #6
    1434:	01111331 	tsteq	r1, r1, lsr r3
    1438:	18400612 	stmdane	r0, {r1, r4, r9, sl}^
    143c:	0000197a 	andeq	r1, r0, sl, ror r9
    1440:	000d0100 	andeq	r0, sp, r0, lsl #2
    1444:	213a0e03 	teqcs	sl, r3, lsl #28
    1448:	390b3b02 	stmdbcc	fp, {r1, r8, r9, fp, ip, sp}
    144c:	13491321 	movtne	r1, #37665	@ 0x9321
    1450:	00000b38 	andeq	r0, r0, r8, lsr fp
    1454:	0b002402 	bleq	a464 <__exidx_end+0x93f0>
    1458:	030b3e0b 	movweq	r3, #48651	@ 0xbe0b
    145c:	0300000e 	movweq	r0, #14
    1460:	0e250111 	mcreq	1, 1, r0, cr5, cr1, {0}
    1464:	0e030b13 	vmoveq.32	d3[0], r0
    1468:	17550e1b 	smmlane	r5, fp, lr, r0
    146c:	17100111 			@ <UNDEFINED> instruction: 0x17100111
    1470:	13040000 	movwne	r0, #16384	@ 0x4000
    1474:	0b0e0301 	bleq	382080 <__exidx_end+0x38100c>
    1478:	3b0b3a0b 	blcc	2cfcac <__exidx_end+0x2cec38>
    147c:	010b390b 	tsteq	fp, fp, lsl #18
    1480:	05000013 	streq	r0, [r0, #-19]	@ 0xffffffed
    1484:	13490026 	movtne	r0, #36902	@ 0x9026
    1488:	34060000 	strcc	r0, [r6], #-0
    148c:	3a0e0300 	bcc	382094 <__exidx_end+0x381020>
    1490:	390b3b0b 	stmdbcc	fp, {r0, r1, r3, r8, r9, fp, ip, sp}
    1494:	3f13490b 	svccc	0x0013490b
    1498:	00193c19 	andseq	r3, r9, r9, lsl ip
    149c:	00340700 	eorseq	r0, r4, r0, lsl #14
    14a0:	0b3a1347 	bleq	e861c4 <__exidx_end+0xe85150>
    14a4:	0b390b3b 	bleq	e44198 <__exidx_end+0xe43124>
    14a8:	00001802 	andeq	r1, r0, r2, lsl #16
    14ac:	3f002e08 	svccc	0x00002e08
    14b0:	3a0e0319 	bcc	38211c <__exidx_end+0x3810a8>
    14b4:	390b3b0b 	stmdbcc	fp, {r0, r1, r3, r8, r9, fp, ip, sp}
    14b8:	4919270b 	ldmdbmi	r9, {r0, r1, r3, r8, r9, sl, sp}
    14bc:	12011113 	andne	r1, r1, #-1073741820	@ 0xc0000004
    14c0:	7a184006 	bvc	6114e0 <__exidx_end+0x61046c>
    14c4:	09000019 	stmdbeq	r0, {r0, r3, r4}
    14c8:	193f012e 	ldmdbne	pc!, {r1, r2, r3, r5, r8}	@ <UNPREDICTABLE>
    14cc:	0b3a0e03 	bleq	e84ce0 <__exidx_end+0xe83c6c>
    14d0:	0b390b3b 	bleq	e441c4 <__exidx_end+0xe43150>
    14d4:	13491927 	movtne	r1, #39207	@ 0x9927
    14d8:	13010b20 	movwne	r0, #6944	@ 0x1b20
    14dc:	340a0000 	strcc	r0, [sl], #-0
    14e0:	3a0e0300 	bcc	3820e8 <__exidx_end+0x381074>
    14e4:	390b3b0b 	stmdbcc	fp, {r0, r1, r3, r8, r9, fp, ip, sp}
    14e8:	0013490b 	andseq	r4, r3, fp, lsl #18
    14ec:	012e0b00 			@ <UNDEFINED> instruction: 0x012e0b00
    14f0:	01111331 	tsteq	r1, r1, lsr r3
    14f4:	18400612 	stmdane	r0, {r1, r4, r9, sl}^
    14f8:	0000197a 	andeq	r1, r0, sl, ror r9
    14fc:	3100340c 	tstcc	r0, ip, lsl #8
    1500:	00051c13 	andeq	r1, r5, r3, lsl ip
    1504:	24010000 	strcs	r0, [r1], #-0
    1508:	3e0b0b00 	vmlacc.f64	d0, d11, d0
    150c:	000e030b 	andeq	r0, lr, fp, lsl #6
    1510:	00160200 	andseq	r0, r6, r0, lsl #4
    1514:	213a0e03 	teqcs	sl, r3, lsl #28
    1518:	390b3b02 	stmdbcc	fp, {r1, r8, r9, fp, ip, sp}
    151c:	13490e21 	movtne	r0, #40481	@ 0x9e21
    1520:	11030000 	mrsne	r0, (UNDEF: 3)
    1524:	130e2501 	movwne	r2, #58625	@ 0xe501
    1528:	1b0e030b 	blne	38215c <__exidx_end+0x3810e8>
    152c:	1117550e 	tstne	r7, lr, lsl #10
    1530:	00171001 	andseq	r1, r7, r1
    1534:	00240400 	eoreq	r0, r4, r0, lsl #8
    1538:	0b3e0b0b 	bleq	f8416c <__exidx_end+0xf830f8>
    153c:	00000803 	andeq	r0, r0, r3, lsl #16
    1540:	49003505 	stmdbmi	r0, {r0, r2, r8, sl, ip, sp}
    1544:	06000013 			@ <UNDEFINED> instruction: 0x06000013
    1548:	0e030034 	mcreq	0, 0, r0, cr3, cr4, {1}
    154c:	0b3b0b3a 	bleq	ec423c <__exidx_end+0xec31c8>
    1550:	13490b39 	movtne	r0, #39737	@ 0x9b39
    1554:	193c193f 	ldmdbne	ip!, {r0, r1, r2, r3, r4, r5, r8, fp, ip}
    1558:	34070000 	strcc	r0, [r7], #-0
    155c:	3a134700 	bcc	4d3164 <__exidx_end+0x4d20f0>
    1560:	390b3b0b 	stmdbcc	fp, {r0, r1, r3, r8, r9, fp, ip, sp}
    1564:	0018020b 	andseq	r0, r8, fp, lsl #4
    1568:	012e0800 			@ <UNDEFINED> instruction: 0x012e0800
    156c:	0e03193f 			@ <UNDEFINED> instruction: 0x0e03193f
    1570:	0b3b0b3a 	bleq	ec4260 <__exidx_end+0xec31ec>
    1574:	19270b39 	stmdbne	r7!, {r0, r3, r4, r5, r8, r9, fp}
    1578:	06120111 			@ <UNDEFINED> instruction: 0x06120111
    157c:	197a1840 	ldmdbne	sl!, {r6, fp, ip}^
    1580:	05090000 	streq	r0, [r9, #-0]
    1584:	3a0e0300 	bcc	38218c <__exidx_end+0x381118>
    1588:	390b3b0b 	stmdbcc	fp, {r0, r1, r3, r8, r9, fp, ip, sp}
    158c:	0213490b 	andseq	r4, r3, #180224	@ 0x2c000
    1590:	00000018 	andeq	r0, r0, r8, lsl r0

Disassembly of section .debug_loclists:

00000000 <.debug_loclists>:
       0:	0000008c 	andeq	r0, r0, ip, lsl #1
       4:	00040005 	andeq	r0, r4, r5
	...
      10:	0001fc06 	andeq	pc, r1, r6, lsl #24
      14:	04000400 	streq	r0, [r0], #-1024	@ 0xfffffc00
      18:	04045001 	streq	r5, [r4], #-1
      1c:	01a30418 			@ <UNDEFINED> instruction: 0x01a30418
      20:	00009f50 	andeq	r9, r0, r0, asr pc
      24:	06000000 	streq	r0, [r0], -r0
      28:	000001d0 	ldrdeq	r0, [r0], -r0	@ <UNPREDICTABLE>
      2c:	010a0004 	tsteq	sl, r4
      30:	2c0a0450 	cfstrscs	mvf0, [sl], {80}	@ 0x50
      34:	5001a304 	andpl	sl, r1, r4, lsl #6
      38:	0000009f 	muleq	r0, pc, r0	@ <UNPREDICTABLE>
      3c:	9c060000 	stcls	0, cr0, [r6], {-0}
      40:	04000001 	streq	r0, [r0], #-1
      44:	50010800 	andpl	r0, r1, r0, lsl #16
      48:	04340804 	ldrteq	r0, [r4], #-2052	@ 0xfffff7fc
      4c:	9f5001a3 	svcls	0x005001a3
      50:	08000100 	stmdaeq	r0, {r8}
      54:	000001b6 			@ <UNDEFINED> instruction: 0x000001b6
      58:	6c910305 	ldcvs	3, cr0, [r1], {5}
      5c:	00000006 	andeq	r0, r0, r6
      60:	01000000 	mrseq	r0, (UNDEF: 0)
      64:	64060001 	strvs	r0, [r6], #-1
      68:	04000001 	streq	r0, [r0], #-1
      6c:	50010e00 	andpl	r0, r1, r0, lsl #28
      70:	03120e04 	tsteq	r2, #4, 28	@ 0x40
      74:	049f0170 	ldreq	r0, [pc], #368	@ 7c <SVC_Handler+0xc>
      78:	50011e12 	andpl	r1, r1, r2, lsl lr
      7c:	032c1e04 			@ <UNDEFINED> instruction: 0x032c1e04
      80:	009f0170 	addseq	r0, pc, r0, ror r1	@ <UNPREDICTABLE>
      84:	82080001 	andhi	r0, r8, #1
      88:	04000001 	streq	r0, [r0], #-1
      8c:	00007002 	andeq	r7, r0, r2
      90:	00000129 	andeq	r0, r0, r9, lsr #2
      94:	00040005 	andeq	r0, r4, r5
	...
      a0:	44060000 	strmi	r0, [r6], #-0
      a4:	04000003 	streq	r0, [r0], #-3
      a8:	50010200 	andpl	r0, r1, r0, lsl #4
      ac:	03120204 	tsteq	r2, #4, 4	@ 0x40000000
      b0:	049f0170 	ldreq	r0, [pc], #368	@ b8 <APP_START_UP_IMM+0xe>
      b4:	a3041e12 	movwge	r1, #19986	@ 0x4e12
      b8:	009f5001 	addseq	r5, pc, r1
      bc:	00000000 	andeq	r0, r0, r0
      c0:	00000006 	andeq	r0, r0, r6
      c4:	14000400 	strne	r0, [r0], #-1024	@ 0xfffffc00
      c8:	14045001 	strne	r5, [r4], #-1
      cc:	01a30424 			@ <UNDEFINED> instruction: 0x01a30424
      d0:	00009f50 	andeq	r9, r0, r0, asr pc
      d4:	06000000 	streq	r0, [r0], -r0
      d8:	00000000 	andeq	r0, r0, r0
      dc:	010e0004 	tsteq	lr, r4
      e0:	1c0e0450 	cfstrsne	mvf0, [lr], {80}	@ 0x50
      e4:	5001a304 	andpl	sl, r1, r4, lsl #6
      e8:	0000009f 	muleq	r0, pc, r0	@ <UNPREDICTABLE>
      ec:	00060000 	andeq	r0, r6, r0
      f0:	04000000 	streq	r0, [r0], #-0
      f4:	50010e00 	andpl	r0, r1, r0, lsl #28
      f8:	041c0e04 	ldreq	r0, [ip], #-3588	@ 0xfffff1fc
      fc:	9f5001a3 	svcls	0x005001a3
     100:	00000000 	andeq	r0, r0, r0
     104:	00000600 	andeq	r0, r0, r0, lsl #12
     108:	00040000 	andeq	r0, r4, r0
     10c:	0450010e 	ldrbeq	r0, [r0], #-270	@ 0xfffffef2
     110:	a3041c0e 	movwge	r1, #19470	@ 0x4c0e
     114:	009f5001 	addseq	r5, pc, r1
     118:	00000000 	andeq	r0, r0, r0
     11c:	00000006 	andeq	r0, r0, r6
     120:	0e000400 	cfcpyseq	mvf0, mvf0
     124:	0e045001 	cdpeq	0, 0, cr5, cr4, cr1, {0}
     128:	01a3041c 			@ <UNDEFINED> instruction: 0x01a3041c
     12c:	00009f50 	andeq	r9, r0, r0, asr pc
     130:	06000000 	streq	r0, [r0], -r0
     134:	00000000 	andeq	r0, r0, r0
     138:	01080004 	tsteq	r8, r4
     13c:	24080450 	strcs	r0, [r8], #-1104	@ 0xfffffbb0
     140:	5001a304 	andpl	sl, r1, r4, lsl #6
     144:	0000009f 	muleq	r0, pc, r0	@ <UNPREDICTABLE>
     148:	1c060000 	stcne	0, cr0, [r6], {-0}
     14c:	04000003 	streq	r0, [r0], #-3
     150:	50010800 	andpl	r0, r1, r0, lsl #16
     154:	04280804 	strteq	r0, [r8], #-2052	@ 0xfffff7fc
     158:	9f5001a3 	svcls	0x005001a3
     15c:	00000000 	andeq	r0, r0, r0
     160:	031c0600 	tsteq	ip, #0, 12
     164:	00040000 	andeq	r0, r4, r0
     168:	0451010e 	ldrbeq	r0, [r1], #-270	@ 0xfffffef2
     16c:	a304280e 	movwge	r2, #18446	@ 0x480e
     170:	009f5101 	addseq	r5, pc, r1, lsl #2
     174:	00000000 	andeq	r0, r0, r0
     178:	00000006 	andeq	r0, r0, r6
     17c:	02000400 	andeq	r0, r0, #0, 8
     180:	02045001 	andeq	r5, r4, #1
     184:	01a30420 			@ <UNDEFINED> instruction: 0x01a30420
     188:	02009f50 	andeq	r9, r0, #80, 30	@ 0x140
     18c:	06000000 	streq	r0, [r0], -r0
     190:	00000000 	andeq	r0, r0, r0
     194:	01040004 	tsteq	r4, r4
     198:	0e040450 	cfmvsreq	mvf4, r0
     19c:	000c7302 	andeq	r7, ip, r2, lsl #6
     1a0:	00000003 	andeq	r0, r0, r3
     1a4:	00000006 	andeq	r0, r0, r6
     1a8:	02000400 	andeq	r0, r0, #0, 8
     1ac:	37007005 	strcc	r7, [r0, -r5]
     1b0:	02049f1a 	andeq	r9, r4, #26, 30	@ 0x68
     1b4:	01a30620 			@ <UNDEFINED> instruction: 0x01a30620
     1b8:	9f1a3750 	svcls	0x001a3750
     1bc:	0002cd00 	andeq	ip, r2, r0, lsl #26
     1c0:	04000500 	streq	r0, [r0], #-1280	@ 0xfffffb00
	...
     1cc:	00000600 	andeq	r0, r0, r0, lsl #12
     1d0:	00040000 	andeq	r0, r4, r0
     1d4:	04500109 	ldrbeq	r0, [r0], #-265	@ 0xfffffef7
     1d8:	54014609 	strpl	r4, [r1], #-1545	@ 0xfffff9f7
     1dc:	00000000 	andeq	r0, r0, r0
     1e0:	00000600 	andeq	r0, r0, r0, lsl #12
     1e4:	00040000 	andeq	r0, r4, r0
     1e8:	04510109 	ldrbeq	r0, [r1], #-265	@ 0xfffffef7
     1ec:	55014609 	strpl	r4, [r1, #-1545]	@ 0xfffff9f7
	...
     200:	00000600 	andeq	r0, r0, r0, lsl #12
     204:	00040000 	andeq	r0, r4, r0
     208:	04500108 	ldrbeq	r0, [r0], #-264	@ 0xfffffef8
     20c:	56011808 	strpl	r1, [r1], -r8, lsl #16
     210:	01201804 			@ <UNDEFINED> instruction: 0x01201804
     214:	22200450 	eorcs	r0, r0, #80, 8	@ 0x50000000
     218:	22045601 	andcs	r5, r4, #1048576	@ 0x100000
     21c:	04500129 	ldrbeq	r0, [r0], #-297	@ 0xfffffed7
     220:	56013029 	strpl	r3, [r1], -r9, lsr #32
     224:	01353004 	teqeq	r5, r4
     228:	3a350450 	bcc	d41370 <__exidx_end+0xd402fc>
     22c:	00005601 	andeq	r5, r0, r1, lsl #12
     230:	06000000 	streq	r0, [r0], -r0
     234:	00000000 	andeq	r0, r0, r0
     238:	01020004 	tsteq	r2, r4
     23c:	0a020450 	beq	81384 <__exidx_end+0x80310>
     240:	5001a304 	andpl	sl, r1, r4, lsl #6
     244:	0000009f 	muleq	r0, pc, r0	@ <UNPREDICTABLE>
	...
     250:	ec060000 	stc	0, cr0, [r6], {-0}
     254:	04000004 	streq	r0, [r0], #-4
     258:	50010d00 	andpl	r0, r1, r0, lsl #26
     25c:	014e0d04 	cmpeq	lr, r4, lsl #26
     260:	544e0454 	strbpl	r0, [lr], #-1108	@ 0xfffffbac
     264:	5001a304 	andpl	sl, r1, r4, lsl #6
     268:	d654049f 			@ <UNDEFINED> instruction: 0xd654049f
     26c:	04540101 	ldrbeq	r0, [r4], #-257	@ 0xfffffeff
     270:	02a001d6 	adceq	r0, r0, #-2147483595	@ 0x80000035
     274:	9f747403 	svcls	0x00747403
     278:	b802a004 	stmdalt	r2, {r2, sp, pc}
     27c:	01a30402 			@ <UNDEFINED> instruction: 0x01a30402
     280:	00009f50 	andeq	r9, r0, r0, asr pc
     284:	06000000 	streq	r0, [r0], -r0
     288:	000004ec 	andeq	r0, r0, ip, ror #9
     28c:	010d0004 	tsteq	sp, r4
     290:	b80d0451 	stmdalt	sp, {r0, r4, r6, sl}
     294:	00570102 	subseq	r0, r7, r2, lsl #2
     298:	00000000 	andeq	r0, r0, r0
     29c:	0004ec06 	andeq	lr, r4, r6, lsl #24
     2a0:	0d000400 	cfstrseq	mvf0, [r0, #-0]
     2a4:	0d045201 	sfmeq	f5, 4, [r4, #-4]
     2a8:	560102b8 			@ <UNDEFINED> instruction: 0x560102b8
	...
     2b8:	05000600 	streq	r0, [r0, #-1536]	@ 0xfffffa00
     2bc:	00040000 	andeq	r0, r4, r0
     2c0:	0450010c 	ldrbeq	r0, [r0], #-268	@ 0xfffffef4
     2c4:	0101940c 	tsteq	r1, ip, lsl #8
     2c8:	01940455 	orrseq	r0, r4, r5, asr r4
     2cc:	5001019f 	mulpl	r1, pc, r1	@ <UNPREDICTABLE>
     2d0:	a6019f04 	strge	r9, [r1], -r4, lsl #30
     2d4:	04550101 	ldrbeq	r0, [r5], #-257	@ 0xfffffeff
     2d8:	01b001a6 	lsrseq	r0, r6, #3
     2dc:	b0045001 	andlt	r5, r4, r1
     2e0:	0102a401 	tsteq	r2, r1, lsl #8
     2e4:	00000055 	andeq	r0, r0, r5, asr r0
     2e8:	00060000 	andeq	r0, r6, r0
     2ec:	04000000 	streq	r0, [r0], #-0
     2f0:	50010900 	andpl	r0, r1, r0, lsl #18
     2f4:	01300904 	teqeq	r0, r4, lsl #18
     2f8:	00000054 	andeq	r0, r0, r4, asr r0
     2fc:	00060000 	andeq	r0, r6, r0
     300:	04000000 	streq	r0, [r0], #-0
     304:	51010900 	tstpl	r1, r0, lsl #18
     308:	01300904 	teqeq	r0, r4, lsl #18
     30c:	00000055 	andeq	r0, r0, r5, asr r0
     310:	00060000 	andeq	r0, r6, r0
     314:	04000000 	streq	r0, [r0], #-0
     318:	50010800 	andpl	r0, r1, r0, lsl #16
     31c:	01240804 			@ <UNDEFINED> instruction: 0x01240804
     320:	00000056 	andeq	r0, r0, r6, asr r0
	...
     32c:	b4060000 	strlt	r0, [r6], #-0
     330:	04000003 	streq	r0, [r0], #-3
     334:	50010d00 	andpl	r0, r1, r0, lsl #26
     338:	014e0d04 	cmpeq	lr, r4, lsl #26
     33c:	544e0454 	strbpl	r0, [lr], #-1108	@ 0xfffffbac
     340:	5001a304 	andpl	sl, r1, r4, lsl #6
     344:	d054049f 			@ <UNDEFINED> instruction: 0xd054049f
     348:	04540101 	ldrbeq	r0, [r4], #-257	@ 0xfffffeff
     34c:	02a201d0 	adceq	r0, r2, #208, 2	@ 0x34
     350:	9f747403 	svcls	0x00747403
     354:	b802a204 	stmdalt	r2, {r2, r9, sp, pc}
     358:	01a30402 			@ <UNDEFINED> instruction: 0x01a30402
     35c:	00009f50 	andeq	r9, r0, r0, asr pc
     360:	06000000 	streq	r0, [r0], -r0
     364:	000003b4 			@ <UNDEFINED> instruction: 0x000003b4
     368:	010d0004 	tsteq	sp, r4
     36c:	b80d0451 	stmdalt	sp, {r0, r4, r6, sl}
     370:	00570102 	subseq	r0, r7, r2, lsl #2
     374:	00000000 	andeq	r0, r0, r0
     378:	0003b406 	andeq	fp, r3, r6, lsl #8
     37c:	0d000400 	cfstrseq	mvf0, [r0, #-0]
     380:	0d045201 	sfmeq	f5, 4, [r4, #-4]
     384:	560102b8 			@ <UNDEFINED> instruction: 0x560102b8
	...
     394:	03c80600 	biceq	r0, r8, #0, 12
     398:	00040000 	andeq	r0, r4, r0
     39c:	0450010c 	ldrbeq	r0, [r0], #-268	@ 0xfffffef4
     3a0:	0101940c 	tsteq	r1, ip, lsl #8
     3a4:	01940455 	orrseq	r0, r4, r5, asr r4
     3a8:	5001019f 	mulpl	r1, pc, r1	@ <UNPREDICTABLE>
     3ac:	a6019f04 	strge	r9, [r1], -r4, lsl #30
     3b0:	04550101 	ldrbeq	r0, [r5], #-257	@ 0xfffffeff
     3b4:	01b001a6 	lsrseq	r0, r6, #3
     3b8:	b0045001 	andlt	r5, r4, r1
     3bc:	0102a401 	tsteq	r2, r1, lsl #8
     3c0:	00000055 	andeq	r0, r0, r5, asr r0
     3c4:	00060000 	andeq	r0, r6, r0
     3c8:	04000000 	streq	r0, [r0], #-0
     3cc:	50010900 	andpl	r0, r1, r0, lsl #18
     3d0:	01260904 			@ <UNDEFINED> instruction: 0x01260904
     3d4:	00000054 	andeq	r0, r0, r4, asr r0
     3d8:	00060000 	andeq	r0, r6, r0
     3dc:	04000000 	streq	r0, [r0], #-0
     3e0:	51010900 	tstpl	r1, r0, lsl #18
     3e4:	01260904 			@ <UNDEFINED> instruction: 0x01260904
     3e8:	00000055 	andeq	r0, r0, r5, asr r0
     3ec:	00000000 	andeq	r0, r0, r0
     3f0:	00000006 	andeq	r0, r0, r6
     3f4:	09000400 	stmdbeq	r0, {sl}
     3f8:	0e045001 	cdpeq	0, 0, cr5, cr4, cr1, {0}
     3fc:	04500110 	ldrbeq	r0, [r0], #-272	@ 0xfffffef0
     400:	53011310 	movwpl	r1, #4880	@ 0x1310
     404:	00000000 	andeq	r0, r0, r0
     408:	03640600 	cmneq	r4, #0, 12
     40c:	00040000 	andeq	r0, r4, r0
     410:	04500109 	ldrbeq	r0, [r0], #-265	@ 0xfffffef7
     414:	54015009 	strpl	r5, [r1], #-9
	...
     424:	03640600 	cmneq	r4, #0, 12
     428:	00040000 	andeq	r0, r4, r0
     42c:	04510109 	ldrbeq	r0, [r1], #-265	@ 0xfffffef7
     430:	55012009 	strpl	r2, [r1, #-9]
     434:	04222004 	strteq	r2, [r2], #-4
     438:	9f5101a3 	svcls	0x005101a3
     43c:	01322204 	teqeq	r2, r4, lsl #4
     440:	45320455 	ldrmi	r0, [r2, #-1109]!	@ 0xfffffbab
     444:	04087402 	streq	r7, [r8], #-1026	@ 0xfffffbfe
     448:	a3045045 	movwge	r5, #16453	@ 0x4045
     44c:	009f5101 	addseq	r5, pc, r1, lsl #2
	...
     458:	00037006 	andeq	r7, r3, r6
     45c:	06000400 	streq	r0, [r0], -r0, lsl #8
     460:	06045001 	streq	r5, [r4], -r1
     464:	04560116 	ldrbeq	r0, [r6], #-278	@ 0xfffffeea
     468:	50013916 	andpl	r3, r1, r6, lsl r9
     46c:	01443904 	cmpeq	r4, r4, lsl #18
     470:	01020056 	qaddeq	r0, r6, r2
     474:	00039208 	andeq	r9, r3, r8, lsl #4
     478:	03060e00 	movweq	r0, #28160	@ 0x6e00
     47c:	00001043 	andeq	r1, r0, r3, asr #32
     480:	0102009f 	swpeq	r0, pc, [r2]	@ <UNPREDICTABLE>
     484:	00039208 	andeq	r9, r3, r8, lsl #4
     488:	74020e00 	strvc	r0, [r2], #-3584	@ 0xfffff200
     48c:	08970010 	ldmeq	r7, {r4}
     490:	00050000 	andeq	r0, r5, r0
     494:	00000004 	andeq	r0, r0, r4
     498:	00020000 	andeq	r0, r2, r0
     49c:	00000000 	andeq	r0, r0, r0
     4a0:	68060000 	stmdavs	r6, {}	@ <UNPREDICTABLE>
     4a4:	0400000b 	streq	r0, [r0], #-11
     4a8:	30024400 	andcc	r4, r2, r0, lsl #8
     4ac:	c244049f 	subgt	r0, r4, #-1627389952	@ 0x9f000000
     4b0:	04550101 	ldrbeq	r0, [r5], #-257	@ 0xfffffeff
     4b4:	01c601c2 	biceq	r0, r6, r2, asr #3
     4b8:	049f3002 	ldreq	r3, [pc], #2	@ 4c0 <kMboxPost+0x10c>
     4bc:	01f401c6 	mvnseq	r0, r6, asr #3
     4c0:	03005501 	movweq	r5, #1281	@ 0x501
     4c4:	02000000 	andeq	r0, r0, #0
     4c8:	00000000 	andeq	r0, r0, r0
     4cc:	0b680600 	bleq	1a01cd4 <__exidx_end+0x1a00c60>
     4d0:	00040000 	andeq	r0, r4, r0
     4d4:	9f300230 	svcls	0x00300230
     4d8:	016a3004 	cmneq	sl, r4
     4dc:	01940454 	orrseq	r0, r4, r4, asr r4
     4e0:	31020196 			@ <UNDEFINED> instruction: 0x31020196
     4e4:	0196049f 			@ <UNDEFINED> instruction: 0x0196049f
     4e8:	540101be 	strpl	r0, [r1], #-446	@ 0xfffffe42
     4ec:	f401c204 	vst1.8	{d12-d15}, [r1], r4
     4f0:	00540101 	subseq	r0, r4, r1, lsl #2
     4f4:	00020204 	andeq	r0, r2, r4, lsl #4
     4f8:	68060000 	stmdavs	r6, {}	@ <UNPREDICTABLE>
     4fc:	0400000b 	streq	r0, [r0], #-11
     500:	0201ae00 	andeq	sl, r1, #0, 28
     504:	ae049f30 	mcrge	15, 0, r9, cr4, cr0, {1}
     508:	1701be01 	strne	fp, [r1, -r1, lsl #28]
     50c:	000e1803 	andeq	r1, lr, r3, lsl #16
     510:	04230620 	strteq	r0, [r3], #-1568	@ 0xfffff9e0
     514:	08293106 	stmdaeq	r9!, {r1, r2, r8, ip, sp}
     518:	00741aff 	ldrshteq	r1, [r4], #-175	@ 0xffffff51
     51c:	31007521 	tstcc	r0, r1, lsr #10
     520:	049f1a27 	ldreq	r1, [pc], #2599	@ 528 <kMboxPend+0x3c>
     524:	01f401c2 	mvnseq	r0, r2, asr #3
     528:	009f3002 	addseq	r3, pc, r2
     52c:	00000000 	andeq	r0, r0, r0
     530:	000bb006 	andeq	fp, fp, r6
     534:	20000400 	andcs	r0, r0, r0, lsl #8
     538:	9f707303 	svcls	0x00707303
     53c:	01ac7e04 			@ <UNDEFINED> instruction: 0x01ac7e04
     540:	9f707303 	svcls	0x00707303
     544:	00000000 	andeq	r0, r0, r0
     548:	0bd20600 	bleq	ff481d50 <SCB_ICSR+0x1f47304c>
     54c:	00040000 	andeq	r0, r4, r0
     550:	04500108 	ldrbeq	r0, [r0], #-264	@ 0xfffffef8
     554:	54012c08 	strpl	r2, [r1], #-3080	@ 0xfffff3f8
     558:	08000000 	stmdaeq	r0, {}	@ <UNPREDICTABLE>
     55c:	00000c0a 	andeq	r0, r0, sl, lsl #24
     560:	0050010b 	subseq	r0, r0, fp, lsl #2
     564:	12080000 	andne	r0, r8, #0
     568:	4800000b 	stmdami	r0, {r0, r1, r3}
     56c:	02005501 	andeq	r5, r0, #4194304	@ 0x400000
     570:	00000303 	andeq	r0, r0, r3, lsl #6
     574:	06000101 	streq	r0, [r0], -r1, lsl #2
     578:	00000a7a 	andeq	r0, r0, sl, ror sl
     57c:	02000004 	andeq	r0, r0, #4
     580:	00049f30 	andeq	r9, r4, r0, lsr pc
     584:	04510104 	ldrbeq	r0, [r1], #-260	@ 0xfffffefc
     588:	71030c04 	tstvc	r3, r4, lsl #24
     58c:	0c049f7f 	stceq	15, cr9, [r4], {127}	@ 0x7f
     590:	0051011e 	subseq	r0, r1, lr, lsl r1
     594:	01000000 	mrseq	r0, (UNDEF: 0)
     598:	98060001 	stmdals	r6, {r0}
     59c:	0400000a 	streq	r0, [r0], #-10
     5a0:	57010a00 	strpl	r0, [r1, -r0, lsl #20]
     5a4:	030e0a04 	movweq	r0, #59908	@ 0xea04
     5a8:	049f7f77 	ldreq	r7, [pc], #3959	@ 5b0 <kMboxPend+0xc4>
     5ac:	5701700e 	strpl	r7, [r1, -lr]
     5b0:	00010000 	andeq	r0, r1, r0
     5b4:	0a3a0601 	beq	e81dc0 <__exidx_end+0xe80d4c>
     5b8:	00040000 	andeq	r0, r4, r0
     5bc:	9f300200 	svcls	0x00300200
     5c0:	012a0c04 			@ <UNDEFINED> instruction: 0x012a0c04
     5c4:	01000057 	qaddeq	r0, r7, r0
     5c8:	3a060000 	bcc	1805d0 <__exidx_end+0x17f55c>
     5cc:	0400000a 	streq	r0, [r0], #-10
     5d0:	30020000 	andcc	r0, r2, r0
     5d4:	160c049f 			@ <UNDEFINED> instruction: 0x160c049f
     5d8:	01005401 	tsteq	r0, r1, lsl #8
     5dc:	09640800 	stmdbeq	r4!, {fp}^
     5e0:	01040000 	mrseq	r0, (UNDEF: 4)
     5e4:	00000050 	andeq	r0, r0, r0, asr r0
     5e8:	54060000 	strpl	r0, [r6], #-0
     5ec:	04000008 	streq	r0, [r0], #-8
     5f0:	50012000 	andpl	r2, r1, r0
     5f4:	01f02004 	mvnseq	r2, r4
     5f8:	00005601 	andeq	r5, r0, r1, lsl #12
     5fc:	06000000 	streq	r0, [r0], -r0
     600:	00000854 	andeq	r0, r0, r4, asr r8
     604:	011e0004 	tsteq	lr, r4
     608:	f01e0451 			@ <UNDEFINED> instruction: 0xf01e0451
     60c:	00580101 	subseq	r0, r8, r1, lsl #2
     610:	00000000 	andeq	r0, r0, r0
     614:	00085406 	andeq	r5, r8, r6, lsl #8
     618:	1c000400 	cfstrsne	mvf0, [r0], {-0}
     61c:	1c045201 	sfmne	f5, 4, [r4], {1}
     620:	570101f0 			@ <UNDEFINED> instruction: 0x570101f0
	...
     62c:	06000000 	streq	r0, [r0], -r0
     630:	00000854 	andeq	r0, r0, r4, asr r8
     634:	011a0004 	tsteq	sl, r4
     638:	8e1a0453 	cfmvrshi	r0, mvf10
     63c:	04590101 	ldrbeq	r0, [r9], #-257	@ 0xfffffeff
     640:	019b018e 	orrseq	r0, fp, lr, lsl #3
     644:	9b045201 	blls	114e50 <__exidx_end+0x113ddc>
     648:	0101c201 	tsteq	r1, r1, lsl #4
     64c:	01c20459 	biceq	r0, r2, r9, asr r4
     650:	520101f0 	andpl	r0, r1, #240, 2	@ 0x3c
     654:	00000000 	andeq	r0, r0, r0
     658:	08540600 	ldmdaeq	r4, {r9, sl}^
     65c:	00040000 	andeq	r0, r4, r0
     660:	910201c2 	smlabtls	r2, r2, r1, r0
     664:	01c20400 	biceq	r0, r2, r0, lsl #8
     668:	910201f0 	strdls	r0, [r2, -r0]
     66c:	00000000 	andeq	r0, r0, r0
     670:	54060000 	strpl	r0, [r6], #-0
     674:	04000008 	streq	r0, [r0], #-8
     678:	0201c200 	andeq	ip, r1, #0, 4
     67c:	c2040491 	andgt	r0, r4, #-1862270976	@ 0x91000000
     680:	0201f001 	andeq	pc, r1, #1
     684:	00000491 	muleq	r0, r1, r4
     688:	06000000 	streq	r0, [r0], -r0
     68c:	00000854 	andeq	r0, r0, r4, asr r8
     690:	01c20004 	biceq	r0, r2, r4
     694:	04089102 	streq	r9, [r8], #-258	@ 0xfffffefe
     698:	01f001c2 	mvnseq	r0, r2, asr #3
     69c:	00089102 	andeq	r9, r8, r2, lsl #2
     6a0:	00000000 	andeq	r0, r0, r0
     6a4:	00085406 	andeq	r5, r8, r6, lsl #8
     6a8:	c2000400 	andgt	r0, r0, #0, 8
     6ac:	0c910201 	lfmeq	f0, 4, [r1], {1}
     6b0:	f001c204 			@ <UNDEFINED> instruction: 0xf001c204
     6b4:	0c910201 	lfmeq	f0, 4, [r1], {1}
	...
     6c4:	06240600 	strteq	r0, [r4], -r0, lsl #12
     6c8:	00040000 	andeq	r0, r4, r0
     6cc:	0450012e 	ldrbeq	r0, [r0], #-302	@ 0xfffffed2
     6d0:	0201822e 	andeq	r8, r1, #-536870910	@ 0xe0000002
     6d4:	82047c74 	andhi	r7, r4, #116, 24	@ 0x7400
     6d8:	0d018a01 	vstreq	s16, [r1, #-4]
     6dc:	ffffff73 			@ <UNDEFINED> instruction: 0xffffff73
     6e0:	243203ff 	ldrtcs	r0, [r2], #-1023	@ 0xfffffc01
     6e4:	34220072 	strtcc	r0, [r2], #-114	@ 0xffffff8e
     6e8:	018a041c 	orreq	r0, sl, ip, lsl r4
     6ec:	a30401b6 	movwge	r0, #16822	@ 0x41b6
     6f0:	049f5001 	ldreq	r5, [pc], #1	@ 6f8 <kCalcNextTaskPrio_+0x8>
     6f4:	01ba01b6 			@ <UNDEFINED> instruction: 0x01ba01b6
     6f8:	ba045001 	blt	114704 <__exidx_end+0x113690>
     6fc:	0401cc01 	streq	ip, [r1], #-3073	@ 0xfffff3ff
     700:	9f5001a3 	svcls	0x005001a3
	...
     70c:	06000000 	streq	r0, [r0], -r0
     710:	00000624 	andeq	r0, r0, r4, lsr #12
     714:	014a0004 	cmpeq	sl, r4
     718:	824a0451 	subhi	r0, sl, #1358954496	@ 0x51000000
     71c:	64740201 	ldrbtvs	r0, [r4], #-513	@ 0xfffffdff
     720:	8a018204 	bhi	60f38 <__exidx_end+0x5fec4>
     724:	ff730d01 			@ <UNDEFINED> instruction: 0xff730d01
     728:	03ffffff 	mvnseq	pc, #1020	@ 0x3fc
     72c:	00722432 	rsbseq	r2, r2, r2, lsr r4
     730:	041c4c22 	ldreq	r4, [ip], #-3106	@ 0xfffff3de
     734:	01b6018a 			@ <UNDEFINED> instruction: 0x01b6018a
     738:	5101a304 	tstpl	r1, r4, lsl #6
     73c:	01b6049f 			@ <UNDEFINED> instruction: 0x01b6049f
     740:	510101cc 	smlabtpl	r1, ip, r1, r0
     744:	00000000 	andeq	r0, r0, r0
     748:	00000101 	andeq	r0, r0, r1, lsl #2
     74c:	06240600 	strteq	r0, [r4], -r0, lsl #12
     750:	00040000 	andeq	r0, r4, r0
     754:	530101a2 	movwpl	r0, #4514	@ 0x11a2
     758:	ac01a204 	sfmge	f2, 1, [r1], {4}
     75c:	14710201 	ldrbtne	r0, [r1], #-513	@ 0xfffffdff
     760:	ae01ac04 	cdpge	12, 0, cr10, cr1, cr4, {0}
     764:	01a30401 			@ <UNDEFINED> instruction: 0x01a30401
     768:	ae049f53 	mcrge	15, 0, r9, cr4, cr3, {2}
     76c:	0101cc01 	tsteq	r1, r1, lsl #24
     770:	00020053 	andeq	r0, r2, r3, asr r0
     774:	00000000 	andeq	r0, r0, r0
     778:	00000100 	andeq	r0, r0, r0, lsl #2
     77c:	24060000 	strcs	r0, [r6], #-0
     780:	04000006 	streq	r0, [r0], #-6
     784:	51014a00 	tstpl	r1, r0, lsl #20
     788:	01824a04 	orreq	r4, r2, r4, lsl #20
     78c:	04647402 	strbteq	r7, [r4], #-1026	@ 0xfffffbfe
     790:	018a0182 	orreq	r0, sl, r2, lsl #3
     794:	ffff730d 			@ <UNDEFINED> instruction: 0xffff730d
     798:	3203ffff 	andcc	pc, r3, #1020	@ 0x3fc
     79c:	22007224 	andcs	r7, r0, #36, 4	@ 0x40000002
     7a0:	8a041c4c 	bhi	1078d8 <__exidx_end+0x106864>
     7a4:	04019601 	streq	r9, [r1], #-1537	@ 0xfffff9ff
     7a8:	9f5101a3 	svcls	0x005101a3
     7ac:	b601ae04 	strlt	sl, [r1], -r4, lsl #28
     7b0:	01a30401 			@ <UNDEFINED> instruction: 0x01a30401
     7b4:	b6049f51 			@ <UNDEFINED> instruction: 0xb6049f51
     7b8:	0101ba01 	tsteq	r1, r1, lsl #20
     7bc:	00020051 	andeq	r0, r2, r1, asr r0
     7c0:	00000000 	andeq	r0, r0, r0
     7c4:	00000100 	andeq	r0, r0, r0, lsl #2
     7c8:	24060000 	strcs	r0, [r6], #-0
     7cc:	04000006 	streq	r0, [r0], #-6
     7d0:	50012e00 	andpl	r2, r1, r0, lsl #28
     7d4:	01822e04 	orreq	r2, r2, r4, lsl #28
     7d8:	047c7402 	ldrbteq	r7, [ip], #-1026	@ 0xfffffbfe
     7dc:	018a0182 	orreq	r0, sl, r2, lsl #3
     7e0:	ffff730d 			@ <UNDEFINED> instruction: 0xffff730d
     7e4:	3203ffff 	andcc	pc, r3, #1020	@ 0x3fc
     7e8:	22007224 	andcs	r7, r0, #36, 4	@ 0x40000002
     7ec:	8a041c34 	bhi	1078c4 <__exidx_end+0x106850>
     7f0:	04019601 	streq	r9, [r1], #-1537	@ 0xfffff9ff
     7f4:	9f5001a3 	svcls	0x005001a3
     7f8:	b601ae04 	strlt	sl, [r1], -r4, lsl #28
     7fc:	01a30401 			@ <UNDEFINED> instruction: 0x01a30401
     800:	b6049f50 			@ <UNDEFINED> instruction: 0xb6049f50
     804:	0101ba01 	tsteq	r1, r1, lsl #20
     808:	01020050 	qaddeq	r0, r0, r2
     80c:	24060000 	strcs	r0, [r6], #-0
     810:	04000006 	streq	r0, [r0], #-6
     814:	01019600 	tsteq	r1, r0, lsl #12
     818:	01ae0453 			@ <UNDEFINED> instruction: 0x01ae0453
     81c:	530101ba 	movwpl	r0, #4538	@ 0x11ba
     820:	00010200 	andeq	r0, r1, r0, lsl #4
     824:	06240600 	strteq	r0, [r4], -r0, lsl #12
     828:	00040000 	andeq	r0, r4, r0
     82c:	52010196 	andpl	r0, r1, #-2147483611	@ 0x80000025
     830:	ba01ae04 	blt	6c048 <__exidx_end+0x6afd4>
     834:	00520101 	subseq	r0, r2, r1, lsl #2
     838:	00000002 	andeq	r0, r0, r2
     83c:	a0060000 	andge	r0, r6, r0
     840:	04000006 	streq	r0, [r0], #-6
     844:	41020e00 	tstmi	r2, r0, lsl #28
     848:	140e049f 	strne	r0, [lr], #-1183	@ 0xfffffb61
     84c:	32045001 	andcc	r5, r4, #1
     850:	0050013a 	subseq	r0, r0, sl, lsr r1
     854:	00000000 	andeq	r0, r0, r0
     858:	30060000 	andcc	r0, r6, r0
     85c:	04000008 	streq	r0, [r0], #-8
     860:	50010600 	andpl	r0, r1, r0, lsl #12
     864:	01110604 	tsteq	r1, r4, lsl #12
     868:	24110451 	ldrcs	r0, [r1], #-1105	@ 0xfffffbaf
     86c:	5001a304 	andpl	sl, r1, r4, lsl #6
     870:	0000009f 	muleq	r0, pc, r0	@ <UNPREDICTABLE>
     874:	30060000 	andcc	r0, r6, r0
     878:	04000008 	streq	r0, [r0], #-8
     87c:	51010400 	tstpl	r1, r0, lsl #8
     880:	04240404 	strteq	r0, [r4], #-1028	@ 0xfffffbfc
     884:	9f5101a3 	svcls	0x005101a3
     888:	00000000 	andeq	r0, r0, r0
     88c:	06000000 	streq	r0, [r0], -r0
     890:	00000842 	andeq	r0, r0, r2, asr #16
     894:	01060004 	tsteq	r6, r4
     898:	0e060450 	cfmvsreq	mvf6, r0
     89c:	0e045401 	cdpeq	4, 0, cr5, cr4, cr1, {0}
     8a0:	00500112 	subseq	r0, r0, r2, lsl r1
	...
     8ac:	00060000 	andeq	r0, r6, r0
     8b0:	04000000 	streq	r0, [r0], #-0
     8b4:	50010900 	andpl	r0, r1, r0, lsl #18
     8b8:	01200904 			@ <UNDEFINED> instruction: 0x01200904
     8bc:	24200454 	strtcs	r0, [r0], #-1108	@ 0xfffffbac
     8c0:	5001a304 	andpl	sl, r1, r4, lsl #6
     8c4:	4a24049f 	bmi	901b48 <__exidx_end+0x900ad4>
     8c8:	4a045401 	bmi	1158d4 <__exidx_end+0x114860>
     8cc:	a3040190 	movwge	r0, #16784	@ 0x4190
     8d0:	009f5001 	addseq	r5, pc, r1
	...
     8dc:	00000006 	andeq	r0, r0, r6
     8e0:	06000400 	streq	r0, [r0], -r0, lsl #8
     8e4:	06045001 	streq	r5, [r4], -r1
     8e8:	04550118 	ldrbeq	r0, [r5], #-280	@ 0xfffffee8
     8ec:	50011e18 	andpl	r1, r1, r8, lsl lr
     8f0:	01841e04 	orreq	r1, r4, r4, lsl #28
     8f4:	00005501 	andeq	r5, r0, r1, lsl #10
	...
     900:	00000600 	andeq	r0, r0, r0, lsl #12
     904:	00040000 	andeq	r0, r4, r0
     908:	0450010e 	ldrbeq	r0, [r0], #-270	@ 0xfffffef2
     90c:	54011e0e 	strpl	r1, [r1], #-3598	@ 0xfffff1f2
     910:	01211e04 			@ <UNDEFINED> instruction: 0x01211e04
     914:	22210450 	eorcs	r0, r1, #80, 8	@ 0x50000000
     918:	5001a304 	andpl	sl, r1, r4, lsl #6
     91c:	6222049f 	eorvs	r0, r2, #-1627389952	@ 0x9f000000
     920:	00005401 	andeq	r5, r0, r1, lsl #8
	...
     92c:	00000600 	andeq	r0, r0, r0, lsl #12
     930:	00040000 	andeq	r0, r4, r0
     934:	04510111 	ldrbeq	r0, [r1], #-273	@ 0xfffffeef
     938:	55011e11 	strpl	r1, [r1, #-3601]	@ 0xfffff1ef
     93c:	01211e04 			@ <UNDEFINED> instruction: 0x01211e04
     940:	22210451 	eorcs	r0, r1, #1358954496	@ 0x51000000
     944:	5101a304 	tstpl	r1, r4, lsl #6
     948:	6222049f 	eorvs	r0, r2, #-1627389952	@ 0x9f000000
     94c:	01005501 	tsteq	r0, r1, lsl #10
     950:	06000000 	streq	r0, [r0], -r0
     954:	00000000 	andeq	r0, r0, r0
     958:	02020004 	andeq	r0, r2, #4
     95c:	10049f30 	andne	r9, r4, r0, lsr pc
     960:	fe09031a 	mcr2	3, 0, r0, cr9, cr10, {0}
     964:	0000009f 	muleq	r0, pc, r0	@ <UNPREDICTABLE>
     968:	00060000 	andeq	r0, r6, r0
     96c:	04000000 	streq	r0, [r0], #-0
     970:	50012600 	andpl	r2, r1, r0, lsl #12
     974:	01372804 	teqeq	r7, r4, lsl #16
     978:	00000050 	andeq	r0, r0, r0, asr r0
     97c:	00060000 	andeq	r0, r6, r0
     980:	04000000 	streq	r0, [r0], #-0
     984:	52010200 	andpl	r0, r1, #0, 4
     988:	012e2c04 			@ <UNDEFINED> instruction: 0x012e2c04
     98c:	01000052 	qaddeq	r0, r2, r0
     990:	00000008 	andeq	r0, r0, r8
     994:	52011400 	andpl	r1, r1, #0, 8
     998:	08010000 	stmdaeq	r1, {}	@ <UNPREDICTABLE>
     99c:	00000000 	andeq	r0, r0, r0
     9a0:	00500114 	subseq	r0, r0, r4, lsl r1
     9a4:	00080100 	andeq	r0, r8, r0, lsl #2
     9a8:	14000000 	strne	r0, [r0], #-0
     9ac:	00005401 	andeq	r5, r0, r1, lsl #8
     9b0:	06000000 	streq	r0, [r0], -r0
     9b4:	0000081c 	andeq	r0, r0, ip, lsl r8
     9b8:	010a0004 	tsteq	sl, r4
     9bc:	140a0450 	strne	r0, [sl], #-1104	@ 0xfffffbb0
     9c0:	01005401 	tsteq	r0, r1, lsl #8
     9c4:	082a0800 	stmdaeq	sl!, {fp}
     9c8:	02060000 	andeq	r0, r6, #0
     9cc:	00000074 	andeq	r0, r0, r4, ror r0
     9d0:	00000303 	andeq	r0, r0, r3, lsl #6
     9d4:	06000000 	streq	r0, [r0], -r0
     9d8:	000007ac 	andeq	r0, r0, ip, lsr #15
     9dc:	010c0004 	tsteq	ip, r4
     9e0:	3e0c0450 	cfmvsrcc	mvf12, r0
     9e4:	3e045401 	cdpcc	4, 0, cr5, cr4, cr1, {0}
     9e8:	04500142 	ldrbeq	r0, [r0], #-322	@ 0xfffffebe
     9ec:	54017042 	strpl	r7, [r1], #-66	@ 0xffffffbe
     9f0:	03030000 	movweq	r0, #12288	@ 0x3000
     9f4:	00000000 	andeq	r0, r0, r0
     9f8:	07ac0600 	streq	r0, [ip, r0, lsl #12]!
     9fc:	00040000 	andeq	r0, r4, r0
     a00:	0451010c 	ldrbeq	r0, [r1], #-268	@ 0xfffffef4
     a04:	55013e0c 	strpl	r3, [r1, #-3596]	@ 0xfffff1f4
     a08:	01453e04 	cmpeq	r5, r4, lsl #28
     a0c:	70450451 	subvc	r0, r5, r1, asr r4
     a10:	00005501 	andeq	r5, r0, r1, lsl #10
     a14:	06000003 	streq	r0, [r0], -r3
     a18:	000007b8 			@ <UNDEFINED> instruction: 0x000007b8
     a1c:	04000004 	streq	r0, [r0], #-4
     a20:	9f00d073 	svcls	0x0000d073
     a24:	04463c04 	strbeq	r3, [r6], #-3076	@ 0xfffff3fc
     a28:	9f00d073 	svcls	0x0000d073
     a2c:	00000100 	andeq	r0, r0, r0, lsl #2
     a30:	07d20600 	ldrbeq	r0, [r2, r0, lsl #12]
     a34:	00040000 	andeq	r0, r4, r0
     a38:	9f300216 	svcls	0x00300216
     a3c:	023c2c04 	eorseq	r2, ip, #4, 24	@ 0x400
     a40:	02009f30 	andeq	r9, r0, #48, 30	@ 0xc0
     a44:	00000000 	andeq	r0, r0, r0
     a48:	07d60600 	ldrbeq	r0, [r6, r0, lsl #12]
     a4c:	00040000 	andeq	r0, r4, r0
     a50:	04530104 	ldrbeq	r0, [r3], #-260	@ 0xfffffefc
     a54:	75021204 	strvc	r1, [r2, #-516]	@ 0xfffffdfc
     a58:	38280400 	stmdacc	r8!, {sl}
     a5c:	00007502 	andeq	r7, r0, r2, lsl #10
     a60:	00000000 	andeq	r0, r0, r0
     a64:	0007d806 	andeq	sp, r7, r6, lsl #16
     a68:	10000400 	andne	r0, r0, r0, lsl #8
     a6c:	26045001 	strcs	r5, [r4], -r1
     a70:	00500136 	subseq	r0, r0, r6, lsr r1
     a74:	00010301 	andeq	r0, r1, r1, lsl #6
     a78:	0007b806 	andeq	fp, r7, r6, lsl #16
     a7c:	00000400 	andeq	r0, r0, r0, lsl #8
     a80:	00d07304 	sbcseq	r7, r0, r4, lsl #6
     a84:	463c049f 			@ <UNDEFINED> instruction: 0x463c049f
     a88:	00d07304 	sbcseq	r7, r0, r4, lsl #6
     a8c:	0301009f 	movweq	r0, #4255	@ 0x109f
     a90:	00010103 	andeq	r0, r1, r3, lsl #2
     a94:	b8060000 	stmdalt	r6, {}	@ <UNPREDICTABLE>
     a98:	04000007 	streq	r0, [r0], #-7
     a9c:	50010000 	andpl	r0, r1, r0
     aa0:	011a0004 	tsteq	sl, r4
     aa4:	463c0454 			@ <UNDEFINED> instruction: 0x463c0454
     aa8:	56045401 	strpl	r5, [r4], -r1, lsl #8
     aac:	0054015a 	subseq	r0, r4, sl, asr r1
     ab0:	00000000 	andeq	r0, r0, r0
     ab4:	00074406 	andeq	r4, r7, r6, lsl #8
     ab8:	0c000400 	cfstrseq	mvf0, [r0], {-0}
     abc:	0c045001 	stceq	0, cr5, [r4], {1}
     ac0:	00540168 	subseq	r0, r4, r8, ror #2
     ac4:	00000000 	andeq	r0, r0, r0
     ac8:	00074406 	andeq	r4, r7, r6, lsl #8
     acc:	0f000400 	svceq	0x00000400
     ad0:	0f045101 	svceq	0x00045101
     ad4:	00550168 	subseq	r0, r5, r8, ror #2
     ad8:	00010101 	andeq	r0, r1, r1, lsl #2
	...
     ae4:	54060000 	strpl	r0, [r6], #-0
     ae8:	04000007 	streq	r0, [r0], #-7
     aec:	30020600 	andcc	r0, r2, r0, lsl #12
     af0:	2a06049f 	bcs	181d74 <__exidx_end+0x180d00>
     af4:	2a045301 	bcs	115700 <__exidx_end+0x11468c>
     af8:	d0710436 	rsbsle	r0, r1, r6, lsr r4
     afc:	36049f00 	strcc	r9, [r4], -r0, lsl #30
     b00:	00750638 	rsbseq	r0, r5, r8, lsr r6
     b04:	9f502306 	svcls	0x00502306
     b08:	043e3a04 	ldrteq	r3, [lr], #-2564	@ 0xfffff5fc
     b0c:	9f00d071 	svcls	0x0000d071
     b10:	064a3e04 	strbeq	r3, [sl], -r4, lsl #28
     b14:	23060075 	movwcs	r0, #24693	@ 0x6075
     b18:	4a049f50 	bmi	128860 <__exidx_end+0x1277ec>
     b1c:	9f30024e 	svcls	0x0030024e
     b20:	00000100 	andeq	r0, r0, r0, lsl #2
     b24:	07740600 	ldrbeq	r0, [r4, -r0, lsl #12]!
     b28:	00040000 	andeq	r0, r4, r0
     b2c:	9f300218 	svcls	0x00300218
     b30:	022a1a04 	eoreq	r1, sl, #4, 20	@ 0x4000
     b34:	02009f30 	andeq	r9, r0, #48, 30	@ 0xc0
     b38:	00000000 	andeq	r0, r0, r0
     b3c:	06000000 	streq	r0, [r0], -r0
     b40:	00000778 	andeq	r0, r0, r8, ror r7
     b44:	01120004 	tsteq	r2, r4
     b48:	14120451 	ldrne	r0, [r2], #-1105	@ 0xfffffbaf
     b4c:	04007502 	streq	r7, [r0], #-1282	@ 0xfffffafe
     b50:	51011a16 	tstpl	r1, r6, lsl sl
     b54:	02261a04 	eoreq	r1, r6, #4, 20	@ 0x4000
     b58:	00000075 	andeq	r0, r0, r5, ror r0
     b5c:	06000000 	streq	r0, [r0], -r0
     b60:	0000077c 	andeq	r0, r0, ip, ror r7
     b64:	01100004 	tsteq	r0, r4
     b68:	22120450 	andscs	r0, r2, #80, 8	@ 0x50000000
     b6c:	02005001 	andeq	r5, r0, #1
     b70:	06000001 	streq	r0, [r0], -r1
     b74:	00000754 	andeq	r0, r0, r4, asr r7
     b78:	06200004 	strteq	r0, [r0], -r4
     b7c:	002f7da0 	eoreq	r7, pc, r0, lsr #27
     b80:	4a040000 	bmi	100b88 <__exidx_end+0xffb14>
     b84:	7da0064e 	stcvc	6, cr0, [r0, #312]!	@ 0x138
     b88:	0000002f 	andeq	r0, r0, pc, lsr #32
     b8c:	00010200 	andeq	r0, r1, r0, lsl #4
     b90:	07540600 	ldrbeq	r0, [r4, -r0, lsl #12]
     b94:	00040000 	andeq	r0, r4, r0
     b98:	04540120 	ldrbeq	r0, [r4], #-288	@ 0xfffffee0
     b9c:	54014e4a 	strpl	r4, [r1], #-3658	@ 0xfffff1b6
     ba0:	08010000 	stmdaeq	r1, {}	@ <UNPREDICTABLE>
     ba4:	0000075a 	andeq	r0, r0, sl, asr r7
     ba8:	0053011a 	subseq	r0, r3, sl, lsl r1
     bac:	00000000 	andeq	r0, r0, r0
     bb0:	00097006 	andeq	r7, r9, r6
     bb4:	07000400 	streq	r0, [r0, -r0, lsl #8]
     bb8:	07045001 	streq	r5, [r4, -r1]
     bbc:	0054016c 	subseq	r0, r4, ip, ror #2
	...
     bc8:	00097006 	andeq	r7, r9, r6
     bcc:	14000400 	strne	r0, [r0], #-1024	@ 0xfffffc00
     bd0:	14045101 	strne	r5, [r4], #-257	@ 0xfffffeff
     bd4:	04550152 	ldrbeq	r0, [r5], #-338	@ 0xfffffeae
     bd8:	51015952 	tstpl	r1, r2, asr r9
     bdc:	016c5904 	cmneq	ip, r4, lsl #18
     be0:	00000055 	andeq	r0, r0, r5, asr r0
     be4:	00000000 	andeq	r0, r0, r0
     be8:	7c060000 	stcvc	0, cr0, [r6], {-0}
     bec:	04000009 	streq	r0, [r0], #-9
     bf0:	50010800 	andpl	r0, r1, r0, lsl #16
     bf4:	01460804 	cmpeq	r6, r4, lsl #16
     bf8:	4a460456 	bmi	1181d58 <__exidx_end+0x1180ce4>
     bfc:	4a045001 	bmi	114c08 <__exidx_end+0x113b94>
     c00:	00560160 	subseq	r0, r6, r0, ror #2
     c04:	9c080001 	stcls	0, cr0, [r8], {1}
     c08:	1c000009 	stcne	0, cr0, [r0], {9}
     c0c:	009f3002 	addseq	r3, pc, r2
     c10:	00000101 	andeq	r0, r0, r1, lsl #2
     c14:	00098406 	andeq	r8, r9, r6, lsl #8
     c18:	18000400 	stmdane	r0, {sl}
     c1c:	00d07504 	sbcseq	r7, r0, r4, lsl #10
     c20:	5848049f 	stmdapl	r8, {r0, r1, r2, r3, r4, r7, sl}^
     c24:	00d07504 	sbcseq	r7, r0, r4, lsl #10
     c28:	0101009f 	swpeq	r0, pc, [r1]	@ <UNPREDICTABLE>
     c2c:	84060000 	strhi	r0, [r6], #-0
     c30:	04000009 	streq	r0, [r0], #-9
     c34:	54011800 	strpl	r1, [r1], #-2048	@ 0xfffff800
     c38:	01584804 	cmpeq	r8, r4, lsl #16
     c3c:	01000054 	qaddeq	r0, r4, r0
     c40:	86060000 	strhi	r0, [r6], -r0
     c44:	04000009 	streq	r0, [r0], #-9
     c48:	75041600 	strvc	r1, [r4, #-1536]	@ 0xfffffa00
     c4c:	049f00d0 	ldreq	r0, [pc], #208	@ c54 <kTickHandler+0xec>
     c50:	75045646 	strvc	r5, [r4, #-1606]	@ 0xfffff9ba
     c54:	009f00d0 	ldrsbeq	r0, [pc], r0	@ <UNPREDICTABLE>
     c58:	01000000 	mrseq	r0, (UNDEF: 0)
     c5c:	00000000 	andeq	r0, r0, r0
     c60:	00098606 	andeq	r8, r9, r6, lsl #12
     c64:	0e000400 	cfcpyseq	mvf0, mvf0
     c68:	0e045301 	cdpeq	3, 0, cr5, cr4, cr1, {0}
     c6c:	d4750316 	ldrbtle	r0, [r5], #-790	@ 0xfffffcea
     c70:	4a460400 	bmi	1181c78 <__exidx_end+0x1180c04>
     c74:	4a045301 	bmi	115880 <__exidx_end+0x11480c>
     c78:	04740256 	ldrbteq	r0, [r4], #-598	@ 0xfffffdaa
     c7c:	00010000 	andeq	r0, r1, r0
     c80:	09860600 	stmibeq	r6, {r9, sl}
     c84:	00040000 	andeq	r0, r4, r0
     c88:	04540116 	ldrbeq	r0, [r4], #-278	@ 0xfffffeea
     c8c:	54015646 	strpl	r5, [r1], #-1606	@ 0xfffff9ba
	...
     c98:	071c0600 	ldreq	r0, [ip, -r0, lsl #12]
     c9c:	00040000 	andeq	r0, r4, r0
     ca0:	04500108 	ldrbeq	r0, [r0], #-264	@ 0xfffffef8
     ca4:	a3041208 	movwge	r1, #16904	@ 0x4208
     ca8:	049f5001 	ldreq	r5, [pc], #1	@ cb0 <TimerHandlerTask+0x3c>
     cac:	50012612 	andpl	r2, r1, r2, lsl r6
     cb0:	04282604 	strteq	r2, [r8], #-1540	@ 0xfffff9fc
     cb4:	9f5001a3 	svcls	0x005001a3
     cb8:	00000000 	andeq	r0, r0, r0
     cbc:	06000000 	streq	r0, [r0], -r0
     cc0:	0000071c 	andeq	r0, r0, ip, lsl r7
     cc4:	010b0004 	tsteq	fp, r4
     cc8:	120b0451 	andne	r0, fp, #1358954496	@ 0x51000000
     ccc:	5101a304 	tstpl	r1, r4, lsl #6
     cd0:	2812049f 	ldmdacs	r2, {r0, r1, r2, r3, r4, r7, sl}
     cd4:	01005101 	tsteq	r0, r1, lsl #2
     cd8:	072e0801 	streq	r0, [lr, -r1, lsl #16]!
     cdc:	01120000 	tsteq	r2, r0
     ce0:	01010051 	qaddeq	r0, r1, r1
     ce4:	00072e08 	andeq	r2, r7, r8, lsl #28
     ce8:	50011200 	andpl	r1, r1, r0, lsl #4
     cec:	00000000 	andeq	r0, r0, r0
     cf0:	06000000 	streq	r0, [r0], -r0
     cf4:	00000000 	andeq	r0, r0, r0
     cf8:	01030004 	tsteq	r3, r4
     cfc:	1c030450 	cfstrsne	mvf0, [r3], {80}	@ 0x50
     d00:	1c045401 	cfstrsne	mvf5, [r4], {1}
     d04:	00500124 	subseq	r0, r0, r4, lsr #2
     d08:	0c080100 	stfeqs	f0, [r8], {-0}
     d0c:	00000007 	andeq	r0, r0, r7
     d10:	01005001 	tsteq	r0, r1
     d14:	094c0800 	stmdbeq	ip, {fp}^
     d18:	01140000 	tsteq	r4, r0
     d1c:	01000050 	qaddeq	r0, r0, r0
     d20:	00094c08 	andeq	r4, r9, r8, lsl #24
     d24:	50010000 	andpl	r0, r1, r0
     d28:	00005700 	andeq	r5, r0, r0, lsl #14
     d2c:	04000500 	streq	r0, [r0], #-1280	@ 0xfffffb00
	...
     d38:	0c740600 	ldcleq	6, cr0, [r4], #-0
     d3c:	00040000 	andeq	r0, r4, r0
     d40:	04500118 	ldrbeq	r0, [r0], #-280	@ 0xfffffee8
     d44:	04019418 	streq	r9, [r1], #-1048	@ 0xfffffbe8
     d48:	9f5001a3 	svcls	0x005001a3
     d4c:	01010000 	mrseq	r0, (UNDEF: 1)
     d50:	0cb20600 	ldceq	6, cr0, [r2]
     d54:	00040000 	andeq	r0, r4, r0
     d58:	04500100 	ldrbeq	r0, [r0], #-256	@ 0xffffff00
     d5c:	55015600 	strpl	r5, [r1, #-1536]	@ 0xfffffa00
     d60:	08000000 	stmdaeq	r0, {}	@ <UNPREDICTABLE>
     d64:	00000c90 	muleq	r0, r0, ip
     d68:	0050011b 	subseq	r0, r0, fp, lsl r1
     d6c:	c2080001 	andgt	r0, r8, #1
     d70:	4600000c 	strmi	r0, [r0], -ip
     d74:	01005401 	tsteq	r0, r1, lsl #8
     d78:	0ccc0800 	stcleq	8, cr0, [ip], {0}
     d7c:	033c0000 	teqeq	ip, #0
     d80:	009f7074 	addseq	r7, pc, r4, ror r0	@ <UNPREDICTABLE>
     d84:	00000350 	andeq	r0, r0, r0, asr r3
     d88:	00040005 	andeq	r0, r4, r5
     d8c:	00000000 	andeq	r0, r0, r0
     d90:	00000002 	andeq	r0, r0, r2
     d94:	000f6806 	andeq	r6, pc, r6, lsl #16
     d98:	16000400 	strne	r0, [r0], -r0, lsl #8
     d9c:	9fff0903 	svcls	0x00ff0903
     da0:	01403604 	cmpeq	r0, r4, lsl #12
     da4:	00000050 	andeq	r0, r0, r0, asr r0
	...
     db0:	d4060000 	strle	r0, [r6], #-0
     db4:	0400000e 	streq	r0, [r0], #-14
     db8:	50010a00 	andpl	r0, r1, r0, lsl #20
     dbc:	01130a04 	tsteq	r3, r4, lsl #20
     dc0:	42130453 	andsmi	r0, r3, #1392508928	@ 0x53000000
     dc4:	5001a304 	andpl	sl, r1, r4, lsl #6
     dc8:	4a42049f 	bmi	108204c <__exidx_end+0x1080fd8>
     dcc:	4a045301 	bmi	1159d8 <__exidx_end+0x114964>
     dd0:	38710351 	ldmdacc	r1!, {r0, r4, r6, r8, r9}^
     dd4:	6851049f 	ldmdavs	r1, {r0, r1, r2, r3, r4, r7, sl}^
     dd8:	5001a304 	andpl	sl, r1, r4, lsl #6
     ddc:	0000009f 	muleq	r0, pc, r0	@ <UNPREDICTABLE>
     de0:	e8060000 	stmda	r6, {}	@ <UNPREDICTABLE>
     de4:	0400000e 	streq	r0, [r0], #-14
     de8:	50010200 	andpl	r0, r1, r0, lsl #4
     dec:	010e0c04 	tsteq	lr, r4, lsl #24
     df0:	00000050 	andeq	r0, r0, r0, asr r0
	...
     dfc:	34060000 	strcc	r0, [r6], #-0
     e00:	0400000d 	streq	r0, [r0], #-13
     e04:	50015400 	andpl	r5, r1, r0, lsl #8
     e08:	04565404 	ldrbeq	r5, [r6], #-1028	@ 0xfffffbfc
     e0c:	9f5001a3 	svcls	0x005001a3
     e10:	01785604 	cmneq	r8, r4, lsl #12
     e14:	7a780450 	bvc	1e01f5c <__exidx_end+0x1e00ee8>
     e18:	5001a304 	andpl	sl, r1, r4, lsl #6
     e1c:	7e7a049f 	mrcvc	4, 3, r0, cr10, cr15, {4}
     e20:	7e045001 	cdpvc	0, 0, cr5, cr4, cr1, {0}
     e24:	a304018c 	movwge	r0, #16780	@ 0x418c
     e28:	009f5001 	addseq	r5, pc, r1
     e2c:	00020200 	andeq	r0, r2, r0, lsl #4
     e30:	00000000 	andeq	r0, r0, r0
     e34:	02000000 	andeq	r0, r0, #0
     e38:	00000002 	andeq	r0, r0, r2
     e3c:	000d3406 	andeq	r3, sp, r6, lsl #8
     e40:	24000400 	strcs	r0, [r0], #-1024	@ 0xfffffc00
     e44:	24045101 	strcs	r5, [r4], #-257	@ 0xfffffeff
     e48:	0c70023a 	lfmeq	f0, 2, [r0], #-232	@ 0xffffff18
     e4c:	04463a04 	strbeq	r3, [r6], #-2564	@ 0xfffff5fc
     e50:	9f5101a3 	svcls	0x005101a3
     e54:	02504604 	subseq	r4, r0, #4, 12	@ 0x400000
     e58:	50040c70 	andpl	r0, r4, r0, ror ip
     e5c:	01a30456 			@ <UNDEFINED> instruction: 0x01a30456
     e60:	56049f51 			@ <UNDEFINED> instruction: 0x56049f51
     e64:	0451015a 	ldrbeq	r0, [r1], #-346	@ 0xfffffea6
     e68:	7002745a 	andvc	r7, r2, sl, asr r4
     e6c:	8c74040c 	cfldrdhi	mvd0, [r4], #-48	@ 0xffffffd0
     e70:	00510101 	subseq	r0, r1, r1, lsl #2
     e74:	02000000 	andeq	r0, r0, #0
     e78:	58060002 	stmdapl	r6, {r1}
     e7c:	0400000d 	streq	r0, [r0], #-13
     e80:	52010a00 	andpl	r0, r1, #0, 20
     e84:	01282204 			@ <UNDEFINED> instruction: 0x01282204
     e88:	2c280452 	cfstrscs	mvf0, [r8], #-328	@ 0xfffffeb8
     e8c:	00007302 	andeq	r7, r0, r2, lsl #6
     e90:	00010201 	andeq	r0, r1, r1, lsl #4
     e94:	000d5806 	andeq	r5, sp, r6, lsl #16
     e98:	00000400 	andeq	r0, r0, r0, lsl #8
     e9c:	049f3002 	ldreq	r3, [pc], #2	@ ea4 <kSleepUntil+0x54>
     ea0:	53012c28 	movwpl	r2, #7208	@ 0x1c28
     ea4:	02020000 	andeq	r0, r2, #0
     ea8:	06000000 	streq	r0, [r0], -r0
     eac:	00000d8e 	andeq	r0, r0, lr, lsl #27
     eb0:	01120004 	tsteq	r2, r4
     eb4:	14120452 	ldrne	r0, [r2], #-1106	@ 0xfffffbae
     eb8:	04007202 	streq	r7, [r0], #-514	@ 0xfffffdfe
     ebc:	52011614 	andpl	r1, r1, #20, 12	@ 0x1400000
     ec0:	01020100 	mrseq	r0, (UNDEF: 18)
     ec4:	06000000 	streq	r0, [r0], -r0
     ec8:	00000d8e 	andeq	r0, r0, lr, lsl #27
     ecc:	02000004 	andeq	r0, r0, #4
     ed0:	12049f30 	andne	r9, r4, #48, 30	@ 0xc0
     ed4:	04520114 	ldrbeq	r0, [r2], #-276	@ 0xfffffeec
     ed8:	53011614 	movwpl	r1, #5652	@ 0x1614
	...
     ee8:	06000000 	streq	r0, [r0], -r0
     eec:	00000e50 	andeq	r0, r0, r0, asr lr
     ef0:	01090004 	tsteq	r9, r4
     ef4:	38090450 	stmdacc	r9, {r4, r6, sl}
     ef8:	38045401 	stmdacc	r4, {r0, sl, ip, lr}
     efc:	01a30452 			@ <UNDEFINED> instruction: 0x01a30452
     f00:	52049f50 	andpl	r9, r4, #80, 30	@ 0x140
     f04:	04540154 	ldrbeq	r0, [r4], #-340	@ 0xfffffeac
     f08:	a3047054 	movwge	r7, #16468	@ 0x4054
     f0c:	049f5001 	ldreq	r5, [pc], #1	@ f14 <kTimeOutReadyTask+0x40>
     f10:	54017470 	strpl	r7, [r1], #-1136	@ 0xfffffb90
     f14:	01847404 	orreq	r7, r4, r4, lsl #8
     f18:	5001a304 	andpl	sl, r1, r4, lsl #6
     f1c:	0000009f 	muleq	r0, pc, r0	@ <UNPREDICTABLE>
	...
     f28:	000e5c06 	andeq	r5, lr, r6, lsl #24
     f2c:	26000400 	strcs	r0, [r0], -r0, lsl #8
     f30:	26045001 	strcs	r5, [r4], -r1
     f34:	04570146 	ldrbeq	r0, [r7], #-326	@ 0xfffffeba
     f38:	50014846 	andpl	r4, r1, r6, asr #16
     f3c:	01644804 	cmneq	r4, r4, lsl #16
     f40:	78640457 	stmdavc	r4!, {r0, r1, r2, r4, r6, sl}^
     f44:	01005001 	tsteq	r0, r1
     f48:	00000000 	andeq	r0, r0, r0
     f4c:	06000000 	streq	r0, [r0], -r0
     f50:	00000e5e 	andeq	r0, r0, lr, asr lr
     f54:	02280004 	eoreq	r0, r8, #4
     f58:	28049f30 	stmdacs	r4, {r4, r5, r8, r9, sl, fp, ip, pc}
     f5c:	04500144 	ldrbeq	r0, [r0], #-324	@ 0xfffffebc
     f60:	30024e44 	andcc	r4, r2, r4, asr #28
     f64:	624e049f 	subvs	r0, lr, #-1627389952	@ 0x9f000000
     f68:	00005401 	andeq	r5, r0, r1, lsl #8
     f6c:	06000000 	streq	r0, [r0], -r0
     f70:	00000e6a 	andeq	r0, r0, sl, ror #28
     f74:	010c0004 	tsteq	ip, r4
     f78:	3a380453 	bcc	e020cc <__exidx_end+0xe01058>
     f7c:	00005301 	andeq	r5, r0, r1, lsl #6
     f80:	0e6e0800 	cdpeq	8, 6, cr0, cr14, cr0, {0}
     f84:	013e0000 	teqeq	lr, r0
     f88:	02010055 	andeq	r0, r1, #85	@ 0x55
     f8c:	74060001 	strvc	r0, [r6], #-1
     f90:	0400000e 	streq	r0, [r0], #-14
     f94:	75060000 	strvc	r0, [r6, #-0]
     f98:	1c007300 	stcne	3, cr7, [r0], {-0}
     f9c:	302e049f 	mlacc	lr, pc, r4, r0	@ <UNPREDICTABLE>
     fa0:	73007506 	movwvc	r7, #1286	@ 0x506
     fa4:	009f1c00 	addseq	r1, pc, r0, lsl #24
     fa8:	00000000 	andeq	r0, r0, r0
     fac:	08060000 	stmdaeq	r6, {}	@ <UNPREDICTABLE>
     fb0:	0400000e 	streq	r0, [r0], #-14
     fb4:	50010700 	andpl	r0, r1, r0, lsl #14
     fb8:	013c0704 	teqeq	ip, r4, lsl #14
     fbc:	483c0456 	ldmdami	ip!, {r1, r2, r4, r6, sl}
     fc0:	5001a304 	andpl	sl, r1, r4, lsl #6
     fc4:	0000009f 	muleq	r0, pc, r0	@ <UNPREDICTABLE>
     fc8:	00000000 	andeq	r0, r0, r0
     fcc:	000e1406 	andeq	r1, lr, r6, lsl #8
     fd0:	10000400 	andne	r0, r0, r0, lsl #8
     fd4:	10045001 	andne	r5, r4, r1
     fd8:	04550130 	ldrbeq	r0, [r5], #-304	@ 0xfffffed0
     fdc:	50013330 	andpl	r3, r1, r0, lsr r3
	...
     fe8:	0dc00600 	stcleq	6, cr0, [r0]
     fec:	00040000 	andeq	r0, r4, r0
     ff0:	04500113 	ldrbeq	r0, [r0], #-275	@ 0xfffffeed
     ff4:	54014013 	strpl	r4, [r1], #-19	@ 0xffffffed
     ff8:	01444004 	cmpeq	r4, r4
     ffc:	46440450 			@ <UNDEFINED> instruction: 0x46440450
    1000:	00005401 	andeq	r5, r0, r1, lsl #8
    1004:	00000000 	andeq	r0, r0, r0
    1008:	0dc00600 	stcleq	6, cr0, [r0]
    100c:	00040000 	andeq	r0, r4, r0
    1010:	04510113 	ldrbeq	r0, [r1], #-275	@ 0xfffffeed
    1014:	58014013 	stmdapl	r1, {r0, r1, r4, lr}
    1018:	01464004 	cmpeq	r6, r4
    101c:	00000051 	andeq	r0, r0, r1, asr r0
    1020:	00000000 	andeq	r0, r0, r0
    1024:	000dc006 	andeq	ip, sp, r6
    1028:	13000400 	movwne	r0, #1024	@ 0x400
    102c:	13045201 	movwne	r5, #16897	@ 0x4201
    1030:	04550140 	ldrbeq	r0, [r5], #-320	@ 0xfffffec0
    1034:	52014640 	andpl	r4, r1, #64, 12	@ 0x4000000
    1038:	00000000 	andeq	r0, r0, r0
    103c:	06000000 	streq	r0, [r0], -r0
    1040:	00000dc0 	andeq	r0, r0, r0, asr #27
    1044:	01130004 	tsteq	r3, r4
    1048:	40130453 	andsmi	r0, r3, r3, asr r4
    104c:	40045601 	andmi	r5, r4, r1, lsl #12
    1050:	00530146 	subseq	r0, r3, r6, asr #2
    1054:	00000000 	andeq	r0, r0, r0
    1058:	000dc006 	andeq	ip, sp, r6
    105c:	40000400 	andmi	r0, r0, r0, lsl #8
    1060:	04009102 	streq	r9, [r0], #-258	@ 0xfffffefe
    1064:	91024640 	tstls	r2, r0, asr #12
    1068:	00000000 	andeq	r0, r0, r0
    106c:	c0060000 	andgt	r0, r6, r0
    1070:	0400000d 	streq	r0, [r0], #-13
    1074:	91024000 	mrsls	r4, (UNDEF: 2)
    1078:	46400404 	strbmi	r0, [r0], -r4, lsl #8
    107c:	00049102 	andeq	r9, r4, r2, lsl #2
    1080:	00000000 	andeq	r0, r0, r0
    1084:	000dd806 	andeq	sp, sp, r6, lsl #16
    1088:	18000400 	stmdane	r0, {sl}
    108c:	18045001 	stmdane	r4, {r0, ip, lr}
    1090:	00570124 	subseq	r0, r7, r4, lsr #2
    1094:	d8080001 	stmdale	r8, {r0}
    1098:	1c00000d 	stcne	0, cr0, [r0], {13}
    109c:	00049102 	andeq	r9, r4, r2, lsl #2
    10a0:	d8080001 	stmdale	r8, {r0}
    10a4:	1c00000d 	stcne	0, cr0, [r0], {13}
    10a8:	00009102 	andeq	r9, r0, r2, lsl #2
    10ac:	d8080001 	stmdale	r8, {r0}
    10b0:	1c00000d 	stcne	0, cr0, [r0], {13}
    10b4:	01005601 	tsteq	r0, r1, lsl #12
    10b8:	0dd80800 	ldcleq	8, cr0, [r8]
    10bc:	011c0000 	tsteq	ip, r0
    10c0:	00010055 	andeq	r0, r1, r5, asr r0
    10c4:	000dd808 	andeq	sp, sp, r8, lsl #16
    10c8:	58011c00 	stmdapl	r1, {sl, fp, ip}
    10cc:	08000100 	stmdaeq	r0, {r8}
    10d0:	00000dd8 	ldrdeq	r0, [r0], -r8
    10d4:	0054011c 	subseq	r0, r4, ip, lsl r1

Disassembly of section .debug_aranges:

00000000 <.debug_aranges>:
   0:	00000044 	andeq	r0, r0, r4, asr #32
   4:	00000002 	andeq	r0, r0, r2
   8:	00040000 	andeq	r0, r4, r0
	...
  14:	0000000c 	andeq	r0, r0, ip
  18:	00000164 	andeq	r0, r0, r4, ror #2
  1c:	0000002c 	andeq	r0, r0, ip, lsr #32
  20:	00000190 	muleq	r0, r0, r1
  24:	0000000c 	andeq	r0, r0, ip
  28:	0000019c 	muleq	r0, ip, r1
  2c:	00000034 	andeq	r0, r0, r4, lsr r0
  30:	000001d0 	ldrdeq	r0, [r0], -r0	@ <UNPREDICTABLE>
  34:	0000002c 	andeq	r0, r0, ip, lsr #32
  38:	000001fc 	strdeq	r0, [r0], -ip
  3c:	00000018 	andeq	r0, r0, r8, lsl r0
	...
  48:	0000001c 	andeq	r0, r0, ip, lsl r0
  4c:	07380002 	ldreq	r0, [r8, -r2]!
  50:	00040000 	andeq	r0, r4, r0
  54:	00000000 	andeq	r0, r0, r0
  58:	00000214 	andeq	r0, r0, r4, lsl r2
  5c:	000000b4 	strheq	r0, [r0], -r4
	...
  68:	0000002c 	andeq	r0, r0, ip, lsr #32
  6c:	0cb70002 	ldceq	0, cr0, [r7], #8
  70:	00040000 	andeq	r0, r4, r0
  74:	00000000 	andeq	r0, r0, r0
  78:	000002c8 	andeq	r0, r0, r8, asr #5
  7c:	00000002 	andeq	r0, r0, r2
  80:	000002cc 	andeq	r0, r0, ip, asr #5
  84:	00000050 	andeq	r0, r0, r0, asr r0
  88:	00000000 	andeq	r0, r0, r0
  8c:	00000002 	andeq	r0, r0, r2
	...
  98:	00000084 	andeq	r0, r0, r4, lsl #1
  9c:	0e510002 	cdpeq	0, 5, cr0, cr1, cr2, {0}
  a0:	00040000 	andeq	r0, r4, r0
	...
  ac:	00000020 	andeq	r0, r0, r0, lsr #32
  b0:	00000000 	andeq	r0, r0, r0
  b4:	00000010 	andeq	r0, r0, r0, lsl r0
  b8:	00000000 	andeq	r0, r0, r0
  bc:	00000010 	andeq	r0, r0, r0, lsl r0
  c0:	0000031c 	andeq	r0, r0, ip, lsl r3
  c4:	00000028 	andeq	r0, r0, r8, lsr #32
  c8:	00000000 	andeq	r0, r0, r0
  cc:	00000024 	andeq	r0, r0, r4, lsr #32
  d0:	00000000 	andeq	r0, r0, r0
  d4:	0000001c 	andeq	r0, r0, ip, lsl r0
  d8:	00000000 	andeq	r0, r0, r0
  dc:	0000001c 	andeq	r0, r0, ip, lsl r0
  e0:	00000000 	andeq	r0, r0, r0
  e4:	0000001c 	andeq	r0, r0, ip, lsl r0
  e8:	00000000 	andeq	r0, r0, r0
  ec:	0000001c 	andeq	r0, r0, ip, lsl r0
  f0:	00000000 	andeq	r0, r0, r0
  f4:	00000024 	andeq	r0, r0, r4, lsr #32
  f8:	00000344 	andeq	r0, r0, r4, asr #6
  fc:	0000001e 	andeq	r0, r0, lr, lsl r0
 100:	00000000 	andeq	r0, r0, r0
 104:	00000008 	andeq	r0, r0, r8
 108:	00000000 	andeq	r0, r0, r0
 10c:	0000000e 	andeq	r0, r0, lr
 110:	00000000 	andeq	r0, r0, r0
 114:	0000000e 	andeq	r0, r0, lr
	...
 120:	0000004c 	andeq	r0, r0, ip, asr #32
 124:	12c20002 	sbcne	r0, r2, #2
 128:	00040000 	andeq	r0, r4, r0
 12c:	00000000 	andeq	r0, r0, r0
 130:	00000364 	andeq	r0, r0, r4, ror #6
 134:	00000050 	andeq	r0, r0, r0, asr r0
 138:	00000000 	andeq	r0, r0, r0
 13c:	00000026 	andeq	r0, r0, r6, lsr #32
 140:	000003b4 			@ <UNDEFINED> instruction: 0x000003b4
 144:	00000138 	andeq	r0, r0, r8, lsr r1
 148:	00000000 	andeq	r0, r0, r0
 14c:	00000030 	andeq	r0, r0, r0, lsr r0
 150:	000004ec 	andeq	r0, r0, ip, ror #9
 154:	00000138 	andeq	r0, r0, r8, lsr r1
 158:	00000000 	andeq	r0, r0, r0
 15c:	0000000a 	andeq	r0, r0, sl
 160:	00000000 	andeq	r0, r0, r0
 164:	00000046 	andeq	r0, r0, r6, asr #32
	...
 170:	000000b4 	strheq	r0, [r0], -r4
 174:	1e640002 	cdpne	0, 6, cr0, cr4, cr2, {0}
 178:	00040000 	andeq	r0, r4, r0
 17c:	00000000 	andeq	r0, r0, r0
 180:	00000624 	andeq	r0, r0, r4, lsr #12
 184:	000000cc 	andeq	r0, r0, ip, asr #1
 188:	000006f0 	strdeq	r0, [r0], -r0	@ <UNPREDICTABLE>
 18c:	0000002c 	andeq	r0, r0, ip, lsr #32
 190:	00000000 	andeq	r0, r0, r0
 194:	00000014 	andeq	r0, r0, r4, lsl r0
 198:	00000000 	andeq	r0, r0, r0
 19c:	0000001c 	andeq	r0, r0, ip, lsl r0
 1a0:	0000071c 	andeq	r0, r0, ip, lsl r7
 1a4:	00000028 	andeq	r0, r0, r8, lsr #32
 1a8:	00000744 	andeq	r0, r0, r4, asr #14
 1ac:	00000068 	andeq	r0, r0, r8, rrx
 1b0:	000007ac 	andeq	r0, r0, ip, lsr #15
 1b4:	00000070 	andeq	r0, r0, r0, ror r0
 1b8:	0000081c 	andeq	r0, r0, ip, lsl r8
 1bc:	00000014 	andeq	r0, r0, r4, lsl r0
 1c0:	00000830 	andeq	r0, r0, r0, lsr r8
 1c4:	00000024 	andeq	r0, r0, r4, lsr #32
 1c8:	00000854 	andeq	r0, r0, r4, asr r8
 1cc:	000000f0 	strdeq	r0, [r0], -r0	@ <UNPREDICTABLE>
 1d0:	00000944 	andeq	r0, r0, r4, asr #18
 1d4:	0000001c 	andeq	r0, r0, ip, lsl r0
 1d8:	00000960 	andeq	r0, r0, r0, ror #18
 1dc:	0000000e 	andeq	r0, r0, lr
 1e0:	00000970 	andeq	r0, r0, r0, ror r9
 1e4:	0000006c 	andeq	r0, r0, ip, rrx
 1e8:	000009dc 	ldrdeq	r0, [r0], -ip
 1ec:	00000034 	andeq	r0, r0, r4, lsr r0
 1f0:	00000000 	andeq	r0, r0, r0
 1f4:	00000062 	andeq	r0, r0, r2, rrx
 1f8:	00000000 	andeq	r0, r0, r0
 1fc:	0000002c 	andeq	r0, r0, ip, lsr #32
 200:	00000000 	andeq	r0, r0, r0
 204:	00000090 	muleq	r0, r0, r0
 208:	00000a10 	andeq	r0, r0, r0, lsl sl
 20c:	000000f8 	strdeq	r0, [r0], -r8
 210:	00000b08 	andeq	r0, r0, r8, lsl #22
 214:	00000060 	andeq	r0, r0, r0, rrx
 218:	00000b68 	andeq	r0, r0, r8, ror #22
 21c:	000000f4 	strdeq	r0, [r0], -r4
	...
 228:	00000024 	andeq	r0, r0, r4, lsr #32
 22c:	34190002 	ldrcc	r0, [r9], #-2
 230:	00040000 	andeq	r0, r4, r0
 234:	00000000 	andeq	r0, r0, r0
 238:	00000c5c 	andeq	r0, r0, ip, asr ip
 23c:	00000018 	andeq	r0, r0, r8, lsl r0
 240:	00000c74 	andeq	r0, r0, r4, ror ip
 244:	00000094 	muleq	r0, r4, r0
	...
 250:	00000064 	andeq	r0, r0, r4, rrx
 254:	3ae80002 	bcc	ffa00264 <SCB_ICSR+0x1f9f1560>
 258:	00040000 	andeq	r0, r4, r0
	...
 264:	0000000c 	andeq	r0, r0, ip
 268:	00000000 	andeq	r0, r0, r0
 26c:	00000018 	andeq	r0, r0, r8, lsl r0
 270:	00000d08 	andeq	r0, r0, r8, lsl #26
 274:	0000002c 	andeq	r0, r0, ip, lsr #32
 278:	00000d34 	andeq	r0, r0, r4, lsr sp
 27c:	0000008c 	andeq	r0, r0, ip, lsl #1
 280:	00000dc0 	andeq	r0, r0, r0, asr #27
 284:	00000046 	andeq	r0, r0, r6, asr #32
 288:	00000e08 	andeq	r0, r0, r8, lsl #28
 28c:	00000048 	andeq	r0, r0, r8, asr #32
 290:	00000e50 	andeq	r0, r0, r0, asr lr
 294:	00000084 	andeq	r0, r0, r4, lsl #1
 298:	00000ed4 	ldrdeq	r0, [r0], -r4
 29c:	00000068 	andeq	r0, r0, r8, rrx
 2a0:	00000f3c 	andeq	r0, r0, ip, lsr pc
 2a4:	0000002c 	andeq	r0, r0, ip, lsr #32
 2a8:	00000f68 	andeq	r0, r0, r8, ror #30
 2ac:	00000040 	andeq	r0, r0, r0, asr #32
	...
 2b8:	00000024 	andeq	r0, r0, r4, lsr #32
 2bc:	45360002 	ldrmi	r0, [r6, #-2]!
 2c0:	00040000 	andeq	r0, r4, r0
 2c4:	00000000 	andeq	r0, r0, r0
 2c8:	00000fa8 	andeq	r0, r0, r8, lsr #31
 2cc:	00000006 	andeq	r0, r0, r6
 2d0:	00000000 	andeq	r0, r0, r0
 2d4:	00000004 	andeq	r0, r0, r4
	...
 2e0:	0000001c 	andeq	r0, r0, ip, lsl r0
 2e4:	46040002 	strmi	r0, [r4], -r2
 2e8:	00040000 	andeq	r0, r4, r0
 2ec:	00000000 	andeq	r0, r0, r0
 2f0:	00000fb0 			@ <UNDEFINED> instruction: 0x00000fb0
 2f4:	0000000c 	andeq	r0, r0, ip
	...

Disassembly of section .debug_rnglists:

00000000 <.debug_rnglists>:
   0:	00000045 	andeq	r0, r0, r5, asr #32
   4:	00040005 	andeq	r0, r4, r5
   8:	00000000 	andeq	r0, r0, r0
   c:	00016e05 	andeq	r6, r1, r5, lsl #28
  10:	04000400 	streq	r0, [r0], #-1024	@ 0xfffffc00
  14:	00181404 	andseq	r1, r8, r4, lsl #8
  18:	00019e05 	andeq	r9, r1, r5, lsl #28
  1c:	06000400 	streq	r0, [r0], -r0, lsl #8
  20:	00240604 	eoreq	r0, r4, r4, lsl #12
  24:	00000007 	andeq	r0, r0, r7
  28:	64070c00 	strvs	r0, [r7], #-3072	@ 0xfffff400
  2c:	2c000001 	stccs	0, cr0, [r0], {1}
  30:	00019007 	andeq	r9, r1, r7
  34:	9c070c00 	stcls	12, cr0, [r7], {-0}
  38:	34000001 	strcc	r0, [r0], #-1
  3c:	0001d007 	andeq	sp, r1, r7
  40:	fc072c00 	stc2	12, cr2, [r7], {-0}
  44:	18000001 	stmdane	r0, {r0}
  48:	00001000 	andeq	r1, r0, r0
  4c:	04000500 	streq	r0, [r0], #-1280	@ 0xfffffb00
  50:	00000000 	andeq	r0, r0, r0
  54:	02140700 	andseq	r0, r4, #0, 14
  58:	01b40000 			@ <UNDEFINED> instruction: 0x01b40000
  5c:	00001b00 	andeq	r1, r0, r0, lsl #22
  60:	04000500 	streq	r0, [r0], #-1280	@ 0xfffffb00
  64:	00000000 	andeq	r0, r0, r0
  68:	02c80700 	sbceq	r0, r8, #0, 14
  6c:	07020000 	streq	r0, [r2, -r0]
  70:	000002cc 	andeq	r0, r0, ip, asr #5
  74:	00000750 	andeq	r0, r0, r0, asr r7
  78:	00020000 	andeq	r0, r2, r0
  7c:	0000005d 	andeq	r0, r0, sp, asr r0
  80:	00040005 	andeq	r0, r4, r5
  84:	00000000 	andeq	r0, r0, r0
  88:	00000007 	andeq	r0, r0, r7
  8c:	00072000 	andeq	r2, r7, r0
  90:	10000000 	andne	r0, r0, r0
  94:	00000007 	andeq	r0, r0, r7
  98:	1c071000 	stcne	0, cr1, [r7], {-0}
  9c:	28000003 	stmdacs	r0, {r0, r1}
  a0:	00000007 	andeq	r0, r0, r7
  a4:	00072400 	andeq	r2, r7, r0, lsl #8
  a8:	1c000000 	stcne	0, cr0, [r0], {-0}
  ac:	00000007 	andeq	r0, r0, r7
  b0:	00071c00 	andeq	r1, r7, r0, lsl #24
  b4:	1c000000 	stcne	0, cr0, [r0], {-0}
  b8:	00000007 	andeq	r0, r0, r7
  bc:	00071c00 	andeq	r1, r7, r0, lsl #24
  c0:	24000000 	strcs	r0, [r0], #-0
  c4:	00034407 	andeq	r4, r3, r7, lsl #8
  c8:	00071e00 	andeq	r1, r7, r0, lsl #28
  cc:	08000000 	stmdaeq	r0, {}	@ <UNPREDICTABLE>
  d0:	00000007 	andeq	r0, r0, r7
  d4:	00070e00 	andeq	r0, r7, r0, lsl #28
  d8:	0e000000 	cdpeq	0, 0, cr0, cr0, cr0, {0}
  dc:	00005900 	andeq	r5, r0, r0, lsl #18
  e0:	04000500 	streq	r0, [r0], #-1280	@ 0xfffffb00
  e4:	00000000 	andeq	r0, r0, r0
  e8:	03860500 	orreq	r0, r6, #0, 10
  ec:	00040000 	andeq	r0, r4, r0
  f0:	1a0c040a 	bne	301120 <__exidx_end+0x3000ac>
  f4:	03c20500 	biceq	r0, r2, #0, 10
  f8:	00040000 	andeq	r0, r4, r0
  fc:	0a060404 	beq	181114 <__exidx_end+0x1800a0>
 100:	04fa0500 	ldrbteq	r0, [sl], #1280	@ 0x500
 104:	00040000 	andeq	r0, r4, r0
 108:	0a060404 	beq	181120 <__exidx_end+0x1800ac>
 10c:	03640700 	cmneq	r4, #0, 14
 110:	07500000 	ldrbeq	r0, [r0, -r0]
 114:	00000000 	andeq	r0, r0, r0
 118:	03b40726 			@ <UNDEFINED> instruction: 0x03b40726
 11c:	02b80000 	adcseq	r0, r8, #0
 120:	00000007 	andeq	r0, r0, r7
 124:	ec073000 	stc	0, cr3, [r7], {-0}
 128:	b8000004 	stmdalt	r0, {r2}
 12c:	00000702 	andeq	r0, r0, r2, lsl #14
 130:	070a0000 	streq	r0, [sl, -r0]
 134:	00000000 	andeq	r0, r0, r0
 138:	01350046 	teqeq	r5, r6, asr #32
 13c:	00050000 	andeq	r0, r5, r0
 140:	00000004 	andeq	r0, r0, r4
 144:	24050000 	strcs	r0, [r5], #-0
 148:	04000006 	streq	r0, [r0], #-6
 14c:	02040000 	andeq	r0, r4, #0
 150:	9004018e 	andls	r0, r4, lr, lsl #3
 154:	04019201 	streq	r9, [r1], #-513	@ 0xfffffdff
 158:	01960194 			@ <UNDEFINED> instruction: 0x01960194
 15c:	b601ae04 	strlt	sl, [r1], -r4, lsl #28
 160:	a0050001 	andge	r0, r5, r1
 164:	04000006 	streq	r0, [r0], #-6
 168:	04040200 	streq	r0, [r4], #-512	@ 0xfffffe00
 16c:	3a320412 	bcc	c811bc <__exidx_end+0xc80148>
 170:	07540500 	ldrbeq	r0, [r4, -r0, lsl #10]
 174:	00040000 	andeq	r0, r4, r0
 178:	584a0420 	stmdapl	sl, {r5, sl}^
 17c:	07b80500 	ldreq	r0, [r8, r0, lsl #10]!
 180:	00040000 	andeq	r0, r4, r0
 184:	463c041a 			@ <UNDEFINED> instruction: 0x463c041a
 188:	00645604 	rsbeq	r5, r4, r4, lsl #12
 18c:	00098405 	andeq	r8, r9, r5, lsl #8
 190:	18000400 	stmdane	r0, {sl}
 194:	04343204 	ldrteq	r3, [r4], #-516	@ 0xfffffdfc
 198:	05005848 	streq	r5, [r0, #-2120]	@ 0xfffff7b8
 19c:	00000986 	andeq	r0, r0, r6, lsl #19
 1a0:	04160004 	ldreq	r0, [r6], #-4
 1a4:	46043230 			@ <UNDEFINED> instruction: 0x46043230
 1a8:	00050056 	andeq	r0, r5, r6, asr r0
 1ac:	04000000 	streq	r0, [r0], #-0
 1b0:	14041400 	strne	r1, [r4], #-1024	@ 0xfffffc00
 1b4:	3a050016 	bcc	140214 <__exidx_end+0x13f1a0>
 1b8:	0400000a 	streq	r0, [r0], #-10
 1bc:	08040000 	stmdaeq	r4, {}	@ <UNPREDICTABLE>
 1c0:	3a05002a 	bcc	140270 <__exidx_end+0x13f1fc>
 1c4:	0400000a 	streq	r0, [r0], #-10
 1c8:	08040000 	stmdaeq	r4, {}	@ <UNPREDICTABLE>
 1cc:	64050022 	strvs	r0, [r5], #-34	@ 0xffffffde
 1d0:	0400000a 	streq	r0, [r0], #-10
 1d4:	0a040200 	beq	1009dc <__exidx_end+0xff968>
 1d8:	120e040c 	andne	r0, lr, #12, 8	@ 0xc000000
 1dc:	0a680500 	beq	1a015e4 <__exidx_end+0x1a00570>
 1e0:	00040000 	andeq	r0, r4, r0
 1e4:	2a120402 	bcs	4811f4 <__exidx_end+0x480180>
 1e8:	0bc60500 	bleq	ff1815f0 <SCB_ICSR+0x1f1728ec>
 1ec:	00040000 	andeq	r0, r4, r0
 1f0:	36040402 	strcc	r0, [r4], -r2, lsl #8
 1f4:	06240700 	strteq	r0, [r4], -r0, lsl #14
 1f8:	01cc0000 	biceq	r0, ip, r0
 1fc:	0006f007 	andeq	pc, r6, r7
 200:	00072c00 	andeq	r2, r7, r0, lsl #24
 204:	14000000 	strne	r0, [r0], #-0
 208:	00000007 	andeq	r0, r0, r7
 20c:	1c071c00 	stcne	12, cr1, [r7], {-0}
 210:	28000007 	stmdacs	r0, {r0, r1, r2}
 214:	00074407 	andeq	r4, r7, r7, lsl #8
 218:	ac076800 	stcge	8, cr6, [r7], {-0}
 21c:	70000007 	andvc	r0, r0, r7
 220:	00081c07 	andeq	r1, r8, r7, lsl #24
 224:	30071400 	andcc	r1, r7, r0, lsl #8
 228:	24000008 	strcs	r0, [r0], #-8
 22c:	00085407 	andeq	r5, r8, r7, lsl #8
 230:	0701f000 	streq	pc, [r1, -r0]
 234:	00000944 	andeq	r0, r0, r4, asr #18
 238:	0960071c 	stmdbeq	r0!, {r2, r3, r4, r8, r9, sl}^
 23c:	070e0000 	streq	r0, [lr, -r0]
 240:	00000970 	andeq	r0, r0, r0, ror r9
 244:	09dc076c 	ldmibeq	ip, {r2, r3, r5, r6, r8, r9, sl}^
 248:	07340000 	ldreq	r0, [r4, -r0]!
 24c:	00000000 	andeq	r0, r0, r0
 250:	00000762 	andeq	r0, r0, r2, ror #14
 254:	072c0000 	streq	r0, [ip, -r0]!
 258:	00000000 	andeq	r0, r0, r0
 25c:	10070190 	mulne	r7, r0, r1
 260:	f800000a 			@ <UNDEFINED> instruction: 0xf800000a
 264:	0b080701 	bleq	201e70 <__exidx_end+0x200dfc>
 268:	07600000 	strbeq	r0, [r0, -r0]!
 26c:	00000b68 	andeq	r0, r0, r8, ror #22
 270:	320001f4 	andcc	r0, r0, #244, 2	@ 0x3d
 274:	05000000 	streq	r0, [r0, #-0]
 278:	00000400 	andeq	r0, r0, r0, lsl #8
 27c:	05000000 	streq	r0, [r0, #-0]
 280:	00000c82 	andeq	r0, r0, r2, lsl #25
 284:	04080004 	streq	r0, [r8], #-4
 288:	40043e0a 	andmi	r3, r4, sl, lsl #28
 28c:	05000186 	streq	r0, [r0, #-390]	@ 0xfffffe7a
 290:	00000c82 	andeq	r0, r0, r2, lsl #25
 294:	04060004 	streq	r0, [r6], #-4
 298:	07002a0a 	streq	r2, [r0, -sl, lsl #20]
 29c:	00000c5c 	andeq	r0, r0, ip, asr ip
 2a0:	0c740718 	ldcleq	7, cr0, [r4], #-96	@ 0xffffffa0
 2a4:	01940000 	orrseq	r0, r4, r0
 2a8:	00008600 	andeq	r8, r0, r0, lsl #12
 2ac:	04000500 	streq	r0, [r0], #-1280	@ 0xfffffb00
 2b0:	00000000 	andeq	r0, r0, r0
 2b4:	0d540500 	cfldr64eq	mvdx0, [r4, #-0]
 2b8:	00040000 	andeq	r0, r4, r0
 2bc:	3226040e 	eorcc	r0, r6, #234881024	@ 0xe000000
 2c0:	0d620500 	cfstr64eq	mvdx0, [r2, #-0]
 2c4:	00040000 	andeq	r0, r4, r0
 2c8:	46280418 			@ <UNDEFINED> instruction: 0x46280418
 2cc:	0dd40500 	cfldr64eq	mvdx0, [r4]
 2d0:	00040000 	andeq	r0, r4, r0
 2d4:	20040402 	andcs	r0, r4, r2, lsl #8
 2d8:	0e5e0500 	cdpeq	5, 5, cr0, cr14, cr0, {0}
 2dc:	00040000 	andeq	r0, r4, r0
 2e0:	06040400 	streq	r0, [r4], -r0, lsl #8
 2e4:	000c0a04 	andeq	r0, ip, r4, lsl #20
 2e8:	000ee205 	andeq	lr, lr, r5, lsl #4
 2ec:	08000400 	stmdaeq	r0, {sl}
 2f0:	00341204 	eorseq	r1, r4, r4, lsl #4
 2f4:	00000007 	andeq	r0, r0, r7
 2f8:	00070c00 	andeq	r0, r7, r0, lsl #24
 2fc:	18000000 	stmdane	r0, {}	@ <UNPREDICTABLE>
 300:	000d0807 	andeq	r0, sp, r7, lsl #16
 304:	34072c00 	strcc	r2, [r7], #-3072	@ 0xfffff400
 308:	8c00000d 	stchi	0, cr0, [r0], {13}
 30c:	0dc00701 	stcleq	7, cr0, [r0, #4]
 310:	07460000 	strbeq	r0, [r6, -r0]
 314:	00000e08 	andeq	r0, r0, r8, lsl #28
 318:	0e500748 	cdpeq	7, 5, cr0, cr0, cr8, {2}
 31c:	01840000 	orreq	r0, r4, r0
 320:	000ed407 	andeq	sp, lr, r7, lsl #8
 324:	3c076800 	stccc	8, cr6, [r7], {-0}
 328:	2c00000f 	stccs	0, cr0, [r0], {15}
 32c:	000f6807 	andeq	r6, pc, r7, lsl #16
 330:	15004000 	strne	r4, [r0, #-0]
 334:	05000000 	streq	r0, [r0, #-0]
 338:	00000400 	andeq	r0, r0, r0, lsl #8
 33c:	07000000 	streq	r0, [r0, -r0]
 340:	00000fa8 	andeq	r0, r0, r8, lsr #31
 344:	00000706 	andeq	r0, r0, r6, lsl #14
 348:	00040000 	andeq	r0, r4, r0
 34c:	0000000f 	andeq	r0, r0, pc
 350:	00040005 	andeq	r0, r4, r5
 354:	00000000 	andeq	r0, r0, r0
 358:	000fb007 	andeq	fp, pc, r7
 35c:	Address 0x35c is out of bounds.


Disassembly of section .debug_line:

00000000 <.debug_line>:
       0:	000001ce 	andeq	r0, r0, lr, asr #3
       4:	00730003 	rsbseq	r0, r3, r3
       8:	01020000 	mrseq	r0, (UNDEF: 2)
       c:	000d0efb 	strdeq	r0, [sp], -fp
      10:	01010101 	tsteq	r1, r1, lsl #2
      14:	01000000 	mrseq	r0, (UNDEF: 0)
      18:	61010000 	mrsvs	r0, (UNDEF: 1)
      1c:	532f7070 			@ <UNDEFINED> instruction: 0x532f7070
      20:	49006372 	stmdbmi	r0, {r1, r4, r5, r6, r8, r9, sp, lr}
      24:	6100636e 	tstvs	r0, lr, ror #6
      28:	492f7070 	stmdbmi	pc!, {r4, r5, r6, ip, sp, lr}	@ <UNPREDICTABLE>
      2c:	0000636e 	andeq	r6, r0, lr, ror #6
      30:	6c707061 	ldclvs	0, cr7, [r0], #-388	@ 0xfffffe7c
      34:	74616369 	strbtvc	r6, [r1], #-873	@ 0xfffffc97
      38:	2e6e6f69 	cdpcs	15, 6, cr6, cr14, cr9, {3}
      3c:	00010063 	andeq	r0, r1, r3, rrx
      40:	61686b00 	cmnvs	r8, r0, lsl #22
      44:	00682e6c 	rsbeq	r2, r8, ip, ror #28
      48:	6b000002 	blvs	58 <STICK_ON+0x49>
      4c:	73666564 	cmnvc	r6, #100, 10	@ 0x19000000
      50:	0200682e 	andeq	r6, r0, #3014656	@ 0x2e0000
      54:	6f6b0000 	svcvs	0x006b0000
      58:	2e736a62 	vsubcs.f32	s13, s6, s5
      5c:	00020068 	andeq	r0, r2, r8, rrx
      60:	70706100 	rsbsvc	r6, r0, r0, lsl #2
      64:	6163696c 	cmnvs	r3, ip, ror #18
      68:	6e6f6974 			@ <UNDEFINED> instruction: 0x6e6f6974
      6c:	0300682e 	movweq	r6, #2094	@ 0x82e
      70:	616b0000 	cmnvs	fp, r0
      74:	682e6970 	stmdavs	lr!, {r4, r5, r6, r8, fp, sp, lr}
      78:	00000200 	andeq	r0, r0, r0, lsl #4
      7c:	00010500 	andeq	r0, r1, r0, lsl #10
      80:	00000205 	andeq	r0, r0, r5, lsl #4
      84:	15030000 	strne	r0, [r3, #-0]
      88:	13050501 	movwne	r0, #21761	@ 0x5501
      8c:	01060f05 	tsteq	r6, r5, lsl #30
      90:	022f0105 	eoreq	r0, pc, #1073741825	@ 0x40000001
      94:	01010004 	tsteq	r1, r4
      98:	05000105 	streq	r0, [r0, #-261]	@ 0xfffffefb
      9c:	00016402 	andeq	r6, r1, r2, lsl #8
      a0:	011a0300 	tsteq	sl, r0, lsl #6
      a4:	05130505 	ldreq	r0, [r3, #-1285]	@ 0xfffffafb
      a8:	05110601 	ldreq	r0, [r1, #-1537]	@ 0xfffff9ff
      ac:	05322309 	ldreq	r2, [r2, #-777]!	@ 0xfffffcf7
      b0:	2e75030f 	cdpcs	3, 7, cr0, cr5, cr15, {0}
      b4:	060b052e 	streq	r0, [fp], -lr, lsr #10
      b8:	052e0617 	streq	r0, [lr, #-1559]!	@ 0xfffff9e9
      bc:	09052801 	stmdbeq	r5, {r0, fp, sp}
      c0:	207a0306 	rsbscs	r0, sl, r6, lsl #6
      c4:	0306054c 	movweq	r0, #25932	@ 0x654c
      c8:	05050175 	streq	r0, [r5, #-373]	@ 0xfffffe8b
      cc:	060f0514 			@ <UNDEFINED> instruction: 0x060f0514
      d0:	09052e01 	stmdbeq	r5, {r0, r9, sl, fp, sp}
      d4:	010b0306 	tsteq	fp, r6, lsl #6
      d8:	01000502 	tsteq	r0, r2, lsl #10
      dc:	00010501 	andeq	r0, r1, r1, lsl #10
      e0:	01900205 	orrseq	r0, r0, r5, lsl #4
      e4:	26030000 	strcs	r0, [r3], -r0
      e8:	13030501 	movwne	r0, #13569	@ 0x3501
      ec:	01000602 	tsteq	r0, r2, lsl #12
      f0:	00010501 	andeq	r0, r1, r1, lsl #10
      f4:	019c0205 	orrseq	r0, ip, r5, lsl #4
      f8:	2c030000 	stccs	0, cr0, [r3], {-0}
      fc:	05010601 	streq	r0, [r1, #-1537]	@ 0xfffff9ff
     100:	09052503 	stmdbeq	r5, {r0, r1, r8, sl, sp}
     104:	05202221 	streq	r2, [r0, #-545]!	@ 0xfffffddf
     108:	04020005 	streq	r0, [r2], #-5
     10c:	79030601 	stmdbvc	r3, {r0, r9, sl}
     110:	00020501 	andeq	r0, r2, r1, lsl #10
     114:	13010402 	movwne	r0, #5122	@ 0x1402
     118:	02000505 	andeq	r0, r0, #20971520	@ 0x1400000
     11c:	05130104 	ldreq	r0, [r3, #-260]	@ 0xfffffefc
     120:	04020003 	streq	r0, [r2], #-3
     124:	09051401 	stmdbeq	r5, {r0, sl, ip}
     128:	01040200 	mrseq	r0, R12_usr
     12c:	0003053d 	andeq	r0, r3, sp, lsr r5
     130:	67010402 	strvs	r0, [r1, -r2, lsl #8]
     134:	02000905 	andeq	r0, r0, #81920	@ 0x14000
     138:	05130104 	ldreq	r0, [r3, #-260]	@ 0xfffffefc
     13c:	04020003 	streq	r0, [r2], #-3
     140:	0a053d01 	beq	14f54c <__exidx_end+0x14e4d8>
     144:	01040200 	mrseq	r0, R12_usr
     148:	023c7a03 	eorseq	r7, ip, #12288	@ 0x3000
     14c:	01010007 	tsteq	r1, r7
     150:	05000105 	streq	r0, [r0, #-261]	@ 0xfffffefb
     154:	0001d002 	andeq	sp, r1, r2
     158:	013c0300 	teqeq	ip, r0, lsl #6
     15c:	05130205 	ldreq	r0, [r3, #-517]	@ 0xfffffdfb
     160:	05010607 	streq	r0, [r1, #-1543]	@ 0xfffff9f9
     164:	09051f01 	stmdbeq	r5, {r0, r8, r9, sl, fp, ip}
     168:	21030525 	tstcs	r3, r5, lsr #10
     16c:	051b0705 	ldreq	r0, [fp, #-1797]	@ 0xfffff8fb
     170:	04020005 	streq	r0, [r2], #-5
     174:	00210601 	eoreq	r0, r1, r1, lsl #12
     178:	13010402 	movwne	r0, #5122	@ 0x1402
     17c:	02000905 	andeq	r0, r0, #81920	@ 0x14000
     180:	05140104 	ldreq	r0, [r4, #-260]	@ 0xfffffefc
     184:	04020003 	streq	r0, [r2], #-3
     188:	02003d01 	andeq	r3, r0, #1, 26	@ 0x40
     18c:	05670104 	strbeq	r0, [r7, #-260]!	@ 0xfffffefc
     190:	0402000a 	streq	r0, [r2], #-10
     194:	05023801 	streq	r3, [r2, #-2049]	@ 0xfffff7ff
     198:	05010100 	streq	r0, [r1, #-256]	@ 0xffffff00
     19c:	02050001 	andeq	r0, r5, #1
     1a0:	000001fc 	strdeq	r0, [r0], -ip
     1a4:	0100c803 	tsteq	r0, r3, lsl #16
     1a8:	09050106 	stmdbeq	r5, {r1, r2, r8}
     1ac:	00050524 	andeq	r0, r5, r4, lsr #10
     1b0:	06010402 	streq	r0, [r1], -r2, lsl #8
     1b4:	0402001d 	streq	r0, [r2], #-29	@ 0xffffffe3
     1b8:	09051301 	stmdbeq	r5, {r0, r8, r9, ip}
     1bc:	01040200 	mrseq	r0, R12_usr
     1c0:	04020014 	streq	r0, [r2], #-20	@ 0xffffffec
     1c4:	0a053d01 	beq	14f5d0 <__exidx_end+0x14e55c>
     1c8:	01040200 	mrseq	r0, R12_usr
     1cc:	00040239 	andeq	r0, r4, r9, lsr r2
     1d0:	00a70101 	adceq	r0, r7, r1, lsl #2
     1d4:	00030000 	andeq	r0, r3, r0
     1d8:	00000064 	andeq	r0, r0, r4, rrx
     1dc:	0efb0102 	cdpeq	1, 15, cr0, cr11, cr2, {0}
     1e0:	0101000d 	tsteq	r1, sp
     1e4:	00000101 	andeq	r0, r0, r1, lsl #2
     1e8:	00000100 	andeq	r0, r0, r0, lsl #2
     1ec:	636e4901 	cmnvs	lr, #16384	@ 0x4000
     1f0:	70706100 	rsbsvc	r6, r0, r0, lsl #2
     1f4:	636e492f 	cmnvs	lr, #770048	@ 0xbc000
     1f8:	616d0000 	cmnvs	sp, r0
     1fc:	632e6e69 			@ <UNDEFINED> instruction: 0x632e6e69
     200:	00000000 	andeq	r0, r0, r0
     204:	6c61686b 	stclvs	8, cr6, [r1], #-428	@ 0xfffffe54
     208:	0100682e 	tsteq	r0, lr, lsr #16
     20c:	646b0000 	strbtvs	r0, [fp], #-0
     210:	2e736665 	cdpcs	6, 7, cr6, cr3, cr5, {3}
     214:	00010068 	andeq	r0, r1, r8, rrx
     218:	626f6b00 	rsbvs	r6, pc, #0, 22
     21c:	682e736a 	stmdavs	lr!, {r1, r3, r5, r6, r8, r9, ip, sp, lr}
     220:	00000100 	andeq	r0, r0, r0, lsl #2
     224:	6c707061 	ldclvs	0, cr7, [r0], #-388	@ 0xfffffe7c
     228:	74616369 	strbtvc	r6, [r1], #-873	@ 0xfffffc97
     22c:	2e6e6f69 	cdpcs	15, 6, cr6, cr14, cr9, {3}
     230:	00020068 	andeq	r0, r2, r8, rrx
     234:	70616b00 	rsbvc	r6, r1, r0, lsl #22
     238:	00682e69 	rsbeq	r2, r8, r9, ror #28
     23c:	00000001 	andeq	r0, r0, r1
     240:	05000105 	streq	r0, [r0, #-261]	@ 0xfffffefb
     244:	00021402 	andeq	r1, r2, r2, lsl #8
     248:	05051500 	streq	r1, [r5, #-1280]	@ 0xfffffb00
     24c:	01050115 	tsteq	r5, r5, lsl r1
     250:	05050f06 	streq	r0, [r5, #-3846]	@ 0xfffff0fa
     254:	063c0623 	ldrteq	r0, [ip], -r3, lsr #12
     258:	4a7a0334 	bmi	1e80f30 <__exidx_end+0x1e7febc>
     25c:	584a5806 	stmdapl	sl, {r1, r2, fp, ip, lr}^
     260:	9f9f1858 	svcls	0x009f1858
     264:	0402009f 	streq	r0, [r2], #-159	@ 0xffffff61
     268:	09052f01 	stmdbeq	r5, {r0, r8, r9, sl, fp, sp}
     26c:	01040200 	mrseq	r0, R12_usr
     270:	000a0514 	andeq	r0, sl, r4, lsl r5
     274:	1e010402 	cdpne	4, 0, cr0, cr1, cr2, {0}
     278:	01001c02 	tsteq	r0, r2, lsl #24
     27c:	00023b01 	andeq	r3, r2, r1, lsl #22
     280:	cb000300 	blgt	e88 <kSleepUntil+0x38>
     284:	02000001 	andeq	r0, r0, #1
     288:	0d0efb01 	vstreq	d15, [lr, #-4]
     28c:	01010100 	mrseq	r0, (UNDEF: 17)
     290:	00000001 	andeq	r0, r0, r1
     294:	01000001 	tsteq	r0, r1
     298:	7070412f 	rsbsvc	r4, r0, pc, lsr #2
     29c:	6163696c 	cmnvs	r3, ip, ror #18
     2a0:	6e6f6974 			@ <UNDEFINED> instruction: 0x6e6f6974
     2a4:	54532f73 	ldrbpl	r2, [r3], #-3955	@ 0xfffff08d
     2a8:	4332334d 	teqmi	r2, #872415233	@ 0x34000001
     2ac:	49656275 	stmdbmi	r5!, {r0, r2, r4, r5, r6, r9, sp, lr}^
     2b0:	612e4544 			@ <UNDEFINED> instruction: 0x612e4544
     2b4:	432f7070 			@ <UNDEFINED> instruction: 0x432f7070
     2b8:	65746e6f 	ldrbvs	r6, [r4, #-3695]!	@ 0xfffff191
     2bc:	2f73746e 	svccs	0x0073746e
     2c0:	696c6345 	stmdbvs	ip!, {r0, r2, r6, r8, r9, sp, lr}^
     2c4:	2f657370 	svccs	0x00657370
     2c8:	67756c70 			@ <UNDEFINED> instruction: 0x67756c70
     2cc:	2f736e69 	svccs	0x00736e69
     2d0:	2e6d6f63 	cdpcs	15, 6, cr6, cr13, cr3, {3}
     2d4:	732e7473 			@ <UNDEFINED> instruction: 0x732e7473
     2d8:	32336d74 	eorscc	r6, r3, #116, 26	@ 0x1d00
     2dc:	65627563 	strbvs	r7, [r2, #-1379]!	@ 0xfffffa9d
     2e0:	6564692e 	strbvs	r6, [r4, #-2350]!	@ 0xfffff6d2
     2e4:	75636d2e 	strbvc	r6, [r3, #-3374]!	@ 0xfffff2d2
     2e8:	7478652e 	ldrbtvc	r6, [r8], #-1326	@ 0xfffffad2
     2ec:	616e7265 	cmnvs	lr, r5, ror #4
     2f0:	6f6f746c 	svcvs	0x006f746c
     2f4:	672e736c 	strvs	r7, [lr, -ip, ror #6]!
     2f8:	742d756e 	strtvc	r7, [sp], #-1390	@ 0xfffffa92
     2fc:	736c6f6f 	cmnvc	ip, #444	@ 0x1bc
     300:	726f662d 	rsbvc	r6, pc, #47185920	@ 0x2d00000
     304:	6d74732d 	ldclvs	3, cr7, [r4, #-180]!	@ 0xffffff4c
     308:	312e3233 			@ <UNDEFINED> instruction: 0x312e3233
     30c:	2e332e32 	mrccs	14, 1, r2, cr3, cr2, {1}
     310:	316c6572 	smccc	50770	@ 0xc652
     314:	63616d2e 	cmnvs	r1, #2944	@ 0xb80
     318:	3436736f 	ldrtcc	r7, [r6], #-879	@ 0xfffffc91
     31c:	312e315f 			@ <UNDEFINED> instruction: 0x312e315f
     320:	322e302e 	eorcc	r3, lr, #46	@ 0x2e
     324:	31343230 	teqcc	r4, r0, lsr r2
     328:	31303330 	teqcc	r0, r0, lsr r3
     32c:	2f313032 	svccs	0x00313032
     330:	6c6f6f74 	stclvs	15, cr6, [pc], #-464	@ 168 <uart_print+0x4>
     334:	72612f73 	rsbvc	r2, r1, #460	@ 0x1cc
     338:	6f6e2d6d 	svcvs	0x006e2d6d
     33c:	652d656e 	strvs	r6, [sp, #-1390]!	@ 0xfffffa92
     340:	2f696261 	svccs	0x00696261
     344:	6c636e69 	stclvs	14, cr6, [r3], #-420	@ 0xfffffe5c
     348:	2f656475 	svccs	0x00656475
     34c:	6863616d 	stmdavs	r3!, {r0, r2, r3, r5, r6, r8, sp, lr}^
     350:	00656e69 	rsbeq	r6, r5, r9, ror #28
     354:	7070412f 	rsbsvc	r4, r0, pc, lsr #2
     358:	6163696c 	cmnvs	r3, ip, ror #18
     35c:	6e6f6974 			@ <UNDEFINED> instruction: 0x6e6f6974
     360:	54532f73 	ldrbpl	r2, [r3], #-3955	@ 0xfffff08d
     364:	4332334d 	teqmi	r2, #872415233	@ 0x34000001
     368:	49656275 	stmdbmi	r5!, {r0, r2, r4, r5, r6, r9, sp, lr}^
     36c:	612e4544 			@ <UNDEFINED> instruction: 0x612e4544
     370:	432f7070 			@ <UNDEFINED> instruction: 0x432f7070
     374:	65746e6f 	ldrbvs	r6, [r4, #-3695]!	@ 0xfffff191
     378:	2f73746e 	svccs	0x0073746e
     37c:	696c6345 	stmdbvs	ip!, {r0, r2, r6, r8, r9, sp, lr}^
     380:	2f657370 	svccs	0x00657370
     384:	67756c70 			@ <UNDEFINED> instruction: 0x67756c70
     388:	2f736e69 	svccs	0x00736e69
     38c:	2e6d6f63 	cdpcs	15, 6, cr6, cr13, cr3, {3}
     390:	732e7473 			@ <UNDEFINED> instruction: 0x732e7473
     394:	32336d74 	eorscc	r6, r3, #116, 26	@ 0x1d00
     398:	65627563 	strbvs	r7, [r2, #-1379]!	@ 0xfffffa9d
     39c:	6564692e 	strbvs	r6, [r4, #-2350]!	@ 0xfffff6d2
     3a0:	75636d2e 	strbvc	r6, [r3, #-3374]!	@ 0xfffff2d2
     3a4:	7478652e 	ldrbtvc	r6, [r8], #-1326	@ 0xfffffad2
     3a8:	616e7265 	cmnvs	lr, r5, ror #4
     3ac:	6f6f746c 	svcvs	0x006f746c
     3b0:	672e736c 	strvs	r7, [lr, -ip, ror #6]!
     3b4:	742d756e 	strtvc	r7, [sp], #-1390	@ 0xfffffa92
     3b8:	736c6f6f 	cmnvc	ip, #444	@ 0x1bc
     3bc:	726f662d 	rsbvc	r6, pc, #47185920	@ 0x2d00000
     3c0:	6d74732d 	ldclvs	3, cr7, [r4, #-180]!	@ 0xffffff4c
     3c4:	312e3233 			@ <UNDEFINED> instruction: 0x312e3233
     3c8:	2e332e32 	mrccs	14, 1, r2, cr3, cr2, {1}
     3cc:	316c6572 	smccc	50770	@ 0xc652
     3d0:	63616d2e 	cmnvs	r1, #2944	@ 0xb80
     3d4:	3436736f 	ldrtcc	r7, [r6], #-879	@ 0xfffffc91
     3d8:	312e315f 			@ <UNDEFINED> instruction: 0x312e315f
     3dc:	322e302e 	eorcc	r3, lr, #46	@ 0x2e
     3e0:	31343230 	teqcc	r4, r0, lsr r2
     3e4:	31303330 	teqcc	r0, r0, lsr r3
     3e8:	2f313032 	svccs	0x00313032
     3ec:	6c6f6f74 	stclvs	15, cr6, [pc], #-464	@ 224 <main+0x10>
     3f0:	72612f73 	rsbvc	r2, r1, #460	@ 0x1cc
     3f4:	6f6e2d6d 	svcvs	0x006e2d6d
     3f8:	652d656e 	strvs	r6, [sp, #-1390]!	@ 0xfffffa92
     3fc:	2f696261 	svccs	0x00696261
     400:	6c636e69 	stclvs	14, cr6, [r3], #-420	@ 0xfffffe5c
     404:	2f656475 	svccs	0x00656475
     408:	00737973 	rsbseq	r7, r3, r3, ror r9
     40c:	61747300 	cmnvs	r4, r0, lsl #6
     410:	70757472 	rsbsvc	r7, r5, r2, ror r4
     414:	726f635f 	rsbvc	r6, pc, #2080374785	@ 0x7c000001
     418:	6d786574 	cfldr64vs	mvdx6, [r8, #-464]!	@ 0xfffffe30
     41c:	0000632e 	andeq	r6, r0, lr, lsr #6
     420:	645f0000 	ldrbvs	r0, [pc], #-0	@ 428 <kMboxPost+0x74>
     424:	75616665 	strbvc	r6, [r1, #-1637]!	@ 0xfffff99b
     428:	745f746c 	ldrbvc	r7, [pc], #-1132	@ 430 <kMboxPost+0x7c>
     42c:	73657079 	cmnvc	r5, #121	@ 0x79
     430:	0100682e 	tsteq	r0, lr, lsr #16
     434:	735f0000 	cmpvc	pc, #0
     438:	6e696474 	mcrvs	4, 3, r6, cr9, cr4, {3}
     43c:	00682e74 	rsbeq	r2, r8, r4, ror lr
     440:	3c000002 	stccc	0, cr0, [r0], {2}
     444:	6c697562 	cfstr64vs	mvdx7, [r9], #-392	@ 0xfffffe78
     448:	6e692d74 	mcrvs	13, 3, r2, cr9, cr4, {3}
     44c:	0000003e 	andeq	r0, r0, lr, lsr r0
     450:	1c050000 	stcne	0, cr0, [r5], {-0}
     454:	c8020500 	stmdagt	r2, {r8, sl}
     458:	03000002 	movweq	r0, #2
     45c:	050100e8 	streq	r0, [r1, #-232]	@ 0xffffff18
     460:	04020005 	streq	r0, [r2], #-5
     464:	0b051401 	bleq	145470 <__exidx_end+0x1443fc>
     468:	01040200 	mrseq	r0, R12_usr
     46c:	00010201 	andeq	r0, r1, r1, lsl #4
     470:	1a050101 	bne	14087c <__exidx_end+0x13f808>
     474:	cc020500 	cfstr32gt	mvfx0, [r2], {-0}
     478:	03000002 	movweq	r0, #2
     47c:	050100ca 	streq	r0, [r1, #-202]	@ 0xffffff36
     480:	13151305 	tstne	r5, #335544320	@ 0x14000000
     484:	061a0514 			@ <UNDEFINED> instruction: 0x061a0514
     488:	05017903 	streq	r7, [r1, #-2307]	@ 0xfffff6fd
     48c:	10052812 	andne	r2, r5, r2, lsl r8
     490:	060505cd 	streq	r0, [r5], -sp, asr #11
     494:	020015cc 	andeq	r1, r0, #204, 10	@ 0x33000000
     498:	05310104 	ldreq	r0, [r1, #-260]!	@ 0xfffffefc
     49c:	0402000b 	streq	r0, [r2], #-11
     4a0:	0b020101 	bleq	808ac <__exidx_end+0x7f838>
     4a4:	05010100 	streq	r0, [r1, #-256]	@ 0xffffff00
     4a8:	02050017 	andeq	r0, r5, #23
     4ac:	00000000 	andeq	r0, r0, r0
     4b0:	0100c303 	tsteq	r0, r3, lsl #6
     4b4:	02140105 	andseq	r0, r4, #1073741825	@ 0x40000001
     4b8:	01010001 	tsteq	r1, r1
     4bc:	000002be 			@ <UNDEFINED> instruction: 0x000002be
     4c0:	002f0003 	eoreq	r0, pc, r3
     4c4:	01020000 	mrseq	r0, (UNDEF: 2)
     4c8:	000d0efb 	strdeq	r0, [sp], -fp
     4cc:	01010101 	tsteq	r1, r1, lsl #2
     4d0:	01000000 	mrseq	r0, (UNDEF: 0)
     4d4:	53010000 	movwpl	r0, #4096	@ 0x1000
     4d8:	49006372 	stmdbmi	r0, {r1, r4, r5, r6, r8, r9, sp, lr}
     4dc:	0000636e 	andeq	r6, r0, lr, ror #6
     4e0:	6c61686b 	stclvs	8, cr6, [r1], #-428	@ 0xfffffe54
     4e4:	0100632e 	tsteq	r0, lr, lsr #6
     4e8:	686b0000 	stmdavs	fp!, {}^	@ <UNPREDICTABLE>
     4ec:	682e6c61 	stmdavs	lr!, {r0, r5, r6, sl, fp, sp, lr}
     4f0:	00000200 	andeq	r0, r0, r0, lsl #4
     4f4:	00010500 	andeq	r0, r1, r0, lsl #10
     4f8:	00000205 	andeq	r0, r0, r5, lsl #4
     4fc:	21030000 	mrscs	r0, (UNDEF: 3)
     500:	13050501 	movwne	r0, #21761	@ 0x5501
     504:	36051413 			@ <UNDEFINED> instruction: 0x36051413
     508:	05201406 	streq	r1, [r0, #-1030]!	@ 0xfffffbfa
     50c:	48222c0f 	stmdami	r2!, {r0, r1, r2, r3, sl, fp, sp}
     510:	21060505 	tstcs	r6, r5, lsl #10
     514:	18051313 	stmdane	r5, {r0, r1, r4, r8, r9, ip}
     518:	05050106 	streq	r0, [r5, #-262]	@ 0xfffffefa
     51c:	18052206 	stmdane	r5, {r1, r2, r9, sp}
     520:	01050106 	tsteq	r5, r6, lsl #2
     524:	00050221 	andeq	r0, r5, r1, lsr #4
     528:	01050101 	tsteq	r5, r1, lsl #2
     52c:	00020500 	andeq	r0, r2, r0, lsl #10
     530:	03000000 	movweq	r0, #0
     534:	0505012e 	streq	r0, [r5, #-302]	@ 0xfffffed2
     538:	06190513 			@ <UNDEFINED> instruction: 0x06190513
     53c:	2f010501 	svccs	0x00010501
     540:	01000602 	tsteq	r0, r2, lsl #12
     544:	00010501 	andeq	r0, r1, r1, lsl #10
     548:	00000205 	andeq	r0, r0, r5, lsl #4
     54c:	33030000 	movwcc	r0, #12288	@ 0x3000
     550:	13050501 	movwne	r0, #21761	@ 0x5501
     554:	01061005 	tsteq	r6, r5
     558:	052e1805 	streq	r1, [lr, #-2053]!	@ 0xfffff7fb
     55c:	03023d01 	movweq	r3, #11521	@ 0x2d01
     560:	05010100 	streq	r0, [r1, #-256]	@ 0xffffff00
     564:	02050001 	andeq	r0, r5, #1
     568:	0000031c 	andeq	r0, r0, ip, lsl r3
     56c:	05013803 	streq	r3, [r1, #-2051]	@ 0xfffff7fd
     570:	08051305 	stmdaeq	r5, {r0, r2, r8, r9, ip}
     574:	09050106 	stmdbeq	r5, {r1, r2, r8}
     578:	20052306 	andcs	r2, r5, r6, lsl #6
     57c:	3a051806 	bcc	14659c <__exidx_end+0x145528>
     580:	053c7a03 	ldreq	r7, [ip, #-2563]!	@ 0xfffff5fd
     584:	052e2111 	streq	r2, [lr, #-273]!	@ 0xfffffeef
     588:	20051f2e 	andcs	r1, r5, lr, lsr #30
     58c:	033a0542 	teqeq	sl, #276824064	@ 0x10800000
     590:	09052e7a 	stmdbeq	r5, {r1, r3, r4, r5, r6, r9, sl, fp, sp}
     594:	20052606 	andcs	r2, r5, r6, lsl #12
     598:	01050106 	tsteq	r5, r6, lsl #2
     59c:	00040230 	andeq	r0, r4, r0, lsr r2
     5a0:	01050101 	tsteq	r5, r1, lsl #2
     5a4:	00020500 	andeq	r0, r2, r0, lsl #10
     5a8:	03000000 	movweq	r0, #0
     5ac:	050100c7 	streq	r0, [r1, #-199]	@ 0xffffff39
     5b0:	08051305 	stmdaeq	r5, {r0, r2, r8, r9, ip}
     5b4:	09050106 	stmdbeq	r5, {r1, r2, r8}
     5b8:	21052306 	tstcs	r5, r6, lsl #6
     5bc:	05371706 	ldreq	r1, [r7, #-1798]!	@ 0xfffff8fa
     5c0:	21052036 	tstcs	r5, r6, lsr r0
     5c4:	09052933 	stmdbeq	r5, {r0, r1, r4, r5, r8, fp, sp}
     5c8:	21053306 	tstcs	r5, r6, lsl #6
     5cc:	28050106 	stmdacs	r5, {r1, r2, r8}
     5d0:	2201052e 	andcs	r0, r1, #192937984	@ 0xb800000
     5d4:	01000402 	tsteq	r0, r2, lsl #8
     5d8:	00010501 	andeq	r0, r1, r1, lsl #10
     5dc:	00000205 	andeq	r0, r0, r5, lsl #4
     5e0:	d5030000 	strle	r0, [r3, #-0]
     5e4:	05050100 	streq	r0, [r5, #-256]	@ 0xffffff00
     5e8:	06080513 			@ <UNDEFINED> instruction: 0x06080513
     5ec:	09052001 	stmdbeq	r5, {r0, sp}
     5f0:	2e052206 	cdpcs	2, 0, cr2, cr5, cr6, {0}
     5f4:	21050106 	tstcs	r5, r6, lsl #2
     5f8:	20270520 	eorcs	r0, r7, r0, lsr #10
     5fc:	05203705 	streq	r3, [r0, #-1797]!	@ 0xfffff8fb
     600:	27052e2e 	strcs	r2, [r5, -lr, lsr #28]
     604:	30010520 	andcc	r0, r1, r0, lsr #10
     608:	01000402 	tsteq	r0, r2, lsl #8
     60c:	00010501 	andeq	r0, r1, r1, lsl #10
     610:	00000205 	andeq	r0, r0, r5, lsl #4
     614:	dd030000 	stcle	0, cr0, [r3, #-0]
     618:	05050100 	streq	r0, [r5, #-256]	@ 0xffffff00
     61c:	06080513 			@ <UNDEFINED> instruction: 0x06080513
     620:	09052001 	stmdbeq	r5, {r0, sp}
     624:	2e052206 	cdpcs	2, 0, cr2, cr5, cr6, {0}
     628:	21050106 	tstcs	r5, r6, lsl #2
     62c:	20270520 	eorcs	r0, r7, r0, lsr #10
     630:	05203705 	streq	r3, [r0, #-1797]!	@ 0xfffff8fb
     634:	27052e2e 	strcs	r2, [r5, -lr, lsr #28]
     638:	3e010520 	cfsh32cc	mvfx0, mvfx1, #16
     63c:	01000302 	tsteq	r0, r2, lsl #6
     640:	00010501 	andeq	r0, r1, r1, lsl #10
     644:	00000205 	andeq	r0, r0, r5, lsl #4
     648:	e5030000 	str	r0, [r3, #-0]
     64c:	05050100 	streq	r0, [r5, #-256]	@ 0xffffff00
     650:	06080513 			@ <UNDEFINED> instruction: 0x06080513
     654:	09052001 	stmdbeq	r5, {r0, sp}
     658:	2e052206 	cdpcs	2, 0, cr2, cr5, cr6, {0}
     65c:	21050106 	tstcs	r5, r6, lsl #2
     660:	20270520 	eorcs	r0, r7, r0, lsr #10
     664:	05203705 	streq	r3, [r0, #-1797]!	@ 0xfffff8fb
     668:	27052e2e 	strcs	r2, [r5, -lr, lsr #28]
     66c:	3e010520 	cfsh32cc	mvfx0, mvfx1, #16
     670:	01000302 	tsteq	r0, r2, lsl #6
     674:	00010501 	andeq	r0, r1, r1, lsl #10
     678:	00000205 	andeq	r0, r0, r5, lsl #4
     67c:	ed030000 	stc	0, cr0, [r3, #-0]
     680:	05050100 	streq	r0, [r5, #-256]	@ 0xffffff00
     684:	06080513 			@ <UNDEFINED> instruction: 0x06080513
     688:	09052001 	stmdbeq	r5, {r0, sp}
     68c:	2e052206 	cdpcs	2, 0, cr2, cr5, cr6, {0}
     690:	21050106 	tstcs	r5, r6, lsl #2
     694:	20270520 	eorcs	r0, r7, r0, lsr #10
     698:	05203705 	streq	r3, [r0, #-1797]!	@ 0xfffff8fb
     69c:	27052e2e 	strcs	r2, [r5, -lr, lsr #28]
     6a0:	3e010520 	cfsh32cc	mvfx0, mvfx1, #16
     6a4:	01000302 	tsteq	r0, r2, lsl #6
     6a8:	00010501 	andeq	r0, r1, r1, lsl #10
     6ac:	00000205 	andeq	r0, r0, r5, lsl #4
     6b0:	f5030000 			@ <UNDEFINED> instruction: 0xf5030000
     6b4:	05050100 	streq	r0, [r5, #-256]	@ 0xffffff00
     6b8:	06080513 			@ <UNDEFINED> instruction: 0x06080513
     6bc:	06090501 	streq	r0, [r9], -r1, lsl #10
     6c0:	062b0522 	strteq	r0, [fp], -r2, lsr #10
     6c4:	2e250501 	cfsh64cs	mvdx0, mvdx5, #1
     6c8:	054a4105 	strbeq	r4, [sl, #-261]	@ 0xfffffefb
     6cc:	14053c4b 	strne	r3, [r5], #-3147	@ 0xfffff3b5
     6d0:	3210052f 	andscc	r0, r0, #197132288	@ 0xbc00000
     6d4:	02220105 	eoreq	r0, r2, #1073741825	@ 0x40000001
     6d8:	01010003 	tsteq	r1, r3
     6dc:	05000105 	streq	r0, [r0, #-261]	@ 0xfffffefb
     6e0:	00034402 	andeq	r4, r3, r2, lsl #8
     6e4:	01860300 	orreq	r0, r6, r0, lsl #6
     6e8:	14050501 	strne	r0, [r5], #-1281	@ 0xfffffaff
     6ec:	01061005 	tsteq	r6, r5
     6f0:	05200805 	streq	r0, [r0, #-2053]!	@ 0xfffff7fb
     6f4:	05340605 	ldreq	r0, [r4, #-1541]!	@ 0xfffff9fb
     6f8:	4201061b 	andmi	r0, r1, #28311552	@ 0x1b00000
     6fc:	05207a03 	streq	r7, [r0, #-2563]!	@ 0xfffff5fd
     700:	05230605 	streq	r0, [r3, #-1541]!	@ 0xfffff9fb
     704:	2001061a 	andcs	r0, r1, sl, lsl r6
     708:	31060505 	tstcc	r6, r5, lsl #10
     70c:	03061005 	movweq	r1, #24581	@ 0x6005
     710:	1b050176 	blne	140cf0 <__exidx_end+0x13fc7c>
     714:	052e0a03 	streq	r0, [lr, #-2563]!	@ 0xfffff5fd
     718:	05220605 	streq	r0, [r2, #-1541]!	@ 0xfffff9fb
     71c:	02130601 	andseq	r0, r3, #1048576	@ 0x100000
     720:	01010001 	tsteq	r1, r1
     724:	05000105 	streq	r0, [r0, #-261]	@ 0xfffffefb
     728:	00000002 	andeq	r0, r0, r2
     72c:	019a0300 	orrseq	r0, sl, r0, lsl #6
     730:	13050501 	movwne	r0, #21761	@ 0x5501
     734:	01061c05 	tsteq	r6, r5, lsl #24
     738:	023d0105 	eorseq	r0, sp, #1073741825	@ 0x40000001
     73c:	01010001 	tsteq	r1, r1
     740:	05000105 	streq	r0, [r0, #-261]	@ 0xfffffefb
     744:	00000002 	andeq	r0, r0, r2
     748:	019f0300 	orrseq	r0, pc, r0, lsl #6
     74c:	13050501 	movwne	r0, #21761	@ 0x5501
     750:	01061405 	tsteq	r6, r5, lsl #8
     754:	053c1b05 	ldreq	r1, [ip, #-2821]!	@ 0xfffff4fb
     758:	01023d01 	tsteq	r2, r1, lsl #26
     75c:	05010100 	streq	r0, [r1, #-256]	@ 0xffffff00
     760:	02050001 	andeq	r0, r5, #1
     764:	00000000 	andeq	r0, r0, r0
     768:	0101a403 	tsteq	r1, r3, lsl #8
     76c:	05130505 	ldreq	r0, [r3, #-1285]	@ 0xfffffafb
     770:	05010614 	streq	r0, [r1, #-1556]	@ 0xfffff9ec
     774:	01053c1b 	tsteq	r5, fp, lsl ip
     778:	0001023d 	andeq	r0, r1, sp, lsr r2
     77c:	04d60101 	ldrbeq	r0, [r6], #257	@ 0x101
     780:	00030000 	andeq	r0, r3, r0
     784:	00000066 	andeq	r0, r0, r6, rrx
     788:	0efb0102 	cdpeq	1, 15, cr0, cr11, cr2, {0}
     78c:	0101000d 	tsteq	r1, sp
     790:	00000101 	andeq	r0, r0, r1, lsl #2
     794:	00000100 	andeq	r0, r0, r0, lsl #2
     798:	63725301 	cmnvs	r2, #67108864	@ 0x4000000
     79c:	636e4900 	cmnvs	lr, #0, 18
     7a0:	6d6b0000 	stclvs	0, cr0, [fp, #-0]
     7a4:	2e677365 	cdpcs	3, 6, cr7, cr7, cr5, {3}
     7a8:	00010063 	andeq	r0, r1, r3, rrx
     7ac:	63736b00 	cmnvs	r3, #0, 22
     7b0:	00682e68 	rsbeq	r2, r8, r8, ror #28
     7b4:	6b000002 	blvs	7c4 <kTCBQRem+0x18>
     7b8:	73666564 	cmnvc	r6, #100, 10	@ 0x19000000
     7bc:	0200682e 	andeq	r6, r0, #3014656	@ 0x2e0000
     7c0:	686b0000 	stmdavs	fp!, {}^	@ <UNPREDICTABLE>
     7c4:	682e6c61 	stmdavs	lr!, {r0, r5, r6, sl, fp, sp, lr}
     7c8:	00000200 	andeq	r0, r0, r0, lsl #4
     7cc:	6a626f6b 	bvs	189c580 <__exidx_end+0x189b50c>
     7d0:	00682e73 	rsbeq	r2, r8, r3, ror lr
     7d4:	6b000002 	blvs	7e4 <kTCBQRem+0x38>
     7d8:	656d6974 	strbvs	r6, [sp, #-2420]!	@ 0xfffff68c
     7dc:	00682e72 	rsbeq	r2, r8, r2, ror lr
     7e0:	6b000002 	blvs	7f0 <kTCBQRem+0x44>
     7e4:	2e727265 	cdpcs	2, 7, cr7, cr2, cr5, {3}
     7e8:	00020068 	andeq	r0, r2, r8, rrx
     7ec:	01050000 	mrseq	r0, (UNDEF: 5)
     7f0:	64020500 	strvs	r0, [r2], #-1280	@ 0xfffffb00
     7f4:	03000003 	movweq	r0, #3
     7f8:	0505012c 	streq	r0, [r5, #-300]	@ 0xfffffed4
     7fc:	01051313 	tsteq	r5, r3, lsl r3
     800:	05201006 	streq	r1, [r0, #-6]!
     804:	062e3005 	strteq	r3, [lr], -r5
     808:	06080521 	streq	r0, [r8], -r1, lsr #10
     80c:	06090501 	streq	r0, [r9], -r1, lsl #10
     810:	062e0622 	strteq	r0, [lr], -r2, lsr #12
     814:	10053d2f 	andne	r3, r5, pc, lsr #26
     818:	01050106 	tsteq	r5, r6, lsl #2
     81c:	052e0b03 	streq	r0, [lr, #-2819]!	@ 0xfffff4fd
     820:	77030605 	strvc	r0, [r3, -r5, lsl #12]
     824:	05020420 	streq	r0, [r2, #-1056]	@ 0xfffffbe0
     828:	0d03061f 	stceq	6, cr0, [r3, #-124]	@ 0xffffff84
     82c:	2f1d0501 	svccs	0x001d0501
     830:	042f1405 	strteq	r1, [pc], #-1029	@ 838 <kReadyQDeq+0x8>
     834:	03130501 	tsteq	r3, #4194304	@ 0x400000
     838:	05052071 	streq	r2, [r5, #-113]	@ 0xffffff8f
     83c:	04132106 	ldreq	r2, [r3], #-262	@ 0xfffffefa
     840:	16350502 	ldrtne	r0, [r5], -r2, lsl #10
     844:	16150505 	ldrne	r0, [r5], -r5, lsl #10
     848:	06140514 			@ <UNDEFINED> instruction: 0x06140514
     84c:	06050501 	streq	r0, [r5], -r1, lsl #10
     850:	060f0521 	streq	r0, [pc], -r1, lsr #10
     854:	05052013 	streq	r2, [r5, #-19]	@ 0xffffffed
     858:	062f3d06 	strteq	r3, [pc], -r6, lsl #26
     85c:	06010401 	streq	r0, [r1], -r1, lsl #8
     860:	14017003 	strne	r7, [r1], #-3
     864:	01061005 	tsteq	r6, r5
     868:	21060505 	tstcs	r6, r5, lsl #10
     86c:	01061105 	tsteq	r6, r5, lsl #2
     870:	2f060505 	svccs	0x00060505
     874:	060c052f 	streq	r0, [ip], -pc, lsr #10
     878:	00050201 	andeq	r0, r5, r1, lsl #4
     87c:	01050101 	tsteq	r5, r1, lsl #2
     880:	00020500 	andeq	r0, r2, r0, lsl #10
     884:	03000000 	movweq	r0, #0
     888:	050100c1 	streq	r0, [r1, #-193]	@ 0xffffff3f
     88c:	05131305 	ldreq	r1, [r3, #-773]	@ 0xfffffcfb
     890:	20100601 	andscs	r0, r0, r1, lsl #12
     894:	2e300505 	cdpcs	5, 3, cr0, cr0, cr5, {0}
     898:	08052106 	stmdaeq	r5, {r1, r2, r8, sp}
     89c:	0e050106 	adfeqs	f0, f5, f6
     8a0:	01040200 	mrseq	r0, R12_usr
     8a4:	06090520 	streq	r0, [r9], -r0, lsr #10
     8a8:	06190522 	ldreq	r0, [r9], -r2, lsr #10
     8ac:	06090501 	streq	r0, [r9], -r1, lsl #10
     8b0:	10052f21 	andne	r2, r5, r1, lsr #30
     8b4:	01050106 	tsteq	r5, r6, lsl #2
     8b8:	06050524 	streq	r0, [r5], -r4, lsr #10
     8bc:	0620061e 			@ <UNDEFINED> instruction: 0x0620061e
     8c0:	060c052f 	streq	r0, [ip], -pc, lsr #10
     8c4:	00030201 	andeq	r0, r3, r1, lsl #4
     8c8:	01050101 	tsteq	r5, r1, lsl #2
     8cc:	b4020500 	strlt	r0, [r2], #-1280	@ 0xfffffb00
     8d0:	03000003 	movweq	r0, #3
     8d4:	050100d0 	streq	r0, [r1, #-208]	@ 0xffffff30
     8d8:	05131405 	ldreq	r1, [r3, #-1029]	@ 0xfffffbfb
     8dc:	2e0f0601 	cfmadd32cs	mvax0, mvfx0, mvfx15, mvfx1
     8e0:	043f0505 	ldrteq	r0, [pc], #-1285	@ 8e8 <kCreateTask+0x94>
     8e4:	01ed0303 	mvneq	r0, r3, lsl #6
     8e8:	0301042e 	movweq	r0, #5166	@ 0x142e
     8ec:	062e7e93 			@ <UNDEFINED> instruction: 0x062e7e93
     8f0:	05030421 	streq	r0, [r3, #-1057]	@ 0xfffffbdf
     8f4:	01e9030a 	mvneq	r0, sl, lsl #6
     8f8:	14050501 	strne	r0, [r5], #-1281	@ 0xfffffaff
     8fc:	042f1313 	strteq	r1, [pc], #-787	@ 904 <kCreateTask+0xb0>
     900:	06080501 	streq	r0, [r8], -r1, lsl #10
     904:	017e9203 	cmneq	lr, r3, lsl #4
     908:	02000905 	andeq	r0, r0, #81920	@ 0x14000
     90c:	06200104 	strteq	r0, [r0], -r4, lsl #2
     910:	052e0622 	streq	r0, [lr, #-1570]!	@ 0xfffff9de
     914:	05300605 	ldreq	r0, [r0, #-1541]!	@ 0xfffff9fb
     918:	05010608 	streq	r0, [r1, #-1544]	@ 0xfffff9f8
     91c:	04020018 	streq	r0, [r2], #-24	@ 0xffffffe8
     920:	09052001 	stmdbeq	r5, {r0, sp}
     924:	05052206 	streq	r2, [r5, #-518]	@ 0xfffffdfa
     928:	0608054c 	streq	r0, [r8], -ip, asr #10
     92c:	06090501 	streq	r0, [r9], -r1, lsl #10
     930:	4e050530 	cfmv64hrmi	mvdx5, r0
     934:	01060805 	tsteq	r6, r5, lsl #16
     938:	3f060905 	svccc	0x00060905
     93c:	01060c05 	tsteq	r6, r5, lsl #24
     940:	22060d05 	andcs	r0, r6, #320	@ 0x140
     944:	0614053d 			@ <UNDEFINED> instruction: 0x0614053d
     948:	03010501 	movweq	r0, #5377	@ 0x1501
     94c:	09052e34 	stmdbeq	r5, {r2, r4, r5, r9, sl, fp, sp}
     950:	3c500306 	mrrccc	3, 0, r0, r0, cr6	@ <UNPREDICTABLE>
     954:	2e061305 	cdpcs	3, 0, cr1, cr6, cr5, {0}
     958:	062e0905 	strteq	r0, [lr], -r5, lsl #18
     95c:	0618055d 			@ <UNDEFINED> instruction: 0x0618055d
     960:	200f0501 	andcs	r0, pc, r1, lsl #10
     964:	05301b05 	ldreq	r1, [r0, #-2821]!	@ 0xfffff4fb
     968:	09052c18 	stmdbeq	r5, {r3, r4, sl, fp, sp}
     96c:	0c052206 	sfmeq	f2, 4, [r5], {6}
     970:	0d050106 	stfeqs	f0, [r5, #-24]	@ 0xffffffe8
     974:	144a3006 	strbne	r3, [sl], #-6
     978:	584d0905 	stmdapl	sp, {r0, r2, r8, fp}^
     97c:	053d2f2e 	ldreq	r2, [sp, #-3886]!	@ 0xfffff0d2
     980:	052f0613 	streq	r0, [pc, #-1555]!	@ 375 <kMboxInit+0x11>
     984:	21062d09 	tstcs	r6, r9, lsl #26
     988:	01060c05 	tsteq	r6, r5, lsl #24
     98c:	31060d05 	tstcc	r6, r5, lsl #26
     990:	01061d05 	tsteq	r6, r5, lsl #26
     994:	2f060d05 	svccs	0x00060d05
     998:	0614052f 	ldreq	r0, [r4], -pc, lsr #10
     99c:	06090501 	streq	r0, [r9], -r1, lsl #10
     9a0:	060c053f 			@ <UNDEFINED> instruction: 0x060c053f
     9a4:	060d0501 	streq	r0, [sp], -r1, lsl #10
     9a8:	052e063d 	streq	r0, [lr, #-1597]!	@ 0xfffff9c3
     9ac:	05310605 	ldreq	r0, [r1, #-1541]!	@ 0xfffff9fb
     9b0:	05150608 	ldreq	r0, [r5, #-1544]	@ 0xfffff9f8
     9b4:	05051d13 	streq	r1, [r5, #-3347]	@ 0xfffff2ed
     9b8:	08052306 	stmdaeq	r5, {r1, r2, r8, r9, sp}
     9bc:	09050106 	stmdbeq	r5, {r1, r2, r8}
     9c0:	05132206 	ldreq	r2, [r3, #-518]	@ 0xfffffdfa
     9c4:	05010622 	streq	r0, [r1, #-1570]	@ 0xfffff9de
     9c8:	0c052017 	stceq	0, cr2, [r5], {23}
     9cc:	1f15053d 	svcne	0x0015053d
     9d0:	21060905 	tstcs	r6, r5, lsl #18
     9d4:	01060c05 	tsteq	r6, r5, lsl #24
     9d8:	30060d05 	andcc	r0, r6, r5, lsl #26
     9dc:	0402004b 	streq	r0, [r2], #-75	@ 0xffffffb5
     9e0:	062e0601 	strteq	r0, [lr], -r1, lsl #12
     9e4:	062e052f 	strteq	r0, [lr], -pc, lsr #10
     9e8:	200d0520 	andcs	r0, sp, r0, lsr #10
     9ec:	05201705 	streq	r1, [r0, #-1797]!	@ 0xfffff8fb
     9f0:	4b06200d 	blmi	188a2c <__exidx_end+0x1879b8>
     9f4:	01062105 	tsteq	r6, r5, lsl #2
     9f8:	05201805 	streq	r1, [r0, #-2053]!	@ 0xfffff7fb
     9fc:	0d052021 	stceq	0, cr2, [r5, #-132]	@ 0xffffff7c
     a00:	2f052106 	svccs	0x00052106
     a04:	10050106 	andne	r0, r5, r6, lsl #2
     a08:	0611052e 	ldreq	r0, [r1], -lr, lsr #10
     a0c:	062e663d 			@ <UNDEFINED> instruction: 0x062e663d
     a10:	0605052e 	streq	r0, [r5], -lr, lsr #10
     a14:	0c053d15 	stceq	13, cr3, [r5], {21}
     a18:	08020106 	stmdaeq	r2, {r1, r2, r8}
     a1c:	05010100 	streq	r0, [r1, #-256]	@ 0xffffff00
     a20:	02050001 	andeq	r0, r5, #1
     a24:	00000000 	andeq	r0, r0, r0
     a28:	0101a003 	tsteq	r1, r3
     a2c:	13130505 	tstne	r3, #20971520	@ 0x1400000
     a30:	10060105 	andne	r0, r6, r5, lsl #2
     a34:	30050520 	andcc	r0, r5, r0, lsr #10
     a38:	0522062e 	streq	r0, [r2, #-1582]!	@ 0xfffff9d2
     a3c:	05010608 	streq	r0, [r1, #-1544]	@ 0xfffff9f8
     a40:	04020018 	streq	r0, [r2], #-24	@ 0xffffffe8
     a44:	09052001 	stmdbeq	r5, {r0, sp}
     a48:	2e062206 	cdpcs	2, 0, cr2, cr6, cr6, {0}
     a4c:	30060505 	andcc	r0, r6, r5, lsl #10
     a50:	01060805 	tsteq	r6, r5, lsl #16
     a54:	30060905 	andcc	r0, r6, r5, lsl #18
     a58:	054c0505 	strbeq	r0, [ip, #-1285]	@ 0xfffffafb
     a5c:	01150309 	tsteq	r5, r9, lsl #6
     a60:	15060505 	strne	r0, [r6, #-1285]	@ 0xfffffafb
     a64:	051d1705 	ldreq	r1, [sp, #-1797]	@ 0xfffff8fb
     a68:	2f230605 	svccs	0x00230605
     a6c:	13060105 	movwne	r0, #24837	@ 0x6105
     a70:	0101002e 	tsteq	r1, lr, lsr #32
     a74:	05000105 	streq	r0, [r0, #-261]	@ 0xfffffefb
     a78:	0004ec02 	andeq	lr, r4, r2, lsl #24
     a7c:	01ca0300 	biceq	r0, sl, r0, lsl #6
     a80:	14050501 	strne	r0, [r5], #-1281	@ 0xfffffaff
     a84:	06010513 			@ <UNDEFINED> instruction: 0x06010513
     a88:	05052e0f 	streq	r2, [r5, #-3599]	@ 0xfffff1f1
     a8c:	0303043f 	movweq	r0, #13375	@ 0x343f
     a90:	042e00f3 	strteq	r0, [lr], #-243	@ 0xffffff0d
     a94:	7f8d0301 	svcvc	0x008d0301
     a98:	0421062e 	strteq	r0, [r1], #-1582	@ 0xfffff9d2
     a9c:	030a0503 	movweq	r0, #42243	@ 0xa503
     aa0:	050100ef 	streq	r0, [r1, #-239]	@ 0xffffff11
     aa4:	13131405 	tstne	r3, #83886080	@ 0x5000000
     aa8:	0501042f 	streq	r0, [r1, #-1071]	@ 0xfffffbd1
     aac:	8c030608 	stchi	6, cr0, [r3], {8}
     ab0:	0905017f 	stmdbeq	r5, {r0, r1, r2, r3, r4, r5, r6, r8}
     ab4:	01040200 	mrseq	r0, R12_usr
     ab8:	06220620 	strteq	r0, [r2], -r0, lsr #12
     abc:	0605052e 	streq	r0, [r5], -lr, lsr #10
     ac0:	06080530 			@ <UNDEFINED> instruction: 0x06080530
     ac4:	00180501 	andseq	r0, r8, r1, lsl #10
     ac8:	20010402 	andcs	r0, r1, r2, lsl #8
     acc:	22060905 	andcs	r0, r6, #81920	@ 0x14000
     ad0:	054c0505 	strbeq	r0, [ip, #-1285]	@ 0xfffffafb
     ad4:	05010608 	streq	r0, [r1, #-1544]	@ 0xfffff9f8
     ad8:	05300609 	ldreq	r0, [r0, #-1545]!	@ 0xfffff9f7
     adc:	08054d05 	stmdaeq	r5, {r0, r2, r8, sl, fp, lr}
     ae0:	09050106 	stmdbeq	r5, {r1, r2, r8}
     ae4:	0c053e06 	stceq	14, cr3, [r5], {6}
     ae8:	0d050106 	stfeqs	f0, [r5, #-24]	@ 0xffffffe8
     aec:	053d2206 	ldreq	r2, [sp, #-518]!	@ 0xfffffdfa
     af0:	05010614 	streq	r0, [r1, #-1556]	@ 0xfffff9ec
     af4:	2e320301 	cdpcs	3, 3, cr0, cr2, cr1, {0}
     af8:	03060905 	movweq	r0, #26885	@ 0x6905
     afc:	18053c50 	stmdane	r5, {r4, r6, sl, fp, ip, sp}
     b00:	0f050106 	svceq	0x00050106
     b04:	2f1b0520 	svccs	0x001b0520
     b08:	052d0f05 	streq	r0, [sp, #-3845]!	@ 0xfffff0fb
     b0c:	1805310d 	stmdane	r5, {r0, r2, r3, r8, ip, sp}
     b10:	0609052b 	streq	r0, [r9], -fp, lsr #10
     b14:	060c0521 	streq	r0, [ip], -r1, lsr #10
     b18:	060d0501 	streq	r0, [sp], -r1, lsl #10
     b1c:	05144a30 	ldreq	r4, [r4, #-2608]	@ 0xfffff5d0
     b20:	585c4e09 	ldmdapl	ip, {r0, r3, r9, sl, fp, lr}^
     b24:	053d2f2e 	ldreq	r2, [sp, #-3886]!	@ 0xfffff0d2
     b28:	052f0613 	streq	r0, [pc, #-1555]!	@ 51d <kMboxPend+0x31>
     b2c:	21062d09 	tstcs	r6, r9, lsl #26
     b30:	01060c05 	tsteq	r6, r5, lsl #24
     b34:	30060d05 	andcc	r0, r6, r5, lsl #26
     b38:	01061d05 	tsteq	r6, r5, lsl #26
     b3c:	2f060d05 	svccs	0x00060d05
     b40:	0614052f 	ldreq	r0, [r4], -pc, lsr #10
     b44:	06090501 	streq	r0, [r9], -r1, lsl #10
     b48:	060c053e 			@ <UNDEFINED> instruction: 0x060c053e
     b4c:	060d0501 	streq	r0, [sp], -r1, lsl #10
     b50:	052e063d 	streq	r0, [lr, #-1597]!	@ 0xfffff9c3
     b54:	05310605 	ldreq	r0, [r1, #-1541]!	@ 0xfffff9fb
     b58:	05010615 	streq	r0, [r1, #-1557]	@ 0xfffff9eb
     b5c:	0505200f 	streq	r2, [r5, #-15]
     b60:	13052106 	movwne	r2, #20742	@ 0x5106
     b64:	05050106 	streq	r0, [r5, #-262]	@ 0xfffffefa
     b68:	08053106 	stmdaeq	r5, {r1, r2, r8, ip, sp}
     b6c:	09050106 	stmdbeq	r5, {r1, r2, r8}
     b70:	05133006 	ldreq	r3, [r3, #-6]
     b74:	05010624 	streq	r0, [r1, #-1572]	@ 0xfffff9dc
     b78:	0c052019 	stceq	0, cr2, [r5], {25}
     b7c:	1f17053d 	svcne	0x0017053d
     b80:	21060905 	tstcs	r6, r5, lsl #18
     b84:	01060c05 	tsteq	r6, r5, lsl #24
     b88:	30060d05 	andcc	r0, r6, r5, lsl #26
     b8c:	0630054b 	ldrteq	r0, [r0], -fp, asr #10
     b90:	200d0520 	andcs	r0, sp, r0, lsr #10
     b94:	05201705 	streq	r1, [r0, #-1797]!	@ 0xfffff8fb
     b98:	4b06200d 	blmi	188bd4 <__exidx_end+0x187b60>
     b9c:	01062305 	tsteq	r6, r5, lsl #6
     ba0:	05201a05 	streq	r1, [r0, #-2565]!	@ 0xfffff5fb
     ba4:	0d052023 	stceq	0, cr2, [r5, #-140]	@ 0xffffff74
     ba8:	32052106 	andcc	r2, r5, #-2147483647	@ 0x80000001
     bac:	10050106 	andne	r0, r5, r6, lsl #2
     bb0:	0611052e 	ldreq	r0, [r1], -lr, lsr #10
     bb4:	062e584c 	strteq	r5, [lr], -ip, asr #16
     bb8:	0605052e 	streq	r0, [r5], -lr, lsr #10
     bbc:	0c053d17 	stceq	13, cr3, [r5], {23}
     bc0:	09020106 	stmdbeq	r2, {r1, r2, r8}
     bc4:	05010100 	streq	r0, [r1, #-256]	@ 0xffffff00
     bc8:	02050001 	andeq	r0, r5, #1
     bcc:	00000000 	andeq	r0, r0, r0
     bd0:	01029503 	tsteq	r2, r3, lsl #10
     bd4:	05130505 	ldreq	r0, [r3, #-1285]	@ 0xfffffafb
     bd8:	0501062d 	streq	r0, [r1, #-1581]	@ 0xfffff9d3
     bdc:	04022101 	streq	r2, [r2], #-257	@ 0xfffffeff
     be0:	05010100 	streq	r0, [r1, #-256]	@ 0xffffff00
     be4:	02050001 	andeq	r0, r5, #1
     be8:	00000000 	andeq	r0, r0, r0
     bec:	01029c03 	tsteq	r2, r3, lsl #24
     bf0:	13130505 	tstne	r3, #20971520	@ 0x1400000
     bf4:	10060105 	andne	r0, r6, r5, lsl #2
     bf8:	30050520 	andcc	r0, r5, r0, lsr #10
     bfc:	0521062e 	streq	r0, [r1, #-1582]!	@ 0xfffff9d2
     c00:	05010608 	streq	r0, [r1, #-1544]	@ 0xfffff9f8
     c04:	04020016 	streq	r0, [r2], #-22	@ 0xffffffea
     c08:	09052001 	stmdbeq	r5, {r0, sp}
     c0c:	34062206 	strcc	r2, [r6], #-518	@ 0xfffffdfa
     c10:	053d2f06 	ldreq	r2, [sp, #-3846]!	@ 0xfffff0fa
     c14:	7a030610 	bvc	c245c <__exidx_end+0xc13e8>
     c18:	03010501 	movweq	r0, #5377	@ 0x1501
     c1c:	05052e10 	streq	r2, [r5, #-3600]	@ 0xfffff1f0
     c20:	20720306 	rsbscs	r0, r2, r6, lsl #6
     c24:	01060805 	tsteq	r6, r5, lsl #16
     c28:	30060905 	andcc	r0, r6, r5, lsl #18
     c2c:	05052e06 	streq	r2, [r5, #-3590]	@ 0xfffff1fa
     c30:	0d052406 	cfstrseq	mvf2, [r5, #-24]	@ 0xffffffe8
     c34:	08050106 	stmdaeq	r5, {r1, r2, r8}
     c38:	06090520 	streq	r0, [r9], -r0, lsr #10
     c3c:	10052f22 	andne	r2, r5, r2, lsr #30
     c40:	05050106 	streq	r0, [r5, #-262]	@ 0xfffffefa
     c44:	0f053e06 	svceq	0x00053e06
     c48:	05050106 	streq	r0, [r5, #-262]	@ 0xfffffefa
     c4c:	052f2106 	streq	r2, [pc, #-262]!	@ b4e <kSchSwtch+0x46>
     c50:	0201060c 	andeq	r0, r1, #12, 12	@ 0xc00000
     c54:	01010002 	tsteq	r1, r2
     c58:	00000d7a 	andeq	r0, r0, sl, ror sp
     c5c:	02260003 	eoreq	r0, r6, #3
     c60:	01020000 	mrseq	r0, (UNDEF: 2)
     c64:	000d0efb 	strdeq	r0, [sp], -fp
     c68:	01010101 	tsteq	r1, r1, lsl #2
     c6c:	01000000 	mrseq	r0, (UNDEF: 0)
     c70:	53010000 	movwpl	r0, #4096	@ 0x1000
     c74:	49006372 	stmdbmi	r0, {r1, r4, r5, r6, r8, r9, sp, lr}
     c78:	2f00636e 	svccs	0x0000636e
     c7c:	6c707041 	ldclvs	0, cr7, [r0], #-260	@ 0xfffffefc
     c80:	74616369 	strbtvc	r6, [r1], #-873	@ 0xfffffc97
     c84:	736e6f69 	cmnvc	lr, #420	@ 0x1a4
     c88:	4d54532f 	ldclmi	3, cr5, [r4, #-188]	@ 0xffffff44
     c8c:	75433233 	strbvc	r3, [r3, #-563]	@ 0xfffffdcd
     c90:	44496562 	strbmi	r6, [r9], #-1378	@ 0xfffffa9e
     c94:	70612e45 	rsbvc	r2, r1, r5, asr #28
     c98:	6f432f70 	svcvs	0x00432f70
     c9c:	6e65746e 	cdpvs	4, 6, cr7, cr5, cr14, {3}
     ca0:	452f7374 	strmi	r7, [pc, #-884]!	@ 934 <kCreateTask+0xe0>
     ca4:	70696c63 	rsbvc	r6, r9, r3, ror #24
     ca8:	702f6573 	eorvc	r6, pc, r3, ror r5	@ <UNPREDICTABLE>
     cac:	6967756c 	stmdbvs	r7!, {r2, r3, r5, r6, r8, sl, ip, sp, lr}^
     cb0:	632f736e 			@ <UNDEFINED> instruction: 0x632f736e
     cb4:	732e6d6f 			@ <UNDEFINED> instruction: 0x732e6d6f
     cb8:	74732e74 	ldrbtvc	r2, [r3], #-3700	@ 0xfffff18c
     cbc:	6332336d 	teqvs	r2, #-1275068415	@ 0xb4000001
     cc0:	2e656275 	mcrcs	2, 3, r6, cr5, cr5, {3}
     cc4:	2e656469 	cdpcs	4, 6, cr6, cr5, cr9, {3}
     cc8:	2e75636d 	cdpcs	3, 7, cr6, cr5, cr13, {3}
     ccc:	65747865 	ldrbvs	r7, [r4, #-2149]!	@ 0xfffff79b
     cd0:	6c616e72 	stclvs	14, cr6, [r1], #-456	@ 0xfffffe38
     cd4:	6c6f6f74 	stclvs	15, cr6, [pc], #-464	@ b0c <kSchSwtch+0x4>
     cd8:	6e672e73 	mcrvs	14, 3, r2, cr7, cr3, {3}
     cdc:	6f742d75 	svcvs	0x00742d75
     ce0:	2d736c6f 	ldclcs	12, cr6, [r3, #-444]!	@ 0xfffffe44
     ce4:	2d726f66 	ldclcs	15, cr6, [r2, #-408]!	@ 0xfffffe68
     ce8:	336d7473 	cmncc	sp, #1929379840	@ 0x73000000
     cec:	32312e32 	eorscc	r2, r1, #800	@ 0x320
     cf0:	722e332e 	eorvc	r3, lr, #-1207959552	@ 0xb8000000
     cf4:	2e316c65 	cdpcs	12, 3, cr6, cr1, cr5, {3}
     cf8:	6f63616d 	svcvs	0x0063616d
     cfc:	5f343673 	svcpl	0x00343673
     d00:	2e312e31 	mrccs	14, 1, r2, cr1, cr1, {1}
     d04:	30322e30 	eorscc	r2, r2, r0, lsr lr
     d08:	30313432 	eorscc	r3, r1, r2, lsr r4
     d0c:	32313033 	eorscc	r3, r1, #51	@ 0x33
     d10:	742f3130 	strtvc	r3, [pc], #-304	@ d18 <kRemoveTimerNode+0x10>
     d14:	736c6f6f 	cmnvc	ip, #444	@ 0x1bc
     d18:	6d72612f 	ldfvse	f6, [r2, #-188]!	@ 0xffffff44
     d1c:	6e6f6e2d 	cdpvs	14, 6, cr6, cr15, cr13, {1}
     d20:	61652d65 	cmnvs	r5, r5, ror #26
     d24:	692f6962 	stmdbvs	pc!, {r1, r5, r6, r8, fp, sp, lr}	@ <UNPREDICTABLE>
     d28:	756c636e 	strbvc	r6, [ip, #-878]!	@ 0xfffffc92
     d2c:	6d2f6564 	cfstr32vs	mvfx6, [pc, #-400]!	@ ba4 <kTickHandler+0x3c>
     d30:	69686361 	stmdbvs	r8!, {r0, r5, r6, r8, r9, sp, lr}^
     d34:	2f00656e 	svccs	0x0000656e
     d38:	6c707041 	ldclvs	0, cr7, [r0], #-260	@ 0xfffffefc
     d3c:	74616369 	strbtvc	r6, [r1], #-873	@ 0xfffffc97
     d40:	736e6f69 	cmnvc	lr, #420	@ 0x1a4
     d44:	4d54532f 	ldclmi	3, cr5, [r4, #-188]	@ 0xffffff44
     d48:	75433233 	strbvc	r3, [r3, #-563]	@ 0xfffffdcd
     d4c:	44496562 	strbmi	r6, [r9], #-1378	@ 0xfffffa9e
     d50:	70612e45 	rsbvc	r2, r1, r5, asr #28
     d54:	6f432f70 	svcvs	0x00432f70
     d58:	6e65746e 	cdpvs	4, 6, cr7, cr5, cr14, {3}
     d5c:	452f7374 	strmi	r7, [pc, #-884]!	@ 9f0 <kReadyRunningTask_+0x14>
     d60:	70696c63 	rsbvc	r6, r9, r3, ror #24
     d64:	702f6573 	eorvc	r6, pc, r3, ror r5	@ <UNPREDICTABLE>
     d68:	6967756c 	stmdbvs	r7!, {r2, r3, r5, r6, r8, sl, ip, sp, lr}^
     d6c:	632f736e 			@ <UNDEFINED> instruction: 0x632f736e
     d70:	732e6d6f 			@ <UNDEFINED> instruction: 0x732e6d6f
     d74:	74732e74 	ldrbtvc	r2, [r3], #-3700	@ 0xfffff18c
     d78:	6332336d 	teqvs	r2, #-1275068415	@ 0xb4000001
     d7c:	2e656275 	mcrcs	2, 3, r6, cr5, cr5, {3}
     d80:	2e656469 	cdpcs	4, 6, cr6, cr5, cr9, {3}
     d84:	2e75636d 	cdpcs	3, 7, cr6, cr5, cr13, {3}
     d88:	65747865 	ldrbvs	r7, [r4, #-2149]!	@ 0xfffff79b
     d8c:	6c616e72 	stclvs	14, cr6, [r1], #-456	@ 0xfffffe38
     d90:	6c6f6f74 	stclvs	15, cr6, [pc], #-464	@ bc8 <kTickHandler+0x60>
     d94:	6e672e73 	mcrvs	14, 3, r2, cr7, cr3, {3}
     d98:	6f742d75 	svcvs	0x00742d75
     d9c:	2d736c6f 	ldclcs	12, cr6, [r3, #-444]!	@ 0xfffffe44
     da0:	2d726f66 	ldclcs	15, cr6, [r2, #-408]!	@ 0xfffffe68
     da4:	336d7473 	cmncc	sp, #1929379840	@ 0x73000000
     da8:	32312e32 	eorscc	r2, r1, #800	@ 0x320
     dac:	722e332e 	eorvc	r3, lr, #-1207959552	@ 0xb8000000
     db0:	2e316c65 	cdpcs	12, 3, cr6, cr1, cr5, {3}
     db4:	6f63616d 	svcvs	0x0063616d
     db8:	5f343673 	svcpl	0x00343673
     dbc:	2e312e31 	mrccs	14, 1, r2, cr1, cr1, {1}
     dc0:	30322e30 	eorscc	r2, r2, r0, lsr lr
     dc4:	30313432 	eorscc	r3, r1, r2, lsr r4
     dc8:	32313033 	eorscc	r3, r1, #51	@ 0x33
     dcc:	742f3130 	strtvc	r3, [pc], #-304	@ dd4 <kTimerInit+0x14>
     dd0:	736c6f6f 	cmnvc	ip, #444	@ 0x1bc
     dd4:	6d72612f 	ldfvse	f6, [r2, #-188]!	@ 0xffffff44
     dd8:	6e6f6e2d 	cdpvs	14, 6, cr6, cr15, cr13, {1}
     ddc:	61652d65 	cmnvs	r5, r5, ror #26
     de0:	692f6962 	stmdbvs	pc!, {r1, r5, r6, r8, fp, sp, lr}	@ <UNPREDICTABLE>
     de4:	756c636e 	strbvc	r6, [ip, #-878]!	@ 0xfffffc92
     de8:	732f6564 			@ <UNDEFINED> instruction: 0x732f6564
     dec:	00007379 	andeq	r7, r0, r9, ror r3
     df0:	6863736b 	stmdavs	r3!, {r0, r1, r3, r5, r6, r8, r9, ip, sp, lr}^
     df4:	0100632e 	tsteq	r0, lr, lsr #6
     df8:	736b0000 	cmnvc	fp, #0
     dfc:	682e6863 	stmdavs	lr!, {r0, r1, r5, r6, fp, sp, lr}
     e00:	00000200 	andeq	r0, r0, r0, lsl #4
     e04:	69736d63 	ldmdbvs	r3!, {r0, r1, r5, r6, r8, sl, fp, sp, lr}^
     e08:	63675f73 	cmnvs	r7, #460	@ 0x1cc
     e0c:	00682e63 	rsbeq	r2, r8, r3, ror #28
     e10:	5f000002 	svcpl	0x00000002
     e14:	61666564 	cmnvs	r6, r4, ror #10
     e18:	5f746c75 	svcpl	0x00746c75
     e1c:	65707974 	ldrbvs	r7, [r0, #-2420]!	@ 0xfffff68c
     e20:	00682e73 	rsbeq	r2, r8, r3, ror lr
     e24:	5f000003 	svcpl	0x00000003
     e28:	69647473 	stmdbvs	r4!, {r0, r1, r4, r5, r6, sl, ip, sp, lr}^
     e2c:	682e746e 	stmdavs	lr!, {r1, r2, r3, r5, r6, sl, ip, sp, lr}
     e30:	00000400 	andeq	r0, r0, r0, lsl #8
     e34:	6c61686b 	stclvs	8, cr6, [r1], #-428	@ 0xfffffe54
     e38:	0200682e 	andeq	r6, r0, #3014656	@ 0x2e0000
     e3c:	646b0000 	strbtvs	r0, [fp], #-0
     e40:	2e736665 	cdpcs	6, 7, cr6, cr3, cr5, {3}
     e44:	00020068 	andeq	r0, r2, r8, rrx
     e48:	626f6b00 	rsbvs	r6, pc, #0, 22
     e4c:	682e736a 	stmdavs	lr!, {r1, r3, r5, r6, r8, r9, ip, sp, lr}
     e50:	00000200 	andeq	r0, r0, r0, lsl #4
     e54:	7265766b 	rsbvc	r7, r5, #112197632	@ 0x6b00000
     e58:	6e6f6973 			@ <UNDEFINED> instruction: 0x6e6f6973
     e5c:	0200682e 	andeq	r6, r0, #3014656	@ 0x2e0000
     e60:	746b0000 	strbtvc	r0, [fp], #-0
     e64:	72656d69 	rsbvc	r6, r5, #6720	@ 0x1a40
     e68:	0200682e 	andeq	r6, r0, #3014656	@ 0x2e0000
     e6c:	736b0000 	cmnvc	fp, #0
     e70:	61747379 	cmnvs	r4, r9, ror r3
     e74:	2e736b73 	vmovcs.s8	r6, d3[7]
     e78:	00020068 	andeq	r0, r2, r8, rrx
     e7c:	72656b00 	rsbvc	r6, r5, #0, 22
     e80:	00682e72 	rsbeq	r2, r8, r2, ror lr
     e84:	00000002 	andeq	r0, r0, r2
     e88:	05000105 	streq	r0, [r0, #-261]	@ 0xfffffefb
     e8c:	00062402 	andeq	r2, r6, r2, lsl #8
     e90:	02ac0300 	adceq	r0, ip, #0, 6
     e94:	13050501 	movwne	r0, #21761	@ 0x5501
     e98:	5c030f05 	stcpl	15, cr0, [r3], {5}
     e9c:	16050501 	strne	r0, [r5], -r1, lsl #10
     ea0:	03060105 	movweq	r0, #24837	@ 0x6105
     ea4:	0805011f 	stmdaeq	r5, {r0, r1, r2, r3, r4, r8}
     ea8:	05206103 	streq	r6, [r0, #-259]!	@ 0xfffffefd
     eac:	30052e1e 	andcc	r2, r5, lr, lsl lr
     eb0:	0605052e 	streq	r0, [r5], -lr, lsr #10
     eb4:	062a0532 			@ <UNDEFINED> instruction: 0x062a0532
     eb8:	2e110501 	cfmul32cs	mvfx0, mvfx1, mvfx1
     ebc:	053c2a05 	ldreq	r2, [ip, #-2565]!	@ 0xfffff5fb
     ec0:	052f0605 	streq	r0, [pc, #-1541]!	@ 8c3 <kCreateTask+0x6f>
     ec4:	05110611 	ldreq	r0, [r1, #-1553]	@ 0xfffff9ef
     ec8:	05052129 	streq	r2, [r5, #-297]	@ 0xfffffed7
     ecc:	2a054b06 	bcs	153aec <__exidx_end+0x152a78>
     ed0:	29051306 	stmdbcs	r5, {r1, r2, r8, r9, ip}
     ed4:	2c2a054c 	cfstr32cs	mvfx0, [sl], #-304	@ 0xfffffed0
     ed8:	2f060505 	svccs	0x00060505
     edc:	13062905 	movwne	r2, #26885	@ 0x6905
     ee0:	4b060505 	blmi	1822fc <__exidx_end+0x181288>
     ee4:	01062905 	tsteq	r6, r5, lsl #18
     ee8:	0605052f 	streq	r0, [r5], -pc, lsr #10
     eec:	062a052f 	strteq	r0, [sl], -pc, lsr #10
     ef0:	29052e13 	stmdbcs	r5, {r0, r1, r4, r9, sl, fp, sp}
     ef4:	2c2a0530 	cfstr32cs	mvfx0, [sl], #-192	@ 0xffffff40
     ef8:	2f060505 	svccs	0x00060505
     efc:	13062905 	movwne	r2, #26885	@ 0x6905
     f00:	05052c30 	streq	r2, [r5, #-3120]	@ 0xfffff3d0
     f04:	29052f06 	stmdbcs	r5, {r1, r2, r8, r9, sl, fp, sp}
     f08:	05051306 	streq	r1, [r5, #-774]	@ 0xfffffcfa
     f0c:	29054b06 	stmdbcs	r5, {r1, r2, r8, r9, fp, lr}
     f10:	2d2f0106 	stfcss	f0, [pc, #-24]!	@ f00 <kTimeOutReadyTask+0x2c>
     f14:	2f060505 	svccs	0x00060505
     f18:	01061105 	tsteq	r6, r5, lsl #2
     f1c:	052e2905 	streq	r2, [lr, #-2309]!	@ 0xfffff6fb
     f20:	05220605 	streq	r0, [r2, #-1541]!	@ 0xfffff9fb
     f24:	1005010a 	andne	r0, r5, sl, lsl #2
     f28:	11050106 	tstne	r5, r6, lsl #2
     f2c:	2425051e 	strtcs	r0, [r5], #-1310	@ 0xfffffae2
     f30:	061a0520 	ldreq	r0, [sl], -r0, lsr #10
     f34:	32050548 	andcc	r0, r5, #72, 10	@ 0x12000000
     f38:	03062105 	movweq	r2, #24837	@ 0x6105
     f3c:	1505010a 	strne	r0, [r5, #-266]	@ 0xfffffef6
     f40:	05207603 	streq	r7, [r0, #-1539]!	@ 0xfffff9fd
     f44:	200a0321 	andcs	r0, sl, r1, lsr #6
     f48:	76031505 	strvc	r1, [r3], -r5, lsl #10
     f4c:	06050520 	streq	r0, [r5], -r0, lsr #10
     f50:	05010621 	streq	r0, [r1, #-1569]	@ 0xfffff9df
     f54:	09030609 	stmdbeq	r3, {r0, r3, r9, sl}
     f58:	06130501 	ldreq	r0, [r3], -r1, lsl #10
     f5c:	2e210501 	cfsh64cs	mvdx0, mvdx1, #1
     f60:	05301e05 	ldreq	r1, [r0, #-3589]!	@ 0xfffff1fb
     f64:	1705211b 	smladne	r5, fp, r1, r2
     f68:	2510051e 	ldrcs	r0, [r0, #-1310]	@ 0xfffffae2
     f6c:	7a032105 	bvc	c9388 <__exidx_end+0xc8314>
     f70:	06090520 	streq	r0, [r9], -r0, lsr #10
     f74:	05131321 	ldreq	r1, [r3, #-801]	@ 0xfffffcdf
     f78:	0501061b 	streq	r0, [r1, #-1563]	@ 0xfffff9e5
     f7c:	05210609 	streq	r0, [r1, #-1545]!	@ 0xfffff9f7
     f80:	05010618 	streq	r0, [r1, #-1560]	@ 0xfffff9e8
     f84:	05220609 	streq	r0, [r2, #-1545]!	@ 0xfffff9f7
     f88:	05150601 	ldreq	r0, [r5, #-1537]	@ 0xfffff9ff
     f8c:	6b030609 	blvs	c27b8 <__exidx_end+0xc1744>
     f90:	06250520 	strteq	r0, [r5], -r0, lsr #10
     f94:	06290501 	strteq	r0, [r9], -r1, lsl #10
     f98:	2020062c 	eorcs	r0, r0, ip, lsr #12
     f9c:	16030c05 	strne	r0, [r3], -r5, lsl #24
     fa0:	09022e01 	stmdbeq	r2, {r0, r9, sl, fp, sp}
     fa4:	05010100 	streq	r0, [r1, #-256]	@ 0xffffff00
     fa8:	02050001 	andeq	r0, r5, #1
     fac:	000006f0 	strdeq	r0, [r0], -r0	@ <UNPREDICTABLE>
     fb0:	01048203 	tsteq	r4, r3, lsl #4
     fb4:	05130505 	ldreq	r0, [r3, #-1285]	@ 0xfffffafb
     fb8:	05010617 	streq	r0, [r1, #-1559]	@ 0xfffff9e9
     fbc:	17051f01 	strne	r1, [r5, -r1, lsl #30]
     fc0:	20080521 	andcs	r0, r8, r1, lsr #10
     fc4:	1e061705 	cdpne	7, 0, cr1, cr6, cr5, {0}
     fc8:	05180505 	ldreq	r0, [r8, #-1285]	@ 0xfffffafb
     fcc:	05010627 	streq	r0, [r1, #-1575]	@ 0xfffff9d9
     fd0:	27052025 	strcs	r2, [r5, -r5, lsr #32]
     fd4:	20250520 	eorcs	r0, r5, r0, lsr #10
     fd8:	05201505 	streq	r1, [r0, #-1285]!	@ 0xfffffafb
     fdc:	052f0605 	streq	r0, [pc, #-1541]!	@ 9df <kReadyRunningTask_+0x3>
     fe0:	05010620 	streq	r0, [r1, #-1568]	@ 0xfffff9e0
     fe4:	05053c0d 	streq	r3, [r5, #-3085]	@ 0xfffff3f3
     fe8:	01062206 	tsteq	r6, r6, lsl #4
     fec:	05140105 	ldreq	r0, [r4, #-261]	@ 0xfffffefb
     ff0:	20790310 	rsbscs	r0, r9, r0, lsl r3
     ff4:	01000702 	tsteq	r0, r2, lsl #14
     ff8:	00010501 	andeq	r0, r1, r1, lsl #10
     ffc:	00000205 	andeq	r0, r0, r5, lsl #4
    1000:	d0030000 	andle	r0, r3, r0
    1004:	05050100 	streq	r0, [r5, #-256]	@ 0xffffff00
    1008:	06170513 			@ <UNDEFINED> instruction: 0x06170513
    100c:	2e080501 	cfsh32cs	mvfx0, mvfx8, #1
    1010:	22060905 	andcs	r0, r6, #81920	@ 0x14000
    1014:	01061705 	tsteq	r6, r5, lsl #14
    1018:	30060505 	andcc	r0, r6, r5, lsl #10
    101c:	01060c05 	tsteq	r6, r5, lsl #24
    1020:	02210105 	eoreq	r0, r1, #1073741825	@ 0x40000001
    1024:	01010004 	tsteq	r1, r4
    1028:	05000105 	streq	r0, [r0, #-261]	@ 0xfffffefb
    102c:	00000002 	andeq	r0, r0, r2
    1030:	00d90300 	sbcseq	r0, r9, r0, lsl #6
    1034:	13050501 	movwne	r0, #21761	@ 0x5501
    1038:	01061705 	tsteq	r6, r5, lsl #14
    103c:	052e0805 	streq	r0, [lr, #-2053]!	@ 0xfffff7fb
    1040:	05220609 	streq	r0, [r2, #-1545]!	@ 0xfffff9f7
    1044:	05010617 	streq	r0, [r1, #-1559]	@ 0xfffff9e9
    1048:	053e0605 	ldreq	r0, [lr, #-1541]!	@ 0xfffff9fb
    104c:	0501060d 	streq	r0, [r1, #-1549]	@ 0xfffff9f3
    1050:	07022101 	streq	r2, [r2, -r1, lsl #2]
    1054:	05010100 	streq	r0, [r1, #-256]	@ 0xffffff00
    1058:	02050001 	andeq	r0, r5, #1
    105c:	0000071c 	andeq	r0, r0, ip, lsl r7
    1060:	0100e603 	tsteq	r0, r3, lsl #12
    1064:	05130505 	ldreq	r0, [r3, #-1285]	@ 0xfffffafb
    1068:	05110601 	ldreq	r0, [r1, #-1537]	@ 0xfffff9ff
    106c:	09052108 	stmdbeq	r5, {r3, r8, sp}
    1070:	2e062206 	cdpcs	2, 0, cr2, cr6, cr6, {0}
    1074:	10052f06 	andne	r2, r5, r6, lsl #30
    1078:	01050106 	tsteq	r5, r6, lsl #2
    107c:	06050531 			@ <UNDEFINED> instruction: 0x06050531
    1080:	0502041f 	streq	r0, [r2, #-1055]	@ 0xfffffbe1
    1084:	014f0335 	cmpeq	pc, r5, lsr r3	@ <UNPREDICTABLE>
    1088:	16150505 	ldrne	r0, [r5], -r5, lsl #10
    108c:	16060f05 	strne	r0, [r6], -r5, lsl #30
    1090:	052b1d05 	streq	r1, [fp, #-3333]!	@ 0xfffff2fb
    1094:	052f0605 	streq	r0, [pc, #-1541]!	@ a97 <kInit+0x87>
    1098:	0514060f 	ldreq	r0, [r4, #-1551]	@ 0xfffff9f1
    109c:	05052c14 	streq	r2, [r5, #-3092]	@ 0xfffff3ec
    10a0:	2f142106 	svccs	0x00142106
    10a4:	01040106 	tsteq	r4, r6, lsl #2
    10a8:	24030d05 	strcs	r0, [r3], #-3333	@ 0xfffff2fb
    10ac:	01022001 	tsteq	r2, r1
    10b0:	05010100 	streq	r0, [r1, #-256]	@ 0xffffff00
    10b4:	02050001 	andeq	r0, r5, #1
    10b8:	00000744 	andeq	r0, r0, r4, asr #14
    10bc:	01018303 	tsteq	r1, r3, lsl #6
    10c0:	05130505 	ldreq	r0, [r3, #-1285]	@ 0xfffffafb
    10c4:	20110601 	andscs	r0, r1, r1, lsl #12
    10c8:	05210805 	streq	r0, [r1, #-2053]!	@ 0xfffff7fb
    10cc:	06300609 	ldrteq	r0, [r0], -r9, lsl #12
    10d0:	0605052e 	streq	r0, [r5], -lr, lsr #10
    10d4:	02041330 	andeq	r1, r4, #48, 6	@ 0xc0000000
    10d8:	63033805 	movwvs	r3, #14341	@ 0x3805
    10dc:	16050501 	strne	r0, [r5], -r1, lsl #10
    10e0:	01060d05 	tsteq	r6, r5, lsl #26
    10e4:	05200805 	streq	r0, [r0, #-2053]!	@ 0xfffff7fb
    10e8:	05250605 	streq	r0, [r5, #-1541]!	@ 0xfffff9fb
    10ec:	0501060e 	streq	r0, [r1, #-1550]	@ 0xfffff9f2
    10f0:	13210605 			@ <UNDEFINED> instruction: 0x13210605
    10f4:	06100501 	ldreq	r0, [r0], -r1, lsl #10
    10f8:	1f050513 	svcne	0x00050513
    10fc:	3c203c06 	stccc	12, cr3, [r0], #-24	@ 0xffffffe8
    1100:	1005132e 	andne	r1, r5, lr, lsr #6
    1104:	05050106 	streq	r0, [r5, #-262]	@ 0xfffffefa
    1108:	062f2106 	strteq	r2, [pc], -r6, lsl #2
    110c:	06010401 	streq	r0, [r1], -r1, lsl #8
    1110:	16011103 	strne	r1, [r1], -r3, lsl #2
    1114:	03061205 	movweq	r1, #25093	@ 0x6205
    1118:	0e050109 	adfeqs	f0, f5, #1.0
    111c:	05207703 	streq	r7, [r0, #-1795]!	@ 0xfffff8fd
    1120:	17220605 	strne	r0, [r2, -r5, lsl #12]!
    1124:	060d0513 			@ <UNDEFINED> instruction: 0x060d0513
    1128:	06050501 	streq	r0, [r5], -r1, lsl #10
    112c:	0612052f 	ldreq	r0, [r2], -pc, lsr #10
    1130:	08052001 	stmdaeq	r5, {r0, sp}
    1134:	0026052e 	eoreq	r0, r6, lr, lsr #10
    1138:	2e010402 	cdpcs	4, 0, cr0, cr1, cr2, {0}
    113c:	05300c05 	ldreq	r0, [r0, #-3077]!	@ 0xfffff3fb
    1140:	09052101 	stmdbeq	r5, {r0, r8, sp}
    1144:	1f051e06 	svcne	0x00051e06
    1148:	17050106 	strne	r0, [r5, -r6, lsl #2]
    114c:	201f0520 	andscs	r0, pc, r0, lsr #10
    1150:	04201705 	strteq	r1, [r0], #-1797	@ 0xfffff8fb
    1154:	03100502 	tsteq	r0, #8388608	@ 0x800000
    1158:	022e5859 	eoreq	r5, lr, #5832704	@ 0x590000
    115c:	01010005 	tsteq	r1, r5
    1160:	05000105 	streq	r0, [r0, #-261]	@ 0xfffffefb
    1164:	0007ac02 	andeq	sl, r7, r2, lsl #24
    1168:	019e0300 	orrseq	r0, lr, r0, lsl #6
    116c:	13050501 	movwne	r0, #21761	@ 0x5501
    1170:	11060105 	tstne	r6, r5, lsl #2
    1174:	21080520 	tstcs	r8, r0, lsr #10
    1178:	02001605 	andeq	r1, r0, #5242880	@ 0x500000
    117c:	052e0104 	streq	r0, [lr, #-260]!	@ 0xfffffefc
    1180:	05240605 	streq	r0, [r4, #-1541]!	@ 0xfffff9fb
    1184:	05010623 	streq	r0, [r1, #-1571]	@ 0xfffff9dd
    1188:	04210605 	strteq	r0, [r1], #-1541	@ 0xfffff9fb
    118c:	03380502 	teqeq	r8, #8388608	@ 0x800000
    1190:	05017fb7 	streq	r7, [r1, #-4023]	@ 0xfffff049
    1194:	05161505 	ldreq	r1, [r6, #-1285]	@ 0xfffffafb
    1198:	0501060d 	streq	r0, [r1, #-1549]	@ 0xfffff9f3
    119c:	05052008 	streq	r2, [r5, #-8]
    11a0:	3c012406 	cfstrscc	mvf2, [r1], {6}
    11a4:	06100520 	ldreq	r0, [r0], -r0, lsr #10
    11a8:	1f050521 	svcne	0x00050521
    11ac:	05132e06 	ldreq	r2, [r3, #-3590]	@ 0xfffff1fa
    11b0:	05010610 	streq	r0, [r1, #-1552]	@ 0xfffff9f0
    11b4:	2f210605 	svccs	0x00210605
    11b8:	01040106 	tsteq	r4, r6, lsl #2
    11bc:	013c0306 	teqeq	ip, r6, lsl #6
    11c0:	06120516 			@ <UNDEFINED> instruction: 0x06120516
    11c4:	030e0519 	movweq	r0, #58649	@ 0xe519
    11c8:	05052079 	streq	r2, [r5, #-121]	@ 0xffffff87
    11cc:	13162106 	tstne	r6, #-2147483647	@ 0x80000001
    11d0:	01060d05 	tsteq	r6, r5, lsl #26
    11d4:	21060505 	tstcs	r6, r5, lsl #10
    11d8:	01061205 	tsteq	r6, r5, lsl #4
    11dc:	2e080520 	cfsh32cs	mvfx0, mvfx8, #16
    11e0:	02002605 	andeq	r2, r0, #5242880	@ 0x500000
    11e4:	052e0104 	streq	r0, [lr, #-260]!	@ 0xfffffefc
    11e8:	0105300c 	tsteq	r5, ip
    11ec:	06090521 	streq	r0, [r9], -r1, lsr #10
    11f0:	06206e03 	strteq	r6, [r0], -r3, lsl #28
    11f4:	0605052e 	streq	r0, [r5], -lr, lsr #10
    11f8:	06230530 			@ <UNDEFINED> instruction: 0x06230530
    11fc:	06050501 	streq	r0, [r5], -r1, lsl #10
    1200:	05020421 	streq	r0, [r2, #-1057]	@ 0xfffffbdf
    1204:	7fb70338 	svcvc	0x00b70338
    1208:	15050501 	strne	r0, [r5, #-1281]	@ 0xfffffaff
    120c:	01060805 	tsteq	r6, r5, lsl #16
    1210:	3c301005 	ldccc	0, cr1, [r0], #-20	@ 0xffffffec
    1214:	0b050104 	bleq	14162c <__exidx_end+0x1405b8>
    1218:	00d10306 	sbcseq	r0, r1, r6, lsl #6
    121c:	06210501 	strteq	r0, [r1], -r1, lsl #10
    1220:	20190501 	andscs	r0, r9, r1, lsl #10
    1224:	05202105 	streq	r2, [r0, #-261]!	@ 0xfffffefb
    1228:	02042019 	andeq	r2, r4, #25
    122c:	b3031005 	movwlt	r1, #12293	@ 0x3005
    1230:	022e587f 	eoreq	r5, lr, #8323072	@ 0x7f0000
    1234:	01010005 	tsteq	r1, r5
    1238:	05000105 	streq	r0, [r0, #-261]	@ 0xfffffefb
    123c:	00081c02 	andeq	r1, r8, r2, lsl #24
    1240:	01b60300 			@ <UNDEFINED> instruction: 0x01b60300
    1244:	13050501 	movwne	r0, #21761	@ 0x5501
    1248:	11060105 	tstne	r6, r5, lsl #2
    124c:	05210805 	streq	r0, [r1, #-2053]!	@ 0xfffff7fb
    1250:	06300609 	ldrteq	r0, [r0], -r9, lsl #12
    1254:	0605052e 	streq	r0, [r5], -lr, lsr #10
    1258:	0d051330 	stceq	3, cr1, [r5, #-192]	@ 0xffffff40
    125c:	01050106 	tsteq	r5, r6, lsl #2
    1260:	01002e21 	tsteq	r0, r1, lsr #28
    1264:	00010501 	andeq	r0, r1, r1, lsl #10
    1268:	08300205 	ldmdaeq	r0!, {r0, r2, r9}
    126c:	fc030000 	stc2	0, cr0, [r3], {-0}
    1270:	05050101 	streq	r0, [r5, #-257]	@ 0xfffffeff
    1274:	06010514 			@ <UNDEFINED> instruction: 0x06010514
    1278:	22120510 	andscs	r0, r2, #16, 10	@ 0x4000000
    127c:	01052020 	tsteq	r5, r0, lsr #32
    1280:	2212051e 	andscs	r0, r2, #125829120	@ 0x7800000
    1284:	4b060505 	blmi	1826a0 <__exidx_end+0x18162c>
    1288:	01040200 	mrseq	r0, R12_usr
    128c:	02002e06 	andeq	r2, r0, #6, 28	@ 0x60
    1290:	00200104 	eoreq	r0, r0, r4, lsl #2
    1294:	06010402 	streq	r0, [r1], -r2, lsl #8
    1298:	0601052f 	streq	r0, [r1], -pc, lsr #10
    129c:	02022e13 	andeq	r2, r2, #304	@ 0x130
    12a0:	05010100 	streq	r0, [r1, #-256]	@ 0xffffff00
    12a4:	02050001 	andeq	r0, r5, #1
    12a8:	00000854 	andeq	r0, r0, r4, asr r8
    12ac:	0102c203 	tsteq	r2, r3, lsl #4
    12b0:	05190505 	ldreq	r0, [r9, #-1285]	@ 0xfffffafb
    12b4:	79030601 	stmdbvc	r3, {r0, r9, sl}
    12b8:	350e0501 	strcc	r0, [lr, #-1281]	@ 0xfffffaff
    12bc:	79030105 	stmdbvc	r3, {r0, r2, r8}
    12c0:	27080520 	strcs	r0, [r8, -r0, lsr #10]
    12c4:	79030105 	stmdbvc	r3, {r0, r2, r8}
    12c8:	5f080520 	svcpl	0x00080520
    12cc:	31060905 	tstcc	r6, r5, lsl #18
    12d0:	20202006 	eorcs	r2, r0, r6
    12d4:	04020020 	streq	r0, [r2], #-32	@ 0xffffffe0
    12d8:	40063c01 	andmi	r3, r6, r1, lsl #24
    12dc:	01061d05 	tsteq	r6, r5, lsl #26
    12e0:	05341f05 	ldreq	r1, [r4, #-3845]!	@ 0xfffff0fb
    12e4:	2e7a0313 	mrccs	3, 3, r0, cr10, cr3, {0}
    12e8:	05201d05 	streq	r1, [r0, #-3333]!	@ 0xfffff2fb
    12ec:	200f0309 	andcs	r0, pc, r9, lsl #6
    12f0:	71031d05 	tstvc	r3, r5, lsl #26
    12f4:	06090520 	streq	r0, [r9], -r0, lsr #10
    12f8:	1d051340 	stcne	3, cr1, [r5, #-256]	@ 0xffffff00
    12fc:	0e050106 	adfeqs	f0, f5, f6
    1300:	031d0527 	tsteq	sp, #163577856	@ 0x9c00000
    1304:	09052079 	stmdbeq	r5, {r0, r3, r4, r5, r6, sp}
    1308:	18052106 	stmdane	r5, {r1, r2, r8, sp}
    130c:	1f051706 	svcne	0x00051706
    1310:	0609051b 			@ <UNDEFINED> instruction: 0x0609051b
    1314:	06180533 			@ <UNDEFINED> instruction: 0x06180533
    1318:	06090501 	streq	r0, [r9], -r1, lsl #10
    131c:	060e0521 	streq	r0, [lr], -r1, lsr #10
    1320:	06090501 	streq	r0, [r9], -r1, lsl #10
    1324:	04020023 	streq	r0, [r2], #-35	@ 0xffffffdd
    1328:	06660601 	strbteq	r0, [r6], -r1, lsl #12
    132c:	061d0540 	ldreq	r0, [sp], -r0, asr #10
    1330:	20130501 	andscs	r0, r3, r1, lsl #10
    1334:	05201d05 	streq	r1, [r0, #-3333]!	@ 0xfffff2fb
    1338:	054e0609 	strbeq	r0, [lr, #-1545]	@ 0xfffff9f7
    133c:	0501061d 	streq	r0, [r1, #-1565]	@ 0xfffff9e3
    1340:	1d05270e 	stcne	7, cr2, [r5, #-56]	@ 0xffffffc8
    1344:	05207903 	streq	r7, [r0, #-2307]!	@ 0xfffff6fd
    1348:	05210609 	streq	r0, [r1, #-1545]!	@ 0xfffff9f7
    134c:	0501061f 	streq	r0, [r1, #-1567]	@ 0xfffff9e1
    1350:	05330609 	ldreq	r0, [r3, #-1545]!	@ 0xfffff9f7
    1354:	05010617 	streq	r0, [r1, #-1559]	@ 0xfffff9e9
    1358:	1705210e 	strne	r2, [r5, -lr, lsl #2]
    135c:	0609051f 			@ <UNDEFINED> instruction: 0x0609051f
    1360:	16050521 	strne	r0, [r5], -r1, lsr #10
    1364:	01060905 	tsteq	r6, r5, lsl #18
    1368:	05660805 	strbeq	r0, [r6, #-2053]!	@ 0xfffff7fb
    136c:	05300609 	ldreq	r0, [r0, #-1545]!	@ 0xfffff9f7
    1370:	0501060c 	streq	r0, [r1, #-1548]	@ 0xfffff9f4
    1374:	053e060d 	ldreq	r0, [lr, #-1549]!	@ 0xfffff9f3
    1378:	1d054c09 	stcne	12, cr4, [r5, #-36]	@ 0xffffffdc
    137c:	13050106 	movwne	r0, #20742	@ 0x5106
    1380:	201d0520 	andscs	r0, sp, r0, lsr #10
    1384:	0a032105 	beq	c97a0 <__exidx_end+0xc872c>
    1388:	311e053c 	tstcc	lr, ip, lsr r5
    138c:	05211f05 	streq	r1, [r1, #-3845]!	@ 0xfffff0fb
    1390:	1d05230e 	stcne	3, cr2, [r5, #-56]	@ 0xffffffc8
    1394:	05206f03 	streq	r6, [r0, #-3843]!	@ 0xfffff0fd
    1398:	05320609 	ldreq	r0, [r2, #-1545]!	@ 0xfffff9f7
    139c:	0501061d 	streq	r0, [r1, #-1565]	@ 0xfffff9e3
    13a0:	15260609 	strne	r0, [r6, #-1545]!	@ 0xfffff9f7
    13a4:	061f0513 			@ <UNDEFINED> instruction: 0x061f0513
    13a8:	06090501 	streq	r0, [r9], -r1, lsl #10
    13ac:	060e0522 	streq	r0, [lr], -r2, lsr #10
    13b0:	1f180513 	svcne	0x00180513
    13b4:	21060905 	tstcs	r6, r5, lsl #18
    13b8:	06010513 			@ <UNDEFINED> instruction: 0x06010513
    13bc:	3b0c0516 	blcc	30281c <__exidx_end+0x3017a8>
    13c0:	01001702 	tsteq	r0, r2, lsl #14
    13c4:	00010501 	andeq	r0, r1, r1, lsl #10
    13c8:	09440205 	stmdbeq	r4, {r0, r2, r9}^
    13cc:	94030000 	strls	r0, [r3], #-0
    13d0:	05050103 	streq	r0, [r5, #-259]	@ 0xfffffefd
    13d4:	04143013 	ldreq	r3, [r4], #-19	@ 0xffffffed
    13d8:	031f0503 	tsteq	pc, #12582912	@ 0xc00000
    13dc:	0501069a 	streq	r0, [r1, #-1690]	@ 0xfffff966
    13e0:	2f141403 	svccs	0x00141403
    13e4:	01040106 	tsteq	r4, r6, lsl #2
    13e8:	03060505 	movweq	r0, #25861	@ 0x6505
    13ec:	050179e2 	streq	r7, [r1, #-2530]	@ 0xfffff61e
    13f0:	05010608 	streq	r0, [r1, #-1544]	@ 0xfffff9f8
    13f4:	79030606 	stmdbvc	r3, {r1, r2, r9, sl}
    13f8:	03090520 	movweq	r0, #38176	@ 0x9520
    13fc:	212f0109 			@ <UNDEFINED> instruction: 0x212f0109
    1400:	22050530 	andcs	r0, r5, #48, 10	@ 0xc000000
    1404:	0601052f 	streq	r0, [r1], -pc, lsr #10
    1408:	00010213 	andeq	r0, r1, r3, lsl r2
    140c:	01050101 	tsteq	r5, r1, lsl #2
    1410:	60020500 	andvs	r0, r2, r0, lsl #10
    1414:	03000009 	movweq	r0, #9
    1418:	050103a7 	streq	r0, [r1, #-935]	@ 0xfffffc59
    141c:	042f1305 	strteq	r1, [pc], #-773	@ 1424 <__exidx_end+0x3b0>
    1420:	031b0503 	tsteq	fp, #12582912	@ 0xc00000
    1424:	050106a8 	streq	r0, [r1, #-1704]	@ 0xfffff958
    1428:	2e061403 	cdpcs	4, 0, cr1, cr6, cr3, {0}
    142c:	05050104 	streq	r0, [r5, #-260]	@ 0xfffffefc
    1430:	79d70306 	ldmibvc	r7, {r1, r2, r8, r9}^
    1434:	06010501 	streq	r0, [r1], -r1, lsl #10
    1438:	00010230 	andeq	r0, r1, r0, lsr r2
    143c:	01050101 	tsteq	r5, r1, lsl #2
    1440:	70020500 	andvc	r0, r2, r0, lsl #10
    1444:	03000009 	movweq	r0, #9
    1448:	050100f0 	streq	r0, [r1, #-240]	@ 0xffffff10
    144c:	05131405 	ldreq	r1, [r3, #-1029]	@ 0xfffffbfb
    1450:	200f0601 	andcs	r0, pc, r1, lsl #12
    1454:	05230505 	streq	r0, [r3, #-1285]!	@ 0xfffffafb
    1458:	05052b01 	streq	r2, [r5, #-2817]	@ 0xfffff4ff
    145c:	05210623 	streq	r0, [r1, #-1571]!	@ 0xfffff9dd
    1460:	05160626 	ldreq	r0, [r6, #-1574]	@ 0xfffff9da
    1464:	16052a08 	strne	r2, [r5], -r8, lsl #20
    1468:	01040200 	mrseq	r0, R12_usr
    146c:	06050520 	streq	r0, [r5], -r0, lsr #10
    1470:	05020424 	streq	r0, [r2, #-1060]	@ 0xfffffbdc
    1474:	05051638 	streq	r1, [r5, #-1592]	@ 0xfffff9c8
    1478:	06330515 			@ <UNDEFINED> instruction: 0x06330515
    147c:	06380501 	ldrteq	r0, [r8], -r1, lsl #10
    1480:	05204b03 	streq	r4, [r0, #-2819]!	@ 0xfffff4fd
    1484:	2c051605 	stccs	6, cr1, [r5], {5}
    1488:	05050106 	streq	r0, [r5, #-262]	@ 0xfffffefa
    148c:	25052406 	strcs	r2, [r5, #-1030]	@ 0xfffffbfa
    1490:	19050106 	stmdbne	r5, {r1, r2, r8}
    1494:	06050520 	streq	r0, [r5], -r0, lsr #10
    1498:	06220521 	strteq	r0, [r2], -r1, lsr #10
    149c:	06050501 	streq	r0, [r5], -r1, lsl #10
    14a0:	06190521 	ldreq	r0, [r9], -r1, lsr #10
    14a4:	06050501 	streq	r0, [r5], -r1, lsl #10
    14a8:	06190521 	ldreq	r0, [r9], -r1, lsr #10
    14ac:	06050501 	streq	r0, [r5], -r1, lsl #10
    14b0:	06100521 	ldreq	r0, [r0], -r1, lsr #10
    14b4:	05052001 	streq	r2, [r5, #-1]
    14b8:	062f3006 	strteq	r3, [pc], -r6
    14bc:	06010401 	streq	r0, [r1], -r1, lsl #8
    14c0:	05012003 	streq	r2, [r1, #-3]
    14c4:	15051409 	strne	r1, [r5, #-1033]	@ 0xfffffbf7
    14c8:	27050106 	strcs	r0, [r5, -r6, lsl #2]
    14cc:	20150520 	andscs	r0, r5, r0, lsr #10
    14d0:	053c0c05 	ldreq	r0, [ip, #-3077]!	@ 0xfffff3fb
    14d4:	052f060d 	streq	r0, [pc, #-1549]!	@ ecf <kSleepUntil+0x7f>
    14d8:	05010620 	streq	r0, [r1, #-1568]	@ 0xfffff9e0
    14dc:	2005201b 	andcs	r2, r5, fp, lsl r0
    14e0:	201b0520 	andscs	r0, fp, r0, lsr #10
    14e4:	0c050204 	sfmeq	f0, 4, [r5], {4}
    14e8:	203c5d03 	eorscs	r5, ip, r3, lsl #26
    14ec:	05050104 	streq	r0, [r5, #-260]	@ 0xfffffefc
    14f0:	01250306 			@ <UNDEFINED> instruction: 0x01250306
    14f4:	0601053d 			@ <UNDEFINED> instruction: 0x0601053d
    14f8:	06090513 			@ <UNDEFINED> instruction: 0x06090513
    14fc:	062e7603 	strteq	r7, [lr], -r3, lsl #12
    1500:	02042e2e 	andeq	r2, r4, #736	@ 0x2e0
    1504:	5a031005 	bpl	c5520 <__exidx_end+0xc44ac>
    1508:	06022e20 	streq	r2, [r2], -r0, lsr #28
    150c:	05010100 	streq	r0, [r1, #-256]	@ 0xffffff00
    1510:	02050001 	andeq	r0, r5, #1
    1514:	000009dc 	ldrdeq	r0, [r0], -ip
    1518:	0104ab03 	tsteq	r4, r3, lsl #22
    151c:	05130505 	ldreq	r0, [r3, #-1285]	@ 0xfffffafb
    1520:	05110601 	ldreq	r0, [r1, #-1537]	@ 0xfffff9ff
    1524:	0805210f 	stmdaeq	r5, {r0, r1, r2, r3, r8, sp}
    1528:	0609052e 	streq	r0, [r9], -lr, lsr #10
    152c:	0402003f 	streq	r0, [r2], #-63	@ 0xffffffc1
    1530:	05820601 	streq	r0, [r2, #1537]	@ 0x601
    1534:	05370614 	ldreq	r0, [r7, #-1556]!	@ 0xfffff9ec
    1538:	18051a09 	stmdane	r5, {r0, r3, r9, fp, ip}
    153c:	01050106 	tsteq	r5, r6, lsl #2
    1540:	00060242 	andeq	r0, r6, r2, asr #4
    1544:	01050101 	tsteq	r5, r1, lsl #2
    1548:	00020500 	andeq	r0, r2, r0, lsl #10
    154c:	03000000 	movweq	r0, #0
    1550:	050101c0 	streq	r0, [r1, #-448]	@ 0xfffffe40
    1554:	05131305 	ldreq	r1, [r3, #-773]	@ 0xfffffcfb
    1558:	20100601 	andscs	r0, r0, r1, lsl #12
    155c:	05220805 	streq	r0, [r2, #-2053]!	@ 0xfffff7fb
    1560:	04020016 	streq	r0, [r2], #-22	@ 0xffffffea
    1564:	09052e01 	stmdbeq	r5, {r0, r9, sl, fp, sp}
    1568:	2e062206 	cdpcs	2, 0, cr2, cr6, cr6, {0}
    156c:	30060505 	andcc	r0, r6, r5, lsl #10
    1570:	01060d05 	tsteq	r6, r5, lsl #26
    1574:	05200805 	streq	r0, [r0, #-2053]!	@ 0xfffff7fb
    1578:	05230609 	streq	r0, [r3, #-1545]!	@ 0xfffff9f7
    157c:	0501060f 	streq	r0, [r1, #-1551]	@ 0xfffff9f1
    1580:	2e140301 	cdpcs	3, 1, cr0, cr4, cr1, {0}
    1584:	6c030f05 	stcvs	15, cr0, [r3], {5}
    1588:	0605052e 	streq	r0, [r5], -lr, lsr #10
    158c:	060e0533 			@ <UNDEFINED> instruction: 0x060e0533
    1590:	06050501 	streq	r0, [r5], -r1, lsl #10
    1594:	062a0521 	strteq	r0, [sl], -r1, lsr #10
    1598:	1f0d0513 	svcne	0x000d0513
    159c:	2f060505 	svccs	0x00060505
    15a0:	06012105 	streq	r2, [r1], -r5, lsl #2
    15a4:	06050520 	streq	r0, [r5], -r0, lsr #10
    15a8:	052e0a03 	streq	r0, [lr, #-2563]!	@ 0xfffff5fd
    15ac:	04010630 	streq	r0, [r1], #-1584	@ 0xfffff9d0
    15b0:	06380502 	ldrteq	r0, [r8], -r2, lsl #10
    15b4:	2e7ef003 	cdpcs	0, 7, cr15, cr14, cr3, {0}
    15b8:	05160505 	ldreq	r0, [r6, #-1285]	@ 0xfffffafb
    15bc:	0501062c 	streq	r0, [r1, #-1580]	@ 0xfffff9d4
    15c0:	05240605 	streq	r0, [r4, #-1541]!	@ 0xfffff9fb
    15c4:	05010625 	streq	r0, [r1, #-1573]	@ 0xfffff9db
    15c8:	19052410 	stmdbne	r5, {r4, sl, sp}
    15cc:	0605051c 			@ <UNDEFINED> instruction: 0x0605051c
    15d0:	06220521 	strteq	r0, [r2], -r1, lsr #10
    15d4:	06050501 	streq	r0, [r5], -r1, lsl #10
    15d8:	06190521 	ldreq	r0, [r9], -r1, lsr #10
    15dc:	06050501 	streq	r0, [r5], -r1, lsl #10
    15e0:	06190521 	ldreq	r0, [r9], -r1, lsr #10
    15e4:	06050501 	streq	r0, [r5], -r1, lsl #10
    15e8:	06100521 	ldreq	r0, [r0], -r1, lsr #10
    15ec:	06050501 	streq	r0, [r5], -r1, lsl #10
    15f0:	01062f22 	tsteq	r6, r2, lsr #30
    15f4:	03060104 	movweq	r0, #24836	@ 0x6104
    15f8:	04010182 	streq	r0, [r1], #-386	@ 0xfffffe7e
    15fc:	060c0502 	streq	r0, [ip], -r2, lsl #10
    1600:	017efe03 	cmneq	lr, r3, lsl #28	@ <UNPREDICTABLE>
    1604:	05010420 	streq	r0, [r1, #-1056]	@ 0xfffffbe0
    1608:	01840301 	orreq	r0, r4, r1, lsl #6
    160c:	06090501 	streq	r0, [r9], -r1, lsl #10
    1610:	05207503 	streq	r7, [r0, #-1283]!	@ 0xfffffafd
    1614:	05010615 	streq	r0, [r1, #-1557]	@ 0xfffff9eb
    1618:	05220609 	streq	r0, [r2, #-1545]!	@ 0xfffff9f7
    161c:	0501060c 	streq	r0, [r1, #-1548]	@ 0xfffff9f4
    1620:	05320609 	ldreq	r0, [r2, #-1545]!	@ 0xfffff9f7
    1624:	2e010614 	mcrcs	6, 0, r0, cr1, cr4, {0}
    1628:	23060505 	movwcs	r0, #25861	@ 0x6505
    162c:	03022e06 	movweq	r2, #11782	@ 0x2e06
    1630:	05010100 	streq	r0, [r1, #-256]	@ 0xffffff00
    1634:	02050001 	andeq	r0, r5, #1
    1638:	00000000 	andeq	r0, r0, r0
    163c:	05013e03 	streq	r3, [r1, #-3587]	@ 0xfffff1fd
    1640:	05131305 	ldreq	r1, [r3, #-773]	@ 0xfffffcfb
    1644:	05100601 	ldreq	r0, [r0, #-1537]	@ 0xfffff9ff
    1648:	3d062205 	sfmcc	f2, 4, [r6, #-20]	@ 0xffffffec
    164c:	2f2e582f 	svccs	0x002e582f
    1650:	22060105 	andcs	r0, r6, #1073741825	@ 0x40000001
    1654:	022c0505 	eoreq	r0, ip, #20971520	@ 0x1400000
    1658:	01010004 	tsteq	r1, r4
    165c:	05000105 	streq	r0, [r0, #-261]	@ 0xfffffefb
    1660:	00000002 	andeq	r0, r0, r2
    1664:	01e20300 	mvneq	r0, r0, lsl #6
    1668:	13050501 	movwne	r0, #21761	@ 0x5501
    166c:	06010513 			@ <UNDEFINED> instruction: 0x06010513
    1670:	05052e10 	streq	r2, [r5, #-3600]	@ 0xfffff1f0
    1674:	21062e22 	tstcs	r6, r2, lsr #28
    1678:	01060805 	tsteq	r6, r5, lsl #16
    167c:	22060905 	andcs	r0, r6, #81920	@ 0x14000
    1680:	2f062e06 	svccs	0x00062e06
    1684:	0610053d 			@ <UNDEFINED> instruction: 0x0610053d
    1688:	03010501 	movweq	r0, #5377	@ 0x1501
    168c:	05052e10 	streq	r2, [r5, #-3600]	@ 0xfffff1f0
    1690:	2e720306 	cdpcs	3, 7, cr0, cr2, cr6, {0}
    1694:	01061305 	tsteq	r6, r5, lsl #6
    1698:	2009053c 	andcs	r0, r9, ip, lsr r5
    169c:	05580805 	ldrbeq	r0, [r8, #-2053]	@ 0xfffff7fb
    16a0:	05300609 	ldreq	r0, [r0, #-1545]!	@ 0xfffff9f7
    16a4:	05010618 	streq	r0, [r1, #-1560]	@ 0xfffff9e8
    16a8:	05300609 	ldreq	r0, [r0, #-1545]!	@ 0xfffff9f7
    16ac:	0501060c 	streq	r0, [r1, #-1548]	@ 0xfffff9f4
    16b0:	065a060d 	ldrbeq	r0, [sl], -sp, lsl #12
    16b4:	04020020 	streq	r0, [r2], #-32	@ 0xffffffe0
    16b8:	3d067401 	cfstrscc	mvf7, [r6, #-4]
    16bc:	01061c05 	tsteq	r6, r5, lsl #24
    16c0:	3d060d05 	stccc	13, cr0, [r6, #-20]	@ 0xffffffec
    16c4:	05052e58 	streq	r2, [r5, #-3672]	@ 0xfffff1a8
    16c8:	0c053d32 	stceq	13, cr3, [r5], {50}	@ 0x32
    16cc:	0a020106 	beq	81aec <__exidx_end+0x80a78>
    16d0:	05010100 	streq	r0, [r1, #-256]	@ 0xffffff00
    16d4:	02050001 	andeq	r0, r5, #1
    16d8:	00000a10 	andeq	r0, r0, r0, lsl sl
    16dc:	0103db03 	tsteq	r3, r3, lsl #22
    16e0:	05140505 	ldreq	r0, [r4, #-1285]	@ 0xfffffafb
    16e4:	05100601 	ldreq	r0, [r0, #-1537]	@ 0xfffff9ff
    16e8:	0d05300f 	stceq	0, cr3, [r5, #-60]	@ 0xffffffc4
    16ec:	2114052e 	tstcs	r4, lr, lsr #10
    16f0:	051f0d05 	ldreq	r0, [pc, #-3333]	@ 9f3 <kReadyRunningTask_+0x17>
    16f4:	05210605 	streq	r0, [r1, #-1541]!	@ 0xfffff9fb
    16f8:	05010611 	streq	r0, [r1, #-1553]	@ 0xfffff9ef
    16fc:	08052014 	stmdaeq	r5, {r2, r4, sp}
    1700:	06090574 			@ <UNDEFINED> instruction: 0x06090574
    1704:	0321052f 			@ <UNDEFINED> instruction: 0x0321052f
    1708:	01064a73 	tsteq	r6, r3, ror sl
    170c:	09030105 	stmdbeq	r3, {r0, r2, r8}
    1710:	03100501 	tsteq	r0, #4194304	@ 0x400000
    1714:	09054a79 	stmdbeq	r5, {r0, r3, r4, r5, r6, r9, fp, lr}
    1718:	10052e06 	andne	r2, r5, r6, lsl #28
    171c:	21050106 	tstcs	r5, r6, lsl #2
    1720:	0d052048 	stceq	0, cr2, [r5, #-288]	@ 0xfffffee0
    1724:	06360522 	ldrteq	r0, [r6], -r2, lsr #10
    1728:	0121052c 			@ <UNDEFINED> instruction: 0x0121052c
    172c:	4b400505 	blmi	1002b48 <__exidx_end+0x1001ad4>
    1730:	03060106 	movweq	r0, #24838	@ 0x6106
    1734:	0d05010a 	stfeqs	f0, [r5, #-40]	@ 0xffffffd8
    1738:	05016903 	streq	r6, [r1, #-2307]	@ 0xfffff6fd
    173c:	18051405 	stmdane	r5, {r0, r2, sl, ip}
    1740:	1a050106 	bne	141b60 <__exidx_end+0x140aec>
    1744:	05201603 	streq	r1, [r0, #-1539]!	@ 0xfffff9fd
    1748:	11052110 	tstne	r5, r0, lsl r1
    174c:	0318051f 	tsteq	r8, #130023424	@ 0x7c00000
    1750:	11052e6a 	tstne	r5, sl, ror #28
    1754:	05201603 	streq	r1, [r0, #-1539]!	@ 0xfffff9fd
    1758:	206b0314 	rsbcs	r0, fp, r4, lsl r3
    175c:	03060505 	movweq	r0, #25861	@ 0x6505
    1760:	1a052e15 	bne	14cfbc <__exidx_end+0x14bf48>
    1764:	11050106 	tstne	r5, r6, lsl #2
    1768:	06050520 	streq	r0, [r5], -r0, lsr #10
    176c:	010a0521 	tsteq	sl, r1, lsr #10
    1770:	05011905 	streq	r1, [r1, #-2309]	@ 0xfffff6fb
    1774:	14051409 	strne	r1, [r5], #-1033	@ 0xfffffbf7
    1778:	2a050106 	bcs	141b98 <__exidx_end+0x140b24>
    177c:	220c051e 	andcs	r0, ip, #125829120	@ 0x7800000
    1780:	05221905 	streq	r1, [r2, #-2309]!	@ 0xfffff6fb
    1784:	0538062a 	ldreq	r0, [r8, #-1578]!	@ 0xfffff9d6
    1788:	10050119 	andne	r0, r5, r9, lsl r1
    178c:	13056e06 	movwne	r6, #24070	@ 0x5e06
    1790:	00090522 	andeq	r0, r9, r2, lsr #10
    1794:	06030402 	streq	r0, [r3], -r2, lsl #8
    1798:	0013052e 	andseq	r0, r3, lr, lsr #10
    179c:	06030402 	streq	r0, [r3], -r2, lsl #8
    17a0:	00090501 	andeq	r0, r9, r1, lsl #10
    17a4:	20030402 	andcs	r0, r3, r2, lsl #8
    17a8:	02002a05 	andeq	r2, r0, #20480	@ 0x5000
    17ac:	053a0304 	ldreq	r0, [sl, #-772]!	@ 0xfffffcfc
    17b0:	04020009 	streq	r0, [r2], #-9
    17b4:	2a052203 	bcs	149fc8 <__exidx_end+0x148f54>
    17b8:	03040200 	movweq	r0, #16896	@ 0x4200
    17bc:	19052c06 	stmdbne	r5, {r1, r2, sl, fp, sp}
    17c0:	03040200 	movweq	r0, #16896	@ 0x4200
    17c4:	4f050501 	svcmi	0x00050501
    17c8:	04020059 	streq	r0, [r2], #-89	@ 0xffffffa7
    17cc:	064a0601 	strbeq	r0, [sl], -r1, lsl #12
    17d0:	0402003d 	streq	r0, [r2], #-61	@ 0xffffffc3
    17d4:	064a0601 	strbeq	r0, [sl], -r1, lsl #12
    17d8:	042f2f3d 	strteq	r2, [pc], #-3901	@ 17e0 <__exidx_end+0x76c>
    17dc:	031b0503 	tsteq	fp, #12582912	@ 0xc00000
    17e0:	050103bf 	streq	r0, [r1, #-959]	@ 0xfffffc41
    17e4:	01041403 	tsteq	r4, r3, lsl #8
    17e8:	c0030505 	andgt	r0, r3, r5, lsl #10
    17ec:	0030207c 	eorseq	r2, r0, ip, ror r0
    17f0:	21010402 	tstcs	r1, r2, lsl #8
    17f4:	02000b05 	andeq	r0, r0, #5120	@ 0x1400
    17f8:	02010104 	andeq	r0, r1, #4, 2
    17fc:	01010012 	tsteq	r1, r2, lsl r0
    1800:	05000105 	streq	r0, [r0, #-261]	@ 0xfffffefb
    1804:	000b0802 	andeq	r0, fp, r2, lsl #16
    1808:	048f0300 	streq	r0, [pc], #768	@ 1810 <__exidx_end+0x79c>
    180c:	14050501 	strne	r0, [r5], #-1281	@ 0xfffffaff
    1810:	01060d05 	tsteq	r6, r5, lsl #26
    1814:	051e0105 	ldreq	r0, [lr, #-261]	@ 0xfffffefb
    1818:	051f230d 	ldreq	r2, [pc, #-781]	@ 1513 <__exidx_end+0x49f>
    181c:	05210605 	streq	r0, [r1, #-1541]!	@ 0xfffff9fb
    1820:	0501060d 	streq	r0, [r1, #-1549]	@ 0xfffff9f3
    1824:	05210605 	streq	r0, [r1, #-1541]!	@ 0xfffff9fb
    1828:	05010608 	streq	r0, [r1, #-1544]	@ 0xfffff9f8
    182c:	053f0609 	ldreq	r0, [pc, #-1545]!	@ 122b <__exidx_end+0x1b7>
    1830:	14053005 	strne	r3, [r5], #-5
    1834:	05050106 	streq	r0, [r5, #-262]	@ 0xfffffefa
    1838:	1f12052f 	svcne	0x0012052f
    183c:	05210505 	streq	r0, [r1, #-1285]!	@ 0xfffffafb
    1840:	05051f12 	streq	r1, [r5, #-3858]	@ 0xfffff0ee
    1844:	05592106 	ldrbeq	r2, [r9, #-262]	@ 0xfffffefa
    1848:	05010614 	streq	r0, [r1, #-1556]	@ 0xfffff9ec
    184c:	09052008 	stmdbeq	r5, {r3, sp}
    1850:	05052206 	streq	r2, [r5, #-518]	@ 0xfffffdfa
    1854:	0608054c 	streq	r0, [r8], -ip, asr #10
    1858:	20130513 	andscs	r0, r3, r3, lsl r5
    185c:	051f0c05 	ldreq	r0, [pc, #-3077]	@ c5f <IdleTask+0x3>
    1860:	05210605 	streq	r0, [r1, #-1541]!	@ 0xfffff9fb
    1864:	05010608 	streq	r0, [r1, #-1544]	@ 0xfffff9f8
    1868:	05220609 	streq	r0, [r2, #-1545]!	@ 0xfffff9f7
    186c:	0501061c 	streq	r0, [r1, #-1564]	@ 0xfffff9e4
    1870:	054b0609 	strbeq	r0, [fp, #-1545]	@ 0xfffff9f7
    1874:	05010621 	streq	r0, [r1, #-1569]	@ 0xfffff9df
    1878:	05300605 	ldreq	r0, [r0, #-1541]!	@ 0xfffff9fb
    187c:	2e2f0601 	cfmadda32cs	mvax0, mvax0, mvfx15, mvfx1
    1880:	01000702 	tsteq	r0, r2, lsl #14
    1884:	00010501 	andeq	r0, r1, r1, lsl #10
    1888:	0b680205 	bleq	1a020a4 <__exidx_end+0x1a01030>
    188c:	d1030000 	mrsle	r0, (UNDEF: 3)
    1890:	05050104 	streq	r0, [r5, #-260]	@ 0xfffffefc
    1894:	14131314 	ldrne	r1, [r3], #-788	@ 0xfffffcec
    1898:	03060105 	movweq	r0, #24837	@ 0x6105
    189c:	0f05017a 	svceq	0x0005017a
    18a0:	05200903 	streq	r0, [r0, #-2307]!	@ 0xfffff6fd
    18a4:	0f051d0c 	svceq	0x00051d0c
    18a8:	1d180523 	cfldr32ne	mvfx0, [r8, #-140]	@ 0xffffff74
    18ac:	05230f05 	streq	r0, [r3, #-3845]!	@ 0xfffff0fb
    18b0:	05051d18 	streq	r1, [r5, #-3352]	@ 0xfffff2e8
    18b4:	08053106 	stmdaeq	r5, {r1, r2, r8, ip, sp}
    18b8:	09050106 	stmdbeq	r5, {r1, r2, r8}
    18bc:	1e052206 	cdpne	2, 0, cr2, cr5, cr6, {0}
    18c0:	05050106 	streq	r0, [r5, #-262]	@ 0xfffffefa
    18c4:	08053106 	stmdaeq	r5, {r1, r2, r8, ip, sp}
    18c8:	09050106 	stmdbeq	r5, {r1, r2, r8}
    18cc:	1c053006 	stcne	0, cr3, [r5], {6}
    18d0:	09050106 	stmdbeq	r5, {r1, r2, r8}
    18d4:	18052f06 	stmdane	r5, {r1, r2, r8, r9, sl, fp, sp}
    18d8:	05050106 	streq	r0, [r5, #-262]	@ 0xfffffefa
    18dc:	1c054206 	sfmne	f4, 4, [r5], {6}
    18e0:	08050106 	stmdaeq	r5, {r1, r2, r8}
    18e4:	06090520 	streq	r0, [r9], -r0, lsr #10
    18e8:	06170530 			@ <UNDEFINED> instruction: 0x06170530
    18ec:	06050501 	streq	r0, [r5], -r1, lsl #10
    18f0:	060f0540 	streq	r0, [pc], -r0, asr #10
    18f4:	2e080501 	cfsh32cs	mvfx0, mvfx8, #1
    18f8:	02001c05 	andeq	r1, r0, #1280	@ 0x500
    18fc:	05200104 	streq	r0, [r0, #-260]!	@ 0xfffffefc
    1900:	05053d0d 	streq	r3, [r5, #-3341]	@ 0xfffff2f3
    1904:	4a100306 	bmi	402524 <__exidx_end+0x4014b0>
    1908:	01061c05 	tsteq	r6, r5, lsl #24
    190c:	31060505 	tstcc	r6, r5, lsl #10
    1910:	01060805 	tsteq	r6, r5, lsl #16
    1914:	23060905 	movwcs	r0, #26885	@ 0x6905
    1918:	01061705 	tsteq	r6, r5, lsl #14
    191c:	052e0c05 	streq	r0, [lr, #-3077]!	@ 0xfffff3fb
    1920:	0530060d 	ldreq	r0, [r0, #-1549]!	@ 0xfffff9f3
    1924:	0501061f 	streq	r0, [r1, #-1567]	@ 0xfffff9e1
    1928:	05440605 	strbeq	r0, [r4, #-1541]	@ 0xfffff9fb
    192c:	04020035 	streq	r0, [r2], #-53	@ 0xffffffcb
    1930:	05010601 	streq	r0, [r1, #-1537]	@ 0xfffff9ff
    1934:	04020022 	streq	r0, [r2], #-34	@ 0xffffffde
    1938:	09052001 	stmdbeq	r5, {r0, sp}
    193c:	1f052206 	svcne	0x00052206
    1940:	09050106 	stmdbeq	r5, {r1, r2, r8}
    1944:	1f1f0521 	svcne	0x001f0521
    1948:	21060905 	tstcs	r6, r5, lsl #18
    194c:	3c060101 	stfccs	f0, [r6], {1}
    1950:	02002006 	andeq	r2, r0, #6
    1954:	003c0104 	eorseq	r0, ip, r4, lsl #2
    1958:	06010402 	streq	r0, [r1], -r2, lsl #8
    195c:	04020020 	streq	r0, [r2], #-32	@ 0xffffffe0
    1960:	00ac0601 	adceq	r0, ip, r1, lsl #12
    1964:	3c030402 	cfstrscc	mvf0, [r3], {2}
    1968:	03040200 	movweq	r0, #16896	@ 0x4200
    196c:	0402003c 	streq	r0, [r2], #-60	@ 0xffffffc4
    1970:	15051303 	strne	r1, [r5, #-771]	@ 0xfffffcfd
    1974:	03040200 	movweq	r0, #16896	@ 0x4200
    1978:	05050106 	streq	r0, [r5, #-262]	@ 0xfffffefa
    197c:	0f052606 	svceq	0x00052606
    1980:	08050106 	stmdaeq	r5, {r1, r2, r8}
    1984:	06090520 	streq	r0, [r9], -r0, lsr #10
    1988:	0624053e 			@ <UNDEFINED> instruction: 0x0624053e
    198c:	06090501 	streq	r0, [r9], -r1, lsl #10
    1990:	0626052f 	strteq	r0, [r6], -pc, lsr #10
    1994:	200c0501 	andcs	r0, ip, r1, lsl #10
    1998:	3e060d05 	cdpcc	13, 0, cr0, cr6, cr5, {0}
    199c:	05052e06 	streq	r2, [r5, #-3590]	@ 0xfffff1fa
    19a0:	05141506 	ldreq	r1, [r4, #-1286]	@ 0xfffffafa
    19a4:	05100624 	ldreq	r0, [r0, #-1572]	@ 0xfffff9dc
    19a8:	2d052009 	stccs	0, cr2, [r5, #-36]	@ 0xffffffdc
    19ac:	203a052e 	eorscs	r0, sl, lr, lsr #10
    19b0:	054d0105 	strbeq	r0, [sp, #-261]	@ 0xfffffefb
    19b4:	7faf030a 	svcvc	0x00af030a
    19b8:	060d052e 	streq	r0, [sp], -lr, lsr #10
    19bc:	052e3803 	streq	r3, [lr, #-2051]!	@ 0xfffff7fd
    19c0:	05010621 	streq	r0, [r1, #-1569]	@ 0xfffff9df
    19c4:	11052010 	tstne	r5, r0, lsl r0
    19c8:	3f052f06 	svccc	0x00052f06
    19cc:	05050106 	streq	r0, [r5, #-262]	@ 0xfffffefa
    19d0:	00083f06 	andeq	r3, r8, r6, lsl #30
    19d4:	01750101 	cmneq	r5, r1, lsl #2
    19d8:	00030000 	andeq	r0, r3, r0
    19dc:	0000006f 	andeq	r0, r0, pc, rrx
    19e0:	0efb0102 	cdpeq	1, 15, cr0, cr11, cr2, {0}
    19e4:	0101000d 	tsteq	r1, sp
    19e8:	00000101 	andeq	r0, r0, r1, lsl #2
    19ec:	00000100 	andeq	r0, r0, r0, lsl #2
    19f0:	63725301 	cmnvs	r2, #67108864	@ 0x4000000
    19f4:	636e4900 	cmnvs	lr, #0, 18
    19f8:	736b0000 	cmnvc	fp, #0
    19fc:	61747379 	cmnvs	r4, r9, ror r3
    1a00:	2e736b73 	vmovcs.s8	r6, d3[7]
    1a04:	00010063 	andeq	r0, r1, r3, rrx
    1a08:	736d6300 	cmnvc	sp, #0, 6
    1a0c:	675f7369 	ldrbvs	r7, [pc, -r9, ror #6]
    1a10:	682e6363 	stmdavs	lr!, {r0, r1, r5, r6, r8, r9, sp, lr}
    1a14:	00000200 	andeq	r0, r0, r0, lsl #4
    1a18:	6c61686b 	stclvs	8, cr6, [r1], #-428	@ 0xfffffe54
    1a1c:	0200682e 	andeq	r6, r0, #3014656	@ 0x2e0000
    1a20:	646b0000 	strbtvs	r0, [fp], #-0
    1a24:	2e736665 	cdpcs	6, 7, cr6, cr3, cr5, {3}
    1a28:	00020068 	andeq	r0, r2, r8, rrx
    1a2c:	626f6b00 	rsbvs	r6, pc, #0, 22
    1a30:	682e736a 	stmdavs	lr!, {r1, r3, r5, r6, r8, r9, ip, sp, lr}
    1a34:	00000200 	andeq	r0, r0, r0, lsl #4
    1a38:	6863736b 	stmdavs	r3!, {r0, r1, r3, r5, r6, r8, r9, ip, sp, lr}^
    1a3c:	0200682e 	andeq	r6, r0, #3014656	@ 0x2e0000
    1a40:	746b0000 	strbtvc	r0, [fp], #-0
    1a44:	72656d69 	rsbvc	r6, r5, #6720	@ 0x1a40
    1a48:	0200682e 	andeq	r6, r0, #3014656	@ 0x2e0000
    1a4c:	05000000 	streq	r0, [r0, #-0]
    1a50:	02050001 	andeq	r0, r5, #1
    1a54:	00000c5c 	andeq	r0, r0, ip, asr ip
    1a58:	05011c03 	streq	r1, [r1, #-3075]	@ 0xfffff3fd
    1a5c:	05190613 	ldreq	r0, [r9, #-1555]	@ 0xfffff9ed
    1a60:	04020005 	streq	r0, [r2], #-5
    1a64:	7a030601 	bvc	c3270 <__exidx_end+0xc21fc>
    1a68:	04020020 	streq	r0, [r2], #-32	@ 0xffffffe0
    1a6c:	09051401 	stmdbeq	r5, {r0, sl, ip}
    1a70:	01040200 	mrseq	r0, R12_usr
    1a74:	05020414 	streq	r0, [r2, #-1044]	@ 0xfffffbec
    1a78:	0402001b 	streq	r0, [r2], #-27	@ 0xffffffe5
    1a7c:	01eb0301 	mvneq	r0, r1, lsl #6
    1a80:	00030501 	andeq	r0, r3, r1, lsl #10
    1a84:	14010402 	strne	r0, [r1], #-1026	@ 0xfffffbfe
    1a88:	09050104 	stmdbeq	r5, {r2, r8}
    1a8c:	01040200 	mrseq	r0, R12_usr
    1a90:	2e7e9503 	cdpcs	5, 7, cr9, cr14, cr3, {0}
    1a94:	02001305 	andeq	r1, r0, #335544320	@ 0x14000000
    1a98:	01060104 	tsteq	r6, r4, lsl #2
    1a9c:	02000905 	andeq	r0, r0, #81920	@ 0x14000
    1aa0:	3e060104 	adfccs	f0, f6, f4
    1aa4:	01040200 	mrseq	r0, R12_usr
    1aa8:	05020421 	streq	r0, [r2, #-1057]	@ 0xfffffbdf
    1aac:	0402001b 	streq	r0, [r2], #-27	@ 0xffffffe5
    1ab0:	01db0301 	bicseq	r0, fp, r1, lsl #6
    1ab4:	00030501 	andeq	r0, r3, r1, lsl #10
    1ab8:	14010402 	strne	r0, [r1], #-1026	@ 0xfffffbfe
    1abc:	01000502 	tsteq	r0, r2, lsl #10
    1ac0:	00010501 	andeq	r0, r1, r1, lsl #10
    1ac4:	0c740205 	lfmeq	f0, 2, [r4], #-20	@ 0xffffffec
    1ac8:	2b030000 	blcs	c1ad0 <__exidx_end+0xc0a5c>
    1acc:	13050501 	movwne	r0, #21761	@ 0x5501
    1ad0:	06010514 			@ <UNDEFINED> instruction: 0x06010514
    1ad4:	36090555 			@ <UNDEFINED> instruction: 0x36090555
    1ad8:	05422105 	strbeq	r2, [r2, #-261]	@ 0xfffffefb
    1adc:	20750305 	rsbscs	r0, r5, r5, lsl #6
    1ae0:	09052206 	stmdbeq	r5, {r1, r2, r9, sp}
    1ae4:	2e010115 	mcrcs	1, 0, r0, cr1, cr5, {0}
    1ae8:	2e2e4a4a 	vnmulcs.f32	s8, s28, s20
    1aec:	01062e06 	tsteq	r6, r6, lsl #28
    1af0:	053f1314 	ldreq	r1, [pc, #-788]!	@ 17e4 <__exidx_end+0x770>
    1af4:	21050129 	tstcs	r5, r9, lsr #2
    1af8:	29050106 	stmdbcs	r5, {r1, r2, r8}
    1afc:	003c0520 	eorseq	r0, ip, r0, lsr #10
    1b00:	20010402 	andcs	r0, r1, r2, lsl #8
    1b04:	02002905 	andeq	r2, r0, #81920	@ 0x14000
    1b08:	05200104 	streq	r0, [r0, #-260]!	@ 0xfffffefc
    1b0c:	14030609 	strne	r0, [r3], #-1545	@ 0xfffff9f7
    1b10:	030b0520 	movweq	r0, #46368	@ 0xb520
    1b14:	05053c63 	streq	r3, [r5, #-3171]	@ 0xfffff39d
    1b18:	0d051306 	stceq	3, cr1, [r5, #-24]	@ 0xffffffe8
    1b1c:	200a0306 	andcs	r0, sl, r6, lsl #6
    1b20:	061e0513 			@ <UNDEFINED> instruction: 0x061e0513
    1b24:	210d0501 	tstcs	sp, r1, lsl #10
    1b28:	051f1e05 	ldreq	r1, [pc, #-3589]	@ d2b <kRemoveTimerNode+0x23>
    1b2c:	3021060d 	eorcc	r0, r1, sp, lsl #12
    1b30:	06160513 			@ <UNDEFINED> instruction: 0x06160513
    1b34:	2e100501 	cfmul32cs	mvfx0, mvfx0, mvfx1
    1b38:	22061105 	andcs	r1, r6, #1073741825	@ 0x40000001
    1b3c:	053e0d05 	ldreq	r0, [lr, #-3333]!	@ 0xfffff2fb
    1b40:	05010616 	streq	r0, [r1, #-1558]	@ 0xfffff9ea
    1b44:	11052e10 	tstne	r5, r0, lsl lr
    1b48:	14023106 	strne	r3, [r2], #-262	@ 0xfffffefa
    1b4c:	6c010100 	stfvss	f0, [r1], {-0}
    1b50:	03000005 	movweq	r0, #5
    1b54:	00005d00 	andeq	r5, r0, r0, lsl #26
    1b58:	fb010200 	blx	42362 <__exidx_end+0x412ee>
    1b5c:	01000d0e 	tsteq	r0, lr, lsl #26
    1b60:	00010101 	andeq	r0, r1, r1, lsl #2
    1b64:	00010000 	andeq	r0, r1, r0
    1b68:	72530100 	subsvc	r0, r3, #0, 2
    1b6c:	6e490063 	cdpvs	0, 4, cr0, cr9, cr3, {3}
    1b70:	6b000063 	blvs	1d04 <__exidx_end+0xc90>
    1b74:	656d6974 	strbvs	r6, [sp, #-2420]!	@ 0xfffff68c
    1b78:	00632e72 	rsbeq	r2, r3, r2, ror lr
    1b7c:	6b000001 	blvs	1b88 <__exidx_end+0xb14>
    1b80:	2e6c6168 	powcsez	f6, f4, #0.0
    1b84:	00020068 	andeq	r0, r2, r8, rrx
    1b88:	65646b00 	strbvs	r6, [r4, #-2816]!	@ 0xfffff500
    1b8c:	682e7366 	stmdavs	lr!, {r1, r2, r5, r6, r8, r9, ip, sp, lr}
    1b90:	00000200 	andeq	r0, r0, r0, lsl #4
    1b94:	6a626f6b 	bvs	189d948 <__exidx_end+0x189c8d4>
    1b98:	00682e73 	rsbeq	r2, r8, r3, ror lr
    1b9c:	6b000002 	blvs	1bac <__exidx_end+0xb38>
    1ba0:	2e686373 	mcrcs	3, 3, r6, cr8, cr3, {3}
    1ba4:	00020068 	andeq	r0, r2, r8, rrx
    1ba8:	69746b00 	ldmdbvs	r4!, {r8, r9, fp, sp, lr}^
    1bac:	2e72656d 	cdpcs	5, 7, cr6, cr2, cr13, {3}
    1bb0:	00020068 	andeq	r0, r2, r8, rrx
    1bb4:	01050000 	mrseq	r0, (UNDEF: 5)
    1bb8:	00020500 	andeq	r0, r2, r0, lsl #10
    1bbc:	03000000 	movweq	r0, #0
    1bc0:	0505011b 	streq	r0, [r5, #-283]	@ 0xfffffee5
    1bc4:	06010513 			@ <UNDEFINED> instruction: 0x06010513
    1bc8:	00060213 	andeq	r0, r6, r3, lsl r2
    1bcc:	01050101 	tsteq	r5, r1, lsl #2
    1bd0:	00020500 	andeq	r0, r2, r0, lsl #10
    1bd4:	03000000 	movweq	r0, #0
    1bd8:	05050123 	streq	r0, [r5, #-291]	@ 0xfffffedd
    1bdc:	060f0513 			@ <UNDEFINED> instruction: 0x060f0513
    1be0:	2e080501 	cfsh32cs	mvfx0, mvfx8, #1
    1be4:	30060905 	andcc	r0, r6, r5, lsl #18
    1be8:	01061e05 	tsteq	r6, r5, lsl #28
    1bec:	02001205 	andeq	r1, r0, #1342177280	@ 0x50000000
    1bf0:	05220104 	streq	r0, [r2, #-260]!	@ 0xfffffefc
    1bf4:	0402000c 	streq	r0, [r2], #-12
    1bf8:	05200601 	streq	r0, [r0, #-1537]!	@ 0xfffff9ff
    1bfc:	02310601 	eorseq	r0, r1, #1048576	@ 0x100000
    1c00:	01010004 	tsteq	r1, r4
    1c04:	05000105 	streq	r0, [r0, #-261]	@ 0xfffffefb
    1c08:	000d0802 	andeq	r0, sp, r2, lsl #16
    1c0c:	00ce0300 	sbceq	r0, lr, r0, lsl #6
    1c10:	13050501 	movwne	r0, #21761	@ 0x5501
    1c14:	11060105 	tstne	r6, r5, lsl #2
    1c18:	05210805 	streq	r0, [r1, #-2053]!	@ 0xfffff7fb
    1c1c:	05230605 	streq	r0, [r3, #-1541]!	@ 0xfffff9fb
    1c20:	0501060d 	streq	r0, [r1, #-1549]	@ 0xfffff9f3
    1c24:	1e052008 	cdpne	0, 0, cr2, cr5, cr8, {0}
    1c28:	2f260522 	svccs	0x00260522
    1c2c:	1f060905 	svcne	0x00060905
    1c30:	01061e05 	tsteq	r6, r5, lsl #28
    1c34:	2f060905 	svccs	0x00060905
    1c38:	01062005 	tsteq	r6, r5
    1c3c:	23060505 	movwcs	r0, #25861	@ 0x6505
    1c40:	01060d05 	tsteq	r6, r5, lsl #26
    1c44:	05200805 	streq	r0, [r0, #-2053]!	@ 0xfffff7fb
    1c48:	0505261a 	streq	r2, [r5, #-1562]	@ 0xfffff9e6
    1c4c:	13052306 	movwne	r2, #21254	@ 0x5306
    1c50:	05210106 	streq	r0, [r1, #-262]!	@ 0xfffffefa
    1c54:	09052f01 	stmdbeq	r5, {r0, r8, r9, sl, fp, sp}
    1c58:	1a051b06 	bne	148878 <__exidx_end+0x147804>
    1c5c:	05020106 	streq	r0, [r2, #-262]	@ 0xfffffefa
    1c60:	05010100 	streq	r0, [r1, #-256]	@ 0xffffff00
    1c64:	02050001 	andeq	r0, r5, #1
    1c68:	00000d34 	andeq	r0, r0, r4, lsr sp
    1c6c:	0101b003 	tsteq	r1, r3
    1c70:	05140505 	ldreq	r0, [r4, #-1285]	@ 0xfffffafb
    1c74:	05100601 	ldreq	r0, [r0, #-1537]	@ 0xfffff9ff
    1c78:	05052208 	streq	r2, [r5, #-520]	@ 0xfffffdf8
    1c7c:	08053006 	stmdaeq	r5, {r1, r2, ip, sp}
    1c80:	05050106 	streq	r0, [r5, #-262]	@ 0xfffffefa
    1c84:	15053106 	strne	r3, [r5, #-262]	@ 0xfffffefa
    1c88:	05050106 	streq	r0, [r5, #-262]	@ 0xfffffefa
    1c8c:	08054b06 	stmdaeq	r5, {r1, r2, r8, r9, fp, lr}
    1c90:	18051a06 	stmdane	r5, {r1, r2, r9, fp, ip}
    1c94:	05207903 	streq	r7, [r0, #-2307]!	@ 0xfffff6fd
    1c98:	052f0605 	streq	r0, [pc, #-1541]!	@ 169b <__exidx_end+0x627>
    1c9c:	05180608 	ldreq	r0, [r8, #-1544]	@ 0xfffff9f8
    1ca0:	05051b1a 	streq	r1, [r5, #-2842]	@ 0xfffff4e6
    1ca4:	14133006 	ldrne	r3, [r3], #-6
    1ca8:	01060805 	tsteq	r6, r5, lsl #16
    1cac:	22060905 	andcs	r0, r6, #81920	@ 0x14000
    1cb0:	01061a05 	tsteq	r6, r5, lsl #20
    1cb4:	2f060905 	svccs	0x00060905
    1cb8:	01200514 			@ <UNDEFINED> instruction: 0x01200514
    1cbc:	02002a05 	andeq	r2, r0, #20480	@ 0x5000
    1cc0:	20060104 	andcs	r0, r6, r4, lsl #2
    1cc4:	02003f05 	andeq	r3, r0, #5, 30
    1cc8:	05200104 	streq	r0, [r0, #-260]!	@ 0xfffffefc
    1ccc:	04020020 	streq	r0, [r2], #-32	@ 0xffffffe0
    1cd0:	02002001 	andeq	r2, r0, #1
    1cd4:	052e0104 	streq	r0, [lr, #-260]!	@ 0xfffffefc
    1cd8:	29030609 	stmdbcs	r3, {r0, r3, r9, sl}
    1cdc:	061e0501 	ldreq	r0, [lr], -r1, lsl #10
    1ce0:	06090501 	streq	r0, [r9], -r1, lsl #10
    1ce4:	060c0521 	streq	r0, [ip], -r1, lsr #10
    1ce8:	060d0501 	streq	r0, [sp], -r1, lsl #10
    1cec:	061c0522 	ldreq	r0, [ip], -r2, lsr #10
    1cf0:	060d0501 	streq	r0, [sp], -r1, lsl #10
    1cf4:	062b054b 	strteq	r0, [fp], -fp, asr #10
    1cf8:	20220501 	eorcs	r0, r2, r1, lsl #10
    1cfc:	21060d05 	tstcs	r6, r5, lsl #26
    1d00:	01061e05 	tsteq	r6, r5, lsl #28
    1d04:	27060905 	strcs	r0, [r6, -r5, lsl #18]
    1d08:	01060c05 	tsteq	r6, r5, lsl #24
    1d0c:	22060d05 	andcs	r0, r6, #320	@ 0x140
    1d10:	01062005 	tsteq	r6, r5
    1d14:	060d052e 	streq	r0, [sp], -lr, lsr #10
    1d18:	05014b03 	streq	r4, [r1, #-2819]	@ 0xfffff4fd
    1d1c:	05010620 	streq	r0, [r1, #-1568]	@ 0xfffff9e0
    1d20:	20052215 	andcs	r2, r5, r5, lsl r2
    1d24:	060d051e 			@ <UNDEFINED> instruction: 0x060d051e
    1d28:	15051321 	strne	r1, [r5, #-801]	@ 0xfffffcdf
    1d2c:	0d050106 	stfeqs	f0, [r5, #-24]	@ 0xffffffe8
    1d30:	2e150306 	cdpcs	3, 1, cr0, cr5, cr6, {0}
    1d34:	01061e05 	tsteq	r6, r5, lsl #28
    1d38:	030c0520 	movweq	r0, #50464	@ 0xc520
    1d3c:	01050125 	tsteq	r5, r5, lsr #2
    1d40:	06090521 	streq	r0, [r9], -r1, lsr #10
    1d44:	05206003 	streq	r6, [r0, #-3]!
    1d48:	0501061a 	streq	r0, [r1, #-1562]	@ 0xfffff9e6
    1d4c:	142f0609 	strtne	r0, [pc], #-1545	@ 1d54 <__exidx_end+0xce0>
    1d50:	05012005 	streq	r2, [r1, #-5]
    1d54:	0402002a 	streq	r0, [r2], #-42	@ 0xffffffd6
    1d58:	052e0601 	streq	r0, [lr, #-1537]!	@ 0xfffff9ff
    1d5c:	0402003f 	streq	r0, [r2], #-63	@ 0xffffffc1
    1d60:	20052001 	andcs	r2, r5, r1
    1d64:	01040200 	mrseq	r0, R12_usr
    1d68:	060d0520 	streq	r0, [sp], -r0, lsr #10
    1d6c:	06200530 			@ <UNDEFINED> instruction: 0x06200530
    1d70:	22150501 	andscs	r0, r5, #4194304	@ 0x400000
    1d74:	051e2005 	ldreq	r2, [lr, #-5]
    1d78:	1321060d 			@ <UNDEFINED> instruction: 0x1321060d
    1d7c:	01061505 	tsteq	r6, r5, lsl #10
    1d80:	060d0520 	streq	r0, [sp], -r0, lsr #10
    1d84:	05200c03 	streq	r0, [r0, #-3075]!	@ 0xfffff3fd
    1d88:	2e010622 	cfmadd32cs	mvax1, mvfx0, mvfx1, mvfx2
    1d8c:	bc031005 	stclt	0, cr1, [r3], {5}
    1d90:	222e017f 	eorcs	r0, lr, #-1073741793	@ 0xc000001f
    1d94:	0007022e 	andeq	r0, r7, lr, lsr #4
    1d98:	01050101 	tsteq	r5, r1, lsl #2
    1d9c:	c0020500 	andgt	r0, r2, r0, lsl #10
    1da0:	0300000d 	movweq	r0, #13
    1da4:	050100c2 	streq	r0, [r1, #-194]	@ 0xffffff3e
    1da8:	01051305 	tsteq	r5, r5, lsl #6
    1dac:	052e1106 	streq	r1, [lr, #-262]!	@ 0xfffffefa
    1db0:	18053d08 	stmdane	r5, {r3, r8, sl, fp, ip, sp}
    1db4:	01040200 	mrseq	r0, R12_usr
    1db8:	0605052e 	streq	r0, [r5], -lr, lsr #10
    1dbc:	23051324 	movwcs	r1, #21284	@ 0x5324
    1dc0:	2e700306 	cdpcs	3, 7, cr0, cr0, cr6, {0}
    1dc4:	10030505 	andne	r0, r3, r5, lsl #10
    1dc8:	05210620 	streq	r0, [r1, #-1568]!	@ 0xfffff9e0
    1dcc:	016a0314 	cmneq	sl, r4, lsl r3
    1dd0:	05150505 	ldreq	r0, [r5, #-1285]	@ 0xfffffafb
    1dd4:	05140623 	ldreq	r0, [r4, #-1571]	@ 0xfffff9dd
    1dd8:	05052213 	streq	r2, [r5, #-531]	@ 0xfffffded
    1ddc:	1d130523 	cfldr32ne	mvfx0, [r3, #-140]	@ 0xffffff74
    1de0:	05211205 	streq	r1, [r1, #-517]!	@ 0xfffffdfb
    1de4:	05051c1f 	streq	r1, [r5, #-3103]	@ 0xfffff3e1
    1de8:	05132f06 	ldreq	r2, [r3, #-3846]	@ 0xfffff0fa
    1dec:	05150611 	ldreq	r0, [r5, #-1553]	@ 0xfffff9ef
    1df0:	05052b12 	streq	r2, [r5, #-2834]	@ 0xfffff4ee
    1df4:	14132106 	ldrne	r2, [r3], #-262	@ 0xfffffefa
    1df8:	062e2e06 	strteq	r2, [lr], -r6, lsl #28
    1dfc:	3d010d03 	stccc	13, cr0, [r1, #-12]
    1e00:	01060c05 	tsteq	r6, r5, lsl #24
    1e04:	05210105 	streq	r0, [r1, #-261]!	@ 0xfffffefb
    1e08:	2e790310 	mrccs	3, 3, r0, cr9, cr0, {0}
    1e0c:	0001022e 	andeq	r0, r1, lr, lsr #4
    1e10:	01050101 	tsteq	r5, r1, lsl #2
    1e14:	08020500 	stmdaeq	r2, {r8, sl}
    1e18:	0300000e 	movweq	r0, #14
    1e1c:	050100eb 	streq	r0, [r1, #-235]	@ 0xffffff15
    1e20:	05131305 	ldreq	r1, [r3, #-773]	@ 0xfffffcfb
    1e24:	20100601 	andscs	r0, r0, r1, lsl #12
    1e28:	05220505 	streq	r0, [r2, #-1285]!	@ 0xfffffafb
    1e2c:	0505300f 	streq	r3, [r5, #-15]
    1e30:	0522061e 	streq	r0, [r2, #-1566]!	@ 0xfffff9e2
    1e34:	0501060f 	streq	r0, [r1, #-1551]	@ 0xfffff9f1
    1e38:	05220609 	streq	r0, [r2, #-1545]!	@ 0xfffff9f7
    1e3c:	062e1405 	strteq	r1, [lr], -r5, lsl #8
    1e40:	22061e22 	andcs	r1, r6, #544	@ 0x220
    1e44:	2f062e06 	svccs	0x00062e06
    1e48:	01061405 	tsteq	r6, r5, lsl #8
    1e4c:	05210505 	streq	r0, [r1, #-1285]!	@ 0xfffffafb
    1e50:	05051f14 	streq	r1, [r5, #-3860]	@ 0xfffff0ec
    1e54:	2e4a2106 	dvfcse	f2, f2, f6
    1e58:	0601052f 	streq	r0, [r1], -pc, lsr #10
    1e5c:	2d050521 	cfstr32cs	mvfx0, [r5, #-132]	@ 0xffffff7c
    1e60:	0004022e 	andeq	r0, r4, lr, lsr #4
    1e64:	01050101 	tsteq	r5, r1, lsl #2
    1e68:	50020500 	andpl	r0, r2, r0, lsl #10
    1e6c:	0300000e 	movweq	r0, #14
    1e70:	050100fe 	streq	r0, [r1, #-254]	@ 0xffffff02
    1e74:	05131305 	ldreq	r1, [r3, #-773]	@ 0xfffffcfb
    1e78:	2e100601 	cfmsub32cs	mvax0, mvfx0, mvfx0, mvfx1
    1e7c:	2e220505 	cfsh64cs	mvdx0, mvdx2, #5
    1e80:	05132106 	ldreq	r2, [r3, #-262]	@ 0xfffffefa
    1e84:	05010608 	streq	r0, [r1, #-1544]	@ 0xfffff9f8
    1e88:	13250605 			@ <UNDEFINED> instruction: 0x13250605
    1e8c:	92030905 	andls	r0, r3, #81920	@ 0x14000
    1e90:	0505017f 	streq	r0, [r5, #-383]	@ 0xfffffe81
    1e94:	06220514 			@ <UNDEFINED> instruction: 0x06220514
    1e98:	0100ed03 	tsteq	r0, r3, lsl #26
    1e9c:	93031405 	movwls	r1, #13317	@ 0x3405
    1ea0:	22052e7f 	andcs	r2, r5, #2032	@ 0x7f0
    1ea4:	2000ed03 	andcs	lr, r0, r3, lsl #26
    1ea8:	93031405 	movwls	r1, #13317	@ 0x3405
    1eac:	05202e7f 	streq	r2, [r0, #-3711]!	@ 0xfffff181
    1eb0:	ed030605 	stc	6, cr0, [r3, #-20]	@ 0xffffffec
    1eb4:	0d050100 	stfeqs	f0, [r5, #-0]
    1eb8:	05050106 	streq	r0, [r5, #-262]	@ 0xfffffefa
    1ebc:	08053006 	stmdaeq	r5, {r1, r2, ip, sp}
    1ec0:	09050106 	stmdbeq	r5, {r1, r2, r8}
    1ec4:	16053006 	strne	r3, [r5], -r6
    1ec8:	05050106 	streq	r0, [r5, #-262]	@ 0xfffffefa
    1ecc:	05142406 	ldreq	r2, [r4, #-1030]	@ 0xfffffbfa
    1ed0:	20061409 	andcs	r1, r6, r9, lsl #8
    1ed4:	0f052006 	svceq	0x00052006
    1ed8:	09052206 	stmdbeq	r5, {r1, r2, r9, sp}
    1edc:	0522061e 	streq	r0, [r2, #-1566]!	@ 0xfffff9e2
    1ee0:	2e01060f 	cfmadd32cs	mvax0, mvfx0, mvfx1, mvfx15
    1ee4:	2f060905 	svccs	0x00060905
    1ee8:	01060c05 	tsteq	r6, r5, lsl #24
    1eec:	060d0520 	streq	r0, [sp], -r0, lsr #10
    1ef0:	061c0522 	ldreq	r0, [ip], -r2, lsr #10
    1ef4:	210d0501 	tstcs	sp, r1, lsl #10
    1ef8:	051f1c05 	ldreq	r1, [pc, #-3077]	@ 12fb <__exidx_end+0x287>
    1efc:	4a21060d 	bmi	843738 <__exidx_end+0x8426c4>
    1f00:	0305052e 	movweq	r0, #21806	@ 0x552e
    1f04:	05143c76 	ldreq	r3, [r4, #-3190]	@ 0xfffff38a
    1f08:	05010608 	streq	r0, [r1, #-1544]	@ 0xfffff9f8
    1f0c:	11030605 	tstne	r3, r5, lsl #12
    1f10:	061a0520 	ldreq	r0, [sl], -r0, lsr #10
    1f14:	06050501 	streq	r0, [r5], -r1, lsl #10
    1f18:	2f3d2f4c 	svccs	0x003d2f4c
    1f1c:	13060105 	movwne	r0, #24837	@ 0x6105
    1f20:	5a030c05 	bpl	c4f3c <__exidx_end+0xc3ec8>
    1f24:	08022e3c 	stmdaeq	r2, {r2, r3, r4, r5, r9, sl, fp, sp}
    1f28:	05010100 	streq	r0, [r1, #-256]	@ 0xffffff00
    1f2c:	02050001 	andeq	r0, r5, #1
    1f30:	00000ed4 	ldrdeq	r0, [r0], -r4
    1f34:	01028903 	tsteq	r2, r3, lsl #18
    1f38:	05130505 	ldreq	r0, [r3, #-1285]	@ 0xfffffafb
    1f3c:	20110601 	andscs	r0, r1, r1, lsl #12
    1f40:	05211705 	streq	r1, [r1, #-1797]!	@ 0xfffff8fb
    1f44:	0d05301d 	stceq	0, cr3, [r5, #-116]	@ 0xffffff8c
    1f48:	0605051e 			@ <UNDEFINED> instruction: 0x0605051e
    1f4c:	06080522 	streq	r0, [r8], -r2, lsr #10
    1f50:	06090501 	streq	r0, [r9], -r1, lsl #10
    1f54:	06160522 	ldreq	r0, [r6], -r2, lsr #10
    1f58:	06090501 	streq	r0, [r9], -r1, lsl #10
    1f5c:	060c053d 			@ <UNDEFINED> instruction: 0x060c053d
    1f60:	17032001 	strne	r2, [r3, -r1]
    1f64:	2f010501 	svccs	0x00010501
    1f68:	03060d05 	movweq	r0, #27909	@ 0x6d05
    1f6c:	12053c6a 	andne	r3, r5, #27136	@ 0x6a00
    1f70:	2f050106 	svccs	0x00050106
    1f74:	20120520 	andscs	r0, r2, r0, lsr #10
    1f78:	05201c05 	streq	r1, [r0, #-3077]!	@ 0xfffff3fb
    1f7c:	10052012 	andne	r2, r5, r2, lsl r0
    1f80:	0611054a 	ldreq	r0, [r1], -sl, asr #10
    1f84:	06220522 	strteq	r0, [r2], -r2, lsr #10
    1f88:	20180501 	andscs	r0, r8, r1, lsl #10
    1f8c:	05202205 	streq	r2, [r0, #-517]!	@ 0xfffffdfb
    1f90:	05210611 	streq	r0, [r1, #-1553]!	@ 0xfffff9ef
    1f94:	05010621 	streq	r0, [r1, #-1569]	@ 0xfffff9df
    1f98:	05210611 	streq	r0, [r1, #-1553]!	@ 0xfffff9ef
    1f9c:	05010632 	streq	r0, [r1, #-1586]	@ 0xfffff9ce
    1fa0:	05210611 	streq	r0, [r1, #-1553]!	@ 0xfffff9ef
    1fa4:	05010636 	streq	r0, [r1, #-1590]	@ 0xfffff9ca
    1fa8:	052e2314 	streq	r2, [lr, #-788]!	@ 0xfffffcec
    1fac:	05170609 	ldreq	r0, [r7, #-1545]	@ 0xfffff9f7
    1fb0:	0501060e 	streq	r0, [r1, #-1550]	@ 0xfffff9f2
    1fb4:	0e052018 	mcreq	0, 0, r2, cr5, cr8, {0}
    1fb8:	0c05202e 	stceq	0, cr2, [r5], {46}	@ 0x2e
    1fbc:	060d054a 	streq	r0, [sp], -sl, asr #10
    1fc0:	061d0530 			@ <UNDEFINED> instruction: 0x061d0530
    1fc4:	1f140513 	svcne	0x00140513
    1fc8:	05201e05 	streq	r1, [r0, #-3589]!	@ 0xfffff1fb
    1fcc:	0521060d 	streq	r0, [r1, #-1549]!	@ 0xfffff9f3
    1fd0:	0501061d 	streq	r0, [r1, #-1565]	@ 0xfffff9e3
    1fd4:	0521060d 	streq	r0, [r1, #-1549]!	@ 0xfffff9f3
    1fd8:	0501062e 	streq	r0, [r1, #-1582]	@ 0xfffff9d2
    1fdc:	0521060d 	streq	r0, [r1, #-1549]!	@ 0xfffff9f3
    1fe0:	02010614 	andeq	r0, r1, #20, 12	@ 0x1400000
    1fe4:	01010004 	tsteq	r1, r4
    1fe8:	05000105 	streq	r0, [r0, #-261]	@ 0xfffffefb
    1fec:	000f3c02 	andeq	r3, pc, r2, lsl #24
    1ff0:	02c30300 	sbceq	r0, r3, #0, 6
    1ff4:	13050501 	movwne	r0, #21761	@ 0x5501
    1ff8:	11060105 	tstne	r6, r5, lsl #2
    1ffc:	05210805 	streq	r0, [r1, #-2053]!	@ 0xfffff7fb
    2000:	05230605 	streq	r0, [r3, #-1541]!	@ 0xfffff9fb
    2004:	0501060d 	streq	r0, [r1, #-1549]	@ 0xfffff9f3
    2008:	1e052008 	cdpne	0, 0, cr2, cr5, cr8, {0}
    200c:	2f260522 	svccs	0x00260522
    2010:	1f060905 	svcne	0x00060905
    2014:	01061e05 	tsteq	r6, r5, lsl #28
    2018:	2f060905 	svccs	0x00060905
    201c:	01062005 	tsteq	r6, r5
    2020:	23060505 	movwcs	r0, #25861	@ 0x6505
    2024:	01060d05 	tsteq	r6, r5, lsl #26
    2028:	05200805 	streq	r0, [r0, #-2053]!	@ 0xfffff7fb
    202c:	0505261c 	streq	r2, [r5, #-1564]	@ 0xfffff9e4
    2030:	13052306 	movwne	r2, #21254	@ 0x5306
    2034:	05210106 	streq	r0, [r1, #-262]!	@ 0xfffffefa
    2038:	09052f01 	stmdbeq	r5, {r0, r8, r9, sl, fp, sp}
    203c:	1c051b06 			@ <UNDEFINED> instruction: 0x1c051b06
    2040:	05020106 	streq	r0, [r2, #-262]	@ 0xfffffefa
    2044:	05010100 	streq	r0, [r1, #-256]	@ 0xffffff00
    2048:	02050001 	andeq	r0, r5, #1
    204c:	00000f68 	andeq	r0, r0, r8, ror #30
    2050:	0102ac03 	tsteq	r2, r3, lsl #24
    2054:	14130505 	ldrne	r0, [r3], #-1285	@ 0xfffffafb
    2058:	0f060105 	svceq	0x00060105
    205c:	05231b05 	streq	r1, [r3, #-2821]!	@ 0xfffff4fb
    2060:	09053c08 	stmdbeq	r5, {r3, sl, fp, ip, sp}
    2064:	1b052206 	blne	14a884 <__exidx_end+0x149810>
    2068:	23050106 	movwcs	r0, #20742	@ 0x5106
    206c:	29010520 	stmdbcs	r1, {r5, r8, sl}
    2070:	0b030e05 	bleq	c588c <__exidx_end+0xc4818>
    2074:	0627052e 	strteq	r0, [r7], -lr, lsr #10
    2078:	061f051e 			@ <UNDEFINED> instruction: 0x061f051e
    207c:	20270501 	eorcs	r0, r7, r1, lsl #10
    2080:	02003c05 	andeq	r3, r0, #1280	@ 0x500
    2084:	05200104 	streq	r0, [r0, #-260]!	@ 0xfffffefc
    2088:	04020027 	streq	r0, [r2], #-39	@ 0xffffffd9
    208c:	05052001 	streq	r2, [r5, #-1]
    2090:	200b0306 	andcs	r0, fp, r6, lsl #6
    2094:	01061105 	tsteq	r6, r5, lsl #2
    2098:	053d0105 	ldreq	r0, [sp, #-261]!	@ 0xfffffefb
    209c:	76030609 	strvc	r0, [r3], -r9, lsl #12
    20a0:	06220520 	strteq	r0, [r2], -r0, lsr #10
    20a4:	1e0e0514 	mcrne	5, 0, r0, cr14, cr4, {0}
    20a8:	22060905 	andcs	r0, r6, #81920	@ 0x14000
    20ac:	01061c05 	tsteq	r6, r5, lsl #24
    20b0:	21060905 	tstcs	r6, r5, lsl #18
    20b4:	060f0530 			@ <UNDEFINED> instruction: 0x060f0530
    20b8:	05023c01 	streq	r3, [r2, #-3073]	@ 0xfffff3ff
    20bc:	6e010100 	adfvss	f0, f1, f0
    20c0:	03000000 	movweq	r0, #0
    20c4:	00003700 	andeq	r3, r0, r0, lsl #14
    20c8:	fb010200 	blx	428d2 <__exidx_end+0x4185e>
    20cc:	01000d0e 	tsteq	r0, lr, lsl #26
    20d0:	00010101 	andeq	r0, r1, r1, lsl #2
    20d4:	00010000 	andeq	r0, r1, r0
    20d8:	72530100 	subsvc	r0, r3, #0, 2
    20dc:	6e490063 	cdpvs	0, 4, cr0, cr9, cr3, {3}
    20e0:	6b000063 	blvs	2274 <__exidx_end+0x1200>
    20e4:	73726576 	cmnvc	r2, #494927872	@ 0x1d800000
    20e8:	2e6e6f69 	cdpcs	15, 6, cr6, cr14, cr9, {3}
    20ec:	00010063 	andeq	r0, r1, r3, rrx
    20f0:	65766b00 	ldrbvs	r6, [r6, #-2816]!	@ 0xfffff500
    20f4:	6f697372 	svcvs	0x00697372
    20f8:	00682e6e 	rsbeq	r2, r8, lr, ror #28
    20fc:	00000002 	andeq	r0, r0, r2
    2100:	05000105 	streq	r0, [r0, #-261]	@ 0xfffffefb
    2104:	000fa802 	andeq	sl, pc, r2, lsl #16
    2108:	01190300 	tsteq	r9, r0, lsl #6
    210c:	14130205 	ldrne	r0, [r3], #-517	@ 0xfffffdfb
    2110:	13060105 	movwne	r0, #24837	@ 0x6105
    2114:	01000302 	tsteq	r0, r2, lsl #6
    2118:	00010501 	andeq	r0, r1, r1, lsl #10
    211c:	00000205 	andeq	r0, r0, r5, lsl #4
    2120:	20030000 	andcs	r0, r3, r0
    2124:	13020501 	movwne	r0, #9473	@ 0x2501
    2128:	13060105 	movwne	r0, #24837	@ 0x6105
    212c:	01000202 	tsteq	r0, r2, lsl #4
    2130:	00006801 	andeq	r6, r0, r1, lsl #16
    2134:	3a000300 	bcc	2d3c <__exidx_end+0x1cc8>
    2138:	02000000 	andeq	r0, r0, #0
    213c:	0d0efb01 	vstreq	d15, [lr, #-4]
    2140:	01010100 	mrseq	r0, (UNDEF: 17)
    2144:	00000001 	andeq	r0, r0, r1
    2148:	01000001 	tsteq	r0, r1
    214c:	00637253 	rsbeq	r7, r3, r3, asr r2
    2150:	00636e49 	rsbeq	r6, r3, r9, asr #28
    2154:	72656b00 	rsbvc	r6, r5, #0, 22
    2158:	00632e72 	rsbeq	r2, r3, r2, ror lr
    215c:	6b000001 	blvs	2168 <__exidx_end+0x10f4>
    2160:	73666564 	cmnvc	r6, #100, 10	@ 0x19000000
    2164:	0200682e 	andeq	r6, r0, #3014656	@ 0x2e0000
    2168:	656b0000 	strbvs	r0, [fp, #-0]!
    216c:	682e7272 	stmdavs	lr!, {r1, r4, r5, r6, r9, ip, sp, lr}
    2170:	00000200 	andeq	r0, r0, r0, lsl #4
    2174:	00010500 	andeq	r0, r1, r0, lsl #10
    2178:	0fb00205 	svceq	0x00b00205
    217c:	33030000 	movwcc	r0, #12288	@ 0x3000
    2180:	15050501 	strne	r0, [r5, #-1281]	@ 0xfffffaff
    2184:	01060d05 	tsteq	r6, r5, lsl #26
    2188:	2f060505 	svccs	0x00060505
    218c:	01040200 	mrseq	r0, R12_usr
    2190:	000b0521 	andeq	r0, fp, r1, lsr #10
    2194:	01010402 	tsteq	r1, r2, lsl #8
    2198:	01000302 	tsteq	r0, r2, lsl #6
    219c:	Address 0x219c is out of bounds.


Disassembly of section .debug_str:

00000000 <.debug_str>:
   0:	7070416b 	rsbsvc	r4, r0, fp, ror #2
   4:	6163696c 	cmnvs	r3, ip, ror #18
   8:	6e6f6974 			@ <UNDEFINED> instruction: 0x6e6f6974
   c:	74696e49 	strbtvc	r6, [r9], #-3657	@ 0xfffff1b7
  10:	4f4f4200 	svcmi	0x004f4200
  14:	6974004c 	ldmdbvs	r4!, {r2, r3, r6}^
  18:	756f656d 	strbvc	r6, [pc, #-1389]!	@ fffffab3 <SCB_ICSR+0x1fff0daf>
  1c:	70795474 	rsbsvc	r5, r9, r4, ror r4
  20:	4b520065 	blmi	14801bc <__exidx_end+0x147f148>
  24:	53494c5f 	movtpl	r4, #40031	@ 0x9c5f
  28:	4b520054 	blmi	1480180 <__exidx_end+0x147f10c>
  2c:	5341545f 	movtpl	r5, #5215	@ 0x145f
  30:	41485f4b 	cmpmi	r8, fp, asr #30
  34:	454c444e 	strbmi	r4, [ip, #-1102]	@ 0xfffffbb2
  38:	5f4b5200 	svcpl	0x004b5200
  3c:	584f424d 	stmdapl	pc, {r0, r2, r3, r6, r9, lr}^	@ <UNPREDICTABLE>
  40:	73617400 	cmnvc	r1, #0, 8
  44:	6148336b 	cmpvs	r8, fp, ror #6
  48:	656c646e 	strbvs	r6, [ip, #-1134]!	@ 0xfffffb92
  4c:	73617400 	cmnvc	r1, #0, 8
  50:	6148316b 	cmpvs	r8, fp, ror #2
  54:	656c646e 	strbvs	r6, [ip, #-1134]!	@ 0xfffffb92
  58:	73615400 	cmnvc	r1, #0, 8
  5c:	5400316b 	strpl	r3, [r0], #-363	@ 0xfffffe95
  60:	326b7361 	rsbcc	r7, fp, #-2080374783	@ 0x84000001
  64:	73615400 	cmnvc	r1, #0, 8
  68:	4100336b 	tstmi	r0, fp, ror #6
  6c:	00524444 	subseq	r4, r2, r4, asr #8
  70:	656c536b 	strbvs	r5, [ip, #-875]!	@ 0xfffffc95
  74:	6e557065 	cdpvs	0, 5, cr7, cr5, cr5, {3}
  78:	006c6974 	rsbeq	r6, ip, r4, ror r9
  7c:	676e6f6c 	strbvs	r6, [lr, -ip, ror #30]!
  80:	6e6f6c20 	cdpvs	12, 6, cr6, cr15, cr0, {1}
  84:	6e752067 	cdpvs	0, 7, cr2, cr5, cr7, {3}
  88:	6e676973 			@ <UNDEFINED> instruction: 0x6e676973
  8c:	69206465 	stmdbvs	r0!, {r0, r2, r5, r6, sl, sp, lr}
  90:	6c00746e 	cfstrsvs	mvf7, [r0], {110}	@ 0x6e
  94:	4e747369 	cdpmi	3, 7, cr7, cr4, cr9, {3}
  98:	00656d61 	rsbeq	r6, r5, r1, ror #26
  9c:	6c69616d 	stfvse	f6, [r9], #-436	@ 0xfffffe4c
  a0:	6e6f6c00 	cdpvs	12, 6, cr6, cr15, cr0, {0}
  a4:	6f6c2067 	svcvs	0x006c2067
  a8:	6920676e 	stmdbvs	r0!, {r1, r2, r3, r5, r6, r8, r9, sl, sp, lr}
  ac:	7500746e 	strvc	r7, [r0, #-1134]	@ 0xfffffb92
  b0:	5f747261 	svcpl	0x00747261
  b4:	6e697270 	mcrvs	2, 3, r7, cr9, cr0, {3}
  b8:	61770074 	cmnvs	r7, r4, ror r0
  bc:	6e697469 	cdpvs	4, 6, cr7, cr9, cr9, {3}
  c0:	65755167 	ldrbvs	r5, [r5, #-359]!	@ 0xfffffe99
  c4:	74506575 	ldrbvc	r6, [r0], #-1397	@ 0xfffffa8b
  c8:	68730072 	ldmdavs	r3!, {r1, r4, r5, r6}^
  cc:	2074726f 	rsbscs	r7, r4, pc, ror #4
  d0:	00746e69 	rsbseq	r6, r4, r9, ror #28
  d4:	63617473 	cmnvs	r1, #1929379840	@ 0x73000000
  d8:	7400316b 	strvc	r3, [r0], #-363	@ 0xfffffe95
  dc:	6f656d69 	svcvs	0x00656d69
  e0:	6f4e7475 	svcvs	0x004e7475
  e4:	73006564 	movwvc	r6, #1380	@ 0x564
  e8:	6b636174 	blvs	18d86c0 <__exidx_end+0x18d764c>
  ec:	74730032 	ldrbtvc	r0, [r3], #-50	@ 0xffffffce
  f0:	336b6361 	cmncc	fp, #-2080374783	@ 0x84000001
  f4:	67726100 	ldrbvs	r6, [r2, -r0, lsl #2]!
  f8:	4c6b0073 	stclmi	0, cr0, [fp], #-460	@ 0xfffffe34
  fc:	00747369 	rsbseq	r7, r4, r9, ror #6
 100:	7473616c 	ldrbtvc	r6, [r3], #-364	@ 0xfffffe94
 104:	656b6157 	strbvs	r6, [fp, #-343]!	@ 0xfffffea9
 108:	656d6954 	strbvs	r6, [sp, #-2388]!	@ 0xfffff6ac
 10c:	69727000 	ldmdbvs	r2!, {ip, sp, lr}^
 110:	7469726f 	strbtvc	r7, [r9], #-623	@ 0xfffffd91
 114:	656e0079 	strbvs	r0, [lr, #-121]!	@ 0xffffff87
 118:	74507478 	ldrbvc	r7, [r0], #-1144	@ 0xfffffb88
 11c:	75720072 	ldrbvc	r0, [r2, #-114]!	@ 0xffffff8e
 120:	436f546e 	cmnmi	pc, #1845493760	@ 0x6e000000
 124:	6c706d6f 	ldclvs	13, cr6, [r0], #-444	@ 0xfffffe44
 128:	67697300 	strbvs	r7, [r9, -r0, lsl #6]!
 12c:	6c6c616e 	stfvse	f6, [ip], #-440	@ 0xfffffe48
 130:	6d006465 	cfstrsvs	mvf6, [r0, #-404]	@ 0xfffffe6c
 134:	00677365 	rsbeq	r7, r7, r5, ror #6
 138:	494c4143 	stmdbmi	ip, {r0, r1, r6, r8, lr}^
 13c:	4b520042 	blmi	148024c <__exidx_end+0x147f1d8>
 140:	4952505f 	ldmdbmi	r2, {r0, r1, r2, r3, r4, r6, ip, lr}^
 144:	4843004f 	stmdami	r3, {r0, r1, r2, r3, r6}^
 148:	74005241 	strvc	r5, [r0], #-577	@ 0xfffffdbf
 14c:	4e6b7361 	cdpmi	3, 6, cr7, cr11, cr1, {3}
 150:	00656d61 	rsbeq	r6, r5, r1, ror #26
 154:	544e4955 	strbpl	r4, [lr], #-2389	@ 0xfffff6ab
 158:	5f4b5200 	svcpl	0x004b5200
 15c:	00525245 	subseq	r5, r2, r5, asr #4
 160:	6c69616d 	stfvse	f6, [r9], #-436	@ 0xfffffe4c
 164:	00727450 	rsbseq	r7, r2, r0, asr r4
 168:	676e6f6c 	strbvs	r6, [lr, -ip, ror #30]!
 16c:	756f6420 	strbvc	r6, [pc, #-1056]!	@ fffffd54 <SCB_ICSR+0x1fff1050>
 170:	00656c62 	rsbeq	r6, r5, r2, ror #24
 174:	79737562 	ldmdbvc	r3!, {r1, r5, r6, r8, sl, ip, sp, lr}^
 178:	74696157 	strbtvc	r6, [r9], #-343	@ 0xfffffea9
 17c:	656d6954 	strbvs	r6, [sp, #-2388]!	@ 0xfffff6ac
 180:	52415500 	subpl	r5, r1, #0, 10
 184:	445f3054 	ldrbmi	r3, [pc], #-84	@ 18c <uart_print+0x28>
 188:	6e750052 	mrcvs	0, 3, r0, cr5, cr2, {2}
 18c:	6e676973 			@ <UNDEFINED> instruction: 0x6e676973
 190:	63206465 			@ <UNDEFINED> instruction: 0x63206465
 194:	00726168 	rsbseq	r6, r2, r8, ror #2
 198:	6263546b 	rsbvs	r5, r3, #1795162112	@ 0x6b000000
 19c:	6e776f00 	cdpvs	15, 7, cr6, cr7, cr0, {0}
 1a0:	61547265 	cmpvs	r4, r5, ror #4
 1a4:	43006b73 	movwmi	r6, #2931	@ 0xb73
 1a8:	004c5254 	subeq	r5, ip, r4, asr r2
 1ac:	4e4f4c55 	mcrmi	12, 2, r4, cr15, cr5, {2}
 1b0:	61770047 	cmnvs	r7, r7, asr #32
 1b4:	6e697469 	cdpvs	4, 6, cr7, cr9, cr9, {3}
 1b8:	65755167 	ldrbvs	r5, [r5, #-359]!	@ 0xfffffe99
 1bc:	56006575 			@ <UNDEFINED> instruction: 0x56006575
 1c0:	0044494f 	subeq	r4, r4, pc, asr #18
 1c4:	6f624d6b 	svcvs	0x00624d6b
 1c8:	696e4978 	stmdbvs	lr!, {r3, r4, r5, r6, r8, fp, lr}^
 1cc:	63740074 	cmnvs	r4, #116	@ 0x74
 1d0:	646f4e62 	strbtvs	r4, [pc], #-3682	@ 1d8 <Task2+0x8>
 1d4:	68730065 	ldmdavs	r3!, {r0, r2, r5, r6}^
 1d8:	2074726f 	rsbscs	r7, r4, pc, ror #4
 1dc:	69736e75 	ldmdbvs	r3!, {r0, r2, r4, r5, r6, r9, sl, fp, sp, lr}^
 1e0:	64656e67 	strbtvs	r6, [r5], #-3687	@ 0xfffff199
 1e4:	746e6920 	strbtvc	r6, [lr], #-2336	@ 0xfffff6e0
 1e8:	61747300 	cmnvs	r4, r0, lsl #6
 1ec:	00737574 	rsbseq	r7, r3, r4, ror r5
 1f0:	76636572 			@ <UNDEFINED> instruction: 0x76636572
 1f4:	00727450 	rsbseq	r7, r2, r0, asr r4
 1f8:	436e7572 	cmnmi	lr, #478150656	@ 0x1c800000
 1fc:	6b00746e 	blvs	1d3bc <__exidx_end+0x1c348>
 200:	6c69614d 	stfvse	f6, [r9], #-308	@ 0xfffffecc
 204:	00786f62 	rsbseq	r6, r8, r2, ror #30
 208:	76657270 			@ <UNDEFINED> instruction: 0x76657270
 20c:	00727450 	rsbseq	r7, r2, r0, asr r4
 210:	63617473 	cmnvs	r1, #1929379840	@ 0x73000000
 214:	6464416b 	strbtvs	r4, [r4], #-363	@ 0xfffffe95
 218:	72745072 	rsbsvc	r5, r4, #114	@ 0x72
 21c:	6d697400 	cfstrdvs	mvd7, [r9, #-0]
 220:	74754f65 	ldrbtvc	r4, [r5], #-3941	@ 0xfffff09b
 224:	694c6b00 	stmdbvs	ip, {r8, r9, fp, sp, lr}^
 228:	6f4e7473 	svcvs	0x004e7473
 22c:	52006564 	andpl	r6, r0, #100, 10	@ 0x19000000
 230:	49505f4b 	ldmdbmi	r0, {r0, r1, r3, r6, r8, r9, sl, fp, ip, lr}^
 234:	546b0044 	strbtpl	r0, [fp], #-68	@ 0xffffffbc
 238:	6f656d69 	svcvs	0x00656d69
 23c:	6f4e7475 	svcvs	0x004e7475
 240:	70006564 	andvc	r6, r0, r4, ror #10
 244:	6d656572 	cfstr64vs	mvdx6, [r5, #-456]!	@ 0xfffffe38
 248:	64657470 	strbtvs	r7, [r5], #-1136	@ 0xfffffb90
 24c:	74007942 	strvc	r7, [r0], #-2370	@ 0xfffff6be
 250:	326b7361 	rsbcc	r7, fp, #-2080374783	@ 0x84000001
 254:	646e6148 	strbtvs	r6, [lr], #-328	@ 0xfffffeb8
 258:	6b00656c 	blvs	19810 <__exidx_end+0x1879c>
 25c:	786f624d 	stmdavc	pc!, {r0, r2, r3, r6, r9, sp, lr}^	@ <UNPREDICTABLE>
 260:	646e6550 	strbtvs	r6, [lr], #-1360	@ 0xfffffab0
 264:	554e4700 	strbpl	r4, [lr, #-1792]	@ 0xfffff900
 268:	37314320 	ldrcc	r4, [r1, -r0, lsr #6]!
 26c:	2e323120 	rsfcssp	f3, f2, f0
 270:	20312e33 	eorscs	r2, r1, r3, lsr lr
 274:	33323032 	teqcc	r2, #50	@ 0x32
 278:	36323630 			@ <UNDEFINED> instruction: 0x36323630
 27c:	636d2d20 	cmnvs	sp, #32, 26	@ 0x800
 280:	633d7570 	teqvs	sp, #112, 10	@ 0x1c000000
 284:	6574726f 	ldrbvs	r7, [r4, #-623]!	@ 0xfffffd91
 288:	336d2d78 	cmncc	sp, #120, 26	@ 0x1e00
 28c:	746d2d20 	strbtvc	r2, [sp], #-3360	@ 0xfffff2e0
 290:	626d7568 	rsbvs	r7, sp, #104, 10	@ 0x1a000000
 294:	666d2d20 	strbtvs	r2, [sp], -r0, lsr #26
 298:	74616f6c 	strbtvc	r6, [r1], #-3948	@ 0xfffff094
 29c:	6962612d 	stmdbvs	r2!, {r0, r2, r3, r5, r8, sp, lr}^
 2a0:	666f733d 			@ <UNDEFINED> instruction: 0x666f733d
 2a4:	6d2d2074 	stcvs	0, cr2, [sp, #-464]!	@ 0xfffffe30
 2a8:	68637261 	stmdavs	r3!, {r0, r5, r6, r9, ip, sp, lr}^
 2ac:	6d72613d 	ldfvse	f6, [r2, #-244]!	@ 0xffffff0c
 2b0:	6d2d3776 	stcvs	7, cr3, [sp, #-472]!	@ 0xfffffe28
 2b4:	20672d20 	rsbcs	r2, r7, r0, lsr #26
 2b8:	20734f2d 	rsbscs	r4, r3, sp, lsr #30
 2bc:	7566662d 	strbvc	r6, [r6, #-1581]!	@ 0xfffff9d3
 2c0:	6974636e 	ldmdbvs	r4!, {r1, r2, r3, r5, r6, r8, r9, sp, lr}^
 2c4:	732d6e6f 			@ <UNDEFINED> instruction: 0x732d6e6f
 2c8:	69746365 	ldmdbvs	r4!, {r0, r2, r5, r6, r8, r9, sp, lr}^
 2cc:	20736e6f 	rsbscs	r6, r3, pc, ror #28
 2d0:	6164662d 	cmnvs	r4, sp, lsr #12
 2d4:	732d6174 			@ <UNDEFINED> instruction: 0x732d6174
 2d8:	69746365 	ldmdbvs	r4!, {r0, r2, r5, r6, r8, r9, sp, lr}^
 2dc:	00736e6f 	rsbseq	r6, r3, pc, ror #28
 2e0:	545f4b52 	ldrbpl	r4, [pc], #-2898	@ 2e8 <Reset_Handler+0x1c>
 2e4:	5f4b5341 	svcpl	0x004b5341
 2e8:	54415453 	strbpl	r5, [r1], #-1107	@ 0xfffffbad
 2ec:	6e005355 	mcrvs	3, 0, r5, cr0, cr5, {2}
 2f0:	65657250 	strbvs	r7, [r5, #-592]!	@ 0xfffffdb0
 2f4:	6574706d 	ldrbvs	r7, [r4, #-109]!	@ 0xffffff93
 2f8:	4b520064 	blmi	1480490 <__exidx_end+0x147f41c>
 2fc:	424f4b5f 	submi	r4, pc, #97280	@ 0x17c00
 300:	44495f4a 	strbmi	r5, [r9], #-3914	@ 0xfffff0b6
 304:	7a697300 	bvc	1a5cf0c <__exidx_end+0x1a5be98>
 308:	696c0065 	stmdbvs	ip!, {r0, r2, r5, r6}^
 30c:	75447473 	strbvc	r7, [r4, #-1139]	@ 0xfffffb8d
 310:	00796d6d 	rsbseq	r6, r9, sp, ror #26
 314:	545f4b52 	ldrbpl	r4, [pc], #-2898	@ 31c <kCoreSetInterruptPriority>
 318:	004b4349 	subeq	r4, fp, r9, asr #6
 31c:	74726175 	ldrbtvc	r6, [r2], #-373	@ 0xfffffe8b
 320:	7475705f 	ldrbtvc	r7, [r5], #-95	@ 0xffffffa1
 324:	72616863 	rsbvc	r6, r1, #6488064	@ 0x630000
 328:	414f4c00 	cmpmi	pc, r0, lsl #24
 32c:	626f0044 	rsbvs	r0, pc, #68	@ 0x44
 330:	0044496a 	subeq	r4, r4, sl, ror #18
 334:	786f626d 	stmdavc	pc!, {r0, r2, r3, r5, r6, r9, sp, lr}^	@ <UNPREDICTABLE>
 338:	70706100 	rsbsvc	r6, r0, r0, lsl #2
 33c:	6372532f 	cmnvs	r2, #-1140850688	@ 0xbc000000
 340:	7070612f 	rsbsvc	r6, r0, pc, lsr #2
 344:	6163696c 	cmnvs	r3, ip, ror #18
 348:	6e6f6974 			@ <UNDEFINED> instruction: 0x6e6f6974
 34c:	5200632e 	andpl	r6, r0, #-1207959552	@ 0xb8000000
 350:	4f435f4b 	svcmi	0x00435f4b
 354:	535f4552 	cmppl	pc, #343932928	@ 0x14800000
 358:	49545359 	ldmdbmi	r4, {r0, r3, r4, r6, r8, r9, ip, lr}^
 35c:	545f4b43 	ldrbpl	r4, [pc], #-2883	@ 364 <kMboxInit>
 360:	00455059 	subeq	r5, r5, r9, asr r0
 364:	63697464 	cmnvs	r9, #100, 8	@ 0x64000000
 368:	536b006b 	cmnpl	fp, #107	@ 0x6b
 36c:	7065656c 	rsbvc	r6, r5, ip, ror #10
 370:	73552f00 	cmpvc	r5, #0, 30
 374:	2f737265 	svccs	0x00737265
 378:	6f746e61 	svcvs	0x00746e61
 37c:	2f6f696e 	svccs	0x006f696e
 380:	75636f44 	strbvc	r6, [r3, #-3908]!	@ 0xfffff0bc
 384:	746e656d 	strbtvc	r6, [lr], #-1389	@ 0xfffffa93
 388:	69472f73 	stmdbvs	r7, {r0, r1, r4, r5, r6, r8, r9, sl, fp, sp}^
 38c:	62754874 	rsbsvs	r4, r5, #116, 16	@ 0x740000
 390:	304b522f 	subcc	r5, fp, pc, lsr #4
 394:	61747300 	cmnvs	r4, r0, lsl #6
 398:	69536b63 	ldmdbvs	r3, {r0, r1, r5, r6, r8, r9, fp, sp, lr}^
 39c:	7200657a 	andvc	r6, r0, #511705088	@ 0x1e800000
 3a0:	00766365 	rsbseq	r6, r6, r5, ror #6
 3a4:	6f624d6b 	svcvs	0x00624d6b
 3a8:	736f5078 	cmnvc	pc, #120	@ 0x78
 3ac:	69740074 	ldmdbvs	r4!, {r2, r4, r5, r6}^
 3b0:	756f656d 	strbvc	r6, [pc, #-1389]!	@ fffffe4b <SCB_ICSR+0x1fff1147>
 3b4:	6e690074 	mcrvs	0, 3, r0, cr9, cr4, {3}
 3b8:	6b007469 	blvs	1d564 <__exidx_end+0x1c4f0>
 3bc:	65726f43 	ldrbvs	r6, [r2, #-3907]!	@ 0xfffff0bd
 3c0:	54737953 	ldrbtpl	r7, [r3], #-2387	@ 0xfffff6ad
 3c4:	436b6369 	cmnmi	fp, #-1543503871	@ 0xa4000001
 3c8:	69666e6f 	stmdbvs	r6!, {r0, r1, r2, r3, r5, r6, r9, sl, fp, sp, lr}^
 3cc:	616d0067 	cmnvs	sp, r7, rrx
 3d0:	6b006e69 	blvs	1bd7c <__exidx_end+0x1ad08>
 3d4:	74696e49 	strbtvc	r6, [r9], #-3657	@ 0xfffff1b7
 3d8:	5f4b5200 	svcpl	0x004b5200
 3dc:	4b534154 	blmi	14d0934 <__exidx_end+0x14cf8c0>
 3e0:	52544e45 	subspl	r4, r4, #1104	@ 0x450
 3e4:	436b0059 	cmnmi	fp, #89	@ 0x59
 3e8:	74616572 	strbtvc	r6, [r1], #-1394	@ 0xfffffa8e
 3ec:	73615465 	cmnvc	r1, #1694498816	@ 0x65000000
 3f0:	616d006b 	cmnvs	sp, fp, rrx
 3f4:	632e6e69 			@ <UNDEFINED> instruction: 0x632e6e69
 3f8:	6f436b00 	svcvs	0x00436b00
 3fc:	65536572 	ldrbvs	r6, [r3, #-1394]	@ 0xfffffa8e
 400:	746e4974 	strbtvc	r4, [lr], #-2420	@ 0xfffff68c
 404:	75727265 	ldrbvc	r7, [r2, #-613]!	@ 0xfffffd9b
 408:	72507470 	subsvc	r7, r0, #112, 8	@ 0x70000000
 40c:	69726f69 	ldmdbvs	r2!, {r0, r3, r5, r6, r8, r9, sl, fp, sp, lr}^
 410:	5f007974 	svcpl	0x00007974
 414:	74616473 	strbtvc	r6, [r1], #-1139	@ 0xfffffb8d
 418:	735f0061 	cmpvc	pc, #97	@ 0x61
 41c:	00737362 	rsbseq	r7, r3, r2, ror #6
 420:	7362655f 	cmnvc	r2, #398458880	@ 0x17c00000
 424:	65520073 	ldrbvs	r0, [r2, #-115]	@ 0xffffff8d
 428:	5f746573 	svcpl	0x00746573
 42c:	646e6148 	strbtvs	r6, [lr], #-328	@ 0xfffffeb8
 430:	0072656c 	rsbseq	r6, r2, ip, ror #10
 434:	54737953 	ldrbtpl	r7, [r3], #-2387	@ 0xfffff6ad
 438:	5f6b6369 	svcpl	0x006b6369
 43c:	646e6148 	strbtvs	r6, [lr], #-328	@ 0xfffffeb8
 440:	0072656c 	rsbseq	r6, r2, ip, ror #10
 444:	66705f67 	ldrbtvs	r5, [r0], -r7, ror #30
 448:	6365566e 	cmnvs	r5, #115343360	@ 0x6e00000
 44c:	73726f74 	cmnvc	r2, #116, 30	@ 0x1d0
 450:	65447000 	strbvs	r7, [r4, #-0]
 454:	5f007473 	svcpl	0x00007473
 458:	74616465 	strbtvc	r6, [r1], #-1125	@ 0xfffffb9b
 45c:	735f0061 	cmpvc	pc, #97	@ 0x61
 460:	74616469 	strbtvc	r6, [r1], #-1129	@ 0xfffffb97
 464:	5f5f0061 	svcpl	0x005f0061
 468:	6c697562 	cfstr64vs	mvdx7, [r9], #-392	@ 0xfffffe78
 46c:	5f6e6974 	svcpl	0x006e6974
 470:	736d656d 	cmnvc	sp, #457179136	@ 0x1b400000
 474:	5f007465 	svcpl	0x00007465
 478:	6e69755f 	mcrvs	5, 3, r7, cr9, cr15, {2}
 47c:	5f323374 	svcpl	0x00323374
 480:	5f5f0074 	svcpl	0x005f0074
 484:	6c697562 	cfstr64vs	mvdx7, [r9], #-392	@ 0xfffffe78
 488:	5f6e6974 	svcpl	0x006e6974
 48c:	636d656d 	cmnvs	sp, #457179136	@ 0x1b400000
 490:	44007970 	strmi	r7, [r0], #-2416	@ 0xfffff690
 494:	75616665 	strbvc	r6, [r1, #-1637]!	@ 0xfffff99b
 498:	485f746c 	ldmdami	pc, {r2, r3, r5, r6, sl, ip, sp, lr}^	@ <UNPREDICTABLE>
 49c:	6c646e61 	stclvs	14, cr6, [r4], #-388	@ 0xfffffe7c
 4a0:	53007265 	movwpl	r7, #613	@ 0x265
 4a4:	65747379 	ldrbvs	r7, [r4, #-889]!	@ 0xfffffc87
 4a8:	696e496d 	stmdbvs	lr!, {r0, r2, r3, r5, r6, r8, fp, lr}^
 4ac:	56530074 			@ <UNDEFINED> instruction: 0x56530074
 4b0:	61485f43 	cmpvs	r8, r3, asr #30
 4b4:	656c646e 	strbvs	r6, [ip, #-1134]!	@ 0xfffffb92
 4b8:	65500072 	ldrbvs	r0, [r0, #-114]	@ 0xffffff8e
 4bc:	5653646e 	ldrbpl	r6, [r3], -lr, ror #8
 4c0:	6e61485f 	mcrvs	8, 3, r4, cr1, cr15, {2}
 4c4:	72656c64 	rsbvc	r6, r5, #100, 24	@ 0x6400
 4c8:	61747300 	cmnvs	r4, r0, lsl #6
 4cc:	70757472 	rsbsvc	r7, r5, r2, ror r4
 4d0:	726f635f 	rsbvc	r6, pc, #2080374785	@ 0x7c000001
 4d4:	6d786574 	cfldr64vs	mvdx6, [r8, #-464]!	@ 0xfffffe30
 4d8:	7000632e 	andvc	r6, r0, lr, lsr #6
 4dc:	00637253 	rsbeq	r7, r3, r3, asr r2
 4e0:	726f436b 	rsbvc	r4, pc, #-1409286143	@ 0xac000001
 4e4:	73694465 	cmnvc	r9, #1694498816	@ 0x65000000
 4e8:	656c6261 	strbvs	r6, [ip, #-609]!	@ 0xfffffd9f
 4ec:	65746e49 	ldrbvs	r6, [r4, #-3657]!	@ 0xfffff1b7
 4f0:	70757272 	rsbsvc	r7, r5, r2, ror r2
 4f4:	4b520074 	blmi	14806cc <__exidx_end+0x147f658>
 4f8:	524f435f 	subpl	r4, pc, #2080374785	@ 0x7c000001
 4fc:	564e5f45 	strbpl	r5, [lr], -r5, asr #30
 500:	545f4349 	ldrbpl	r4, [pc], #-841	@ 508 <kMboxPend+0x1c>
 504:	00455059 	subeq	r5, r5, r9, asr r0
 508:	52504349 	subspl	r4, r0, #603979777	@ 0x24000001
 50c:	6f436b00 	svcvs	0x00436b00
 510:	65536572 	ldrbvs	r6, [r3, #-1394]	@ 0xfffffa8e
 514:	6e655074 	mcrvs	0, 3, r5, cr5, cr4, {3}
 518:	676e6964 	strbvs	r6, [lr, -r4, ror #18]!
 51c:	65746e49 	ldrbvs	r6, [r4, #-3657]!	@ 0xfffff1b7
 520:	70757272 	rsbsvc	r7, r5, r2, ror r2
 524:	48530074 	ldmdami	r3, {r2, r4, r5, r6}^
 528:	00525343 	subseq	r5, r2, r3, asr #6
 52c:	726f436b 	rsbvc	r4, pc, #-1409286143	@ 0xac000001
 530:	616e4565 	cmnvs	lr, r5, ror #10
 534:	49656c62 	stmdbmi	r5!, {r1, r5, r6, sl, fp, sp, lr}^
 538:	7265746e 	rsbvc	r7, r5, #1845493760	@ 0x6e000000
 53c:	74707572 	ldrbtvc	r7, [r0], #-1394	@ 0xfffffa8e
 540:	69725000 	ldmdbvs	r2!, {ip, lr}^
 544:	7469726f 	strbtvc	r7, [r9], #-623	@ 0xfffffd91
 548:	6f724779 	svcvs	0x00724779
 54c:	6d547075 	ldclvs	0, cr7, [r4, #-468]	@ 0xfffffe2c
 550:	69740070 	ldmdbvs	r4!, {r4, r5, r6}^
 554:	00736b63 	rsbseq	r6, r3, r3, ror #22
 558:	524f5456 	subpl	r5, pc, #1442840576	@ 0x56000000
 55c:	53455200 	movtpl	r5, #20992	@ 0x5200
 560:	45565245 	ldrbmi	r5, [r6, #-581]	@ 0xfffffdbb
 564:	52003044 	andpl	r3, r0, #68	@ 0x44
 568:	52455345 	subpl	r5, r5, #335544321	@ 0x14000001
 56c:	31444556 	cmpcc	r4, r6, asr r5
 570:	53455200 	movtpl	r5, #20992	@ 0x5200
 574:	45565245 	ldrbmi	r5, [r6, #-581]	@ 0xfffffdbb
 578:	52003444 	andpl	r3, r0, #68, 8	@ 0x44000000
 57c:	52455345 	subpl	r5, r5, #335544321	@ 0x14000001
 580:	35444556 	strbcc	r4, [r4, #-1366]	@ 0xfffffaaa
 584:	6f436b00 	svcvs	0x00436b00
 588:	65476572 	strbvs	r6, [r7, #-1394]	@ 0xfffffa8e
 58c:	69725074 	ldmdbvs	r2!, {r2, r4, r5, r6, ip, lr}^
 590:	7469726f 	strbtvc	r7, [r9], #-623	@ 0xfffffd91
 594:	6f724779 	svcvs	0x00724779
 598:	6e697075 	mcrvs	0, 3, r7, cr9, cr5, {3}
 59c:	54530067 	ldrbpl	r0, [r3], #-103	@ 0xffffff99
 5a0:	6b005249 	blvs	14ecc <__exidx_end+0x13e58>
 5a4:	65726f43 	ldrbvs	r6, [r2, #-3907]!	@ 0xfffff0bd
 5a8:	49746547 	ldmdbmi	r4!, {r0, r1, r2, r6, r8, sl, sp, lr}^
 5ac:	7265746e 	rsbvc	r7, r5, #1845493760	@ 0x6e000000
 5b0:	74707572 	ldrbtvc	r7, [r0], #-1394	@ 0xfffffa8e
 5b4:	6f697250 	svcvs	0x00697250
 5b8:	79746972 	ldmdbvc	r4!, {r1, r4, r5, r6, r8, fp, sp, lr}^
 5bc:	53464300 	movtpl	r4, #25344	@ 0x6300
 5c0:	46480052 			@ <UNDEFINED> instruction: 0x46480052
 5c4:	52005253 	andpl	r5, r0, #805306373	@ 0x30000005
 5c8:	4f435f4b 	svcmi	0x00435f4b
 5cc:	535f4552 	cmppl	pc, #343932928	@ 0x14800000
 5d0:	545f4243 	ldrbpl	r4, [pc], #-579	@ 5d8 <kMboxPend+0xec>
 5d4:	00455059 	subeq	r5, r5, r9, asr r0
 5d8:	52505349 	subspl	r5, r0, #603979777	@ 0x24000001
 5dc:	53464400 	movtpl	r4, #25600	@ 0x6400
 5e0:	43490052 	movtmi	r0, #36946	@ 0x9052
 5e4:	6b005253 	blvs	14f38 <__exidx_end+0x13ec4>
 5e8:	65726f43 	ldrbvs	r6, [r2, #-3907]!	@ 0xfffff0bd
 5ec:	50746547 	rsbspl	r6, r4, r7, asr #10
 5f0:	69646e65 	stmdbvs	r4!, {r0, r2, r5, r6, r9, sl, fp, sp, lr}^
 5f4:	6e49676e 	cdpvs	7, 4, cr6, cr9, cr14, {3}
 5f8:	72726574 	rsbsvc	r6, r2, #116, 10	@ 0x1d000000
 5fc:	00747075 	rsbseq	r7, r4, r5, ror r0
 600:	726f436b 	rsbvc	r4, pc, #-1409286143	@ 0xac000001
 604:	74654765 	strbtvc	r4, [r5], #-1893	@ 0xfffff89b
 608:	54737953 	ldrbtpl	r7, [r3], #-2387	@ 0xfffff6ad
 60c:	566b6369 	strbtpl	r6, [fp], -r9, ror #6
 610:	65756c61 	ldrbvs	r6, [r5, #-3169]!	@ 0xfffff39f
 614:	52494100 	subpl	r4, r9, #0, 2
 618:	42005243 	andmi	r5, r0, #805306372	@ 0x30000004
 61c:	00524146 	subseq	r4, r2, r6, asr #2
 620:	49555043 	ldmdbmi	r5, {r0, r1, r6, ip, lr}^
 624:	72700044 	rsbsvc	r0, r0, #68	@ 0x44
 628:	69726f69 	ldmdbvs	r2!, {r0, r3, r5, r6, r8, r9, sl, fp, sp, lr}^
 62c:	72477974 	subvc	r7, r7, #116, 18	@ 0x1d0000
 630:	0070756f 	rsbseq	r7, r0, pc, ror #10
 634:	5f676572 	svcpl	0x00676572
 638:	756c6176 	strbvc	r6, [ip, #-374]!	@ 0xfffffe8a
 63c:	436b0065 	cmnmi	fp, #101	@ 0x65
 640:	4565726f 	strbmi	r7, [r5, #-623]!	@ 0xfffffd91
 644:	6c62616e 	stfvse	f6, [r2], #-440	@ 0xfffffe48
 648:	75614665 	strbvc	r4, [r1, #-1637]!	@ 0xfffff99b
 64c:	0073746c 	rsbseq	r7, r3, ip, ror #8
 650:	52455349 	subpl	r5, r5, #603979777	@ 0x24000001
 654:	464d4d00 	strbmi	r4, [sp], -r0, lsl #26
 658:	6b005241 	blvs	14f64 <__exidx_end+0x13ef0>
 65c:	65726f43 	ldrbvs	r6, [r2, #-3907]!	@ 0xfffff0bd
 660:	61656c43 	cmnvs	r5, r3, asr #24
 664:	6e655072 	mcrvs	0, 3, r5, cr5, cr2, {3}
 668:	676e6964 	strbvs	r6, [lr, -r4, ror #18]!
 66c:	65746e49 	ldrbvs	r6, [r4, #-3657]!	@ 0xfffff1b7
 670:	70757272 	rsbsvc	r7, r5, r2, ror r2
 674:	72530074 	subsvc	r0, r3, #116	@ 0x74
 678:	686b2f63 	stmdavs	fp!, {r0, r1, r5, r6, r8, r9, sl, fp, sp}^
 67c:	632e6c61 			@ <UNDEFINED> instruction: 0x632e6c61
 680:	6f436b00 	svcvs	0x00436b00
 684:	65536572 	ldrbvs	r6, [r3, #-1394]	@ 0xfffffa8e
 688:	69725074 	ldmdbvs	r2!, {r2, r4, r5, r6, ip, lr}^
 68c:	7469726f 	strbtvc	r7, [r9], #-623	@ 0xfffffd91
 690:	6f724779 	svcvs	0x00724779
 694:	6e697075 	mcrvs	0, 3, r7, cr9, cr5, {3}
 698:	436b0067 	cmnmi	fp, #103	@ 0x67
 69c:	4565726f 	strbmi	r7, [r5, #-623]!	@ 0xfffffd91
 6a0:	6c62616e 	stfvse	f6, [r2], #-440	@ 0xfffffe48
 6a4:	73795365 	cmnvc	r9, #-1811939327	@ 0x94000001
 6a8:	6b636954 	blvs	18dac00 <__exidx_end+0x18d9b8c>
 6ac:	65726f43 	ldrbvs	r6, [r2, #-3907]!	@ 0xfffff0bd
 6b0:	45434900 	strbmi	r4, [r3, #-2304]	@ 0xfffff700
 6b4:	41490052 	qdaddmi	r0, r2, r9
 6b8:	6b005242 	blvs	14fc8 <__exidx_end+0x13f54>
 6bc:	65726f43 	ldrbvs	r6, [r2, #-3907]!	@ 0xfffff0bd
 6c0:	61736944 	cmnvs	r3, r4, asr #18
 6c4:	53656c62 	cmnpl	r5, #25088	@ 0x6200
 6c8:	69547379 	ldmdbvs	r4, {r0, r3, r4, r5, r6, r8, r9, ip, sp, lr}^
 6cc:	6f436b63 	svcvs	0x00436b63
 6d0:	41006572 	tstmi	r0, r2, ror r5
 6d4:	00525346 	subseq	r5, r2, r6, asr #6
 6d8:	45534552 	ldrbmi	r4, [r3, #-1362]	@ 0xfffffaae
 6dc:	44455652 	strbmi	r5, [r5], #-1618	@ 0xfffff9ae
 6e0:	52490032 	subpl	r0, r9, #50	@ 0x32
 6e4:	52006e51 	andpl	r6, r0, #1296	@ 0x510
 6e8:	52455345 	subpl	r5, r5, #335544321	@ 0x14000001
 6ec:	33444556 	movtcc	r4, #17750	@ 0x4556
 6f0:	624d6b00 	subvs	r6, sp, #0, 22
 6f4:	7551786f 	ldrbvc	r7, [r1, #-2159]	@ 0xfffff791
 6f8:	00797265 	rsbseq	r7, r9, r5, ror #4
 6fc:	6f624d6b 	svcvs	0x00624d6b
 700:	74655378 	strbtvc	r5, [r5], #-888	@ 0xfffffc88
 704:	656e774f 	strbvs	r7, [lr, #-1871]!	@ 0xfffff8b1
 708:	546b0072 	strbtpl	r0, [fp], #-114	@ 0xffffff8e
 70c:	45514243 	ldrbmi	r4, [r1, #-579]	@ 0xfffffdbd
 710:	6b00716e 	blvs	1ccd0 <__exidx_end+0x1bc5c>
 714:	51424354 	cmppl	r2, r4, asr r3
 718:	6b656550 	blvs	1959c60 <__exidx_end+0x1958bec>
 71c:	61657200 	cmnvs	r5, r0, lsl #4
 720:	75517964 	ldrbvc	r7, [r1, #-2404]	@ 0xfffff69c
 724:	00657565 	rsbeq	r7, r5, r5, ror #10
 728:	7272456b 	rsbsvc	r4, r2, #448790528	@ 0x1ac00000
 72c:	646e6148 	strbtvs	r6, [lr], #-328	@ 0xfffffeb8
 730:	0072656c 	rsbseq	r6, r2, ip, ror #10
 734:	73694c6b 	cmnvc	r9, #27392	@ 0x6b00
 738:	696e4974 	stmdbvs	lr!, {r2, r4, r5, r6, r8, fp, lr}^
 73c:	6f6b0074 	svcvs	0x006b0074
 740:	66006a62 	strvs	r6, [r0], -r2, ror #20
 744:	57656572 			@ <UNDEFINED> instruction: 0x57656572
 748:	65746972 	ldrbvs	r6, [r4, #-2418]!	@ 0xfffff68e
 74c:	72745072 	rsbsvc	r5, r4, #114	@ 0x72
 750:	78456b00 	stmdavc	r5, {r8, r9, fp, sp, lr}^
 754:	52437469 	subpl	r7, r3, #1761607680	@ 0x69000000
 758:	53726300 	cmnpl	r2, #0, 6
 75c:	65746174 	ldrbvs	r6, [r4, #-372]!	@ 0xfffffe8c
 760:	6572005f 	ldrbvs	r0, [r2, #-95]!	@ 0xffffffa1
 764:	50507663 	subspl	r7, r0, r3, ror #12
 768:	52007274 	andpl	r7, r0, #116, 4	@ 0x40000007
 76c:	43545f4b 	cmpmi	r4, #300	@ 0x12c
 770:	66005142 	strvs	r5, [r0], -r2, asr #2
 774:	52656572 	rsbpl	r6, r5, #478150656	@ 0x1c800000
 778:	50646165 	rsbpl	r6, r4, r5, ror #2
 77c:	6b007274 	blvs	1d154 <__exidx_end+0x1c0e0>
 780:	786f624d 	stmdavc	pc!, {r0, r2, r3, r6, r9, sp, lr}^	@ <UNPREDICTABLE>
 784:	6b656550 	blvs	1959ccc <__exidx_end+0x1958c58>
 788:	6e657300 	cdpvs	3, 6, cr7, cr5, cr0, {0}
 78c:	72745064 	rsbsvc	r5, r4, #100	@ 0x64
 790:	65526b00 	ldrbvs	r6, [r2, #-2816]	@ 0xfffff500
 794:	65766f6d 	ldrbvs	r6, [r6, #-3949]!	@ 0xfffff093
 798:	656d6954 	strbvs	r6, [sp, #-2388]!	@ 0xfffff6ac
 79c:	4e74756f 	cdpmi	5, 7, cr7, cr4, cr15, {3}
 7a0:	0065646f 	rsbeq	r6, r5, pc, ror #8
 7a4:	6b736174 	blvs	1cd8d7c <__exidx_end+0x1cd7d08>
 7a8:	646e6148 	strbtvs	r6, [lr], #-328	@ 0xfffffeb8
 7ac:	5200656c 	andpl	r6, r0, #108, 10	@ 0x1b000000
 7b0:	41465f4b 	cmpmi	r6, fp, asr #30
 7b4:	00544c55 	subseq	r4, r4, r5, asr ip
 7b8:	545f4b52 	ldrbpl	r4, [pc], #-2898	@ 7c0 <kTCBQRem+0x14>
 7bc:	69004243 	stmdbvs	r0, {r0, r1, r6, r9, lr}
 7c0:	4d74696e 			@ <UNDEFINED> instruction: 0x4d74696e
 7c4:	506c6961 	rsbpl	r6, ip, r1, ror #18
 7c8:	6b007274 	blvs	1d1a0 <__exidx_end+0x1c12c>
 7cc:	65746e45 	ldrbvs	r6, [r4, #-3653]!	@ 0xfffff1bb
 7d0:	00524372 	subseq	r4, r2, r2, ror r3
 7d4:	6b656570 	blvs	1959d9c <__exidx_end+0x1958d28>
 7d8:	72745050 	rsbsvc	r5, r4, #80	@ 0x50
 7dc:	6e757200 	cdpvs	2, 7, cr7, cr5, cr0, {0}
 7e0:	00727450 	rsbseq	r7, r2, r0, asr r4
 7e4:	4243546b 	submi	r5, r3, #1795162112	@ 0x6b000000
 7e8:	71654451 	cmnvc	r5, r1, asr r4
 7ec:	69546b00 	ldmdbvs	r4, {r8, r9, fp, sp, lr}^
 7f0:	754f656d 	strbvc	r6, [pc, #-1389]	@ 28b <main+0x77>
 7f4:	70690074 	rsbvc	r0, r9, r4, ror r0
 7f8:	765f7273 			@ <UNDEFINED> instruction: 0x765f7273
 7fc:	65756c61 	ldrbvs	r6, [r5, #-3169]!	@ 0xfffff39f
 800:	5f4b5200 	svcpl	0x004b5200
 804:	454d4954 	strbmi	r4, [sp, #-2388]	@ 0xfffff6ac
 808:	5f54554f 	svcpl	0x0054554f
 80c:	45444f4e 	strbmi	r4, [r4, #-3918]	@ 0xfffff0b2
 810:	63725300 	cmnvs	r2, #0, 6
 814:	656d6b2f 	strbvs	r6, [sp, #-2863]!	@ 0xfffff4d1
 818:	632e6773 			@ <UNDEFINED> instruction: 0x632e6773
 81c:	73496b00 	movtvc	r6, #39680	@ 0x9b00
 820:	00525349 	subseq	r5, r2, r9, asr #6
 824:	6f624d6b 	svcvs	0x00624d6b
 828:	736f5078 	cmnvc	pc, #120	@ 0x78
 82c:	77764f74 			@ <UNDEFINED> instruction: 0x77764f74
 830:	73696c00 	cmnvc	r9, #0, 24
 834:	72726574 	rsbsvc	r6, r2, #116, 10	@ 0x1d000000
 838:	45564b00 	ldrbmi	r4, [r6, #-2816]	@ 0xfffff500
 83c:	4f495352 	svcmi	0x00495352
 840:	6974004e 	ldmdbvs	r4!, {r1, r2, r3, r6}^
 844:	754f656d 	strbvc	r6, [pc, #-1389]	@ 2df <Reset_Handler+0x13>
 848:	73694c74 	cmnvc	r9, #116, 24	@ 0x7400
 84c:	61654874 	smcvs	21636	@ 0x5484
 850:	72745064 	rsbsvc	r5, r4, #100	@ 0x64
 854:	6d697400 	cfstrdvs	mvd7, [r9, #-0]
 858:	694c7265 	stmdbvs	ip, {r0, r2, r5, r6, r9, ip, sp, lr}^
 85c:	65487473 	strbvs	r7, [r8, #-1139]	@ 0xfffffb8d
 860:	74506461 	ldrbvc	r6, [r0], #-1121	@ 0xfffffb9f
 864:	596b0072 	stmdbpl	fp!, {r1, r4, r5, r6}^
 868:	646c6569 	strbtvs	r6, [ip], #-1385	@ 0xfffffa97
 86c:	63725300 	cmnvs	r2, #0, 6
 870:	63736b2f 	cmnvs	r3, #48128	@ 0xbc00
 874:	00632e68 	rsbeq	r2, r3, r8, ror #28
 878:	73616870 	cmnvc	r1, #112, 16	@ 0x700000
 87c:	6f6c0065 	svcvs	0x006c0065
 880:	63536b63 	cmpvs	r3, #101376	@ 0x18c00
 884:	75646568 	strbvc	r6, [r4, #-1384]!	@ 0xfffffa98
 888:	0072656c 	rsbseq	r6, r2, ip, ror #10
 88c:	65735f5f 	ldrbvs	r5, [r3, #-3935]!	@ 0xfffff0a1
 890:	52505f74 	subspl	r5, r0, #116, 30	@ 0x1d0
 894:	53414d49 	movtpl	r4, #7497	@ 0x1d49
 898:	496b004b 	stmdbmi	fp!, {r0, r1, r3, r6}^
 89c:	5174696e 	cmnpl	r4, lr, ror #18
 8a0:	65756575 	ldrbvs	r6, [r5, #-1397]!	@ 0xfffffa8b
 8a4:	5f005f73 	svcpl	0x00005f73
 8a8:	7465675f 	strbtvc	r6, [r5], #-1887	@ 0xfffff8a1
 8ac:	4952505f 	ldmdbmi	r2, {r0, r1, r2, r3, r4, r6, ip, lr}^
 8b0:	4b53414d 	blmi	14d0dec <__exidx_end+0x14cfd78>
 8b4:	6e556b00 	vnmlsvs.f64	d22, d5, d0
 8b8:	6b636f6c 	blvs	18dc670 <__exidx_end+0x18db5fc>
 8bc:	00686353 	rsbeq	r6, r8, r3, asr r3
 8c0:	72727563 	rsbsvc	r7, r2, #415236096	@ 0x18c00000
 8c4:	65646f4e 	strbvs	r6, [r4, #-3918]!	@ 0xfffff0b2
 8c8:	00727450 	rsbseq	r7, r2, r0, asr r4
 8cc:	6165526b 	cmnvs	r5, fp, ror #4
 8d0:	75527964 	ldrbvc	r7, [r2, #-2404]	@ 0xfffff69c
 8d4:	6e696e6e 	cdpvs	14, 6, cr6, cr9, cr14, {3}
 8d8:	73615467 	cmnvc	r1, #1728053248	@ 0x67000000
 8dc:	63005f6b 	movwvs	r5, #3947	@ 0xf6b
 8e0:	48727275 	ldmdami	r2!, {r0, r2, r4, r5, r6, r9, ip, sp, lr}^
 8e4:	50646165 	rsbpl	r6, r4, r5, ror #2
 8e8:	6b007274 	blvs	1d2c0 <__exidx_end+0x1c24c>
 8ec:	51424354 	cmppl	r2, r4, asr r3
 8f0:	74696e49 	strbtvc	r6, [r9], #-3657	@ 0xfffff1b7
 8f4:	6e496b00 	vmlavs.f64	d22, d9, d0
 8f8:	74537469 	ldrbvc	r7, [r3], #-1129	@ 0xfffffb97
 8fc:	5f6b6361 	svcpl	0x006b6361
 900:	69546b00 	ldmdbvs	r4, {r8, r9, fp, sp, lr}^
 904:	61486b63 	cmpvs	r8, r3, ror #22
 908:	656c646e 	strbvs	r6, [ip, #-1134]!	@ 0xfffffb92
 90c:	436b0072 	cmnmi	fp, #114	@ 0x72
 910:	4e636c61 	cdpmi	12, 6, cr6, cr3, cr1, {3}
 914:	54747865 	ldrbtpl	r7, [r4], #-2149	@ 0xfffff79b
 918:	506b7361 	rsbpl	r7, fp, r1, ror #6
 91c:	5f6f6972 	svcpl	0x006f6972
 920:	62637400 	rsbvs	r7, r3, #0, 8
 924:	546b0073 	strbtpl	r0, [fp], #-115	@ 0xffffff8d
 928:	45514243 	ldrbmi	r4, [r1, #-579]	@ 0xfffffdbd
 92c:	7942716e 	stmdbvc	r2, {r1, r2, r3, r5, r6, r8, ip, sp, lr}^
 930:	6f697250 	svcvs	0x00697250
 934:	73657200 	cmnvc	r5, #0, 4
 938:	00746c75 	rsbseq	r6, r4, r5, ror ip
 93c:	4e77656e 	cdpmi	5, 7, cr6, cr7, cr14, {3}
 940:	5065646f 	rsbpl	r6, r5, pc, ror #8
 944:	6b007274 	blvs	1d31c <__exidx_end+0x1c2a8>
 948:	56746547 	ldrbtpl	r6, [r4], -r7, asr #10
 94c:	69737265 	ldmdbvs	r3!, {r0, r2, r5, r6, r9, ip, sp, lr}^
 950:	68006e6f 	stmdavs	r0, {r0, r1, r2, r3, r5, r6, r9, sl, fp, sp, lr}
 954:	65686769 	strbvs	r6, [r8, #-1897]!	@ 0xfffff897
 958:	65527473 	ldrbvs	r7, [r2, #-1139]	@ 0xfffffb8d
 95c:	50796461 	rsbspl	r6, r9, r1, ror #8
 960:	006f6972 	rsbeq	r6, pc, r2, ror r9	@ <UNPREDICTABLE>
 964:	656d6974 	strbvs	r6, [sp, #-2420]!	@ 0xfffff68c
 968:	73694c72 	cmnvc	r9, #29184	@ 0x7200
 96c:	61654874 	smcvs	21636	@ 0x5484
 970:	72745064 	rsbsvc	r5, r4, #100	@ 0x64
 974:	65766153 	ldrbvs	r6, [r6, #-339]!	@ 0xfffffead
 978:	65640064 	strbvs	r0, [r4, #-100]!	@ 0xffffff9c
 97c:	75657571 	strbvc	r7, [r5, #-1393]!	@ 0xfffffa8f
 980:	6f4e6465 	svcvs	0x004e6465
 984:	74506564 	ldrbvc	r6, [r0], #-1380	@ 0xfffffa9c
 988:	656e0072 	strbvs	r0, [lr, #-114]!	@ 0xffffff8e
 98c:	61547478 	cmpvs	r4, r8, ror r4
 990:	72506b73 	subsvc	r6, r0, #117760	@ 0x1cc00
 994:	6b006f69 	blvs	1c740 <__exidx_end+0x1b6cc>
 998:	646e6148 	strbtvs	r6, [lr], #-328	@ 0xfffffeb8
 99c:	6954656c 	ldmdbvs	r4, {r2, r3, r5, r6, r8, sl, sp, lr}^
 9a0:	756f656d 	strbvc	r6, [pc, #-1389]!	@ 43b <kMboxPost+0x87>
 9a4:	73694c74 	cmnvc	r9, #116, 24	@ 0x7400
 9a8:	4b520074 	blmi	1480b80 <__exidx_end+0x147fb0c>
 9ac:	444f4e5f 	strbmi	r4, [pc], #-3679	@ 9b4 <kTCBQEnq+0x44>
 9b0:	656e0045 	strbvs	r0, [lr, #-69]!	@ 0xffffffbb
 9b4:	75527478 	ldrbvc	r7, [r2, #-1144]	@ 0xfffffb88
 9b8:	7274506e 	rsbsvc	r5, r4, #110	@ 0x6e
 9bc:	65526b00 	ldrbvs	r6, [r2, #-2816]	@ 0xfffff500
 9c0:	43796461 	cmnmi	r9, #1627389952	@ 0x61000000
 9c4:	53747874 	cmnpl	r4, #116, 16	@ 0x740000
 9c8:	68637477 	stmdavs	r3!, {r0, r1, r2, r4, r5, r6, sl, ip, sp, lr}^
 9cc:	6a616d00 	bvs	185bdd4 <__exidx_end+0x185ad60>
 9d0:	6600726f 	strvs	r7, [r0], -pc, ror #4
 9d4:	74506e75 	ldrbvc	r6, [r0], #-3701	@ 0xfffff18b
 9d8:	72700072 	rsbsvc	r0, r0, #114	@ 0x72
 9dc:	72006f69 	andvc	r6, r0, #420	@ 0x1a4
 9e0:	6f4e6d65 	svcvs	0x004e6d65
 9e4:	74506564 	ldrbvc	r6, [r0], #-1380	@ 0xfffffa9c
 9e8:	536b0072 	cmnpl	fp, #114	@ 0x72
 9ec:	77536863 	ldrbvc	r6, [r3, -r3, ror #16]
 9f0:	00686374 	rsbeq	r6, r8, r4, ror r3
 9f4:	626f6c67 	rsbvs	r6, pc, #26368	@ 0x6700
 9f8:	69546c61 	ldmdbvs	r4, {r0, r5, r6, sl, fp, sp, lr}^
 9fc:	54006b63 	strpl	r6, [r0], #-2915	@ 0xfffff49d
 a00:	72656d69 	rsbvc	r6, r5, #6720	@ 0x1a40
 a04:	646e6148 	strbtvs	r6, [lr], #-328	@ 0xfffffeb8
 a08:	5472656c 	ldrbtpl	r6, [r2], #-1388	@ 0xfffffa94
 a0c:	006b7361 	rsbeq	r7, fp, r1, ror #6
 a10:	73677261 	cmnvc	r7, #268435462	@ 0x10000006
 a14:	00727450 	rsbseq	r7, r2, r0, asr r4
 a18:	73694c6b 	cmnvc	r9, #27392	@ 0x6b00
 a1c:	64644174 	strbtvs	r4, [r4], #-372	@ 0xfffffe8c
 a20:	6c696154 	stfvse	f6, [r9], #-336	@ 0xfffffeb0
 a24:	74617000 	strbtvc	r7, [r1], #-0
 a28:	68006863 	stmdavs	r0, {r0, r1, r5, r6, fp, sp, lr}
 a2c:	54646165 	strbtpl	r6, [r4], #-357	@ 0xfffffe9b
 a30:	74506d69 	ldrbvc	r6, [r0], #-3433	@ 0xfffff297
 a34:	65720072 	ldrbvs	r0, [r2, #-114]!	@ 0xffffff8e
 a38:	646f4e6d 	strbtvs	r4, [pc], #-3693	@ a40 <kInit+0x30>
 a3c:	74505065 	ldrbvc	r5, [r0], #-101	@ 0xffffff9b
 a40:	576e0072 			@ <UNDEFINED> instruction: 0x576e0072
 a44:	73706172 	cmnvc	r0, #-2147483620	@ 0x8000001c
 a48:	5f4b5200 	svcpl	0x004b5200
 a4c:	454d4954 	strbmi	r4, [sp, #-2388]	@ 0xfffff6ac
 a50:	64490052 	strbvs	r0, [r9], #-82	@ 0xffffffae
 a54:	6154656c 	cmpvs	r4, ip, ror #10
 a58:	6b006b73 	blvs	1b82c <__exidx_end+0x1a7b8>
 a5c:	7473694c 	ldrbtvc	r6, [r3], #-2380	@ 0xfffff6b4
 a60:	65736e49 	ldrbvs	r6, [r3, #-3657]!	@ 0xfffff1b7
 a64:	66417472 			@ <UNDEFINED> instruction: 0x66417472
 a68:	00726574 	rsbseq	r6, r2, r4, ror r5
 a6c:	656c6469 	strbvs	r6, [ip, #-1129]!	@ 0xfffffb97
 a70:	6b736154 	blvs	1cd8fc8 <__exidx_end+0x1cd7f54>
 a74:	6f697250 	svcvs	0x00697250
 a78:	5f4b5200 	svcpl	0x004b5200
 a7c:	454d4954 	strbmi	r4, [sp, #-2388]	@ 0xfffff6ac
 a80:	41435f52 	cmpmi	r3, r2, asr pc
 a84:	554f4c4c 	strbpl	r4, [pc, #-3148]	@ fffffe40 <SCB_ICSR+0x1fff113c>
 a88:	4c6b0054 	stclmi	0, cr0, [fp], #-336	@ 0xfffffeb0
 a8c:	52747369 	rsbspl	r7, r4, #-1543503871	@ 0xa4000001
 a90:	766f6d65 	strbtvc	r6, [pc], -r5, ror #26
 a94:	696d0065 	stmdbvs	sp!, {r0, r2, r5, r6}^
 a98:	00726f6e 	rsbseq	r6, r2, lr, ror #30
 a9c:	72727563 	rsbsvc	r7, r2, #415236096	@ 0x18c00000
 aa0:	50626354 	rsbpl	r6, r2, r4, asr r3
 aa4:	74007274 	strvc	r7, [r0], #-628	@ 0xfffffd8c
 aa8:	74506263 	ldrbvc	r6, [r0], #-611	@ 0xfffffd9d
 aac:	69740072 	ldmdbvs	r4!, {r1, r4, r5, r6}^
 ab0:	754f656d 	strbvc	r6, [pc, #-1389]	@ 54b <kMboxPend+0x5f>
 ab4:	73615474 	cmnvc	r1, #116, 8	@ 0x74000000
 ab8:	4c6b006b 	stclmi	0, cr0, [fp], #-428	@ 0xfffffe54
 abc:	52747369 	rsbspl	r7, r4, #-1543503871	@ 0xa4000001
 ac0:	766f6d65 	strbtvc	r6, [pc], -r5, ror #26
 ac4:	61654865 	cmnvs	r5, r5, ror #16
 ac8:	64690064 	strbtvs	r0, [r9], #-100	@ 0xffffff9c
 acc:	6154656c 	cmpvs	r4, ip, ror #10
 ad0:	61486b73 	hvcvs	34483	@ 0x86b3
 ad4:	656c646e 	strbvs	r6, [ip, #-1134]!	@ 0xfffffb92
 ad8:	6f4c6b00 	svcvs	0x004c6b00
 adc:	63536b63 	cmpvs	r3, #101376	@ 0x18c00
 ae0:	61740068 	cmnvs	r4, r8, rrx
 ae4:	75466b73 	strbvc	r6, [r6, #-2931]	@ 0xfffff48d
 ae8:	7450636e 	ldrbvc	r6, [r0], #-878	@ 0xfffffc92
 aec:	496b0072 	stmdbmi	fp!, {r1, r4, r5, r6}^
 af0:	5274696e 	rsbspl	r6, r4, #1802240	@ 0x1b8000
 af4:	69546e75 	ldmdbvs	r4, {r0, r2, r4, r5, r6, r9, sl, fp, sp, lr}^
 af8:	005f656d 	subseq	r6, pc, sp, ror #10
 afc:	6165526b 	cmnvs	r5, fp, ror #4
 b00:	44517964 	ldrbmi	r7, [r1], #-2404	@ 0xfffff69c
 b04:	72007165 	andvc	r7, r0, #1073741849	@ 0x40000019
 b08:	79646165 	stmdbvc	r4!, {r0, r2, r5, r6, r8, sp, lr}^
 b0c:	74694251 	strbtvc	r4, [r9], #-593	@ 0xfffffdaf
 b10:	6b73614d 	blvs	1cd904c <__exidx_end+0x1cd7fd8>
 b14:	655f5f00 	ldrbvs	r5, [pc, #-3840]	@ fffffc1c <SCB_ICSR+0x1fff0f18>
 b18:	6c62616e 	stfvse	f6, [r2], #-440	@ 0xfffffe48
 b1c:	72695f65 	rsbvc	r5, r9, #404	@ 0x194
 b20:	72700071 	rsbsvc	r0, r0, #113	@ 0x71
 b24:	005f6f69 	subseq	r6, pc, r9, ror #30
 b28:	50626374 	rsbpl	r6, r2, r4, ror r3
 b2c:	005f7274 	subseq	r7, pc, r4, ror r2	@ <UNPREDICTABLE>
 b30:	65776f6c 	ldrbvs	r6, [r7, #-3948]!	@ 0xfffff094
 b34:	72507473 	subsvc	r7, r0, #1929379840	@ 0x73000000
 b38:	6b006f69 	blvs	1c8e4 <__exidx_end+0x1b870>
 b3c:	51424354 	cmppl	r2, r4, asr r3
 b40:	006d6552 	rsbeq	r6, sp, r2, asr r5
 b44:	6f6c6572 	svcvs	0x006c6572
 b48:	74006461 	strvc	r6, [r0], #-1121	@ 0xfffffb9f
 b4c:	72656d69 	rsbvc	r6, r5, #6720	@ 0x1a40
 b50:	646e6148 	strbtvs	r6, [lr], #-328	@ 0xfffffeb8
 b54:	5372656c 	cmnpl	r2, #108, 10	@ 0x1b000000
 b58:	6b636174 	blvs	18d9130 <__exidx_end+0x18d80bc>
 b5c:	646f6e00 	strbtvs	r6, [pc], #-3584	@ b64 <kSchSwtch+0x5c>
 b60:	72745065 	rsbsvc	r5, r4, #101	@ 0x65
 b64:	69727000 	ldmdbvs	r2!, {ip, sp, lr}^
 b68:	6b73614d 	blvs	1cd90a4 <__exidx_end+0x1cd8030>
 b6c:	53726300 	cmnpl	r2, #0, 6
 b70:	65746174 	ldrbvs	r6, [r4, #-372]!	@ 0xfffffe8c
 b74:	6e757200 	cdpvs	2, 7, cr7, cr5, cr0, {0}
 b78:	656d6954 	strbvs	r6, [sp, #-2388]!	@ 0xfffff6ac
 b7c:	75526b00 	ldrbvc	r6, [r2, #-2816]	@ 0xfffff500
 b80:	6d69546e 	cfstrdvs	mvd5, [r9, #-440]!	@ 0xfffffe48
 b84:	64690065 	strbtvs	r0, [r9], #-101	@ 0xffffff9b
 b88:	7453656c 	ldrbvc	r6, [r3], #-1388	@ 0xfffffa94
 b8c:	006b6361 	rsbeq	r6, fp, r1, ror #6
 b90:	64695070 	strbtvs	r5, [r9], #-112	@ 0xffffff90
 b94:	65727000 	ldrbvs	r7, [r2, #-0]!
 b98:	6e755276 	mrcvs	2, 3, r5, cr5, cr6, {3}
 b9c:	00727450 	rsbseq	r7, r2, r0, asr r4
 ba0:	68676968 	stmdavs	r7!, {r3, r5, r6, r8, fp, sp, lr}^
 ba4:	50747365 	rsbspl	r7, r4, r5, ror #6
 ba8:	006f6972 	rsbeq	r6, pc, r2, ror r9	@ <UNPREDICTABLE>
 bac:	546d6974 	strbtpl	r6, [sp], #-2420	@ 0xfffff68c
 bb0:	486b7361 	stmdami	fp!, {r0, r5, r6, r8, r9, ip, sp, lr}^
 bb4:	6c646e61 	stclvs	14, cr6, [r4], #-388	@ 0xfffffe7c
 bb8:	766b0065 	strbtvc	r0, [fp], -r5, rrx
 bbc:	69737265 	ldmdbvs	r3!, {r0, r2, r5, r6, r9, ip, sp, lr}^
 bc0:	6b006e6f 	blvs	1c584 <__exidx_end+0x1b510>
 bc4:	656d6954 	strbvs	r6, [sp, #-2388]!	@ 0xfffff6ac
 bc8:	61740072 	cmnvs	r4, r2, ror r0
 bcc:	61486b73 	hvcvs	34483	@ 0x86b3
 bd0:	656c646e 	strbvs	r6, [ip, #-1134]!	@ 0xfffffb92
 bd4:	00727450 	rsbseq	r7, r2, r0, asr r4
 bd8:	64616572 	strbtvs	r6, [r1], #-1394	@ 0xfffffa8e
 bdc:	69525179 	ldmdbvs	r2, {r0, r3, r4, r5, r6, r8, ip, lr}^
 be0:	4d746867 	ldclmi	8, cr6, [r4, #-412]!	@ 0xfffffe64
 be4:	006b7361 	rsbeq	r7, fp, r1, ror #6
 be8:	65675f5f 	strbvs	r5, [r7, #-3935]!	@ 0xfffff0a1
 bec:	61655274 	smcvs	21796	@ 0x5524
 bf0:	72507964 	subsvc	r7, r0, #100, 18	@ 0x190000
 bf4:	74006f69 	strvc	r6, [r0], #-3945	@ 0xfffff097
 bf8:	50506263 	subspl	r6, r0, r3, ror #4
 bfc:	72007274 	andvc	r7, r0, #116, 4	@ 0x40000007
 c00:	6f4e6665 	svcvs	0x004e6665
 c04:	74506564 	ldrbvc	r6, [r0], #-1380	@ 0xfffffa9c
 c08:	496b0072 	stmdbmi	fp!, {r1, r4, r5, r6}^
 c0c:	5474696e 	ldrbtpl	r6, [r4], #-2414	@ 0xfffff692
 c10:	005f6263 	subseq	r6, pc, r3, ror #4
 c14:	6d65526b 	sfmvs	f5, 2, [r5, #-428]!	@ 0xfffffe54
 c18:	5465766f 	strbtpl	r7, [r5], #-1647	@ 0xfffff991
 c1c:	72656d69 	rsbvc	r6, r5, #6720	@ 0x1a40
 c20:	65646f4e 	strbvs	r6, [r4, #-3918]!	@ 0xfffff0b2
 c24:	6d697400 	cfstrdvs	mvd7, [r9, #-0]
 c28:	69007265 	stmdbvs	r0, {r0, r2, r5, r6, r9, ip, sp, lr}
 c2c:	54656c64 	strbtpl	r6, [r5], #-3172	@ 0xfffff39c
 c30:	736b6369 	cmnvc	fp, #-1543503871	@ 0xa4000001
 c34:	69546b00 	ldmdbvs	r4, {r8, r9, fp, sp, lr}^
 c38:	4972656d 	ldmdbmi	r2!, {r0, r2, r3, r5, r6, r8, sl, sp, lr}^
 c3c:	0074696e 	rsbseq	r6, r4, lr, ror #18
 c40:	65646f6e 	strbvs	r6, [r4, #-3950]!	@ 0xfffff092
 c44:	445f5f00 	ldrbmi	r5, [pc], #-3840	@ c4c <kTickHandler+0xe4>
 c48:	53004253 	movwpl	r4, #595	@ 0x253
 c4c:	6b2f6372 	blvs	bd9a1c <__exidx_end+0xbd89a8>
 c50:	74737973 	ldrbtvc	r7, [r3], #-2419	@ 0xfffff68d
 c54:	736b7361 	cmnvc	fp, #-2080374783	@ 0x84000001
 c58:	5f00632e 	svcpl	0x0000632e
 c5c:	4253495f 	subsmi	r4, r3, #1556480	@ 0x17c000
 c60:	73617400 	cmnvc	r1, #0, 8
 c64:	7274506b 	rsbsvc	r5, r4, #107	@ 0x6b
 c68:	6c656400 	cfstrdvs	mvd6, [r5], #-0
 c6c:	6b007961 	blvs	1f1f8 <__exidx_end+0x1e184>
 c70:	79737542 	ldmdbvc	r3!, {r1, r6, r8, sl, ip, sp, lr}^
 c74:	616c6544 	cmnvs	ip, r4, asr #10
 c78:	65700079 	ldrbvs	r0, [r0, #-121]!	@ 0xffffff87
 c7c:	646f6972 	strbtvs	r6, [pc], #-2418	@ c84 <TimerHandlerTask+0x10>
 c80:	69546b00 	ldmdbvs	r4, {r8, r9, fp, sp, lr}^
 c84:	754f656d 	strbvc	r6, [pc, #-1389]	@ 71f <kTCBQInit+0x3>
 c88:	61655274 	smcvs	21796	@ 0x5524
 c8c:	61547964 	cmpvs	r4, r4, ror #18
 c90:	6e006b73 	vmovvs.16	d0[1], r6
 c94:	57747865 	ldrbpl	r7, [r4, -r5, ror #16]!
 c98:	54656b61 	strbtpl	r6, [r5], #-2913	@ 0xfffff49f
 c9c:	00656d69 	rsbeq	r6, r5, r9, ror #26
 ca0:	6369546b 	cmnvs	r9, #1795162112	@ 0x6b000000
 ca4:	7465476b 	strbtvc	r4, [r5], #-1899	@ 0xfffff895
 ca8:	72756300 	rsbsvc	r6, r5, #0, 6
 cac:	746e6572 	strbtvc	r6, [lr], #-1394	@ 0xfffffa8e
 cb0:	6b636954 	blvs	18db208 <__exidx_end+0x18da194>
 cb4:	49584500 	ldmdbmi	r8, {r8, sl, lr}^
 cb8:	75630054 	strbvc	r0, [r3, #-84]!	@ 0xffffffac
 cbc:	74507272 	ldrbvc	r7, [r0], #-626	@ 0xfffffd8e
 cc0:	75640072 	strbvc	r0, [r4, #-114]!	@ 0xffffff8e
 cc4:	69746172 	ldmdbvs	r4!, {r1, r4, r5, r6, r8, sp, lr}^
 cc8:	74006e6f 	strvc	r6, [r0], #-3695	@ 0xfffff191
 ccc:	4f656d69 	svcmi	0x00656d69
 cd0:	6f4e7475 	svcvs	0x004e7475
 cd4:	53006564 	movwpl	r6, #1380	@ 0x564
 cd8:	6b2f6372 	blvs	bd9aa8 <__exidx_end+0xbd8a34>
 cdc:	656d6974 	strbvs	r6, [sp, #-2420]!	@ 0xfffff68c
 ce0:	00632e72 	rsbeq	r2, r3, r2, ror lr
 ce4:	72727563 	rsbsvc	r7, r2, #415236096	@ 0x18c00000
 ce8:	656d6954 	strbvs	r6, [sp, #-2388]!	@ 0xfffff6ac
 cec:	72745072 	rsbsvc	r5, r4, #114	@ 0x72
 cf0:	69546b00 	ldmdbvs	r4, {r8, r9, fp, sp, lr}^
 cf4:	4c72656d 	cfldr64mi	mvdx6, [r2], #-436	@ 0xfffffe4c
 cf8:	41747369 	cmnmi	r4, r9, ror #6
 cfc:	005f6464 	subseq	r6, pc, r4, ror #8
 d00:	5673496b 	ldrbtpl	r4, [r3], -fp, ror #18
 d04:	64696c61 	strbtvs	r6, [r9], #-3169	@ 0xfffff39f
 d08:	73726556 	cmnvc	r2, #360710144	@ 0x15800000
 d0c:	006e6f69 	rsbeq	r6, lr, r9, ror #30
 d10:	2f637253 	svccs	0x00637253
 d14:	7265766b 	rsbvc	r7, r5, #112197632	@ 0x6b00000
 d18:	6e6f6973 			@ <UNDEFINED> instruction: 0x6e6f6973
 d1c:	5300632e 	movwpl	r6, #814	@ 0x32e
 d20:	6b2f6372 	blvs	bd9af0 <__exidx_end+0xbd8a7c>
 d24:	2e727265 	cdpcs	2, 7, cr7, cr2, cr5, {3}
 d28:	61660063 	cmnvs	r6, r3, rrx
 d2c:	00746c75 	rsbseq	r6, r4, r5, ror ip
 d30:	6c756166 	ldfvse	f6, [r5], #-408	@ 0xfffffe68
 d34:	00444974 	subeq	r4, r4, r4, ror r9

Disassembly of section .debug_frame:

00000000 <.debug_frame>:
   0:	0000000c 	andeq	r0, r0, ip
   4:	ffffffff 			@ <UNDEFINED> instruction: 0xffffffff
   8:	7c020001 	stcvc	0, cr0, [r2], {1}
   c:	000d0c0e 	andeq	r0, sp, lr, lsl #24
  10:	0000000c 	andeq	r0, r0, ip
	...
  1c:	0000000c 	andeq	r0, r0, ip
  20:	00000014 	andeq	r0, r0, r4, lsl r0
  24:	00000000 	andeq	r0, r0, r0
  28:	00000164 	andeq	r0, r0, r4, ror #2
  2c:	0000002c 	andeq	r0, r0, ip, lsr #32
  30:	84080e41 	strhi	r0, [r8], #-3649	@ 0xfffff1bf
  34:	00018e02 	andeq	r8, r1, r2, lsl #28
  38:	0000000c 	andeq	r0, r0, ip
  3c:	00000000 	andeq	r0, r0, r0
  40:	00000190 	muleq	r0, r0, r1
  44:	0000000c 	andeq	r0, r0, ip
  48:	00000018 	andeq	r0, r0, r8, lsl r0
  4c:	00000000 	andeq	r0, r0, r0
  50:	0000019c 	muleq	r0, ip, r1
  54:	00000034 	andeq	r0, r0, r4, lsr r0
  58:	84180e41 	ldrhi	r0, [r8], #-3649	@ 0xfffff1bf
  5c:	86038504 	strhi	r8, [r3], -r4, lsl #10
  60:	00018e02 	andeq	r8, r1, r2, lsl #28
  64:	00000014 	andeq	r0, r0, r4, lsl r0
  68:	00000000 	andeq	r0, r0, r0
  6c:	000001d0 	ldrdeq	r0, [r0], -r0	@ <UNPREDICTABLE>
  70:	0000002c 	andeq	r0, r0, ip, lsr #32
  74:	8e100e42 	cdphi	14, 1, cr0, cr0, cr2, {2}
  78:	00000001 	andeq	r0, r0, r1
  7c:	00000014 	andeq	r0, r0, r4, lsl r0
  80:	00000000 	andeq	r0, r0, r0
  84:	000001fc 	strdeq	r0, [r0], -ip
  88:	00000018 	andeq	r0, r0, r8, lsl r0
  8c:	83080e41 	movwhi	r0, #36417	@ 0x8e41
  90:	00018e02 	andeq	r8, r1, r2, lsl #28
  94:	0000000c 	andeq	r0, r0, ip
  98:	ffffffff 			@ <UNDEFINED> instruction: 0xffffffff
  9c:	7c020001 	stcvc	0, cr0, [r2], {1}
  a0:	000d0c0e 	andeq	r0, sp, lr, lsl #24
  a4:	00000014 	andeq	r0, r0, r4, lsl r0
  a8:	00000094 	muleq	r0, r4, r0
  ac:	00000214 	andeq	r0, r0, r4, lsl r2
  b0:	000000b4 	strheq	r0, [r0], -r4
  b4:	8e180e41 	cdphi	14, 1, cr0, cr8, cr1, {2}
  b8:	00000001 	andeq	r0, r0, r1
  bc:	0000000c 	andeq	r0, r0, ip
  c0:	ffffffff 			@ <UNDEFINED> instruction: 0xffffffff
  c4:	7c020001 	stcvc	0, cr0, [r2], {1}
  c8:	000d0c0e 	andeq	r0, sp, lr, lsl #24
  cc:	0000000c 	andeq	r0, r0, ip
  d0:	000000bc 	strheq	r0, [r0], -ip
  d4:	000002c8 	andeq	r0, r0, r8, asr #5
  d8:	00000002 	andeq	r0, r0, r2
  dc:	00000014 	andeq	r0, r0, r4, lsl r0
  e0:	000000bc 	strheq	r0, [r0], -ip
  e4:	000002cc 	andeq	r0, r0, ip, asr #5
  e8:	00000050 	andeq	r0, r0, r0, asr r0
  ec:	83080e41 	movwhi	r0, #36417	@ 0x8e41
  f0:	00018e02 	andeq	r8, r1, r2, lsl #28
  f4:	0000000c 	andeq	r0, r0, ip
  f8:	000000bc 	strheq	r0, [r0], -ip
  fc:	00000000 	andeq	r0, r0, r0
 100:	00000002 	andeq	r0, r0, r2
 104:	0000000c 	andeq	r0, r0, ip
 108:	ffffffff 			@ <UNDEFINED> instruction: 0xffffffff
 10c:	7c020001 	stcvc	0, cr0, [r2], {1}
 110:	000d0c0e 	andeq	r0, sp, lr, lsl #24
 114:	0000000c 	andeq	r0, r0, ip
 118:	00000104 	andeq	r0, r0, r4, lsl #2
 11c:	00000000 	andeq	r0, r0, r0
 120:	00000020 	andeq	r0, r0, r0, lsr #32
 124:	0000000c 	andeq	r0, r0, ip
 128:	00000104 	andeq	r0, r0, r4, lsl #2
 12c:	00000000 	andeq	r0, r0, r0
 130:	00000010 	andeq	r0, r0, r0, lsl r0
 134:	0000000c 	andeq	r0, r0, ip
 138:	00000104 	andeq	r0, r0, r4, lsl #2
 13c:	00000000 	andeq	r0, r0, r0
 140:	00000010 	andeq	r0, r0, r0, lsl r0
 144:	0000000c 	andeq	r0, r0, ip
 148:	00000104 	andeq	r0, r0, r4, lsl #2
 14c:	0000031c 	andeq	r0, r0, ip, lsl r3
 150:	00000028 	andeq	r0, r0, r8, lsr #32
 154:	0000000c 	andeq	r0, r0, ip
 158:	00000104 	andeq	r0, r0, r4, lsl #2
 15c:	00000000 	andeq	r0, r0, r0
 160:	00000024 	andeq	r0, r0, r4, lsr #32
 164:	0000000c 	andeq	r0, r0, ip
 168:	00000104 	andeq	r0, r0, r4, lsl #2
 16c:	00000000 	andeq	r0, r0, r0
 170:	0000001c 	andeq	r0, r0, ip, lsl r0
 174:	0000000c 	andeq	r0, r0, ip
 178:	00000104 	andeq	r0, r0, r4, lsl #2
 17c:	00000000 	andeq	r0, r0, r0
 180:	0000001c 	andeq	r0, r0, ip, lsl r0
 184:	0000000c 	andeq	r0, r0, ip
 188:	00000104 	andeq	r0, r0, r4, lsl #2
 18c:	00000000 	andeq	r0, r0, r0
 190:	0000001c 	andeq	r0, r0, ip, lsl r0
 194:	0000000c 	andeq	r0, r0, ip
 198:	00000104 	andeq	r0, r0, r4, lsl #2
 19c:	00000000 	andeq	r0, r0, r0
 1a0:	0000001c 	andeq	r0, r0, ip, lsl r0
 1a4:	0000000c 	andeq	r0, r0, ip
 1a8:	00000104 	andeq	r0, r0, r4, lsl #2
 1ac:	00000000 	andeq	r0, r0, r0
 1b0:	00000024 	andeq	r0, r0, r4, lsr #32
 1b4:	0000000c 	andeq	r0, r0, ip
 1b8:	00000104 	andeq	r0, r0, r4, lsl #2
 1bc:	00000344 	andeq	r0, r0, r4, asr #6
 1c0:	0000001e 	andeq	r0, r0, lr, lsl r0
 1c4:	0000000c 	andeq	r0, r0, ip
 1c8:	00000104 	andeq	r0, r0, r4, lsl #2
 1cc:	00000000 	andeq	r0, r0, r0
 1d0:	00000008 	andeq	r0, r0, r8
 1d4:	0000000c 	andeq	r0, r0, ip
 1d8:	00000104 	andeq	r0, r0, r4, lsl #2
 1dc:	00000000 	andeq	r0, r0, r0
 1e0:	0000000e 	andeq	r0, r0, lr
 1e4:	0000000c 	andeq	r0, r0, ip
 1e8:	00000104 	andeq	r0, r0, r4, lsl #2
 1ec:	00000000 	andeq	r0, r0, r0
 1f0:	0000000e 	andeq	r0, r0, lr
 1f4:	0000000c 	andeq	r0, r0, ip
 1f8:	ffffffff 			@ <UNDEFINED> instruction: 0xffffffff
 1fc:	7c020001 	stcvc	0, cr0, [r2], {1}
 200:	000d0c0e 	andeq	r0, sp, lr, lsl #24
 204:	00000018 	andeq	r0, r0, r8, lsl r0
 208:	000001f4 	strdeq	r0, [r0], -r4
 20c:	00000364 	andeq	r0, r0, r4, ror #6
 210:	00000050 	andeq	r0, r0, r0, asr r0
 214:	84100e41 	ldrhi	r0, [r0], #-3649	@ 0xfffff1bf
 218:	86038504 	strhi	r8, [r3], -r4, lsl #10
 21c:	00018e02 	andeq	r8, r1, r2, lsl #28
 220:	00000018 	andeq	r0, r0, r8, lsl r0
 224:	000001f4 	strdeq	r0, [r0], -r4
 228:	00000000 	andeq	r0, r0, r0
 22c:	00000026 	andeq	r0, r0, r6, lsr #32
 230:	83100e41 	tsthi	r0, #1040	@ 0x410
 234:	85038404 	strhi	r8, [r3, #-1028]	@ 0xfffffbfc
 238:	00018e02 	andeq	r8, r1, r2, lsl #28
 23c:	00000028 	andeq	r0, r0, r8, lsr #32
 240:	000001f4 	strdeq	r0, [r0], -r4
 244:	000003b4 			@ <UNDEFINED> instruction: 0x000003b4
 248:	00000138 	andeq	r0, r0, r8, lsr r1
 24c:	84280e42 	strthi	r0, [r8], #-3650	@ 0xfffff1be
 250:	86078508 	strhi	r8, [r7], -r8, lsl #10
 254:	88058706 	stmdahi	r5, {r1, r2, r8, r9, sl, pc}
 258:	8a038904 	bhi	e2670 <__exidx_end+0xe15fc>
 25c:	66018e02 	strvs	r8, [r1], -r2, lsl #28
 260:	42200e0a 	eormi	r0, r0, #10, 28	@ 0xa0
 264:	0000000b 	andeq	r0, r0, fp
 268:	00000018 	andeq	r0, r0, r8, lsl r0
 26c:	000001f4 	strdeq	r0, [r0], -r4
 270:	00000000 	andeq	r0, r0, r0
 274:	00000030 	andeq	r0, r0, r0, lsr r0
 278:	84100e41 	ldrhi	r0, [r0], #-3649	@ 0xfffff1bf
 27c:	86038504 	strhi	r8, [r3], -r4, lsl #10
 280:	00018e02 	andeq	r8, r1, r2, lsl #28
 284:	00000028 	andeq	r0, r0, r8, lsr #32
 288:	000001f4 	strdeq	r0, [r0], -r4
 28c:	000004ec 	andeq	r0, r0, ip, ror #9
 290:	00000138 	andeq	r0, r0, r8, lsr r1
 294:	84280e42 	strthi	r0, [r8], #-3650	@ 0xfffff1be
 298:	86078508 	strhi	r8, [r7], -r8, lsl #10
 29c:	88058706 	stmdahi	r5, {r1, r2, r8, r9, sl, pc}
 2a0:	8a038904 	bhi	e26b8 <__exidx_end+0xe1644>
 2a4:	66018e02 	strvs	r8, [r1], -r2, lsl #28
 2a8:	42200e0a 	eormi	r0, r0, #10, 28	@ 0xa0
 2ac:	0000000b 	andeq	r0, r0, fp
 2b0:	0000000c 	andeq	r0, r0, ip
 2b4:	000001f4 	strdeq	r0, [r0], -r4
 2b8:	00000000 	andeq	r0, r0, r0
 2bc:	0000000a 	andeq	r0, r0, sl
 2c0:	00000018 	andeq	r0, r0, r8, lsl r0
 2c4:	000001f4 	strdeq	r0, [r0], -r4
 2c8:	00000000 	andeq	r0, r0, r0
 2cc:	00000046 	andeq	r0, r0, r6, asr #32
 2d0:	84100e41 	ldrhi	r0, [r0], #-3649	@ 0xfffff1bf
 2d4:	86038504 	strhi	r8, [r3], -r4, lsl #10
 2d8:	00018e02 	andeq	r8, r1, r2, lsl #28
 2dc:	0000000c 	andeq	r0, r0, ip
 2e0:	ffffffff 			@ <UNDEFINED> instruction: 0xffffffff
 2e4:	7c020001 	stcvc	0, cr0, [r2], {1}
 2e8:	000d0c0e 	andeq	r0, sp, lr, lsl #24
 2ec:	00000018 	andeq	r0, r0, r8, lsl r0
 2f0:	000002dc 	ldrdeq	r0, [r0], -ip
 2f4:	00000624 	andeq	r0, r0, r4, lsr #12
 2f8:	000000cc 	andeq	r0, r0, ip, asr #1
 2fc:	84100e41 	ldrhi	r0, [r0], #-3649	@ 0xfffff1bf
 300:	86038504 	strhi	r8, [r3], -r4, lsl #10
 304:	00018e02 	andeq	r8, r1, r2, lsl #28
 308:	00000014 	andeq	r0, r0, r4, lsl r0
 30c:	000002dc 	ldrdeq	r0, [r0], -ip
 310:	000006f0 	strdeq	r0, [r0], -r0	@ <UNPREDICTABLE>
 314:	0000002c 	andeq	r0, r0, ip, lsr #32
 318:	83080e42 	movwhi	r0, #36418	@ 0x8e42
 31c:	00018e02 	andeq	r8, r1, r2, lsl #28
 320:	0000000c 	andeq	r0, r0, ip
 324:	000002dc 	ldrdeq	r0, [r0], -ip
 328:	00000000 	andeq	r0, r0, r0
 32c:	00000014 	andeq	r0, r0, r4, lsl r0
 330:	0000000c 	andeq	r0, r0, ip
 334:	000002dc 	ldrdeq	r0, [r0], -ip
 338:	00000000 	andeq	r0, r0, r0
 33c:	0000001c 	andeq	r0, r0, ip, lsl r0
 340:	00000014 	andeq	r0, r0, r4, lsl r0
 344:	000002dc 	ldrdeq	r0, [r0], -ip
 348:	0000071c 	andeq	r0, r0, ip, lsl r7
 34c:	00000028 	andeq	r0, r0, r8, lsr #32
 350:	83080e41 	movwhi	r0, #36417	@ 0x8e41
 354:	00018e02 	andeq	r8, r1, r2, lsl #28
 358:	00000018 	andeq	r0, r0, r8, lsl r0
 35c:	000002dc 	ldrdeq	r0, [r0], -ip
 360:	00000744 	andeq	r0, r0, r4, asr #14
 364:	00000068 	andeq	r0, r0, r8, rrx
 368:	83100e41 	tsthi	r0, #1040	@ 0x410
 36c:	85038404 	strhi	r8, [r3, #-1028]	@ 0xfffffbfc
 370:	00018e02 	andeq	r8, r1, r2, lsl #28
 374:	00000018 	andeq	r0, r0, r8, lsl r0
 378:	000002dc 	ldrdeq	r0, [r0], -ip
 37c:	000007ac 	andeq	r0, r0, ip, lsr #15
 380:	00000070 	andeq	r0, r0, r0, ror r0
 384:	83100e41 	tsthi	r0, #1040	@ 0x410
 388:	85038404 	strhi	r8, [r3, #-1028]	@ 0xfffffbfc
 38c:	00018e02 	andeq	r8, r1, r2, lsl #28
 390:	00000014 	andeq	r0, r0, r4, lsl r0
 394:	000002dc 	ldrdeq	r0, [r0], -ip
 398:	0000081c 	andeq	r0, r0, ip, lsl r8
 39c:	00000014 	andeq	r0, r0, r4, lsl r0
 3a0:	84080e41 	strhi	r0, [r8], #-3649	@ 0xfffff1bf
 3a4:	00018e02 	andeq	r8, r1, r2, lsl #28
 3a8:	00000014 	andeq	r0, r0, r4, lsl r0
 3ac:	000002dc 	ldrdeq	r0, [r0], -ip
 3b0:	00000830 	andeq	r0, r0, r0, lsr r8
 3b4:	00000024 	andeq	r0, r0, r4, lsr #32
 3b8:	84080e45 	strhi	r0, [r8], #-3653	@ 0xfffff1bb
 3bc:	00018e02 	andeq	r8, r1, r2, lsl #28
 3c0:	00000024 	andeq	r0, r0, r4, lsr #32
 3c4:	000002dc 	ldrdeq	r0, [r0], -ip
 3c8:	00000854 	andeq	r0, r0, r4, asr r8
 3cc:	000000f0 	strdeq	r0, [r0], -r0	@ <UNPREDICTABLE>
 3d0:	83280e42 			@ <UNDEFINED> instruction: 0x83280e42
 3d4:	8509840a 	strhi	r8, [r9, #-1034]	@ 0xfffffbf6
 3d8:	87078608 	strhi	r8, [r7, -r8, lsl #12]
 3dc:	89058806 	stmdbhi	r5, {r1, r2, fp, pc}
 3e0:	8b038a04 	blhi	e2bf8 <__exidx_end+0xe1b84>
 3e4:	00018e02 	andeq	r8, r1, r2, lsl #28
 3e8:	0000000c 	andeq	r0, r0, ip
 3ec:	000002dc 	ldrdeq	r0, [r0], -ip
 3f0:	00000944 	andeq	r0, r0, r4, asr #18
 3f4:	0000001c 	andeq	r0, r0, ip, lsl r0
 3f8:	0000000c 	andeq	r0, r0, ip
 3fc:	000002dc 	ldrdeq	r0, [r0], -ip
 400:	00000960 	andeq	r0, r0, r0, ror #18
 404:	0000000e 	andeq	r0, r0, lr
 408:	0000001c 	andeq	r0, r0, ip, lsl r0
 40c:	000002dc 	ldrdeq	r0, [r0], -ip
 410:	00000970 	andeq	r0, r0, r0, ror r9
 414:	0000006c 	andeq	r0, r0, ip, rrx
 418:	83180e41 	tsthi	r8, #1040	@ 0x410
 41c:	85058406 	strhi	r8, [r5, #-1030]	@ 0xfffffbfa
 420:	87038604 	strhi	r8, [r3, -r4, lsl #12]
 424:	00018e02 	andeq	r8, r1, r2, lsl #28
 428:	00000014 	andeq	r0, r0, r4, lsl r0
 42c:	000002dc 	ldrdeq	r0, [r0], -ip
 430:	000009dc 	ldrdeq	r0, [r0], -ip
 434:	00000034 	andeq	r0, r0, r4, lsr r0
 438:	84080e41 	strhi	r0, [r8], #-3649	@ 0xfffff1bf
 43c:	00018e02 	andeq	r8, r1, r2, lsl #28
 440:	00000024 	andeq	r0, r0, r4, lsr #32
 444:	000002dc 	ldrdeq	r0, [r0], -ip
 448:	00000000 	andeq	r0, r0, r0
 44c:	00000062 	andeq	r0, r0, r2, rrx
 450:	83100e41 	tsthi	r0, #1040	@ 0x410
 454:	85038404 	strhi	r8, [r3, #-1028]	@ 0xfffffbfc
 458:	4e018e02 	cdpmi	14, 0, cr8, cr1, cr2, {0}
 45c:	c4c5ce0a 	strbgt	ip, [r5], #3594	@ 0xe0a
 460:	42000ec3 	andmi	r0, r0, #3120	@ 0xc30
 464:	0000000b 	andeq	r0, r0, fp
 468:	00000018 	andeq	r0, r0, r8, lsl r0
 46c:	000002dc 	ldrdeq	r0, [r0], -ip
 470:	00000000 	andeq	r0, r0, r0
 474:	0000002c 	andeq	r0, r0, ip, lsr #32
 478:	84080e41 	strhi	r0, [r8], #-3649	@ 0xfffff1bf
 47c:	51018e02 	tstpl	r1, r2, lsl #28
 480:	000ec4ce 	andeq	ip, lr, lr, asr #9
 484:	0000001c 	andeq	r0, r0, ip, lsl r0
 488:	000002dc 	ldrdeq	r0, [r0], -ip
 48c:	00000000 	andeq	r0, r0, r0
 490:	00000090 	muleq	r0, r0, r0
 494:	84180e42 	ldrhi	r0, [r8], #-3650	@ 0xfffff1be
 498:	86058506 	strhi	r8, [r5], -r6, lsl #10
 49c:	88038704 	stmdahi	r3, {r2, r8, r9, sl, pc}
 4a0:	00018e02 	andeq	r8, r1, r2, lsl #28
 4a4:	00000020 	andeq	r0, r0, r0, lsr #32
 4a8:	000002dc 	ldrdeq	r0, [r0], -ip
 4ac:	00000a10 	andeq	r0, r0, r0, lsl sl
 4b0:	000000f8 	strdeq	r0, [r0], -r8
 4b4:	83200e42 			@ <UNDEFINED> instruction: 0x83200e42
 4b8:	85078408 	strhi	r8, [r7, #-1032]	@ 0xfffffbf8
 4bc:	87058606 	strhi	r8, [r5, -r6, lsl #12]
 4c0:	89038804 	stmdbhi	r3, {r2, fp, pc}
 4c4:	00018e02 	andeq	r8, r1, r2, lsl #28
 4c8:	0000001c 	andeq	r0, r0, ip, lsl r0
 4cc:	000002dc 	ldrdeq	r0, [r0], -ip
 4d0:	00000b08 	andeq	r0, r0, r8, lsl #22
 4d4:	00000060 	andeq	r0, r0, r0, rrx
 4d8:	84180e42 	ldrhi	r0, [r8], #-3650	@ 0xfffff1be
 4dc:	86038504 	strhi	r8, [r3], -r4, lsl #10
 4e0:	66018e02 	strvs	r8, [r1], -r2, lsl #28
 4e4:	0000100e 	andeq	r1, r0, lr
 4e8:	0000001c 	andeq	r0, r0, ip, lsl r0
 4ec:	000002dc 	ldrdeq	r0, [r0], -ip
 4f0:	00000b68 	andeq	r0, r0, r8, ror #22
 4f4:	000000f4 	strdeq	r0, [r0], -r4
 4f8:	83180e41 	tsthi	r8, #1040	@ 0x410
 4fc:	85058406 	strhi	r8, [r5, #-1030]	@ 0xfffffbfa
 500:	87038604 	strhi	r8, [r3, -r4, lsl #12]
 504:	00018e02 	andeq	r8, r1, r2, lsl #28
 508:	0000000c 	andeq	r0, r0, ip
 50c:	ffffffff 			@ <UNDEFINED> instruction: 0xffffffff
 510:	7c020001 	stcvc	0, cr0, [r2], {1}
 514:	000d0c0e 	andeq	r0, sp, lr, lsl #24
 518:	0000000c 	andeq	r0, r0, ip
 51c:	00000508 	andeq	r0, r0, r8, lsl #10
 520:	00000c5c 	andeq	r0, r0, ip, asr ip
 524:	00000018 	andeq	r0, r0, r8, lsl r0
 528:	0000001c 	andeq	r0, r0, ip, lsl r0
 52c:	00000508 	andeq	r0, r0, r8, lsl #10
 530:	00000c74 	andeq	r0, r0, r4, ror ip
 534:	00000094 	muleq	r0, r4, r0
 538:	84200e47 	strthi	r0, [r0], #-3655	@ 0xfffff1b9
 53c:	86058506 	strhi	r8, [r5], -r6, lsl #10
 540:	88038704 	stmdahi	r3, {r2, r8, r9, sl, pc}
 544:	00018e02 	andeq	r8, r1, r2, lsl #28
 548:	0000000c 	andeq	r0, r0, ip
 54c:	ffffffff 			@ <UNDEFINED> instruction: 0xffffffff
 550:	7c020001 	stcvc	0, cr0, [r2], {1}
 554:	000d0c0e 	andeq	r0, sp, lr, lsl #24
 558:	0000000c 	andeq	r0, r0, ip
 55c:	00000548 	andeq	r0, r0, r8, asr #10
 560:	00000000 	andeq	r0, r0, r0
 564:	0000000c 	andeq	r0, r0, ip
 568:	0000000c 	andeq	r0, r0, ip
 56c:	00000548 	andeq	r0, r0, r8, asr #10
 570:	00000000 	andeq	r0, r0, r0
 574:	00000018 	andeq	r0, r0, r8, lsl r0
 578:	00000014 	andeq	r0, r0, r4, lsl r0
 57c:	00000548 	andeq	r0, r0, r8, asr #10
 580:	00000d08 	andeq	r0, r0, r8, lsl #26
 584:	0000002c 	andeq	r0, r0, ip, lsr #32
 588:	84080e41 	strhi	r0, [r8], #-3649	@ 0xfffff1bf
 58c:	00018e02 	andeq	r8, r1, r2, lsl #28
 590:	00000018 	andeq	r0, r0, r8, lsl r0
 594:	00000548 	andeq	r0, r0, r8, asr #10
 598:	00000d34 	andeq	r0, r0, r4, lsr sp
 59c:	0000008c 	andeq	r0, r0, ip, lsl #1
 5a0:	840c0e41 	strhi	r0, [ip], #-3649	@ 0xfffff1bf
 5a4:	8e028503 	cfsh32hi	mvfx8, mvfx2, #3
 5a8:	00000001 	andeq	r0, r0, r1
 5ac:	0000001c 	andeq	r0, r0, ip, lsl r0
 5b0:	00000548 	andeq	r0, r0, r8, asr #10
 5b4:	00000dc0 	andeq	r0, r0, r0, asr #27
 5b8:	00000046 	andeq	r0, r0, r6, asr #32
 5bc:	84180e42 	ldrhi	r0, [r8], #-3650	@ 0xfffff1be
 5c0:	86058506 	strhi	r8, [r5], -r6, lsl #10
 5c4:	88038704 	stmdahi	r3, {r2, r8, r9, sl, pc}
 5c8:	00018e02 	andeq	r8, r1, r2, lsl #28
 5cc:	00000020 	andeq	r0, r0, r0, lsr #32
 5d0:	00000548 	andeq	r0, r0, r8, asr #10
 5d4:	00000e08 	andeq	r0, r0, r8, lsl #28
 5d8:	00000048 	andeq	r0, r0, r8, asr #32
 5dc:	84100e41 	ldrhi	r0, [r0], #-3649	@ 0xfffff1bf
 5e0:	86038504 	strhi	r8, [r3], -r4, lsl #10
 5e4:	5d018e02 	stcpl	14, cr8, [r1, #-8]
 5e8:	c4c5c6ce 	strbgt	ip, [r5], #1742	@ 0x6ce
 5ec:	0000000e 	andeq	r0, r0, lr
 5f0:	0000001c 	andeq	r0, r0, ip, lsl r0
 5f4:	00000548 	andeq	r0, r0, r8, asr #10
 5f8:	00000e50 	andeq	r0, r0, r0, asr lr
 5fc:	00000084 	andeq	r0, r0, r4, lsl #1
 600:	84180e42 	ldrhi	r0, [r8], #-3650	@ 0xfffff1be
 604:	86058506 	strhi	r8, [r5], -r6, lsl #10
 608:	88038704 	stmdahi	r3, {r2, r8, r9, sl, pc}
 60c:	00018e02 	andeq	r8, r1, r2, lsl #28
 610:	00000018 	andeq	r0, r0, r8, lsl r0
 614:	00000548 	andeq	r0, r0, r8, asr #10
 618:	00000ed4 	ldrdeq	r0, [r0], -r4
 61c:	00000068 	andeq	r0, r0, r8, rrx
 620:	8e100e41 	cdphi	14, 1, cr0, cr0, cr1, {2}
 624:	0e0a4d01 	cdpeq	13, 0, cr4, cr10, cr1, {0}
 628:	000b4204 	andeq	r4, fp, r4, lsl #4
 62c:	00000014 	andeq	r0, r0, r4, lsl r0
 630:	00000548 	andeq	r0, r0, r8, asr #10
 634:	00000f3c 	andeq	r0, r0, ip, lsr pc
 638:	0000002c 	andeq	r0, r0, ip, lsr #32
 63c:	84080e41 	strhi	r0, [r8], #-3649	@ 0xfffff1bf
 640:	00018e02 	andeq	r8, r1, r2, lsl #28
 644:	00000018 	andeq	r0, r0, r8, lsl r0
 648:	00000548 	andeq	r0, r0, r8, asr #10
 64c:	00000f68 	andeq	r0, r0, r8, ror #30
 650:	00000040 	andeq	r0, r0, r0, asr #32
 654:	83100e41 	tsthi	r0, #1040	@ 0x410
 658:	85038404 	strhi	r8, [r3, #-1028]	@ 0xfffffbfc
 65c:	00018e02 	andeq	r8, r1, r2, lsl #28
 660:	0000000c 	andeq	r0, r0, ip
 664:	ffffffff 			@ <UNDEFINED> instruction: 0xffffffff
 668:	7c020001 	stcvc	0, cr0, [r2], {1}
 66c:	000d0c0e 	andeq	r0, sp, lr, lsl #24
 670:	0000000c 	andeq	r0, r0, ip
 674:	00000660 	andeq	r0, r0, r0, ror #12
 678:	00000fa8 	andeq	r0, r0, r8, lsr #31
 67c:	00000006 	andeq	r0, r0, r6
 680:	0000000c 	andeq	r0, r0, ip
 684:	00000660 	andeq	r0, r0, r0, ror #12
 688:	00000000 	andeq	r0, r0, r0
 68c:	00000004 	andeq	r0, r0, r4
 690:	0000000c 	andeq	r0, r0, ip
 694:	ffffffff 			@ <UNDEFINED> instruction: 0xffffffff
 698:	7c020001 	stcvc	0, cr0, [r2], {1}
 69c:	000d0c0e 	andeq	r0, sp, lr, lsl #24
 6a0:	0000000c 	andeq	r0, r0, ip
 6a4:	00000690 	muleq	r0, r0, r6
 6a8:	00000fb0 			@ <UNDEFINED> instruction: 0x00000fb0
 6ac:	0000000c 	andeq	r0, r0, ip
 6b0:	0000000c 	andeq	r0, r0, ip
 6b4:	ffffffff 			@ <UNDEFINED> instruction: 0xffffffff
 6b8:	7c020001 	stcvc	0, cr0, [r2], {1}
 6bc:	000d0c0e 	andeq	r0, sp, lr, lsl #24
 6c0:	0000000c 	andeq	r0, r0, ip
 6c4:	000006b0 			@ <UNDEFINED> instruction: 0x000006b0
 6c8:	00000fbc 			@ <UNDEFINED> instruction: 0x00000fbc
 6cc:	00000010 	andeq	r0, r0, r0, lsl r0
 6d0:	0000000c 	andeq	r0, r0, ip
 6d4:	ffffffff 			@ <UNDEFINED> instruction: 0xffffffff
 6d8:	7c020001 	stcvc	0, cr0, [r2], {1}
 6dc:	000d0c0e 	andeq	r0, sp, lr, lsl #24
 6e0:	00000014 	andeq	r0, r0, r4, lsl r0
 6e4:	000006d0 	ldrdeq	r0, [r0], -r0	@ <UNPREDICTABLE>
 6e8:	00000fcc 	andeq	r0, r0, ip, asr #31
 6ec:	0000001c 	andeq	r0, r0, ip, lsl r0
 6f0:	84080e47 	strhi	r0, [r8], #-3655	@ 0xfffff1b9
 6f4:	00018e02 	andeq	r8, r1, r2, lsl #28
