
Build/rk0_app.elf:     file format elf32-littlearm


Disassembly of section .text:

00000000 <g_pfnVectors>:
       0:	20010000 	andcs	r0, r1, r0
       4:	000002dd 	ldrdeq	r0, [r0], -sp
       8:	000002d9 	ldrdeq	r0, [r0], -r9
       c:	000002d9 	ldrdeq	r0, [r0], -r9
      10:	000002d9 	ldrdeq	r0, [r0], -r9
      14:	000002d9 	ldrdeq	r0, [r0], -r9
      18:	000002d9 	ldrdeq	r0, [r0], -r9
	...
      2c:	00000071 	andeq	r0, r0, r1, ror r0
      30:	000002d9 	ldrdeq	r0, [r0], -r9
      34:	00000000 	andeq	r0, r0, r0
      38:	0000010f 	andeq	r0, r0, pc, lsl #2
      3c:	000000cd 	andeq	r0, r0, sp, asr #1
      40:	000002d9 	ldrdeq	r0, [r0], -r9
      44:	000002d9 	ldrdeq	r0, [r0], -r9
      48:	000002d9 	ldrdeq	r0, [r0], -r9
      4c:	000002d9 	ldrdeq	r0, [r0], -r9
      50:	000002d9 	ldrdeq	r0, [r0], -r9
      54:	000002d9 	ldrdeq	r0, [r0], -r9
      58:	000002d9 	ldrdeq	r0, [r0], -r9
      5c:	00000000 	andeq	r0, r0, r0

00000060 <__getReadyPrio>:
      60:	fab0 fc80 	clz	ip, r0
      64:	4660      	mov	r0, ip
      66:	f1c0 0000 	rsb	r0, r0, #0
      6a:	f100 001f 	add.w	r0, r0, #31
      6e:	4770      	bx	lr

00000070 <SVC_Handler>:
      70:	f01e 0f04 	tst.w	lr, #4
      74:	d109      	bne.n	8a <ERR>
      76:	f3ef 8c08 	mrs	ip, MSP
      7a:	f8dc 1018 	ldr.w	r1, [ip, #24]
      7e:	f811 cc02 	ldrb.w	ip, [r1, #-2]
      82:	f1bc 0faa 	cmp.w	ip, #170	@ 0xaa
      86:	f000 8004 	beq.w	92 <USRSTARTUP>

0000008a <ERR>:
      8a:	f04f 00ff 	mov.w	r0, #255	@ 0xff
      8e:	f000 ff63 	bl	f58 <kErrHandler>

00000092 <USRSTARTUP>:
      92:	b672      	cpsid	i
      94:	2002      	movs	r0, #2
      96:	f380 8814 	msr	CONTROL, r0
      9a:	f3bf 8f4f 	dsb	sy
      9e:	492e      	ldr	r1, [pc, #184]	@ (158 <PendSV_Handler+0x4a>)
      a0:	680a      	ldr	r2, [r1, #0]
      a2:	f05f 0c02 	movs.w	ip, #2
      a6:	f8c2 c004 	str.w	ip, [r2, #4]
      aa:	f05f 0c01 	movs.w	ip, #1
      ae:	f8c2 c008 	str.w	ip, [r2, #8]
      b2:	6812      	ldr	r2, [r2, #0]
      b4:	e8b2 0ff0 	ldmia.w	r2!, {r4, r5, r6, r7, r8, r9, sl, fp}
      b8:	f382 8809 	msr	PSP, r2
      bc:	f06f 0e02 	mvn.w	lr, #2
      c0:	f3bf 8f4f 	dsb	sy
      c4:	b662      	cpsie	i
      c6:	f3bf 8f6f 	isb	sy
      ca:	4770      	bx	lr

000000cc <SysTick_Handler>:
      cc:	b672      	cpsid	i
      ce:	b501      	push	{r0, lr}
      d0:	f000 fd56 	bl	b80 <kTickHandler>
      d4:	2801      	cmp	r0, #1
      d6:	d00e      	beq.n	f6 <SWITCH>
      d8:	e8bd 4001 	ldmia.w	sp!, {r0, lr}
      dc:	f11e 0f0f 	cmn.w	lr, #15
      e0:	d005      	beq.n	ee <RESUMEISR>

000000e2 <RESUMETASK>:
      e2:	f3bf 8f4f 	dsb	sy
      e6:	b662      	cpsie	i
      e8:	f3bf 8f6f 	isb	sy
      ec:	4770      	bx	lr

000000ee <RESUMEISR>:
      ee:	b662      	cpsie	i
      f0:	f3bf 8f6f 	isb	sy
      f4:	4770      	bx	lr

000000f6 <SWITCH>:
      f6:	e8bd 4001 	ldmia.w	sp!, {r0, lr}
      fa:	4818      	ldr	r0, [pc, #96]	@ (15c <PendSV_Handler+0x4e>)
      fc:	f04f 5180 	mov.w	r1, #268435456	@ 0x10000000
     100:	6001      	str	r1, [r0, #0]
     102:	f3bf 8f4f 	dsb	sy
     106:	b662      	cpsie	i
     108:	f3bf 8f6f 	isb	sy
     10c:	4770      	bx	lr

0000010e <PendSV_Handler>:
     10e:	b672      	cpsid	i
     110:	f3ef 8c09 	mrs	ip, PSP
     114:	e92c 0ff0 	stmdb	ip!, {r4, r5, r6, r7, r8, r9, sl, fp}
     118:	480f      	ldr	r0, [pc, #60]	@ (158 <PendSV_Handler+0x4a>)
     11a:	6801      	ldr	r1, [r0, #0]
     11c:	f8c1 c000 	str.w	ip, [r1]
     120:	f8c1 e00c 	str.w	lr, [r1, #12]
     124:	f000 fcfc 	bl	b20 <kSchSwtch>
     128:	480b      	ldr	r0, [pc, #44]	@ (158 <PendSV_Handler+0x4a>)
     12a:	6801      	ldr	r1, [r0, #0]
     12c:	688b      	ldr	r3, [r1, #8]
     12e:	f103 0301 	add.w	r3, r3, #1
     132:	608b      	str	r3, [r1, #8]
     134:	f04f 0c02 	mov.w	ip, #2
     138:	f8c1 c004 	str.w	ip, [r1, #4]
     13c:	f8d1 e00c 	ldr.w	lr, [r1, #12]
     140:	680a      	ldr	r2, [r1, #0]
     142:	e8b2 0ff0 	ldmia.w	r2!, {r4, r5, r6, r7, r8, r9, sl, fp}
     146:	f382 8809 	msr	PSP, r2
     14a:	f3bf 8f4f 	dsb	sy
     14e:	b662      	cpsie	i
     150:	f3bf 8f6f 	isb	sy
     154:	4770      	bx	lr
     156:	0e280000 	cdpeq	0, 2, cr0, cr8, cr0, {0}
     15a:	ed042000 	stc	0, cr2, [r4, #-0]
     15e:	 	ldrlt	lr, [r0, #-0]

00000160 <kPuts>:
     160:	b510      	push	{r4, lr}
     162:	f04f 23e0 	mov.w	r3, #3758153728	@ 0xe000e000
     166:	f04f 34ff 	mov.w	r4, #4294967295	@ 0xffffffff
     16a:	4907      	ldr	r1, [pc, #28]	@ (188 <kPuts+0x28>)
     16c:	3801      	subs	r0, #1
     16e:	f810 2f01 	ldrb.w	r2, [r0, #1]!
     172:	b902      	cbnz	r2, 176 <kPuts+0x16>
     174:	bd10      	pop	{r4, pc}
     176:	691a      	ldr	r2, [r3, #16]
     178:	f022 0201 	bic.w	r2, r2, #1
     17c:	611a      	str	r2, [r3, #16]
     17e:	7802      	ldrb	r2, [r0, #0]
     180:	600a      	str	r2, [r1, #0]
     182:	691a      	ldr	r2, [r3, #16]
     184:	611c      	str	r4, [r3, #16]
     186:	e7f2      	b.n	16e <kPuts+0xe>
     188:	4000c000 	andmi	ip, r0, r0

0000018c <kApplicationInit>:
     18c:	2100      	movs	r1, #0
     18e:	4801      	ldr	r0, [pc, #4]	@ (194 <kApplicationInit+0x8>)
     190:	f000 b8f0 	b.w	374 <kMboxInit>
     194:	20000c00 	andcs	r0, r0, r0, lsl #24

00000198 <Task1>:
     198:	b573      	push	{r0, r1, r4, r5, r6, lr}
     19a:	4e09      	ldr	r6, [pc, #36]	@ (1c0 <Task1+0x28>)
     19c:	4d09      	ldr	r5, [pc, #36]	@ (1c4 <Task1+0x2c>)
     19e:	4c0a      	ldr	r4, [pc, #40]	@ (1c8 <Task1+0x30>)
     1a0:	4630      	mov	r0, r6
     1a2:	f7ff ffdd 	bl	160 <kPuts>
     1a6:	f04f 32ff 	mov.w	r2, #4294967295	@ 0xffffffff
     1aa:	a901      	add	r1, sp, #4
     1ac:	4628      	mov	r0, r5
     1ae:	f000 f9a5 	bl	4fc <kMboxPend>
     1b2:	4620      	mov	r0, r4
     1b4:	f7ff ffd4 	bl	160 <kPuts>
     1b8:	2021      	movs	r0, #33	@ 0x21
     1ba:	f000 fe09 	bl	dd0 <kSleepUntil>
     1be:	e7ef      	b.n	1a0 <Task1+0x8>
     1c0:	00000f90 	muleq	r0, r0, pc	@ <UNPREDICTABLE>
     1c4:	20000c00 	andcs	r0, r0, r0, lsl #24
     1c8:	00000fa4 	andeq	r0, r0, r4, lsr #31

000001cc <Task2>:
     1cc:	2301      	movs	r3, #1
     1ce:	b507      	push	{r0, r1, r2, lr}
     1d0:	4d07      	ldr	r5, [pc, #28]	@ (1f0 <Task2+0x24>)
     1d2:	4c08      	ldr	r4, [pc, #32]	@ (1f4 <Task2+0x28>)
     1d4:	9301      	str	r3, [sp, #4]
     1d6:	4628      	mov	r0, r5
     1d8:	f7ff ffc2 	bl	160 <kPuts>
     1dc:	f04f 32ff 	mov.w	r2, #4294967295	@ 0xffffffff
     1e0:	4620      	mov	r0, r4
     1e2:	a901      	add	r1, sp, #4
     1e4:	f000 f8ee 	bl	3c4 <kMboxPost>
     1e8:	2011      	movs	r0, #17
     1ea:	f000 fdf1 	bl	dd0 <kSleepUntil>
     1ee:	e7f2      	b.n	1d6 <Task2+0xa>
     1f0:	00000fb7 			@ <UNDEFINED> instruction: 0x00000fb7
     1f4:	20000c00 	andcs	r0, r0, r0, lsl #24

000001f8 <Task3>:
     1f8:	b538      	push	{r3, r4, r5, lr}
     1fa:	4c08      	ldr	r4, [pc, #32]	@ (21c <Task3+0x24>)
     1fc:	4d08      	ldr	r5, [pc, #32]	@ (220 <Task3+0x28>)
     1fe:	4620      	mov	r0, r4
     200:	f7ff ffae 	bl	160 <kPuts>
     204:	2027      	movs	r0, #39	@ 0x27
     206:	f000 fcfb 	bl	c00 <kPend>
     20a:	3019      	adds	r0, #25
     20c:	d102      	bne.n	214 <Task3+0x1c>
     20e:	4628      	mov	r0, r5
     210:	f7ff ffa6 	bl	160 <kPuts>
     214:	200f      	movs	r0, #15
     216:	f000 fdb7 	bl	d88 <kSleep>
     21a:	e7f0      	b.n	1fe <Task3+0x6>
     21c:	00000fc8 	andeq	r0, r0, r8, asr #31
     220:	00000fe6 	andeq	r0, r0, r6, ror #31

00000224 <main>:
     224:	b51f      	push	{r0, r1, r2, r3, r4, lr}
     226:	481f      	ldr	r0, [pc, #124]	@ (2a4 <main+0x80>)
     228:	f000 f894 	bl	354 <kCoreSysTickConfig>
     22c:	f04f 22e0 	mov.w	r2, #3758153728	@ 0xe000e000
     230:	2400      	movs	r4, #0
     232:	2601      	movs	r6, #1
     234:	f44f 7580 	mov.w	r5, #256	@ 0x100
     238:	6913      	ldr	r3, [r2, #16]
     23a:	2107      	movs	r1, #7
     23c:	f023 0301 	bic.w	r3, r3, #1
     240:	6113      	str	r3, [r2, #16]
     242:	f06f 0004 	mvn.w	r0, #4
     246:	f000 f871 	bl	32c <kCoreSetInterruptPriority>
     24a:	2108      	movs	r1, #8
     24c:	f04f 30ff 	mov.w	r0, #4294967295	@ 0xffffffff
     250:	f000 f86c 	bl	32c <kCoreSetInterruptPriority>
     254:	210a      	movs	r1, #10
     256:	f06f 0001 	mvn.w	r0, #1
     25a:	f000 f867 	bl	32c <kCoreSetInterruptPriority>
     25e:	4b12      	ldr	r3, [pc, #72]	@ (2a8 <main+0x84>)
     260:	4a12      	ldr	r2, [pc, #72]	@ (2ac <main+0x88>)
     262:	4913      	ldr	r1, [pc, #76]	@ (2b0 <main+0x8c>)
     264:	e9cd 6402 	strd	r6, r4, [sp, #8]
     268:	4812      	ldr	r0, [pc, #72]	@ (2b4 <main+0x90>)
     26a:	9401      	str	r4, [sp, #4]
     26c:	9500      	str	r5, [sp, #0]
     26e:	f000 fafd 	bl	86c <kCreateTask>
     272:	4b11      	ldr	r3, [pc, #68]	@ (2b8 <main+0x94>)
     274:	4a11      	ldr	r2, [pc, #68]	@ (2bc <main+0x98>)
     276:	4912      	ldr	r1, [pc, #72]	@ (2c0 <main+0x9c>)
     278:	e9cd 6402 	strd	r6, r4, [sp, #8]
     27c:	e9cd 5400 	strd	r5, r4, [sp]
     280:	4810      	ldr	r0, [pc, #64]	@ (2c4 <main+0xa0>)
     282:	f000 faf3 	bl	86c <kCreateTask>
     286:	4b10      	ldr	r3, [pc, #64]	@ (2c8 <main+0xa4>)
     288:	4a10      	ldr	r2, [pc, #64]	@ (2cc <main+0xa8>)
     28a:	4911      	ldr	r1, [pc, #68]	@ (2d0 <main+0xac>)
     28c:	e9cd 6402 	strd	r6, r4, [sp, #8]
     290:	e9cd 5400 	strd	r5, r4, [sp]
     294:	480f      	ldr	r0, [pc, #60]	@ (2d4 <main+0xb0>)
     296:	f000 fae9 	bl	86c <kCreateTask>
     29a:	f000 fbc5 	bl	a28 <kInit>
     29e:	be00      	bkpt	0x0000
     2a0:	e7fd      	b.n	29e <main+0x7a>
     2a2:	bf00      	nop
     2a4:	0003d090 	muleq	r3, r0, r0
     2a8:	20000800 	andcs	r0, r0, r0, lsl #16
     2ac:	00001000 	andeq	r1, r0, r0
     2b0:	00000199 	muleq	r0, r9, r1
     2b4:	20000c2c 	andcs	r0, r0, ip, lsr #24
     2b8:	20000400 	andcs	r0, r0, r0, lsl #8
     2bc:	00001006 	andeq	r1, r0, r6
     2c0:	000001cd 	andeq	r0, r0, sp, asr #3
     2c4:	20000c28 	andcs	r0, r0, r8, lsr #24
     2c8:	20000000 	andcs	r0, r0, r0
     2cc:	0000100c 	andeq	r1, r0, ip
     2d0:	000001f9 	strdeq	r0, [r0], -r9
     2d4:	20000c24 	andcs	r0, r0, r4, lsr #24

000002d8 <Default_Handler>:
     2d8:	e7fe      	b.n	2d8 <Default_Handler>
	...

000002dc <Reset_Handler>:
     2dc:	b508      	push	{r3, lr}
     2de:	4b0e      	ldr	r3, [pc, #56]	@ (318 <Reset_Handler+0x3c>)
     2e0:	480e      	ldr	r0, [pc, #56]	@ (31c <Reset_Handler+0x40>)
     2e2:	1cda      	adds	r2, r3, #3
     2e4:	1a12      	subs	r2, r2, r0
     2e6:	1ec1      	subs	r1, r0, #3
     2e8:	f022 0203 	bic.w	r2, r2, #3
     2ec:	428b      	cmp	r3, r1
     2ee:	bf38      	it	cc
     2f0:	2200      	movcc	r2, #0
     2f2:	490b      	ldr	r1, [pc, #44]	@ (320 <Reset_Handler+0x44>)
     2f4:	f000 fe3e 	bl	f74 <memcpy>
     2f8:	4b0a      	ldr	r3, [pc, #40]	@ (324 <Reset_Handler+0x48>)
     2fa:	480b      	ldr	r0, [pc, #44]	@ (328 <Reset_Handler+0x4c>)
     2fc:	1cda      	adds	r2, r3, #3
     2fe:	1a12      	subs	r2, r2, r0
     300:	1ec1      	subs	r1, r0, #3
     302:	f022 0203 	bic.w	r2, r2, #3
     306:	4299      	cmp	r1, r3
     308:	bf88      	it	hi
     30a:	2200      	movhi	r2, #0
     30c:	2100      	movs	r1, #0
     30e:	f000 fe29 	bl	f64 <memset>
     312:	f7ff ff87 	bl	224 <main>
     316:	e7fe      	b.n	316 <Reset_Handler+0x3a>
     318:	20000000 	andcs	r0, r0, r0
     31c:	20000000 	andcs	r0, r0, r0
     320:	00001044 	andeq	r1, r0, r4, asr #32
     324:	20001074 	andcs	r1, r0, r4, ror r0
     328:	20000000 	andcs	r0, r0, r0

0000032c <kCoreSetInterruptPriority>:
     32c:	2800      	cmp	r0, #0
     32e:	bfac      	ite	ge
     330:	f100 4060 	addge.w	r0, r0, #3758096384	@ 0xe0000000
     334:	4b06      	ldrlt	r3, [pc, #24]	@ (350 <kCoreSetInterruptPriority+0x24>)
     336:	ea4f 1101 	mov.w	r1, r1, lsl #4
     33a:	b2c9      	uxtb	r1, r1
     33c:	bfb5      	itete	lt
     33e:	f000 000f 	andlt.w	r0, r0, #15
     342:	f500 4061 	addge.w	r0, r0, #57600	@ 0xe100
     346:	5419      	strblt	r1, [r3, r0]
     348:	f880 1300 	strbge.w	r1, [r0, #768]	@ 0x300
     34c:	4770      	bx	lr
     34e:	bf00      	nop
     350:	e000ed14 	and	lr, r0, r4, lsl sp

00000354 <kCoreSysTickConfig>:
     354:	3801      	subs	r0, #1
     356:	f1b0 7f80 	cmp.w	r0, #16777216	@ 0x1000000
     35a:	bf3f      	itttt	cc
     35c:	f04f 23e0 	movcc.w	r3, #3758153728	@ 0xe000e000
     360:	2207      	movcc	r2, #7
     362:	6158      	strcc	r0, [r3, #20]
     364:	2000      	movcc	r0, #0
     366:	bf36      	itet	cc
     368:	6198      	strcc	r0, [r3, #24]
     36a:	f04f 30ff 	movcs.w	r0, #4294967295	@ 0xffffffff
     36e:	611a      	strcc	r2, [r3, #16]
     370:	4770      	bx	lr
	...

00000374 <kMboxInit>:
     374:	b570      	push	{r4, r5, r6, lr}
     376:	4604      	mov	r4, r0
     378:	460d      	mov	r5, r1
     37a:	f000 faef 	bl	95c <kEnterCR>
     37e:	4606      	mov	r6, r0
     380:	b94c      	cbnz	r4, 396 <kMboxInit+0x22>
     382:	f06f 0001 	mvn.w	r0, #1
     386:	f000 fde7 	bl	f58 <kErrHandler>
     38a:	4630      	mov	r0, r6
     38c:	f000 faf4 	bl	978 <kExitCR>
     390:	f04f 30ff 	mov.w	r0, #4294967295	@ 0xffffffff
     394:	bd70      	pop	{r4, r5, r6, pc}
     396:	f104 030c 	add.w	r3, r4, #12
     39a:	e9c4 3303 	strd	r3, r3, [r4, #12]
     39e:	4b08      	ldr	r3, [pc, #32]	@ (3c0 <kMboxInit+0x4c>)
     3a0:	60a5      	str	r5, [r4, #8]
     3a2:	6163      	str	r3, [r4, #20]
     3a4:	2500      	movs	r5, #0
     3a6:	2301      	movs	r3, #1
     3a8:	e9c4 5306 	strd	r5, r3, [r4, #24]
     3ac:	f3bf 8f5f 	dmb	sy
     3b0:	6063      	str	r3, [r4, #4]
     3b2:	2304      	movs	r3, #4
     3b4:	6023      	str	r3, [r4, #0]
     3b6:	f000 fadf 	bl	978 <kExitCR>
     3ba:	4628      	mov	r0, r5
     3bc:	e7ea      	b.n	394 <kMboxInit+0x20>
     3be:	bf00      	nop
     3c0:	00001012 	andeq	r1, r0, r2, lsl r0

000003c4 <kMboxPost>:
     3c4:	e92d 47f3 	stmdb	sp!, {r0, r1, r4, r5, r6, r7, r8, r9, sl, lr}
     3c8:	4604      	mov	r4, r0
     3ca:	460f      	mov	r7, r1
     3cc:	4616      	mov	r6, r2
     3ce:	f000 fac5 	bl	95c <kEnterCR>
     3d2:	f3ef 8305 	mrs	r3, IPSR
     3d6:	4605      	mov	r5, r0
     3d8:	f3bf 8f5f 	dmb	sy
     3dc:	b123      	cbz	r3, 3e8 <kMboxPost+0x24>
     3de:	b11e      	cbz	r6, 3e8 <kMboxPost+0x24>
     3e0:	f06f 0014 	mvn.w	r0, #20
     3e4:	f000 fdb8 	bl	f58 <kErrHandler>
     3e8:	b104      	cbz	r4, 3ec <kMboxPost+0x28>
     3ea:	b91f      	cbnz	r7, 3f4 <kMboxPost+0x30>
     3ec:	f06f 0001 	mvn.w	r0, #1
     3f0:	f000 fdb2 	bl	f58 <kErrHandler>
     3f4:	6863      	ldr	r3, [r4, #4]
     3f6:	b91b      	cbnz	r3, 400 <kMboxPost+0x3c>
     3f8:	f06f 0002 	mvn.w	r0, #2
     3fc:	f000 fdac 	bl	f58 <kErrHandler>
     400:	68a3      	ldr	r3, [r4, #8]
     402:	2b00      	cmp	r3, #0
     404:	d042      	beq.n	48c <kMboxPost+0xc8>
     406:	b93e      	cbnz	r6, 418 <kMboxPost+0x54>
     408:	4628      	mov	r0, r5
     40a:	f000 fab5 	bl	978 <kExitCR>
     40e:	f06f 001d 	mvn.w	r0, #29
     412:	b002      	add	sp, #8
     414:	e8bd 87f0 	ldmia.w	sp!, {r4, r5, r6, r7, r8, r9, sl, pc}
     418:	f8df 80d4 	ldr.w	r8, [pc, #212]	@ 4f0 <kMboxPost+0x12c>
     41c:	f104 0a0c 	add.w	sl, r4, #12
     420:	4650      	mov	r0, sl
     422:	f8d8 1000 	ldr.w	r1, [r8]
     426:	f000 faaf 	bl	988 <kTCBQEnq>
     42a:	2306      	movs	r3, #6
     42c:	f8d8 0000 	ldr.w	r0, [r8]
     430:	f106 39ff 	add.w	r9, r6, #4294967295	@ 0xffffffff
     434:	6043      	str	r3, [r0, #4]
     436:	1c73      	adds	r3, r6, #1
     438:	d007      	beq.n	44a <kMboxPost+0x86>
     43a:	2301      	movs	r3, #1
     43c:	f8c0 a050 	str.w	sl, [r0, #80]	@ 0x50
     440:	6443      	str	r3, [r0, #68]	@ 0x44
     442:	4631      	mov	r1, r6
     444:	303c      	adds	r0, #60	@ 0x3c
     446:	f000 fc59 	bl	cfc <kTimeOut>
     44a:	4a2a      	ldr	r2, [pc, #168]	@ (4f4 <kMboxPost+0x130>)
     44c:	6853      	ldr	r3, [r2, #4]
     44e:	f043 5380 	orr.w	r3, r3, #268435456	@ 0x10000000
     452:	6053      	str	r3, [r2, #4]
     454:	f3bf 8f4f 	dsb	sy
     458:	f3bf 8f6f 	isb	sy
     45c:	4628      	mov	r0, r5
     45e:	f000 fa8b 	bl	978 <kExitCR>
     462:	f000 fa7b 	bl	95c <kEnterCR>
     466:	f8d8 3000 	ldr.w	r3, [r8]
     46a:	4605      	mov	r5, r0
     46c:	6b1a      	ldr	r2, [r3, #48]	@ 0x30
     46e:	b132      	cbz	r2, 47e <kMboxPost+0xba>
     470:	2200      	movs	r2, #0
     472:	631a      	str	r2, [r3, #48]	@ 0x30
     474:	f000 fa80 	bl	978 <kExitCR>
     478:	f06f 0018 	mvn.w	r0, #24
     47c:	e7c9      	b.n	412 <kMboxPost+0x4e>
     47e:	f119 0f02 	cmn.w	r9, #2
     482:	d003      	beq.n	48c <kMboxPost+0xc8>
     484:	f103 003c 	add.w	r0, r3, #60	@ 0x3c
     488:	f000 fd2c 	bl	ee4 <kRemoveTimeoutNode>
     48c:	69a3      	ldr	r3, [r4, #24]
     48e:	60a7      	str	r7, [r4, #8]
     490:	b34b      	cbz	r3, 4e6 <kMboxPost+0x122>
     492:	340c      	adds	r4, #12
     494:	4620      	mov	r0, r4
     496:	f000 f9cd 	bl	834 <kTCBQPeek>
     49a:	6843      	ldr	r3, [r0, #4]
     49c:	9001      	str	r0, [sp, #4]
     49e:	2b07      	cmp	r3, #7
     4a0:	d121      	bne.n	4e6 <kMboxPost+0x122>
     4a2:	4620      	mov	r0, r4
     4a4:	a901      	add	r1, sp, #4
     4a6:	f000 f959 	bl	75c <kTCBQDeq>
     4aa:	9801      	ldr	r0, [sp, #4]
     4ac:	b908      	cbnz	r0, 4b2 <kMboxPost+0xee>
     4ae:	f000 fd53 	bl	f58 <kErrHandler>
     4b2:	2014      	movs	r0, #20
     4b4:	9901      	ldr	r1, [sp, #4]
     4b6:	4b10      	ldr	r3, [pc, #64]	@ (4f8 <kMboxPost+0x134>)
     4b8:	7f4a      	ldrb	r2, [r1, #29]
     4ba:	fb00 3002 	mla	r0, r0, r2, r3
     4be:	f000 fa63 	bl	988 <kTCBQEnq>
     4c2:	2201      	movs	r2, #1
     4c4:	9b01      	ldr	r3, [sp, #4]
     4c6:	605a      	str	r2, [r3, #4]
     4c8:	4a09      	ldr	r2, [pc, #36]	@ (4f0 <kMboxPost+0x12c>)
     4ca:	6811      	ldr	r1, [r2, #0]
     4cc:	7f5a      	ldrb	r2, [r3, #29]
     4ce:	7f4b      	ldrb	r3, [r1, #29]
     4d0:	429a      	cmp	r2, r3
     4d2:	bf3f      	itttt	cc
     4d4:	4a07      	ldrcc	r2, [pc, #28]	@ (4f4 <kMboxPost+0x130>)
     4d6:	6853      	ldrcc	r3, [r2, #4]
     4d8:	f043 5380 	orrcc.w	r3, r3, #268435456	@ 0x10000000
     4dc:	6053      	strcc	r3, [r2, #4]
     4de:	f3bf 8f4f 	dsb	sy
     4e2:	f3bf 8f6f 	isb	sy
     4e6:	4628      	mov	r0, r5
     4e8:	f000 fa46 	bl	978 <kExitCR>
     4ec:	2000      	movs	r0, #0
     4ee:	e790      	b.n	412 <kMboxPost+0x4e>
     4f0:	20000e28 	andcs	r0, r0, r8, lsr #28
     4f4:	e000ed00 	and	lr, r0, r0, lsl #26
     4f8:	20000e2c 	andcs	r0, r0, ip, lsr #28

000004fc <kMboxPend>:
     4fc:	e92d 47f3 	stmdb	sp!, {r0, r1, r4, r5, r6, r7, r8, r9, sl, lr}
     500:	4604      	mov	r4, r0
     502:	460f      	mov	r7, r1
     504:	4616      	mov	r6, r2
     506:	f000 fa29 	bl	95c <kEnterCR>
     50a:	f3ef 8305 	mrs	r3, IPSR
     50e:	4605      	mov	r5, r0
     510:	f3bf 8f5f 	dmb	sy
     514:	b123      	cbz	r3, 520 <kMboxPend+0x24>
     516:	b11e      	cbz	r6, 520 <kMboxPend+0x24>
     518:	f06f 0014 	mvn.w	r0, #20
     51c:	f000 fd1c 	bl	f58 <kErrHandler>
     520:	b104      	cbz	r4, 524 <kMboxPend+0x28>
     522:	b91f      	cbnz	r7, 52c <kMboxPend+0x30>
     524:	f06f 0001 	mvn.w	r0, #1
     528:	f000 fd16 	bl	f58 <kErrHandler>
     52c:	6863      	ldr	r3, [r4, #4]
     52e:	b91b      	cbnz	r3, 538 <kMboxPend+0x3c>
     530:	f06f 0002 	mvn.w	r0, #2
     534:	f000 fd10 	bl	f58 <kErrHandler>
     538:	68a3      	ldr	r3, [r4, #8]
     53a:	2b00      	cmp	r3, #0
     53c:	d142      	bne.n	5c4 <kMboxPend+0xc8>
     53e:	b93e      	cbnz	r6, 550 <kMboxPend+0x54>
     540:	4628      	mov	r0, r5
     542:	f000 fa19 	bl	978 <kExitCR>
     546:	f06f 001f 	mvn.w	r0, #31
     54a:	b002      	add	sp, #8
     54c:	e8bd 87f0 	ldmia.w	sp!, {r4, r5, r6, r7, r8, r9, sl, pc}
     550:	2307      	movs	r3, #7
     552:	f8df 80d4 	ldr.w	r8, [pc, #212]	@ 628 <kMboxPend+0x12c>
     556:	f106 39ff 	add.w	r9, r6, #4294967295	@ 0xffffffff
     55a:	f8d8 0000 	ldr.w	r0, [r8]
     55e:	f104 0a0c 	add.w	sl, r4, #12
     562:	6043      	str	r3, [r0, #4]
     564:	1c73      	adds	r3, r6, #1
     566:	d007      	beq.n	578 <kMboxPend+0x7c>
     568:	2301      	movs	r3, #1
     56a:	f8c0 a050 	str.w	sl, [r0, #80]	@ 0x50
     56e:	6443      	str	r3, [r0, #68]	@ 0x44
     570:	4631      	mov	r1, r6
     572:	303c      	adds	r0, #60	@ 0x3c
     574:	f000 fbc2 	bl	cfc <kTimeOut>
     578:	4650      	mov	r0, sl
     57a:	f8d8 1000 	ldr.w	r1, [r8]
     57e:	f000 fa03 	bl	988 <kTCBQEnq>
     582:	4a2a      	ldr	r2, [pc, #168]	@ (62c <kMboxPend+0x130>)
     584:	6853      	ldr	r3, [r2, #4]
     586:	f043 5380 	orr.w	r3, r3, #268435456	@ 0x10000000
     58a:	6053      	str	r3, [r2, #4]
     58c:	f3bf 8f4f 	dsb	sy
     590:	f3bf 8f6f 	isb	sy
     594:	4628      	mov	r0, r5
     596:	f000 f9ef 	bl	978 <kExitCR>
     59a:	f000 f9df 	bl	95c <kEnterCR>
     59e:	f8d8 3000 	ldr.w	r3, [r8]
     5a2:	4605      	mov	r5, r0
     5a4:	6b1a      	ldr	r2, [r3, #48]	@ 0x30
     5a6:	b132      	cbz	r2, 5b6 <kMboxPend+0xba>
     5a8:	2200      	movs	r2, #0
     5aa:	631a      	str	r2, [r3, #48]	@ 0x30
     5ac:	f000 f9e4 	bl	978 <kExitCR>
     5b0:	f06f 0018 	mvn.w	r0, #24
     5b4:	e7c9      	b.n	54a <kMboxPend+0x4e>
     5b6:	f119 0f02 	cmn.w	r9, #2
     5ba:	d003      	beq.n	5c4 <kMboxPend+0xc8>
     5bc:	f103 003c 	add.w	r0, r3, #60	@ 0x3c
     5c0:	f000 fc90 	bl	ee4 <kRemoveTimeoutNode>
     5c4:	68a3      	ldr	r3, [r4, #8]
     5c6:	603b      	str	r3, [r7, #0]
     5c8:	2300      	movs	r3, #0
     5ca:	60a3      	str	r3, [r4, #8]
     5cc:	69a3      	ldr	r3, [r4, #24]
     5ce:	b32b      	cbz	r3, 61c <kMboxPend+0x120>
     5d0:	340c      	adds	r4, #12
     5d2:	4620      	mov	r0, r4
     5d4:	f000 f92e 	bl	834 <kTCBQPeek>
     5d8:	6843      	ldr	r3, [r0, #4]
     5da:	9001      	str	r0, [sp, #4]
     5dc:	2b06      	cmp	r3, #6
     5de:	d11d      	bne.n	61c <kMboxPend+0x120>
     5e0:	a901      	add	r1, sp, #4
     5e2:	4620      	mov	r0, r4
     5e4:	f000 f8ba 	bl	75c <kTCBQDeq>
     5e8:	2014      	movs	r0, #20
     5ea:	9901      	ldr	r1, [sp, #4]
     5ec:	4b10      	ldr	r3, [pc, #64]	@ (630 <kMboxPend+0x134>)
     5ee:	7f4a      	ldrb	r2, [r1, #29]
     5f0:	fb00 3002 	mla	r0, r0, r2, r3
     5f4:	f000 f9c8 	bl	988 <kTCBQEnq>
     5f8:	2201      	movs	r2, #1
     5fa:	9b01      	ldr	r3, [sp, #4]
     5fc:	605a      	str	r2, [r3, #4]
     5fe:	4a0a      	ldr	r2, [pc, #40]	@ (628 <kMboxPend+0x12c>)
     600:	6811      	ldr	r1, [r2, #0]
     602:	7f5a      	ldrb	r2, [r3, #29]
     604:	7f4b      	ldrb	r3, [r1, #29]
     606:	429a      	cmp	r2, r3
     608:	d208      	bcs.n	61c <kMboxPend+0x120>
     60a:	4a08      	ldr	r2, [pc, #32]	@ (62c <kMboxPend+0x130>)
     60c:	6853      	ldr	r3, [r2, #4]
     60e:	f043 5380 	orr.w	r3, r3, #268435456	@ 0x10000000
     612:	6053      	str	r3, [r2, #4]
     614:	f3bf 8f4f 	dsb	sy
     618:	f3bf 8f6f 	isb	sy
     61c:	4628      	mov	r0, r5
     61e:	f000 f9ab 	bl	978 <kExitCR>
     622:	2000      	movs	r0, #0
     624:	e791      	b.n	54a <kMboxPend+0x4e>
     626:	bf00      	nop
     628:	20000e28 	andcs	r0, r0, r8, lsr #28
     62c:	e000ed00 	and	lr, r0, r0, lsl #26
     630:	20000e2c 	andcs	r0, r0, ip, lsr #28

00000634 <kInitTcb_>:
     634:	b570      	push	{r4, r5, r6, lr}
     636:	2a00      	cmp	r2, #0
     638:	d05a      	beq.n	6f0 <kInitTcb_+0xbc>
     63a:	2b00      	cmp	r3, #0
     63c:	d058      	beq.n	6f0 <kInitTcb_+0xbc>
     63e:	2800      	cmp	r0, #0
     640:	d056      	beq.n	6f0 <kInitTcb_+0xbc>
     642:	f04f 7680 	mov.w	r6, #16777216	@ 0x1000000
     646:	f103 4480 	add.w	r4, r3, #1073741824	@ 0x40000000
     64a:	3c01      	subs	r4, #1
     64c:	f842 6024 	str.w	r6, [r2, r4, lsl #2]
     650:	00a5      	lsls	r5, r4, #2
     652:	eb02 0484 	add.w	r4, r2, r4, lsl #2
     656:	f844 0c04 	str.w	r0, [r4, #-4]
     65a:	f04f 3614 	mov.w	r6, #336860180	@ 0x14141414
     65e:	f04f 3012 	mov.w	r0, #303174162	@ 0x12121212
     662:	f04f 3c03 	mov.w	ip, #50529027	@ 0x3030303
     666:	e944 0603 	strd	r0, r6, [r4, #-12]
     66a:	f04f 3002 	mov.w	r0, #33686018	@ 0x2020202
     66e:	e944 0c05 	strd	r0, ip, [r4, #-20]
     672:	f04f 3001 	mov.w	r0, #16843009	@ 0x1010101
     676:	e944 1007 	strd	r1, r0, [r4, #-28]
     67a:	f04f 3110 	mov.w	r1, #269488144	@ 0x10101010
     67e:	f04f 3011 	mov.w	r0, #286331153	@ 0x11111111
     682:	f04f 3609 	mov.w	r6, #151587081	@ 0x9090909
     686:	e944 1009 	strd	r1, r0, [r4, #-36]	@ 0x24
     68a:	f04f 3108 	mov.w	r1, #134744072	@ 0x8080808
     68e:	f04f 3c07 	mov.w	ip, #117901063	@ 0x7070707
     692:	e944 160b 	strd	r1, r6, [r4, #-44]	@ 0x2c
     696:	f04f 3106 	mov.w	r1, #101058054	@ 0x6060606
     69a:	e944 1c0d 	strd	r1, ip, [r4, #-52]	@ 0x34
     69e:	f04f 3105 	mov.w	r1, #84215045	@ 0x5050505
     6a2:	f04f 3004 	mov.w	r0, #67372036	@ 0x4040404
     6a6:	f844 1c38 	str.w	r1, [r4, #-56]
     6aa:	f1a5 013c 	sub.w	r1, r5, #60	@ 0x3c
     6ae:	5050      	str	r0, [r2, r1]
     6b0:	2011      	movs	r0, #17
     6b2:	1856      	adds	r6, r2, r1
     6b4:	4c10      	ldr	r4, [pc, #64]	@ (6f8 <kInitTcb_+0xc4>)
     6b6:	f1a3 0110 	sub.w	r1, r3, #16
     6ba:	eb02 0181 	add.w	r1, r2, r1, lsl #2
     6be:	4283      	cmp	r3, r0
     6c0:	d812      	bhi.n	6e8 <kInitTcb_+0xb4>
     6c2:	205c      	movs	r0, #92	@ 0x5c
     6c4:	490d      	ldr	r1, [pc, #52]	@ (6fc <kInitTcb_+0xc8>)
     6c6:	4d0e      	ldr	r5, [pc, #56]	@ (700 <kInitTcb_+0xcc>)
     6c8:	6011      	str	r1, [r2, #0]
     6ca:	490e      	ldr	r1, [pc, #56]	@ (704 <kInitTcb_+0xd0>)
     6cc:	780c      	ldrb	r4, [r1, #0]
     6ce:	4360      	muls	r0, r4
     6d0:	1829      	adds	r1, r5, r0
     6d2:	618b      	str	r3, [r1, #24]
     6d4:	2301      	movs	r3, #1
     6d6:	604b      	str	r3, [r1, #4]
     6d8:	f06f 0302 	mvn.w	r3, #2
     6dc:	502e      	str	r6, [r5, r0]
     6de:	2000      	movs	r0, #0
     6e0:	614a      	str	r2, [r1, #20]
     6e2:	770c      	strb	r4, [r1, #28]
     6e4:	60cb      	str	r3, [r1, #12]
     6e6:	bd70      	pop	{r4, r5, r6, pc}
     6e8:	f841 4d04 	str.w	r4, [r1, #-4]!
     6ec:	3001      	adds	r0, #1
     6ee:	e7e6      	b.n	6be <kInitTcb_+0x8a>
     6f0:	f04f 30ff 	mov.w	r0, #4294967295	@ 0xffffffff
     6f4:	e7f7      	b.n	6e6 <kInitTcb_+0xb2>
     6f6:	bf00      	nop
     6f8:	badc0ffe 	blt	ff7046f8 <SCB_ICSR+0x1f6f59f4>
     6fc:	0badc0de 	bleq	feb70a7c <SCB_ICSR+0x1eb61d78>
     700:	20000c5c 	andcs	r0, r0, ip, asr ip
     704:	20000c38 	andcs	r0, r0, r8, lsr ip

00000708 <kCalcNextTaskPrio_>:
     708:	4a08      	ldr	r2, [pc, #32]	@ (72c <kCalcNextTaskPrio_+0x24>)
     70a:	b508      	push	{r3, lr}
     70c:	6813      	ldr	r3, [r2, #0]
     70e:	b153      	cbz	r3, 726 <kCalcNextTaskPrio_+0x1e>
     710:	6813      	ldr	r3, [r2, #0]
     712:	6812      	ldr	r2, [r2, #0]
     714:	425b      	negs	r3, r3
     716:	4013      	ands	r3, r2
     718:	4a05      	ldr	r2, [pc, #20]	@ (730 <kCalcNextTaskPrio_+0x28>)
     71a:	6013      	str	r3, [r2, #0]
     71c:	6810      	ldr	r0, [r2, #0]
     71e:	f7ff fc9f 	bl	60 <__getReadyPrio>
     722:	b2c0      	uxtb	r0, r0
     724:	bd08      	pop	{r3, pc}
     726:	2002      	movs	r0, #2
     728:	e7fc      	b.n	724 <kCalcNextTaskPrio_+0x1c>
     72a:	bf00      	nop
     72c:	20000c44 	andcs	r0, r0, r4, asr #24
     730:	20000c40 	andcs	r0, r0, r0, asr #24

00000734 <kTCBQInit>:
     734:	b508      	push	{r3, lr}
     736:	b930      	cbnz	r0, 746 <kTCBQInit+0x12>
     738:	f06f 0001 	mvn.w	r0, #1
     73c:	f000 fc0c 	bl	f58 <kErrHandler>
     740:	f06f 0001 	mvn.w	r0, #1
     744:	bd08      	pop	{r3, pc}
     746:	2300      	movs	r3, #0
     748:	2201      	movs	r2, #1
     74a:	e9c0 0000 	strd	r0, r0, [r0]
     74e:	e9c0 3203 	strd	r3, r2, [r0, #12]
     752:	6081      	str	r1, [r0, #8]
     754:	f3bf 8f5f 	dmb	sy
     758:	4618      	mov	r0, r3
     75a:	e7f3      	b.n	744 <kTCBQInit+0x10>

0000075c <kTCBQDeq>:
     75c:	b538      	push	{r3, r4, r5, lr}
     75e:	460d      	mov	r5, r1
     760:	4604      	mov	r4, r0
     762:	b918      	cbnz	r0, 76c <kTCBQDeq+0x10>
     764:	f06f 0001 	mvn.w	r0, #1
     768:	f000 fbf6 	bl	f58 <kErrHandler>
     76c:	68e2      	ldr	r2, [r4, #12]
     76e:	b312      	cbz	r2, 7b6 <kTCBQDeq+0x5a>
     770:	6823      	ldr	r3, [r4, #0]
     772:	3a01      	subs	r2, #1
     774:	e9d3 0100 	ldrd	r0, r1, [r3]
     778:	6041      	str	r1, [r0, #4]
     77a:	6008      	str	r0, [r1, #0]
     77c:	2000      	movs	r0, #0
     77e:	4619      	mov	r1, r3
     780:	6058      	str	r0, [r3, #4]
     782:	f841 0954 	str.w	r0, [r1], #-84
     786:	60e2      	str	r2, [r4, #12]
     788:	f3bf 8f5f 	dmb	sy
     78c:	2214      	movs	r2, #20
     78e:	6029      	str	r1, [r5, #0]
     790:	f813 0c37 	ldrb.w	r0, [r3, #-55]
     794:	4b09      	ldr	r3, [pc, #36]	@ (7bc <kTCBQDeq+0x60>)
     796:	fb02 3300 	mla	r3, r2, r0, r3
     79a:	429c      	cmp	r4, r3
     79c:	d101      	bne.n	7a2 <kTCBQDeq+0x46>
     79e:	68e3      	ldr	r3, [r4, #12]
     7a0:	b10b      	cbz	r3, 7a6 <kTCBQDeq+0x4a>
     7a2:	2000      	movs	r0, #0
     7a4:	bd38      	pop	{r3, r4, r5, pc}
     7a6:	2201      	movs	r2, #1
     7a8:	4905      	ldr	r1, [pc, #20]	@ (7c0 <kTCBQDeq+0x64>)
     7aa:	4082      	lsls	r2, r0
     7ac:	680b      	ldr	r3, [r1, #0]
     7ae:	ea23 0302 	bic.w	r3, r3, r2
     7b2:	600b      	str	r3, [r1, #0]
     7b4:	e7f5      	b.n	7a2 <kTCBQDeq+0x46>
     7b6:	f06f 0004 	mvn.w	r0, #4
     7ba:	e7f3      	b.n	7a4 <kTCBQDeq+0x48>
     7bc:	20000e2c 	andcs	r0, r0, ip, lsr #28
     7c0:	20000c44 	andcs	r0, r0, r4, asr #24

000007c4 <kTCBQRem>:
     7c4:	b538      	push	{r3, r4, r5, lr}
     7c6:	460d      	mov	r5, r1
     7c8:	4604      	mov	r4, r0
     7ca:	b1d0      	cbz	r0, 802 <kTCBQRem+0x3e>
     7cc:	b1c9      	cbz	r1, 802 <kTCBQRem+0x3e>
     7ce:	680b      	ldr	r3, [r1, #0]
     7d0:	68e2      	ldr	r2, [r4, #12]
     7d2:	b342      	cbz	r2, 826 <kTCBQRem+0x62>
     7d4:	e9d3 0115 	ldrd	r0, r1, [r3, #84]	@ 0x54
     7d8:	6041      	str	r1, [r0, #4]
     7da:	6008      	str	r0, [r1, #0]
     7dc:	2100      	movs	r1, #0
     7de:	3a01      	subs	r2, #1
     7e0:	e9c3 1115 	strd	r1, r1, [r3, #84]	@ 0x54
     7e4:	60e2      	str	r2, [r4, #12]
     7e6:	f3bf 8f5f 	dmb	sy
     7ea:	2214      	movs	r2, #20
     7ec:	602b      	str	r3, [r5, #0]
     7ee:	7f58      	ldrb	r0, [r3, #29]
     7f0:	4b0e      	ldr	r3, [pc, #56]	@ (82c <kTCBQRem+0x68>)
     7f2:	fb02 3300 	mla	r3, r2, r0, r3
     7f6:	429c      	cmp	r4, r3
     7f8:	d101      	bne.n	7fe <kTCBQRem+0x3a>
     7fa:	68e3      	ldr	r3, [r4, #12]
     7fc:	b15b      	cbz	r3, 816 <kTCBQRem+0x52>
     7fe:	2000      	movs	r0, #0
     800:	bd38      	pop	{r3, r4, r5, pc}
     802:	f06f 0001 	mvn.w	r0, #1
     806:	f000 fba7 	bl	f58 <kErrHandler>
     80a:	682b      	ldr	r3, [r5, #0]
     80c:	2c00      	cmp	r4, #0
     80e:	d1df      	bne.n	7d0 <kTCBQRem+0xc>
     810:	f06f 0001 	mvn.w	r0, #1
     814:	e7f4      	b.n	800 <kTCBQRem+0x3c>
     816:	2201      	movs	r2, #1
     818:	4905      	ldr	r1, [pc, #20]	@ (830 <kTCBQRem+0x6c>)
     81a:	4082      	lsls	r2, r0
     81c:	680b      	ldr	r3, [r1, #0]
     81e:	ea23 0302 	bic.w	r3, r3, r2
     822:	600b      	str	r3, [r1, #0]
     824:	e7eb      	b.n	7fe <kTCBQRem+0x3a>
     826:	f06f 0004 	mvn.w	r0, #4
     82a:	e7e9      	b.n	800 <kTCBQRem+0x3c>
     82c:	20000e2c 	andcs	r0, r0, ip, lsr #28
     830:	20000c44 	andcs	r0, r0, r4, asr #24

00000834 <kTCBQPeek>:
     834:	b510      	push	{r4, lr}
     836:	4604      	mov	r4, r0
     838:	b918      	cbnz	r0, 842 <kTCBQPeek+0xe>
     83a:	f06f 0001 	mvn.w	r0, #1
     83e:	f000 fb8b 	bl	f58 <kErrHandler>
     842:	6820      	ldr	r0, [r4, #0]
     844:	3854      	subs	r0, #84	@ 0x54
     846:	bd10      	pop	{r4, pc}

00000848 <kReadyQDeq>:
     848:	460a      	mov	r2, r1
     84a:	4601      	mov	r1, r0
     84c:	2014      	movs	r0, #20
     84e:	4b06      	ldr	r3, [pc, #24]	@ (868 <kReadyQDeq+0x20>)
     850:	b510      	push	{r4, lr}
     852:	fb00 3002 	mla	r0, r0, r2, r3
     856:	f7ff ff81 	bl	75c <kTCBQDeq>
     85a:	4604      	mov	r4, r0
     85c:	b110      	cbz	r0, 864 <kReadyQDeq+0x1c>
     85e:	2000      	movs	r0, #0
     860:	f000 fb7a 	bl	f58 <kErrHandler>
     864:	4620      	mov	r0, r4
     866:	bd10      	pop	{r4, pc}
     868:	20000e2c 	andcs	r0, r0, ip, lsr #28

0000086c <kCreateTask>:
     86c:	e92d 4ff8 	stmdb	sp!, {r3, r4, r5, r6, r7, r8, r9, sl, fp, lr}
     870:	4c30      	ldr	r4, [pc, #192]	@ (934 <kCreateTask+0xc8>)
     872:	4606      	mov	r6, r0
     874:	7825      	ldrb	r5, [r4, #0]
     876:	4688      	mov	r8, r1
     878:	4617      	mov	r7, r2
     87a:	4699      	mov	r9, r3
     87c:	f89d a030 	ldrb.w	sl, [sp, #48]	@ 0x30
     880:	2d00      	cmp	r5, #0
     882:	d132      	bne.n	8ea <kCreateTask+0x7e>
     884:	2340      	movs	r3, #64	@ 0x40
     886:	4a2c      	ldr	r2, [pc, #176]	@ (938 <kCreateTask+0xcc>)
     888:	990b      	ldr	r1, [sp, #44]	@ 0x2c
     88a:	482c      	ldr	r0, [pc, #176]	@ (93c <kCreateTask+0xd0>)
     88c:	f7ff fed2 	bl	634 <kInitTcb_>
     890:	b110      	cbz	r0, 898 <kCreateTask+0x2c>
     892:	4628      	mov	r0, r5
     894:	f000 fb60 	bl	f58 <kErrHandler>
     898:	235c      	movs	r3, #92	@ 0x5c
     89a:	2102      	movs	r1, #2
     89c:	f04f 0b00 	mov.w	fp, #0
     8a0:	7822      	ldrb	r2, [r4, #0]
     8a2:	4d27      	ldr	r5, [pc, #156]	@ (940 <kCreateTask+0xd4>)
     8a4:	4827      	ldr	r0, [pc, #156]	@ (944 <kCreateTask+0xd8>)
     8a6:	fb03 5302 	mla	r3, r3, r2, r5
     8aa:	7759      	strb	r1, [r3, #29]
     8ac:	4926      	ldr	r1, [pc, #152]	@ (948 <kCreateTask+0xdc>)
     8ae:	3201      	adds	r2, #1
     8b0:	6119      	str	r1, [r3, #16]
     8b2:	4926      	ldr	r1, [pc, #152]	@ (94c <kCreateTask+0xe0>)
     8b4:	f8c3 b02c 	str.w	fp, [r3, #44]	@ 0x2c
     8b8:	600b      	str	r3, [r1, #0]
     8ba:	7022      	strb	r2, [r4, #0]
     8bc:	2340      	movs	r3, #64	@ 0x40
     8be:	4a24      	ldr	r2, [pc, #144]	@ (950 <kCreateTask+0xe4>)
     8c0:	990b      	ldr	r1, [sp, #44]	@ 0x2c
     8c2:	f7ff feb7 	bl	634 <kInitTcb_>
     8c6:	b110      	cbz	r0, 8ce <kCreateTask+0x62>
     8c8:	4658      	mov	r0, fp
     8ca:	f000 fb45 	bl	f58 <kErrHandler>
     8ce:	225c      	movs	r2, #92	@ 0x5c
     8d0:	7823      	ldrb	r3, [r4, #0]
     8d2:	fb02 5503 	mla	r5, r2, r3, r5
     8d6:	2200      	movs	r2, #0
     8d8:	776a      	strb	r2, [r5, #29]
     8da:	4a1e      	ldr	r2, [pc, #120]	@ (954 <kCreateTask+0xe8>)
     8dc:	3301      	adds	r3, #1
     8de:	612a      	str	r2, [r5, #16]
     8e0:	2201      	movs	r2, #1
     8e2:	62ea      	str	r2, [r5, #44]	@ 0x2c
     8e4:	4a1c      	ldr	r2, [pc, #112]	@ (958 <kCreateTask+0xec>)
     8e6:	7023      	strb	r3, [r4, #0]
     8e8:	6015      	str	r5, [r2, #0]
     8ea:	464a      	mov	r2, r9
     8ec:	4640      	mov	r0, r8
     8ee:	9b0a      	ldr	r3, [sp, #40]	@ 0x28
     8f0:	990b      	ldr	r1, [sp, #44]	@ 0x2c
     8f2:	f7ff fe9f 	bl	634 <kInitTcb_>
     8f6:	4605      	mov	r5, r0
     8f8:	b9c8      	cbnz	r0, 92e <kCreateTask+0xc2>
     8fa:	f1ba 0f02 	cmp.w	sl, #2
     8fe:	d903      	bls.n	908 <kCreateTask+0x9c>
     900:	f06f 000a 	mvn.w	r0, #10
     904:	f000 fb28 	bl	f58 <kErrHandler>
     908:	215c      	movs	r1, #92	@ 0x5c
     90a:	7822      	ldrb	r2, [r4, #0]
     90c:	4b0c      	ldr	r3, [pc, #48]	@ (940 <kCreateTask+0xd4>)
     90e:	fb01 3302 	mla	r3, r1, r2, r3
     912:	2100      	movs	r1, #0
     914:	6299      	str	r1, [r3, #40]	@ 0x28
     916:	6219      	str	r1, [r3, #32]
     918:	990d      	ldr	r1, [sp, #52]	@ 0x34
     91a:	3201      	adds	r2, #1
     91c:	f883 a01d 	strb.w	sl, [r3, #29]
     920:	611f      	str	r7, [r3, #16]
     922:	62d9      	str	r1, [r3, #44]	@ 0x2c
     924:	7022      	strb	r2, [r4, #0]
     926:	6033      	str	r3, [r6, #0]
     928:	4628      	mov	r0, r5
     92a:	e8bd 8ff8 	ldmia.w	sp!, {r3, r4, r5, r6, r7, r8, r9, sl, fp, pc}
     92e:	f04f 35ff 	mov.w	r5, #4294967295	@ 0xffffffff
     932:	e7f9      	b.n	928 <kCreateTask+0xbc>
     934:	20000c38 	andcs	r0, r0, r8, lsr ip
     938:	20000f6c 	andcs	r0, r0, ip, ror #30
     93c:	00000ca9 	andeq	r0, r0, r9, lsr #25
     940:	20000c5c 	andcs	r0, r0, ip, asr ip
     944:	00000cc1 	andeq	r0, r0, r1, asr #25
     948:	00001018 	andeq	r1, r0, r8, lsl r0
     94c:	20000c54 	andcs	r0, r0, r4, asr ip
     950:	20000e6c 	andcs	r0, r0, ip, ror #28
     954:	00001021 	andeq	r1, r0, r1, lsr #32
     958:	20000c58 	andcs	r0, r0, r8, asr ip

0000095c <kEnterCR>:
     95c:	f3bf 8f4f 	dsb	sy
     960:	f3ef 8010 	mrs	r0, PRIMASK
     964:	b928      	cbnz	r0, 972 <kEnterCR+0x16>
     966:	f3bf 8f4f 	dsb	sy
     96a:	b672      	cpsid	i
     96c:	f3bf 8f6f 	isb	sy
     970:	4770      	bx	lr
     972:	f3bf 8f4f 	dsb	sy
     976:	4770      	bx	lr

00000978 <kExitCR>:
     978:	f3bf 8f4f 	dsb	sy
     97c:	f380 8810 	msr	PRIMASK, r0
     980:	f3bf 8f6f 	isb	sy
     984:	4770      	bx	lr
	...

00000988 <kTCBQEnq>:
     988:	b5f8      	push	{r3, r4, r5, r6, r7, lr}
     98a:	4604      	mov	r4, r0
     98c:	f7ff ffe6 	bl	95c <kEnterCR>
     990:	460d      	mov	r5, r1
     992:	4606      	mov	r6, r0
     994:	f101 0754 	add.w	r7, r1, #84	@ 0x54
     998:	b1fc      	cbz	r4, 9da <kTCBQEnq+0x52>
     99a:	b1f1      	cbz	r1, 9da <kTCBQEnq+0x52>
     99c:	6863      	ldr	r3, [r4, #4]
     99e:	b30b      	cbz	r3, 9e4 <kTCBQEnq+0x5c>
     9a0:	681a      	ldr	r2, [r3, #0]
     9a2:	656a      	str	r2, [r5, #84]	@ 0x54
     9a4:	6057      	str	r7, [r2, #4]
     9a6:	65ab      	str	r3, [r5, #88]	@ 0x58
     9a8:	601f      	str	r7, [r3, #0]
     9aa:	68e3      	ldr	r3, [r4, #12]
     9ac:	3301      	adds	r3, #1
     9ae:	60e3      	str	r3, [r4, #12]
     9b0:	f3bf 8f5f 	dmb	sy
     9b4:	2214      	movs	r2, #20
     9b6:	7f69      	ldrb	r1, [r5, #29]
     9b8:	4b0c      	ldr	r3, [pc, #48]	@ (9ec <kTCBQEnq+0x64>)
     9ba:	fb02 3301 	mla	r3, r2, r1, r3
     9be:	429c      	cmp	r4, r3
     9c0:	d105      	bne.n	9ce <kTCBQEnq+0x46>
     9c2:	2301      	movs	r3, #1
     9c4:	4a0a      	ldr	r2, [pc, #40]	@ (9f0 <kTCBQEnq+0x68>)
     9c6:	408b      	lsls	r3, r1
     9c8:	6810      	ldr	r0, [r2, #0]
     9ca:	4303      	orrs	r3, r0
     9cc:	6013      	str	r3, [r2, #0]
     9ce:	2300      	movs	r3, #0
     9d0:	4630      	mov	r0, r6
     9d2:	f7ff ffd1 	bl	978 <kExitCR>
     9d6:	4618      	mov	r0, r3
     9d8:	bdf8      	pop	{r3, r4, r5, r6, r7, pc}
     9da:	f06f 0001 	mvn.w	r0, #1
     9de:	f000 fabb 	bl	f58 <kErrHandler>
     9e2:	e7db      	b.n	99c <kTCBQEnq+0x14>
     9e4:	f06f 0301 	mvn.w	r3, #1
     9e8:	e7f2      	b.n	9d0 <kTCBQEnq+0x48>
     9ea:	bf00      	nop
     9ec:	20000e2c 	andcs	r0, r0, ip, lsr #28
     9f0:	20000c44 	andcs	r0, r0, r4, asr #24

000009f4 <kReadyRunningTask_>:
     9f4:	b510      	push	{r4, lr}
     9f6:	4c0a      	ldr	r4, [pc, #40]	@ (a20 <kReadyRunningTask_+0x2c>)
     9f8:	6821      	ldr	r1, [r4, #0]
     9fa:	684b      	ldr	r3, [r1, #4]
     9fc:	2b02      	cmp	r3, #2
     9fe:	d10d      	bne.n	a1c <kReadyRunningTask_+0x28>
     a00:	2014      	movs	r0, #20
     a02:	7f4a      	ldrb	r2, [r1, #29]
     a04:	4b07      	ldr	r3, [pc, #28]	@ (a24 <kReadyRunningTask_+0x30>)
     a06:	fb00 3002 	mla	r0, r0, r2, r3
     a0a:	f7ff ffbd 	bl	988 <kTCBQEnq>
     a0e:	b110      	cbz	r0, a16 <kReadyRunningTask_+0x22>
     a10:	2000      	movs	r0, #0
     a12:	f000 faa1 	bl	f58 <kErrHandler>
     a16:	2201      	movs	r2, #1
     a18:	6823      	ldr	r3, [r4, #0]
     a1a:	605a      	str	r2, [r3, #4]
     a1c:	bd10      	pop	{r4, pc}
     a1e:	bf00      	nop
     a20:	20000e28 	andcs	r0, r0, r8, lsr #28
     a24:	20000e2c 	andcs	r0, r0, ip, lsr #28

00000a28 <kInit>:
     a28:	e92d 43f8 	stmdb	sp!, {r3, r4, r5, r6, r7, r8, r9, lr}
     a2c:	f000 fa90 	bl	f50 <kGetVersion>
     a30:	4b33      	ldr	r3, [pc, #204]	@ (b00 <kInit+0xd8>)
     a32:	4a34      	ldr	r2, [pc, #208]	@ (b04 <kInit+0xdc>)
     a34:	6018      	str	r0, [r3, #0]
     a36:	6819      	ldr	r1, [r3, #0]
     a38:	7853      	ldrb	r3, [r2, #1]
     a3a:	7810      	ldrb	r0, [r2, #0]
     a3c:	021b      	lsls	r3, r3, #8
     a3e:	7892      	ldrb	r2, [r2, #2]
     a40:	ea43 4300 	orr.w	r3, r3, r0, lsl #16
     a44:	4313      	orrs	r3, r2
     a46:	428b      	cmp	r3, r1
     a48:	d003      	beq.n	a52 <kInit+0x2a>
     a4a:	f06f 0010 	mvn.w	r0, #16
     a4e:	f000 fa83 	bl	f58 <kErrHandler>
     a52:	2400      	movs	r4, #0
     a54:	4d2c      	ldr	r5, [pc, #176]	@ (b08 <kInit+0xe0>)
     a56:	4627      	mov	r7, r4
     a58:	462e      	mov	r6, r5
     a5a:	f8df 80b0 	ldr.w	r8, [pc, #176]	@ b0c <kInit+0xe4>
     a5e:	4628      	mov	r0, r5
     a60:	4641      	mov	r1, r8
     a62:	f7ff fe67 	bl	734 <kTCBQInit>
     a66:	3401      	adds	r4, #1
     a68:	2c03      	cmp	r4, #3
     a6a:	ea47 0700 	orr.w	r7, r7, r0
     a6e:	f105 0514 	add.w	r5, r5, #20
     a72:	d1f4      	bne.n	a5e <kInit+0x36>
     a74:	b117      	cbz	r7, a7c <kInit+0x54>
     a76:	2000      	movs	r0, #0
     a78:	f000 fa6e 	bl	f58 <kErrHandler>
     a7c:	2300      	movs	r3, #0
     a7e:	4c24      	ldr	r4, [pc, #144]	@ (b10 <kInit+0xe8>)
     a80:	4619      	mov	r1, r3
     a82:	4620      	mov	r0, r4
     a84:	46a0      	mov	r8, r4
     a86:	4a23      	ldr	r2, [pc, #140]	@ (b14 <kInit+0xec>)
     a88:	4d23      	ldr	r5, [pc, #140]	@ (b18 <kInit+0xf0>)
     a8a:	e9c2 3300 	strd	r3, r3, [r2]
     a8e:	7f62      	ldrb	r2, [r4, #29]
     a90:	702a      	strb	r2, [r5, #0]
     a92:	7f47      	ldrb	r7, [r0, #29]
     a94:	3101      	adds	r1, #1
     a96:	4297      	cmp	r7, r2
     a98:	bf3c      	itt	cc
     a9a:	463a      	movcc	r2, r7
     a9c:	2301      	movcc	r3, #1
     a9e:	2905      	cmp	r1, #5
     aa0:	f100 005c 	add.w	r0, r0, #92	@ 0x5c
     aa4:	d1f5      	bne.n	a92 <kInit+0x6a>
     aa6:	b103      	cbz	r3, aaa <kInit+0x82>
     aa8:	702a      	strb	r2, [r5, #0]
     aaa:	2700      	movs	r7, #0
     aac:	f04f 0914 	mov.w	r9, #20
     ab0:	7f60      	ldrb	r0, [r4, #29]
     ab2:	4621      	mov	r1, r4
     ab4:	fb09 6000 	mla	r0, r9, r0, r6
     ab8:	3701      	adds	r7, #1
     aba:	f7ff ff65 	bl	988 <kTCBQEnq>
     abe:	2f05      	cmp	r7, #5
     ac0:	f104 045c 	add.w	r4, r4, #92	@ 0x5c
     ac4:	d1f4      	bne.n	ab0 <kInit+0x88>
     ac6:	4c15      	ldr	r4, [pc, #84]	@ (b1c <kInit+0xf4>)
     ac8:	7829      	ldrb	r1, [r5, #0]
     aca:	4620      	mov	r0, r4
     acc:	f7ff febc 	bl	848 <kReadyQDeq>
     ad0:	6823      	ldr	r3, [r4, #0]
     ad2:	685b      	ldr	r3, [r3, #4]
     ad4:	2b01      	cmp	r3, #1
     ad6:	d002      	beq.n	ade <kInit+0xb6>
     ad8:	2000      	movs	r0, #0
     ada:	f000 fa3d 	bl	f58 <kErrHandler>
     ade:	f898 301d 	ldrb.w	r3, [r8, #29]
     ae2:	2b02      	cmp	r3, #2
     ae4:	d002      	beq.n	aec <kInit+0xc4>
     ae6:	2000      	movs	r0, #0
     ae8:	f000 fa36 	bl	f58 <kErrHandler>
     aec:	f7ff fb4e 	bl	18c <kApplicationInit>
     af0:	f3bf 8f4f 	dsb	sy
     af4:	b662      	cpsie	i
     af6:	f3bf 8f6f 	isb	sy
     afa:	dfaa      	svc	170	@ 0xaa
     afc:	e7fe      	b.n	afc <kInit+0xd4>
     afe:	bf00      	nop
     b00:	20000c3c 	andcs	r0, r0, ip, lsr ip
     b04:	00001037 	andeq	r1, r0, r7, lsr r0
     b08:	20000e2c 	andcs	r0, r0, ip, lsr #28
     b0c:	00001030 	andeq	r1, r0, r0, lsr r0
     b10:	20000c5c 	andcs	r0, r0, ip, asr ip
     b14:	20000c4c 	andcs	r0, r0, ip, asr #24
     b18:	20000c49 	andcs	r0, r0, r9, asr #24
     b1c:	20000e28 	andcs	r0, r0, r8, lsr #28

00000b20 <kSchSwtch>:
     b20:	2300      	movs	r3, #0
     b22:	b573      	push	{r0, r1, r4, r5, r6, lr}
     b24:	4e13      	ldr	r6, [pc, #76]	@ (b74 <kSchSwtch+0x54>)
     b26:	9301      	str	r3, [sp, #4]
     b28:	6835      	ldr	r5, [r6, #0]
     b2a:	686b      	ldr	r3, [r5, #4]
     b2c:	2b02      	cmp	r3, #2
     b2e:	d101      	bne.n	b34 <kSchSwtch+0x14>
     b30:	f7ff ff60 	bl	9f4 <kReadyRunningTask_>
     b34:	f7ff fde8 	bl	708 <kCalcNextTaskPrio_>
     b38:	2214      	movs	r2, #20
     b3a:	4b0f      	ldr	r3, [pc, #60]	@ (b78 <kSchSwtch+0x58>)
     b3c:	a901      	add	r1, sp, #4
     b3e:	7018      	strb	r0, [r3, #0]
     b40:	4b0e      	ldr	r3, [pc, #56]	@ (b7c <kSchSwtch+0x5c>)
     b42:	fb02 3000 	mla	r0, r2, r0, r3
     b46:	f7ff fe09 	bl	75c <kTCBQDeq>
     b4a:	9c01      	ldr	r4, [sp, #4]
     b4c:	b91c      	cbnz	r4, b56 <kSchSwtch+0x36>
     b4e:	f06f 0001 	mvn.w	r0, #1
     b52:	f000 fa01 	bl	f58 <kErrHandler>
     b56:	7f2b      	ldrb	r3, [r5, #28]
     b58:	7f22      	ldrb	r2, [r4, #28]
     b5a:	6034      	str	r4, [r6, #0]
     b5c:	4293      	cmp	r3, r2
     b5e:	bf1f      	itttt	ne
     b60:	6b63      	ldrne	r3, [r4, #52]	@ 0x34
     b62:	3301      	addne	r3, #1
     b64:	6363      	strne	r3, [r4, #52]	@ 0x34
     b66:	f885 2038 	strbne.w	r2, [r5, #56]	@ 0x38
     b6a:	f3bf 8f4f 	dsb	sy
     b6e:	b002      	add	sp, #8
     b70:	bd70      	pop	{r4, r5, r6, pc}
     b72:	bf00      	nop
     b74:	20000e28 	andcs	r0, r0, r8, lsr #28
     b78:	20000c48 	andcs	r0, r0, r8, asr #24
     b7c:	20000e2c 	andcs	r0, r0, ip, lsr #28

00000b80 <kTickHandler>:
     b80:	b570      	push	{r4, r5, r6, lr}
     b82:	4e1c      	ldr	r6, [pc, #112]	@ (bf4 <kTickHandler+0x74>)
     b84:	4b1c      	ldr	r3, [pc, #112]	@ (bf8 <kTickHandler+0x78>)
     b86:	6830      	ldr	r0, [r6, #0]
     b88:	681a      	ldr	r2, [r3, #0]
     b8a:	6a41      	ldr	r1, [r0, #36]	@ 0x24
     b8c:	3201      	adds	r2, #1
     b8e:	601a      	str	r2, [r3, #0]
     b90:	b109      	cbz	r1, b96 <kTickHandler+0x16>
     b92:	3901      	subs	r1, #1
     b94:	6241      	str	r1, [r0, #36]	@ 0x24
     b96:	3201      	adds	r2, #1
     b98:	d104      	bne.n	ba4 <kTickHandler+0x24>
     b9a:	2200      	movs	r2, #0
     b9c:	601a      	str	r2, [r3, #0]
     b9e:	685a      	ldr	r2, [r3, #4]
     ba0:	3201      	adds	r2, #1
     ba2:	605a      	str	r2, [r3, #4]
     ba4:	4b15      	ldr	r3, [pc, #84]	@ (bfc <kTickHandler+0x7c>)
     ba6:	681c      	ldr	r4, [r3, #0]
     ba8:	b114      	cbz	r4, bb0 <kTickHandler+0x30>
     baa:	f000 f9b1 	bl	f10 <kHandleTimeoutList>
     bae:	4604      	mov	r4, r0
     bb0:	6833      	ldr	r3, [r6, #0]
     bb2:	6add      	ldr	r5, [r3, #44]	@ 0x2c
     bb4:	685a      	ldr	r2, [r3, #4]
     bb6:	b175      	cbz	r5, bd6 <kTickHandler+0x56>
     bb8:	2a02      	cmp	r2, #2
     bba:	d119      	bne.n	bf0 <kTickHandler+0x70>
     bbc:	7f1d      	ldrb	r5, [r3, #28]
     bbe:	3d00      	subs	r5, #0
     bc0:	bf18      	it	ne
     bc2:	2501      	movne	r5, #1
     bc4:	f7ff fda0 	bl	708 <kCalcNextTaskPrio_>
     bc8:	6833      	ldr	r3, [r6, #0]
     bca:	7f5b      	ldrb	r3, [r3, #29]
     bcc:	4283      	cmp	r3, r0
     bce:	d904      	bls.n	bda <kTickHandler+0x5a>
     bd0:	f7ff ff10 	bl	9f4 <kReadyRunningTask_>
     bd4:	e001      	b.n	bda <kTickHandler+0x5a>
     bd6:	2a02      	cmp	r2, #2
     bd8:	d0f4      	beq.n	bc4 <kTickHandler+0x44>
     bda:	6833      	ldr	r3, [r6, #0]
     bdc:	f085 0501 	eor.w	r5, r5, #1
     be0:	685b      	ldr	r3, [r3, #4]
     be2:	2b01      	cmp	r3, #1
     be4:	bf08      	it	eq
     be6:	f044 0401 	orreq.w	r4, r4, #1
     bea:	ea04 0005 	and.w	r0, r4, r5
     bee:	bd70      	pop	{r4, r5, r6, pc}
     bf0:	2500      	movs	r5, #0
     bf2:	e7f2      	b.n	bda <kTickHandler+0x5a>
     bf4:	20000e28 	andcs	r0, r0, r8, lsr #28
     bf8:	20000c4c 	andcs	r0, r0, ip, asr #24
     bfc:	20000c34 	andcs	r0, r0, r4, lsr ip

00000c00 <kPend>:
     c00:	b5f8      	push	{r3, r4, r5, r6, r7, lr}
     c02:	f3ef 8305 	mrs	r3, IPSR
     c06:	4605      	mov	r5, r0
     c08:	f3bf 8f5f 	dmb	sy
     c0c:	b11b      	cbz	r3, c16 <kPend+0x16>
     c0e:	f06f 0014 	mvn.w	r0, #20
     c12:	f000 f9a1 	bl	f58 <kErrHandler>
     c16:	f7ff fea1 	bl	95c <kEnterCR>
     c1a:	4e21      	ldr	r6, [pc, #132]	@ (ca0 <kPend+0xa0>)
     c1c:	4604      	mov	r4, r0
     c1e:	6833      	ldr	r3, [r6, #0]
     c20:	6a1a      	ldr	r2, [r3, #32]
     c22:	2a01      	cmp	r2, #1
     c24:	d106      	bne.n	c34 <kPend+0x34>
     c26:	2200      	movs	r2, #0
     c28:	621a      	str	r2, [r3, #32]
     c2a:	4620      	mov	r0, r4
     c2c:	f7ff fea4 	bl	978 <kExitCR>
     c30:	2000      	movs	r0, #0
     c32:	e004      	b.n	c3e <kPend+0x3e>
     c34:	b925      	cbnz	r5, c40 <kPend+0x40>
     c36:	f7ff fe9f 	bl	978 <kExitCR>
     c3a:	f06f 0029 	mvn.w	r0, #41	@ 0x29
     c3e:	bdf8      	pop	{r3, r4, r5, r6, r7, pc}
     c40:	2203      	movs	r2, #3
     c42:	605a      	str	r2, [r3, #4]
     c44:	2200      	movs	r2, #0
     c46:	1c68      	adds	r0, r5, #1
     c48:	621a      	str	r2, [r3, #32]
     c4a:	f105 37ff 	add.w	r7, r5, #4294967295	@ 0xffffffff
     c4e:	d007      	beq.n	c60 <kPend+0x60>
     c50:	2102      	movs	r1, #2
     c52:	651a      	str	r2, [r3, #80]	@ 0x50
     c54:	6459      	str	r1, [r3, #68]	@ 0x44
     c56:	f103 003c 	add.w	r0, r3, #60	@ 0x3c
     c5a:	4629      	mov	r1, r5
     c5c:	f000 f84e 	bl	cfc <kTimeOut>
     c60:	4a10      	ldr	r2, [pc, #64]	@ (ca4 <kPend+0xa4>)
     c62:	6853      	ldr	r3, [r2, #4]
     c64:	f043 5380 	orr.w	r3, r3, #268435456	@ 0x10000000
     c68:	6053      	str	r3, [r2, #4]
     c6a:	f3bf 8f4f 	dsb	sy
     c6e:	f3bf 8f6f 	isb	sy
     c72:	4620      	mov	r0, r4
     c74:	f7ff fe80 	bl	978 <kExitCR>
     c78:	f7ff fe70 	bl	95c <kEnterCR>
     c7c:	6833      	ldr	r3, [r6, #0]
     c7e:	4604      	mov	r4, r0
     c80:	6b1a      	ldr	r2, [r3, #48]	@ 0x30
     c82:	b132      	cbz	r2, c92 <kPend+0x92>
     c84:	2200      	movs	r2, #0
     c86:	631a      	str	r2, [r3, #48]	@ 0x30
     c88:	f7ff fe76 	bl	978 <kExitCR>
     c8c:	f06f 0018 	mvn.w	r0, #24
     c90:	e7d5      	b.n	c3e <kPend+0x3e>
     c92:	3702      	adds	r7, #2
     c94:	d0c9      	beq.n	c2a <kPend+0x2a>
     c96:	f103 003c 	add.w	r0, r3, #60	@ 0x3c
     c9a:	f000 f923 	bl	ee4 <kRemoveTimeoutNode>
     c9e:	e7c4      	b.n	c2a <kPend+0x2a>
     ca0:	20000e28 	andcs	r0, r0, r8, lsr #28
     ca4:	e000ed00 	and	lr, r0, r0, lsl #26

00000ca8 <IdleTask>:
     ca8:	4a04      	ldr	r2, [pc, #16]	@ (cbc <IdleTask+0x14>)
     caa:	f3bf 8f4f 	dsb	sy
     cae:	6813      	ldr	r3, [r2, #0]
     cb0:	3301      	adds	r3, #1
     cb2:	6013      	str	r3, [r2, #0]
     cb4:	bf30      	wfi
     cb6:	f3bf 8f6f 	isb	sy
     cba:	e7f6      	b.n	caa <IdleTask+0x2>
     cbc:	20000e68 	andcs	r0, r0, r8, ror #28

00000cc0 <TimerHandlerTask>:
     cc0:	f04f 23e0 	mov.w	r3, #3758153728	@ 0xe000e000
     cc4:	691a      	ldr	r2, [r3, #16]
     cc6:	f04f 32ff 	mov.w	r2, #4294967295	@ 0xffffffff
     cca:	b570      	push	{r4, r5, r6, lr}
     ccc:	2503      	movs	r5, #3
     cce:	4e09      	ldr	r6, [pc, #36]	@ (cf4 <TimerHandlerTask+0x34>)
     cd0:	4c09      	ldr	r4, [pc, #36]	@ (cf8 <TimerHandlerTask+0x38>)
     cd2:	611a      	str	r2, [r3, #16]
     cd4:	f7ff fe42 	bl	95c <kEnterCR>
     cd8:	6833      	ldr	r3, [r6, #0]
     cda:	605d      	str	r5, [r3, #4]
     cdc:	6863      	ldr	r3, [r4, #4]
     cde:	f043 5380 	orr.w	r3, r3, #268435456	@ 0x10000000
     ce2:	6063      	str	r3, [r4, #4]
     ce4:	f3bf 8f4f 	dsb	sy
     ce8:	f3bf 8f6f 	isb	sy
     cec:	f7ff fe44 	bl	978 <kExitCR>
     cf0:	e7f0      	b.n	cd4 <TimerHandlerTask+0x14>
     cf2:	bf00      	nop
     cf4:	20000e28 	andcs	r0, r0, r8, lsr #28
     cf8:	e000ed00 	and	lr, r0, r0, lsl #26

00000cfc <kTimeOut>:
     cfc:	b530      	push	{r4, r5, lr}
     cfe:	2900      	cmp	r1, #0
     d00:	d036      	beq.n	d70 <kTimeOut+0x74>
     d02:	2800      	cmp	r0, #0
     d04:	d037      	beq.n	d76 <kTimeOut+0x7a>
     d06:	4b1d      	ldr	r3, [pc, #116]	@ (d7c <kTimeOut+0x80>)
     d08:	681a      	ldr	r2, [r3, #0]
     d0a:	2300      	movs	r3, #0
     d0c:	6313      	str	r3, [r2, #48]	@ 0x30
     d0e:	6882      	ldr	r2, [r0, #8]
     d10:	e9c0 1103 	strd	r1, r1, [r0, #12]
     d14:	2a03      	cmp	r2, #3
     d16:	e9c0 3300 	strd	r3, r3, [r0]
     d1a:	d11a      	bne.n	d52 <kTimeOut+0x56>
     d1c:	4c18      	ldr	r4, [pc, #96]	@ (d80 <kTimeOut+0x84>)
     d1e:	6822      	ldr	r2, [r4, #0]
     d20:	b11a      	cbz	r2, d2a <kTimeOut+0x2e>
     d22:	6915      	ldr	r5, [r2, #16]
     d24:	6901      	ldr	r1, [r0, #16]
     d26:	428d      	cmp	r5, r1
     d28:	d30b      	bcc.n	d42 <kTimeOut+0x46>
     d2a:	6002      	str	r2, [r0, #0]
     d2c:	b1f2      	cbz	r2, d6c <kTimeOut+0x70>
     d2e:	6911      	ldr	r1, [r2, #16]
     d30:	6905      	ldr	r5, [r0, #16]
     d32:	1b49      	subs	r1, r1, r5
     d34:	6111      	str	r1, [r2, #16]
     d36:	6851      	ldr	r1, [r2, #4]
     d38:	6041      	str	r1, [r0, #4]
     d3a:	6050      	str	r0, [r2, #4]
     d3c:	b933      	cbnz	r3, d4c <kTimeOut+0x50>
     d3e:	6020      	str	r0, [r4, #0]
     d40:	e005      	b.n	d4e <kTimeOut+0x52>
     d42:	1b49      	subs	r1, r1, r5
     d44:	4613      	mov	r3, r2
     d46:	6101      	str	r1, [r0, #16]
     d48:	6812      	ldr	r2, [r2, #0]
     d4a:	e7e9      	b.n	d20 <kTimeOut+0x24>
     d4c:	6018      	str	r0, [r3, #0]
     d4e:	2000      	movs	r0, #0
     d50:	bd30      	pop	{r4, r5, pc}
     d52:	4c0c      	ldr	r4, [pc, #48]	@ (d84 <kTimeOut+0x88>)
     d54:	6822      	ldr	r2, [r4, #0]
     d56:	2a00      	cmp	r2, #0
     d58:	d0e7      	beq.n	d2a <kTimeOut+0x2e>
     d5a:	6915      	ldr	r5, [r2, #16]
     d5c:	6901      	ldr	r1, [r0, #16]
     d5e:	428d      	cmp	r5, r1
     d60:	d2e3      	bcs.n	d2a <kTimeOut+0x2e>
     d62:	1b49      	subs	r1, r1, r5
     d64:	4613      	mov	r3, r2
     d66:	6101      	str	r1, [r0, #16]
     d68:	6812      	ldr	r2, [r2, #0]
     d6a:	e7f4      	b.n	d56 <kTimeOut+0x5a>
     d6c:	6043      	str	r3, [r0, #4]
     d6e:	e7e5      	b.n	d3c <kTimeOut+0x40>
     d70:	f06f 0026 	mvn.w	r0, #38	@ 0x26
     d74:	e7ec      	b.n	d50 <kTimeOut+0x54>
     d76:	f06f 0001 	mvn.w	r0, #1
     d7a:	e7e9      	b.n	d50 <kTimeOut+0x54>
     d7c:	20000e28 	andcs	r0, r0, r8, lsr #28
     d80:	20000c30 	andcs	r0, r0, r0, lsr ip
     d84:	20000c34 	andcs	r0, r0, r4, lsr ip

00000d88 <kSleep>:
     d88:	b5f8      	push	{r3, r4, r5, r6, r7, lr}
     d8a:	4606      	mov	r6, r0
     d8c:	f7ff fde6 	bl	95c <kEnterCR>
     d90:	4b0d      	ldr	r3, [pc, #52]	@ (dc8 <kSleep+0x40>)
     d92:	2704      	movs	r7, #4
     d94:	681c      	ldr	r4, [r3, #0]
     d96:	2300      	movs	r3, #0
     d98:	4605      	mov	r5, r0
     d9a:	6523      	str	r3, [r4, #80]	@ 0x50
     d9c:	4631      	mov	r1, r6
     d9e:	6467      	str	r7, [r4, #68]	@ 0x44
     da0:	f104 003c 	add.w	r0, r4, #60	@ 0x3c
     da4:	f7ff ffaa 	bl	cfc <kTimeOut>
     da8:	4a08      	ldr	r2, [pc, #32]	@ (dcc <kSleep+0x44>)
     daa:	6067      	str	r7, [r4, #4]
     dac:	6853      	ldr	r3, [r2, #4]
     dae:	f043 5380 	orr.w	r3, r3, #268435456	@ 0x10000000
     db2:	6053      	str	r3, [r2, #4]
     db4:	f3bf 8f4f 	dsb	sy
     db8:	f3bf 8f6f 	isb	sy
     dbc:	4628      	mov	r0, r5
     dbe:	e8bd 40f8 	ldmia.w	sp!, {r3, r4, r5, r6, r7, lr}
     dc2:	f7ff bdd9 	b.w	978 <kExitCR>
     dc6:	bf00      	nop
     dc8:	20000e28 	andcs	r0, r0, r8, lsr #28
     dcc:	e000ed00 	and	lr, r0, r0, lsl #26

00000dd0 <kSleepUntil>:
     dd0:	e92d 43f8 	stmdb	sp!, {r3, r4, r5, r6, r7, r8, r9, lr}
     dd4:	4604      	mov	r4, r0
     dd6:	f7ff fdc1 	bl	95c <kEnterCR>
     dda:	4607      	mov	r7, r0
     ddc:	b394      	cbz	r4, e44 <kSleepUntil+0x74>
     dde:	f8df 806c 	ldr.w	r8, [pc, #108]	@ e4c <kSleepUntil+0x7c>
     de2:	4b1b      	ldr	r3, [pc, #108]	@ (e50 <kSleepUntil+0x80>)
     de4:	f8d8 6000 	ldr.w	r6, [r8]
     de8:	681b      	ldr	r3, [r3, #0]
     dea:	6ab5      	ldr	r5, [r6, #40]	@ 0x28
     dec:	4425      	add	r5, r4
     dee:	42ab      	cmp	r3, r5
     df0:	d919      	bls.n	e26 <kSleepUntil+0x56>
     df2:	18e5      	adds	r5, r4, r3
     df4:	2300      	movs	r3, #0
     df6:	f04f 0904 	mov.w	r9, #4
     dfa:	4621      	mov	r1, r4
     dfc:	f8c6 9044 	str.w	r9, [r6, #68]	@ 0x44
     e00:	6533      	str	r3, [r6, #80]	@ 0x50
     e02:	f106 003c 	add.w	r0, r6, #60	@ 0x3c
     e06:	f7ff ff79 	bl	cfc <kTimeOut>
     e0a:	4604      	mov	r4, r0
     e0c:	b980      	cbnz	r0, e30 <kSleepUntil+0x60>
     e0e:	4a11      	ldr	r2, [pc, #68]	@ (e54 <kSleepUntil+0x84>)
     e10:	f8c6 9004 	str.w	r9, [r6, #4]
     e14:	6853      	ldr	r3, [r2, #4]
     e16:	f043 5380 	orr.w	r3, r3, #268435456	@ 0x10000000
     e1a:	6053      	str	r3, [r2, #4]
     e1c:	f3bf 8f4f 	dsb	sy
     e20:	f3bf 8f6f 	isb	sy
     e24:	e000      	b.n	e28 <kSleepUntil+0x58>
     e26:	d1e5      	bne.n	df4 <kSleepUntil+0x24>
     e28:	2400      	movs	r4, #0
     e2a:	f8d8 3000 	ldr.w	r3, [r8]
     e2e:	629d      	str	r5, [r3, #40]	@ 0x28
     e30:	f3bf 8f4f 	dsb	sy
     e34:	4638      	mov	r0, r7
     e36:	f7ff fd9f 	bl	978 <kExitCR>
     e3a:	f3bf 8f6f 	isb	sy
     e3e:	4620      	mov	r0, r4
     e40:	e8bd 83f8 	ldmia.w	sp!, {r3, r4, r5, r6, r7, r8, r9, pc}
     e44:	f06f 0426 	mvn.w	r4, #38	@ 0x26
     e48:	e7f2      	b.n	e30 <kSleepUntil+0x60>
     e4a:	bf00      	nop
     e4c:	20000e28 	andcs	r0, r0, r8, lsr #28
     e50:	20000c4c 	andcs	r0, r0, ip, asr #24
     e54:	e000ed00 	and	lr, r0, r0, lsl #26

00000e58 <kTimeOutReadyTask>:
     e58:	b513      	push	{r0, r1, r4, lr}
     e5a:	6884      	ldr	r4, [r0, #8]
     e5c:	f1a0 033c 	sub.w	r3, r0, #60	@ 0x3c
     e60:	2c01      	cmp	r4, #1
     e62:	9301      	str	r3, [sp, #4]
     e64:	d115      	bne.n	e92 <kTimeOutReadyTask+0x3a>
     e66:	6940      	ldr	r0, [r0, #20]
     e68:	a901      	add	r1, sp, #4
     e6a:	f7ff fcab 	bl	7c4 <kTCBQRem>
     e6e:	b980      	cbnz	r0, e92 <kTimeOutReadyTask+0x3a>
     e70:	2014      	movs	r0, #20
     e72:	9901      	ldr	r1, [sp, #4]
     e74:	4b1a      	ldr	r3, [pc, #104]	@ (ee0 <kTimeOutReadyTask+0x88>)
     e76:	7f4a      	ldrb	r2, [r1, #29]
     e78:	fb00 3002 	mla	r0, r0, r2, r3
     e7c:	f7ff fd84 	bl	988 <kTCBQEnq>
     e80:	b920      	cbnz	r0, e8c <kTimeOutReadyTask+0x34>
     e82:	9b01      	ldr	r3, [sp, #4]
     e84:	631c      	str	r4, [r3, #48]	@ 0x30
     e86:	605c      	str	r4, [r3, #4]
     e88:	6458      	str	r0, [r3, #68]	@ 0x44
     e8a:	6518      	str	r0, [r3, #80]	@ 0x50
     e8c:	2000      	movs	r0, #0
     e8e:	b002      	add	sp, #8
     e90:	bd10      	pop	{r4, pc}
     e92:	9901      	ldr	r1, [sp, #4]
     e94:	6c4b      	ldr	r3, [r1, #68]	@ 0x44
     e96:	2b04      	cmp	r3, #4
     e98:	d10d      	bne.n	eb6 <kTimeOutReadyTask+0x5e>
     e9a:	2014      	movs	r0, #20
     e9c:	7f4a      	ldrb	r2, [r1, #29]
     e9e:	4b10      	ldr	r3, [pc, #64]	@ (ee0 <kTimeOutReadyTask+0x88>)
     ea0:	fb00 3002 	mla	r0, r0, r2, r3
     ea4:	f7ff fd70 	bl	988 <kTCBQEnq>
     ea8:	b928      	cbnz	r0, eb6 <kTimeOutReadyTask+0x5e>
     eaa:	2201      	movs	r2, #1
     eac:	9b01      	ldr	r3, [sp, #4]
     eae:	6318      	str	r0, [r3, #48]	@ 0x30
     eb0:	605a      	str	r2, [r3, #4]
     eb2:	6458      	str	r0, [r3, #68]	@ 0x44
     eb4:	e7ea      	b.n	e8c <kTimeOutReadyTask+0x34>
     eb6:	9901      	ldr	r1, [sp, #4]
     eb8:	6c4b      	ldr	r3, [r1, #68]	@ 0x44
     eba:	2b02      	cmp	r3, #2
     ebc:	d002      	beq.n	ec4 <kTimeOutReadyTask+0x6c>
     ebe:	f04f 30ff 	mov.w	r0, #4294967295	@ 0xffffffff
     ec2:	e7e4      	b.n	e8e <kTimeOutReadyTask+0x36>
     ec4:	2014      	movs	r0, #20
     ec6:	7f4a      	ldrb	r2, [r1, #29]
     ec8:	4b05      	ldr	r3, [pc, #20]	@ (ee0 <kTimeOutReadyTask+0x88>)
     eca:	fb00 3002 	mla	r0, r0, r2, r3
     ece:	f7ff fd5b 	bl	988 <kTCBQEnq>
     ed2:	2800      	cmp	r0, #0
     ed4:	d1f3      	bne.n	ebe <kTimeOutReadyTask+0x66>
     ed6:	2201      	movs	r2, #1
     ed8:	9b01      	ldr	r3, [sp, #4]
     eda:	631a      	str	r2, [r3, #48]	@ 0x30
     edc:	e7e8      	b.n	eb0 <kTimeOutReadyTask+0x58>
     ede:	bf00      	nop
     ee0:	20000e2c 	andcs	r0, r0, ip, lsr #28

00000ee4 <kRemoveTimeoutNode>:
     ee4:	b510      	push	{r4, lr}
     ee6:	b168      	cbz	r0, f04 <kRemoveTimeoutNode+0x20>
     ee8:	6803      	ldr	r3, [r0, #0]
     eea:	b12b      	cbz	r3, ef8 <kRemoveTimeoutNode+0x14>
     eec:	6904      	ldr	r4, [r0, #16]
     eee:	691a      	ldr	r2, [r3, #16]
     ef0:	6841      	ldr	r1, [r0, #4]
     ef2:	4422      	add	r2, r4
     ef4:	611a      	str	r2, [r3, #16]
     ef6:	6059      	str	r1, [r3, #4]
     ef8:	6842      	ldr	r2, [r0, #4]
     efa:	b122      	cbz	r2, f06 <kRemoveTimeoutNode+0x22>
     efc:	6013      	str	r3, [r2, #0]
     efe:	2300      	movs	r3, #0
     f00:	e9c0 3300 	strd	r3, r3, [r0]
     f04:	bd10      	pop	{r4, pc}
     f06:	4a01      	ldr	r2, [pc, #4]	@ (f0c <kRemoveTimeoutNode+0x28>)
     f08:	e7f8      	b.n	efc <kRemoveTimeoutNode+0x18>
     f0a:	bf00      	nop
     f0c:	20000c34 	andcs	r0, r0, r4, lsr ip

00000f10 <kHandleTimeoutList>:
     f10:	b538      	push	{r3, r4, r5, lr}
     f12:	4c0d      	ldr	r4, [pc, #52]	@ (f48 <kHandleTimeoutList+0x38>)
     f14:	6823      	ldr	r3, [r4, #0]
     f16:	691a      	ldr	r2, [r3, #16]
     f18:	b112      	cbz	r2, f20 <kHandleTimeoutList+0x10>
     f1a:	691a      	ldr	r2, [r3, #16]
     f1c:	3a01      	subs	r2, #1
     f1e:	611a      	str	r2, [r3, #16]
     f20:	f04f 33ff 	mov.w	r3, #4294967295	@ 0xffffffff
     f24:	4d09      	ldr	r5, [pc, #36]	@ (f4c <kHandleTimeoutList+0x3c>)
     f26:	6820      	ldr	r0, [r4, #0]
     f28:	b108      	cbz	r0, f2e <kHandleTimeoutList+0x1e>
     f2a:	6902      	ldr	r2, [r0, #16]
     f2c:	b11a      	cbz	r2, f36 <kHandleTimeoutList+0x26>
     f2e:	fab3 f083 	clz	r0, r3
     f32:	0940      	lsrs	r0, r0, #5
     f34:	bd38      	pop	{r3, r4, r5, pc}
     f36:	6803      	ldr	r3, [r0, #0]
     f38:	6028      	str	r0, [r5, #0]
     f3a:	6023      	str	r3, [r4, #0]
     f3c:	f7ff ffd2 	bl	ee4 <kRemoveTimeoutNode>
     f40:	f7ff ff8a 	bl	e58 <kTimeOutReadyTask>
     f44:	4603      	mov	r3, r0
     f46:	e7ee      	b.n	f26 <kHandleTimeoutList+0x16>
     f48:	20000c34 	andcs	r0, r0, r4, lsr ip
     f4c:	2000106c 	andcs	r1, r0, ip, rrx

00000f50 <kGetVersion>:
     f50:	f44f 6080 	mov.w	r0, #1024	@ 0x400
     f54:	4770      	bx	lr
	...

00000f58 <kErrHandler>:
     f58:	4b01      	ldr	r3, [pc, #4]	@ (f60 <kErrHandler+0x8>)
     f5a:	6018      	str	r0, [r3, #0]
     f5c:	b672      	cpsid	i
     f5e:	e7fe      	b.n	f5e <kErrHandler+0x6>
     f60:	20001070 	andcs	r1, r0, r0, ror r0

00000f64 <memset>:
     f64:	4603      	mov	r3, r0
     f66:	4402      	add	r2, r0
     f68:	4293      	cmp	r3, r2
     f6a:	d100      	bne.n	f6e <memset+0xa>
     f6c:	4770      	bx	lr
     f6e:	f803 1b01 	strb.w	r1, [r3], #1
     f72:	e7f9      	b.n	f68 <memset+0x4>

00000f74 <memcpy>:
     f74:	440a      	add	r2, r1
     f76:	4291      	cmp	r1, r2
     f78:	f100 33ff 	add.w	r3, r0, #4294967295	@ 0xffffffff
     f7c:	d100      	bne.n	f80 <memcpy+0xc>
     f7e:	4770      	bx	lr
     f80:	b510      	push	{r4, lr}
     f82:	f811 4b01 	ldrb.w	r4, [r1], #1
     f86:	4291      	cmp	r1, r2
     f88:	f803 4f01 	strb.w	r4, [r3, #1]!
     f8c:	d1f9      	bne.n	f82 <memcpy+0xe>
     f8e:	bd10      	pop	{r4, pc}
     f90:	6b736154 	blvs	1cd94e8 <__exidx_end+0x1cd84a4>
     f94:	77203120 	strvc	r3, [r0, -r0, lsr #2]!
     f98:	206c6c69 	rsbcs	r6, ip, r9, ror #24
     f9c:	636f6c62 	cmnvs	pc, #25088	@ 0x6200
     fa0:	000d0a6b 	andeq	r0, sp, fp, ror #20
     fa4:	6b736154 	blvs	1cd94fc <__exidx_end+0x1cd84b8>
     fa8:	53203120 			@ <UNDEFINED> instruction: 0x53203120
     fac:	616e6769 	cmnvs	lr, r9, ror #14
     fb0:	64656c6c 	strbtvs	r6, [r5], #-3180	@ 0xfffff394
     fb4:	54000d0a 	strpl	r0, [r0], #-3338	@ 0xfffff2f6
     fb8:	206b7361 	rsbcs	r7, fp, r1, ror #6
     fbc:	75722032 	ldrbvc	r2, [r2, #-50]!	@ 0xffffffce
     fc0:	6e696e6e 	cdpvs	14, 6, cr6, cr9, cr14, {3}
     fc4:	000a0d67 	andeq	r0, sl, r7, ror #26
     fc8:	6f626f4e 	svcvs	0x00626f4e
     fcc:	63207964 			@ <UNDEFINED> instruction: 0x63207964
     fd0:	73657261 	cmnvc	r5, #268435462	@ 0x10000006
     fd4:	6f626120 	svcvs	0x00626120
     fd8:	54207475 	strtpl	r7, [r0], #-1141	@ 0xfffffb8b
     fdc:	336b7361 	cmncc	fp, #-2080374783	@ 0x84000001
     fe0:	0a2e2e2e 	beq	b8c8a0 <__exidx_end+0xb8b85c>
     fe4:	6154000d 	cmpvs	r4, sp
     fe8:	20336b73 	eorscs	r6, r3, r3, ror fp
     fec:	656d6974 	strbvs	r6, [sp, #-2420]!	@ 0xfffff68c
     ff0:	756f2d64 	strbvc	r2, [pc, #-3428]!	@ 294 <main+0x70>
     ff4:	61202c74 			@ <UNDEFINED> instruction: 0x61202c74
     ff8:	656e6f6c 	strbvs	r6, [lr, #-3948]!	@ 0xfffff094
     ffc:	000d0a2e 	andeq	r0, sp, lr, lsr #20
    1000:	6b736154 	blvs	1cd9558 <__exidx_end+0x1cd8514>
    1004:	61540031 	cmpvs	r4, r1, lsr r0
    1008:	00326b73 	eorseq	r6, r2, r3, ror fp
    100c:	6b736154 	blvs	1cd9564 <__exidx_end+0x1cd8520>
    1010:	616d0033 	cmnvs	sp, r3, lsr r0
    1014:	00716c69 	rsbseq	r6, r1, r9, ror #24
    1018:	656c6449 	strbvs	r6, [ip, #-1097]!	@ 0xfffffbb7
    101c:	6b736154 	blvs	1cd9574 <__exidx_end+0x1cd8530>
    1020:	6d695400 	cfstrdvs	mvd5, [r9, #-0]
    1024:	646e6148 	strbtvs	r6, [lr], #-328	@ 0xfffffeb8
    1028:	5472656c 	ldrbtpl	r6, [r2], #-1388	@ 0xfffffa94
    102c:	006b7361 	rsbeq	r7, fp, r1, ror #6
    1030:	64616552 	strbtvs	r6, [r1], #-1362	@ 0xfffffaae
    1034:	 	andeq	r5, r0, r9, ror r1

00001037 <KVERSION>:
    1037:	00000400 	andeq	r0, r0, r0, lsl #8
	...

Disassembly of section .init:

0000103c <_init>:
    103c:	b5f8      	push	{r3, r4, r5, r6, r7, lr}
    103e:	bf00      	nop

Disassembly of section .fini:

00001040 <_fini>:
    1040:	b5f8      	push	{r3, r4, r5, r6, r7, lr}
    1042:	bf00      	nop
