
Build/rk0_app.elf:     file format elf32-littlearm


Disassembly of section .text:

00000000 <g_pfnVectors>:
       0:	20010000 	andcs	r0, r1, r0
       4:	000002dd 	ldrdeq	r0, [r0], -sp
       8:	000002d9 	ldrdeq	r0, [r0], -r9
       c:	000002d9 	ldrdeq	r0, [r0], -r9
      10:	000002d9 	ldrdeq	r0, [r0], -r9
      14:	000002d9 	ldrdeq	r0, [r0], -r9
      18:	000002d9 	ldrdeq	r0, [r0], -r9
	...
      2c:	00000071 	andeq	r0, r0, r1, ror r0
      30:	000002d9 	ldrdeq	r0, [r0], -r9
      34:	00000000 	andeq	r0, r0, r0
      38:	0000010f 	andeq	r0, r0, pc, lsl #2
      3c:	000000cd 	andeq	r0, r0, sp, asr #1
      40:	000002d9 	ldrdeq	r0, [r0], -r9
      44:	000002d9 	ldrdeq	r0, [r0], -r9
      48:	000002d9 	ldrdeq	r0, [r0], -r9
      4c:	000002d9 	ldrdeq	r0, [r0], -r9
      50:	000002d9 	ldrdeq	r0, [r0], -r9
      54:	000002d9 	ldrdeq	r0, [r0], -r9
      58:	000002d9 	ldrdeq	r0, [r0], -r9
      5c:	00000000 	andeq	r0, r0, r0

00000060 <__getReadyPrio>:
      60:	fab0 fc80 	clz	ip, r0
      64:	4660      	mov	r0, ip
      66:	f1c0 0000 	rsb	r0, r0, #0
      6a:	f100 001f 	add.w	r0, r0, #31
      6e:	4770      	bx	lr

00000070 <SVC_Handler>:
      70:	f01e 0f04 	tst.w	lr, #4
      74:	d109      	bne.n	8a <ERR>
      76:	f3ef 8c08 	mrs	ip, MSP
      7a:	f8dc 1018 	ldr.w	r1, [ip, #24]
      7e:	f811 cc02 	ldrb.w	ip, [r1, #-2]
      82:	f1bc 0faa 	cmp.w	ip, #170	@ 0xaa
      86:	f000 8004 	beq.w	92 <USRSTARTUP>

0000008a <ERR>:
      8a:	f04f 00ff 	mov.w	r0, #255	@ 0xff
      8e:	f000 ff63 	bl	f58 <kErrHandler>

00000092 <USRSTARTUP>:
      92:	b672      	cpsid	i
      94:	2002      	movs	r0, #2
      96:	f380 8814 	msr	CONTROL, r0
      9a:	f3bf 8f4f 	dsb	sy
      9e:	492e      	ldr	r1, [pc, #184]	@ (158 <PendSV_Handler+0x4a>)
      a0:	680a      	ldr	r2, [r1, #0]
      a2:	f05f 0c02 	movs.w	ip, #2
      a6:	f8c2 c004 	str.w	ip, [r2, #4]
      aa:	f05f 0c01 	movs.w	ip, #1
      ae:	f8c2 c008 	str.w	ip, [r2, #8]
      b2:	6812      	ldr	r2, [r2, #0]
      b4:	e8b2 0ff0 	ldmia.w	r2!, {r4, r5, r6, r7, r8, r9, sl, fp}
      b8:	f382 8809 	msr	PSP, r2
      bc:	f06f 0e02 	mvn.w	lr, #2
      c0:	f3bf 8f4f 	dsb	sy
      c4:	b662      	cpsie	i
      c6:	f3bf 8f6f 	isb	sy
      ca:	4770      	bx	lr

000000cc <SysTick_Handler>:
      cc:	b672      	cpsid	i
      ce:	b501      	push	{r0, lr}
      d0:	f000 fd56 	bl	b80 <kTickHandler>
      d4:	2801      	cmp	r0, #1
      d6:	d00e      	beq.n	f6 <SWITCH>
      d8:	e8bd 4001 	ldmia.w	sp!, {r0, lr}
      dc:	f11e 0f0f 	cmn.w	lr, #15
      e0:	d005      	beq.n	ee <RESUMEISR>

000000e2 <RESUMETASK>:
      e2:	f3bf 8f4f 	dsb	sy
      e6:	b662      	cpsie	i
      e8:	f3bf 8f6f 	isb	sy
      ec:	4770      	bx	lr

000000ee <RESUMEISR>:
      ee:	b662      	cpsie	i
      f0:	f3bf 8f6f 	isb	sy
      f4:	4770      	bx	lr

000000f6 <SWITCH>:
      f6:	e8bd 4001 	ldmia.w	sp!, {r0, lr}
      fa:	4818      	ldr	r0, [pc, #96]	@ (15c <PendSV_Handler+0x4e>)
      fc:	f04f 5180 	mov.w	r1, #268435456	@ 0x10000000
     100:	6001      	str	r1, [r0, #0]
     102:	f3bf 8f4f 	dsb	sy
     106:	b662      	cpsie	i
     108:	f3bf 8f6f 	isb	sy
     10c:	4770      	bx	lr

0000010e <PendSV_Handler>:
     10e:	b672      	cpsid	i
     110:	f3ef 8c09 	mrs	ip, PSP
     114:	e92c 0ff0 	stmdb	ip!, {r4, r5, r6, r7, r8, r9, sl, fp}
     118:	480f      	ldr	r0, [pc, #60]	@ (158 <PendSV_Handler+0x4a>)
     11a:	6801      	ldr	r1, [r0, #0]
     11c:	f8c1 c000 	str.w	ip, [r1]
     120:	f8c1 e00c 	str.w	lr, [r1, #12]
     124:	f000 fcfc 	bl	b20 <kSchSwtch>
     128:	480b      	ldr	r0, [pc, #44]	@ (158 <PendSV_Handler+0x4a>)
     12a:	6801      	ldr	r1, [r0, #0]
     12c:	688b      	ldr	r3, [r1, #8]
     12e:	f103 0301 	add.w	r3, r3, #1
     132:	608b      	str	r3, [r1, #8]
     134:	f04f 0c02 	mov.w	ip, #2
     138:	f8c1 c004 	str.w	ip, [r1, #4]
     13c:	f8d1 e00c 	ldr.w	lr, [r1, #12]
     140:	680a      	ldr	r2, [r1, #0]
     142:	e8b2 0ff0 	ldmia.w	r2!, {r4, r5, r6, r7, r8, r9, sl, fp}
     146:	f382 8809 	msr	PSP, r2
     14a:	f3bf 8f4f 	dsb	sy
     14e:	b662      	cpsie	i
     150:	f3bf 8f6f 	isb	sy
     154:	4770      	bx	lr
     156:	0e280000 	cdpeq	0, 2, cr0, cr8, cr0, {0}
     15a:	ed042000 	stc	0, cr2, [r4, #-0]
     15e:	 	ldrlt	lr, [r0, #-0]

00000160 <kPuts>:
     160:	b510      	push	{r4, lr}
     162:	f04f 23e0 	mov.w	r3, #3758153728	@ 0xe000e000
     166:	f04f 34ff 	mov.w	r4, #4294967295	@ 0xffffffff
     16a:	4907      	ldr	r1, [pc, #28]	@ (188 <kPuts+0x28>)
     16c:	3801      	subs	r0, #1
     16e:	f810 2f01 	ldrb.w	r2, [r0, #1]!
     172:	b902      	cbnz	r2, 176 <kPuts+0x16>
     174:	bd10      	pop	{r4, pc}
     176:	691a      	ldr	r2, [r3, #16]
     178:	f022 0201 	bic.w	r2, r2, #1
     17c:	611a      	str	r2, [r3, #16]
     17e:	7802      	ldrb	r2, [r0, #0]
     180:	600a      	str	r2, [r1, #0]
     182:	691a      	ldr	r2, [r3, #16]
     184:	611c      	str	r4, [r3, #16]
     186:	e7f2      	b.n	16e <kPuts+0xe>
     188:	4000c000 	andmi	ip, r0, r0

0000018c <kApplicationInit>:
     18c:	2100      	movs	r1, #0
     18e:	4801      	ldr	r0, [pc, #4]	@ (194 <kApplicationInit+0x8>)
     190:	f000 b8f0 	b.w	374 <kMboxInit>
     194:	20000c00 	andcs	r0, r0, r0, lsl #24

00000198 <Task1>:
     198:	b573      	push	{r0, r1, r4, r5, r6, lr}
     19a:	4e09      	ldr	r6, [pc, #36]	@ (1c0 <Task1+0x28>)
     19c:	4d09      	ldr	r5, [pc, #36]	@ (1c4 <Task1+0x2c>)
     19e:	4c0a      	ldr	r4, [pc, #40]	@ (1c8 <Task1+0x30>)
     1a0:	4630      	mov	r0, r6
     1a2:	f7ff ffdd 	bl	160 <kPuts>
     1a6:	f04f 32ff 	mov.w	r2, #4294967295	@ 0xffffffff
     1aa:	a901      	add	r1, sp, #4
     1ac:	4628      	mov	r0, r5
     1ae:	f000 f9a5 	bl	4fc <kMboxPend>
     1b2:	4620      	mov	r0, r4
     1b4:	f7ff ffd4 	bl	160 <kPuts>
     1b8:	2021      	movs	r0, #33	@ 0x21
     1ba:	f000 fe09 	bl	dd0 <kSleepUntil>
     1be:	e7ef      	b.n	1a0 <Task1+0x8>
     1c0:	00000f90 	muleq	r0, r0, pc	@ <UNPREDICTABLE>
     1c4:	20000c00 	andcs	r0, r0, r0, lsl #24
     1c8:	00000fa4 	andeq	r0, r0, r4, lsr #31

000001cc <Task2>:
     1cc:	2301      	movs	r3, #1
     1ce:	b507      	push	{r0, r1, r2, lr}
     1d0:	4d07      	ldr	r5, [pc, #28]	@ (1f0 <Task2+0x24>)
     1d2:	4c08      	ldr	r4, [pc, #32]	@ (1f4 <Task2+0x28>)
     1d4:	9301      	str	r3, [sp, #4]
     1d6:	4628      	mov	r0, r5
     1d8:	f7ff ffc2 	bl	160 <kPuts>
     1dc:	f04f 32ff 	mov.w	r2, #4294967295	@ 0xffffffff
     1e0:	4620      	mov	r0, r4
     1e2:	a901      	add	r1, sp, #4
     1e4:	f000 f8ee 	bl	3c4 <kMboxPost>
     1e8:	2011      	movs	r0, #17
     1ea:	f000 fdf1 	bl	dd0 <kSleepUntil>
     1ee:	e7f2      	b.n	1d6 <Task2+0xa>
     1f0:	00000fb7 			@ <UNDEFINED> instruction: 0x00000fb7
     1f4:	20000c00 	andcs	r0, r0, r0, lsl #24

000001f8 <Task3>:
     1f8:	b538      	push	{r3, r4, r5, lr}
     1fa:	4c08      	ldr	r4, [pc, #32]	@ (21c <Task3+0x24>)
     1fc:	4d08      	ldr	r5, [pc, #32]	@ (220 <Task3+0x28>)
     1fe:	4620      	mov	r0, r4
     200:	f7ff ffae 	bl	160 <kPuts>
     204:	2027      	movs	r0, #39	@ 0x27
     206:	f000 fcfb 	bl	c00 <kPend>
     20a:	3019      	adds	r0, #25
     20c:	d102      	bne.n	214 <Task3+0x1c>
     20e:	4628      	mov	r0, r5
     210:	f7ff ffa6 	bl	160 <kPuts>
     214:	200f      	movs	r0, #15
     216:	f000 fdb7 	bl	d88 <kSleep>
     21a:	e7f0      	b.n	1fe <Task3+0x6>
     21c:	00000fc8 	andeq	r0, r0, r8, asr #31
     220:	00000fe6 	andeq	r0, r0, r6, ror #31

00000224 <main>:
     224:	b51f      	push	{r0, r1, r2, r3, r4, lr}
     226:	481f      	ldr	r0, [pc, #124]	@ (2a4 <main+0x80>)
     228:	f000 f894 	bl	354 <kCoreSysTickConfig>
     22c:	f04f 22e0 	mov.w	r2, #3758153728	@ 0xe000e000
     230:	2400      	movs	r4, #0
     232:	2601      	movs	r6, #1
     234:	f44f 7580 	mov.w	r5, #256	@ 0x100
     238:	6913      	ldr	r3, [r2, #16]
     23a:	2107      	movs	r1, #7
     23c:	f023 0301 	bic.w	r3, r3, #1
     240:	6113      	str	r3, [r2, #16]
     242:	f06f 0004 	mvn.w	r0, #4
     246:	f000 f871 	bl	32c <kCoreSetInterruptPriority>
     24a:	2108      	movs	r1, #8
     24c:	f04f 30ff 	mov.w	r0, #4294967295	@ 0xffffffff
     250:	f000 f86c 	bl	32c <kCoreSetInterruptPriority>
     254:	210a      	movs	r1, #10
     256:	f06f 0001 	mvn.w	r0, #1
     25a:	f000 f867 	bl	32c <kCoreSetInterruptPriority>
     25e:	4b12      	ldr	r3, [pc, #72]	@ (2a8 <main+0x84>)
     260:	4a12      	ldr	r2, [pc, #72]	@ (2ac <main+0x88>)
     262:	4913      	ldr	r1, [pc, #76]	@ (2b0 <main+0x8c>)
     264:	e9cd 6402 	strd	r6, r4, [sp, #8]
     268:	4812      	ldr	r0, [pc, #72]	@ (2b4 <main+0x90>)
     26a:	9401      	str	r4, [sp, #4]
     26c:	9500      	str	r5, [sp, #0]
     26e:	f000 fafd 	bl	86c <kCreateTask>
     272:	4b11      	ldr	r3, [pc, #68]	@ (2b8 <main+0x94>)
     274:	4a11      	ldr	r2, [pc, #68]	@ (2bc <main+0x98>)
     276:	4912      	ldr	r1, [pc, #72]	@ (2c0 <main+0x9c>)
     278:	e9cd 6402 	strd	r6, r4, [sp, #8]
     27c:	e9cd 5400 	strd	r5, r4, [sp]
     280:	4810      	ldr	r0, [pc, #64]	@ (2c4 <main+0xa0>)
     282:	f000 faf3 	bl	86c <kCreateTask>
     286:	4b10      	ldr	r3, [pc, #64]	@ (2c8 <main+0xa4>)
     288:	4a10      	ldr	r2, [pc, #64]	@ (2cc <main+0xa8>)
     28a:	4911      	ldr	r1, [pc, #68]	@ (2d0 <main+0xac>)
     28c:	e9cd 6402 	strd	r6, r4, [sp, #8]
     290:	e9cd 5400 	strd	r5, r4, [sp]
     294:	480f      	ldr	r0, [pc, #60]	@ (2d4 <main+0xb0>)
     296:	f000 fae9 	bl	86c <kCreateTask>
     29a:	f000 fbc5 	bl	a28 <kInit>
     29e:	be00      	bkpt	0x0000
     2a0:	e7fd      	b.n	29e <main+0x7a>
     2a2:	bf00      	nop
     2a4:	0003d090 	muleq	r3, r0, r0
     2a8:	20000800 	andcs	r0, r0, r0, lsl #16
     2ac:	00001000 	andeq	r1, r0, r0
     2b0:	00000199 	muleq	r0, r9, r1
     2b4:	20000c2c 	andcs	r0, r0, ip, lsr #24
     2b8:	20000400 	andcs	r0, r0, r0, lsl #8
     2bc:	00001006 	andeq	r1, r0, r6
     2c0:	000001cd 	andeq	r0, r0, sp, asr #3
     2c4:	20000c28 	andcs	r0, r0, r8, lsr #24
     2c8:	20000000 	andcs	r0, r0, r0
     2cc:	0000100c 	andeq	r1, r0, ip
     2d0:	000001f9 	strdeq	r0, [r0], -r9
     2d4:	20000c24 	andcs	r0, r0, r4, lsr #24

000002d8 <Default_Handler>:
     2d8:	e7fe      	b.n	2d8 <Default_Handler>
	...

000002dc <Reset_Handler>:
     2dc:	b508      	push	{r3, lr}
     2de:	4b0e      	ldr	r3, [pc, #56]	@ (318 <Reset_Handler+0x3c>)
     2e0:	480e      	ldr	r0, [pc, #56]	@ (31c <Reset_Handler+0x40>)
     2e2:	1cda      	adds	r2, r3, #3
     2e4:	1a12      	subs	r2, r2, r0
     2e6:	1ec1      	subs	r1, r0, #3
     2e8:	f022 0203 	bic.w	r2, r2, #3
     2ec:	428b      	cmp	r3, r1
     2ee:	bf38      	it	cc
     2f0:	2200      	movcc	r2, #0
     2f2:	490b      	ldr	r1, [pc, #44]	@ (320 <Reset_Handler+0x44>)
     2f4:	f000 fe3e 	bl	f74 <memcpy>
     2f8:	4b0a      	ldr	r3, [pc, #40]	@ (324 <Reset_Handler+0x48>)
     2fa:	480b      	ldr	r0, [pc, #44]	@ (328 <Reset_Handler+0x4c>)
     2fc:	1cda      	adds	r2, r3, #3
     2fe:	1a12      	subs	r2, r2, r0
     300:	1ec1      	subs	r1, r0, #3
     302:	f022 0203 	bic.w	r2, r2, #3
     306:	4299      	cmp	r1, r3
     308:	bf88      	it	hi
     30a:	2200      	movhi	r2, #0
     30c:	2100      	movs	r1, #0
     30e:	f000 fe29 	bl	f64 <memset>
     312:	f7ff ff87 	bl	224 <main>
     316:	e7fe      	b.n	316 <Reset_Handler+0x3a>
     318:	20000000 	andcs	r0, r0, r0
     31c:	20000000 	andcs	r0, r0, r0
     320:	00001044 	andeq	r1, r0, r4, asr #32
     324:	20001074 	andcs	r1, r0, r4, ror r0
     328:	20000000 	andcs	r0, r0, r0

0000032c <kCoreSetInterruptPriority>:
     32c:	2800      	cmp	r0, #0
     32e:	bfac      	ite	ge
     330:	f100 4060 	addge.w	r0, r0, #3758096384	@ 0xe0000000
     334:	4b06      	ldrlt	r3, [pc, #24]	@ (350 <kCoreSetInterruptPriority+0x24>)
     336:	ea4f 1101 	mov.w	r1, r1, lsl #4
     33a:	b2c9      	uxtb	r1, r1
     33c:	bfb5      	itete	lt
     33e:	f000 000f 	andlt.w	r0, r0, #15
     342:	f500 4061 	addge.w	r0, r0, #57600	@ 0xe100
     346:	5419      	strblt	r1, [r3, r0]
     348:	f880 1300 	strbge.w	r1, [r0, #768]	@ 0x300
     34c:	4770      	bx	lr
     34e:	bf00      	nop
     350:	e000ed14 	and	lr, r0, r4, lsl sp

00000354 <kCoreSysTickConfig>:
     354:	3801      	subs	r0, #1
     356:	f1b0 7f80 	cmp.w	r0, #16777216	@ 0x1000000
     35a:	bf3f      	itttt	cc
     35c:	f04f 23e0 	movcc.w	r3, #3758153728	@ 0xe000e000
     360:	2207      	movcc	r2, #7
     362:	6158      	strcc	r0, [r3, #20]
     364:	2000      	movcc	r0, #0
     366:	bf36      	itet	cc
     368:	6198      	strcc	r0, [r3, #24]
     36a:	f04f 30ff 	movcs.w	r0, #4294967295	@ 0xffffffff
     36e:	611a      	strcc	r2, [r3, #16]
     370:	4770      	bx	lr
	...

00000374 <kMboxInit>:
     374:	b570      	push	{r4, r5, r6, lr}
     376:	4604      	mov	r4, r0
     378:	460d      	mov	r5, r1
     37a:	f000 faef 	bl	95c <kEnterCR>
     37e:	4606      	mov	r6, r0
     380:	b94c      	cbnz	r4, 396 <kMboxInit+0x22>
     382:	f06f 0001 	mvn.w	r0, #1
     386:	f000 fde7 	bl	f58 <kErrHandler>
     38a:	4630      	mov	r0, r6
     38c:	f000 faf4 	bl	978 <kExitCR>
     390:	f04f 30ff 	mov.w	r0, #4294967295	@ 0xffffffff
     394:	bd70      	pop	{r4, r5, r6, pc}
     396:	f104 030c 	add.w	r3, r4, #12
     39a:	e9c4 3303 	strd	r3, r3, [r4, #12]
     39e:	4b08      	ldr	r3, [pc, #32]	@ (3c0 <kMboxInit+0x4c>)
     3a0:	60a5      	str	r5, [r4, #8]
     3a2:	6163      	str	r3, [r4, #20]
     3a4:	2500      	movs	r5, #0
     3a6:	2301      	movs	r3, #1
     3a8:	e9c4 5306 	strd	r5, r3, [r4, #24]
     3ac:	f3bf 8f5f 	dmb	sy
     3b0:	6063      	str	r3, [r4, #4]
     3b2:	2304      	movs	r3, #4
     3b4:	6023      	str	r3, [r4, #0]
     3b6:	f000 fadf 	bl	978 <kExitCR>
     3ba:	4628      	mov	r0, r5
     3bc:	e7ea      	b.n	394 <kMboxInit+0x20>
     3be:	bf00      	nop
     3c0:	00001012 	andeq	r1, r0, r2, lsl r0

000003c4 <kMboxPost>:
     3c4:	e92d 47f3 	stmdb	sp!, {r0, r1, r4, r5, r6, r7, r8, r9, sl, lr}
     3c8:	4604      	mov	r4, r0
     3ca:	460f      	mov	r7, r1
     3cc:	4616      	mov	r6, r2
     3ce:	f000 fac5 	bl	95c <kEnterCR>
     3d2:	f3ef 8305 	mrs	r3, IPSR
     3d6:	4605      	mov	r5, r0
     3d8:	f3bf 8f5f 	dmb	sy
     3dc:	b123      	cbz	r3, 3e8 <kMboxPost+0x24>
     3de:	b11e      	cbz	r6, 3e8 <kMboxPost+0x24>
     3e0:	f06f 0014 	mvn.w	r0, #20
     3e4:	f000 fdb8 	bl	f58 <kErrHandler>
     3e8:	b104      	cbz	r4, 3ec <kMboxPost+0x28>
     3ea:	b91f      	cbnz	r7, 3f4 <kMboxPost+0x30>
     3ec:	f06f 0001 	mvn.w	r0, #1
     3f0:	f000 fdb2 	bl	f58 <kErrHandler>
     3f4:	6863      	ldr	r3, [r4, #4]
     3f6:	b91b      	cbnz	r3, 400 <kMboxPost+0x3c>
     3f8:	f06f 0002 	mvn.w	r0, #2
     3fc:	f000 fdac 	bl	f58 <kErrHandler>
     400:	68a3      	ldr	r3, [r4, #8]
     402:	2b00      	cmp	r3, #0
     404:	d042      	beq.n	48c <kMboxPost+0xc8>
     406:	b93e      	cbnz	r6, 418 <kMboxPost+0x54>
     408:	4628      	mov	r0, r5
     40a:	f000 fab5 	bl	978 <kExitCR>
     40e:	f06f 001d 	mvn.w	r0, #29
     412:	b002      	add	sp, #8
     414:	e8bd 87f0 	ldmia.w	sp!, {r4, r5, r6, r7, r8, r9, sl, pc}
     418:	f8df 80d4 	ldr.w	r8, [pc, #212]	@ 4f0 <kMboxPost+0x12c>
     41c:	f104 0a0c 	add.w	sl, r4, #12
     420:	4650      	mov	r0, sl
     422:	f8d8 1000 	ldr.w	r1, [r8]
     426:	f000 faaf 	bl	988 <kTCBQEnq>
     42a:	2306      	movs	r3, #6
     42c:	f8d8 0000 	ldr.w	r0, [r8]
     430:	f106 39ff 	add.w	r9, r6, #4294967295	@ 0xffffffff
     434:	6043      	str	r3, [r0, #4]
     436:	1c73      	adds	r3, r6, #1
     438:	d007      	beq.n	44a <kMboxPost+0x86>
     43a:	2301      	movs	r3, #1
     43c:	f8c0 a050 	str.w	sl, [r0, #80]	@ 0x50
     440:	6443      	str	r3, [r0, #68]	@ 0x44
     442:	4631      	mov	r1, r6
     444:	303c      	adds	r0, #60	@ 0x3c
     446:	f000 fc59 	bl	cfc <kTimeOut>
     44a:	4a2a      	ldr	r2, [pc, #168]	@ (4f4 <kMboxPost+0x130>)
     44c:	6853      	ldr	r3, [r2, #4]
     44e:	f043 5380 	orr.w	r3, r3, #268435456	@ 0x10000000
     452:	6053      	str	r3, [r2, #4]
     454:	f3bf 8f4f 	dsb	sy
     458:	f3bf 8f6f 	isb	sy
     45c:	4628      	mov	r0, r5
     45e:	f000 fa8b 	bl	978 <kExitCR>
     462:	f000 fa7b 	bl	95c <kEnterCR>
     466:	f8d8 3000 	ldr.w	r3, [r8]
     46a:	4605      	mov	r5, r0
     46c:	6b1a      	ldr	r2, [r3, #48]	@ 0x30
     46e:	b132      	cbz	r2, 47e <kMboxPost+0xba>
     470:	2200      	movs	r2, #0
     472:	631a      	str	r2, [r3, #48]	@ 0x30
     474:	f000 fa80 	bl	978 <kExitCR>
     478:	f06f 0018 	mvn.w	r0, #24
     47c:	e7c9      	b.n	412 <kMboxPost+0x4e>
     47e:	f119 0f02 	cmn.w	r9, #2
     482:	d003      	beq.n	48c <kMboxPost+0xc8>
     484:	f103 003c 	add.w	r0, r3, #60	@ 0x3c
     488:	f000 fd2c 	bl	ee4 <kRemoveTimeoutNode>
     48c:	69a3      	ldr	r3, [r4, #24]
     48e:	60a7      	str	r7, [r4, #8]
     490:	b34b      	cbz	r3, 4e6 <kMboxPost+0x122>
     492:	340c      	adds	r4, #12
     494:	4620      	mov	r0, r4
     496:	f000 f9cd 	bl	834 <kTCBQPeek>
     49a:	6843      	ldr	r3, [r0, #4]
     49c:	9001      	str	r0, [sp, #4]
     49e:	2b07      	cmp	r3, #7
     4a0:	d121      	bne.n	4e6 <kMboxPost+0x122>
     4a2:	4620      	mov	r0, r4
     4a4:	a901      	add	r1, sp, #4
     4a6:	f000 f959 	bl	75c <kTCBQDeq>
     4aa:	9801      	ldr	r0, [sp, #4]
     4ac:	b908      	cbnz	r0, 4b2 <kMboxPost+0xee>
     4ae:	f000 fd53 	bl	f58 <kErrHandler>
     4b2:	2014      	movs	r0, #20
     4b4:	9901      	ldr	r1, [sp, #4]
     4b6:	4b10      	ldr	r3, [pc, #64]	@ (4f8 <kMboxPost+0x134>)
     4b8:	7f4a      	ldrb	r2, [r1, #29]
     4ba:	fb00 3002 	mla	r0, r0, r2, r3
     4be:	f000 fa63 	bl	988 <kTCBQEnq>
     4c2:	2201      	movs	r2, #1
     4c4:	9b01      	ldr	r3, [sp, #4]
     4c6:	605a      	str	r2, [r3, #4]
     4c8:	4a09      	ldr	r2, [pc, #36]	@ (4f0 <kMboxPost+0x12c>)
     4ca:	6811      	ldr	r1, [r2, #0]
     4cc:	7f5a      	ldrb	r2, [r3, #29]
     4ce:	7f4b      	ldrb	r3, [r1, #29]
     4d0:	429a      	cmp	r2, r3
     4d2:	bf3f      	itttt	cc
     4d4:	4a07      	ldrcc	r2, [pc, #28]	@ (4f4 <kMboxPost+0x130>)
     4d6:	6853      	ldrcc	r3, [r2, #4]
     4d8:	f043 5380 	orrcc.w	r3, r3, #268435456	@ 0x10000000
     4dc:	6053      	strcc	r3, [r2, #4]
     4de:	f3bf 8f4f 	dsb	sy
     4e2:	f3bf 8f6f 	isb	sy
     4e6:	4628      	mov	r0, r5
     4e8:	f000 fa46 	bl	978 <kExitCR>
     4ec:	2000      	movs	r0, #0
     4ee:	e790      	b.n	412 <kMboxPost+0x4e>
     4f0:	20000e28 	andcs	r0, r0, r8, lsr #28
     4f4:	e000ed00 	and	lr, r0, r0, lsl #26
     4f8:	20000e2c 	andcs	r0, r0, ip, lsr #28

000004fc <kMboxPend>:
     4fc:	e92d 47f3 	stmdb	sp!, {r0, r1, r4, r5, r6, r7, r8, r9, sl, lr}
     500:	4604      	mov	r4, r0
     502:	460f      	mov	r7, r1
     504:	4616      	mov	r6, r2
     506:	f000 fa29 	bl	95c <kEnterCR>
     50a:	f3ef 8305 	mrs	r3, IPSR
     50e:	4605      	mov	r5, r0
     510:	f3bf 8f5f 	dmb	sy
     514:	b123      	cbz	r3, 520 <kMboxPend+0x24>
     516:	b11e      	cbz	r6, 520 <kMboxPend+0x24>
     518:	f06f 0014 	mvn.w	r0, #20
     51c:	f000 fd1c 	bl	f58 <kErrHandler>
     520:	b104      	cbz	r4, 524 <kMboxPend+0x28>
     522:	b91f      	cbnz	r7, 52c <kMboxPend+0x30>
     524:	f06f 0001 	mvn.w	r0, #1
     528:	f000 fd16 	bl	f58 <kErrHandler>
     52c:	6863      	ldr	r3, [r4, #4]
     52e:	b91b      	cbnz	r3, 538 <kMboxPend+0x3c>
     530:	f06f 0002 	mvn.w	r0, #2
     534:	f000 fd10 	bl	f58 <kErrHandler>
     538:	68a3      	ldr	r3, [r4, #8]
     53a:	2b00      	cmp	r3, #0
     53c:	d142      	bne.n	5c4 <kMboxPend+0xc8>
     53e:	b93e      	cbnz	r6, 550 <kMboxPend+0x54>
     540:	4628      	mov	r0, r5
     542:	f000 fa19 	bl	978 <kExitCR>
     546:	f06f 001f 	mvn.w	r0, #31
     54a:	b002      	add	sp, #8
     54c:	e8bd 87f0 	ldmia.w	sp!, {r4, r5, r6, r7, r8, r9, sl, pc}
     550:	2307      	movs	r3, #7
     552:	f8df 80d4 	ldr.w	r8, [pc, #212]	@ 628 <kMboxPend+0x12c>
     556:	f106 39ff 	add.w	r9, r6, #4294967295	@ 0xffffffff
     55a:	f8d8 0000 	ldr.w	r0, [r8]
     55e:	f104 0a0c 	add.w	sl, r4, #12
     562:	6043      	str	r3, [r0, #4]
     564:	1c73      	adds	r3, r6, #1
     566:	d007      	beq.n	578 <kMboxPend+0x7c>
     568:	2301      	movs	r3, #1
     56a:	f8c0 a050 	str.w	sl, [r0, #80]	@ 0x50
     56e:	6443      	str	r3, [r0, #68]	@ 0x44
     570:	4631      	mov	r1, r6
     572:	303c      	adds	r0, #60	@ 0x3c
     574:	f000 fbc2 	bl	cfc <kTimeOut>
     578:	4650      	mov	r0, sl
     57a:	f8d8 1000 	ldr.w	r1, [r8]
     57e:	f000 fa03 	bl	988 <kTCBQEnq>
     582:	4a2a      	ldr	r2, [pc, #168]	@ (62c <kMboxPend+0x130>)
     584:	6853      	ldr	r3, [r2, #4]
     586:	f043 5380 	orr.w	r3, r3, #268435456	@ 0x10000000
     58a:	6053      	str	r3, [r2, #4]
     58c:	f3bf 8f4f 	dsb	sy
     590:	f3bf 8f6f 	isb	sy
     594:	4628      	mov	r0, r5
     596:	f000 f9ef 	bl	978 <kExitCR>
     59a:	f000 f9df 	bl	95c <kEnterCR>
     59e:	f8d8 3000 	ldr.w	r3, [r8]
     5a2:	4605      	mov	r5, r0
     5a4:	6b1a      	ldr	r2, [r3, #48]	@ 0x30
     5a6:	b132      	cbz	r2, 5b6 <kMboxPend+0xba>
     5a8:	2200      	movs	r2, #0
     5aa:	631a      	str	r2, [r3, #48]	@ 0x30
     5ac:	f000 f9e4 	bl	978 <kExitCR>
     5b0:	f06f 0018 	mvn.w	r0, #24
     5b4:	e7c9      	b.n	54a <kMboxPend+0x4e>
     5b6:	f119 0f02 	cmn.w	r9, #2
     5ba:	d003      	beq.n	5c4 <kMboxPend+0xc8>
     5bc:	f103 003c 	add.w	r0, r3, #60	@ 0x3c
     5c0:	f000 fc90 	bl	ee4 <kRemoveTimeoutNode>
     5c4:	68a3      	ldr	r3, [r4, #8]
     5c6:	603b      	str	r3, [r7, #0]
     5c8:	2300      	movs	r3, #0
     5ca:	60a3      	str	r3, [r4, #8]
     5cc:	69a3      	ldr	r3, [r4, #24]
     5ce:	b32b      	cbz	r3, 61c <kMboxPend+0x120>
     5d0:	340c      	adds	r4, #12
     5d2:	4620      	mov	r0, r4
     5d4:	f000 f92e 	bl	834 <kTCBQPeek>
     5d8:	6843      	ldr	r3, [r0, #4]
     5da:	9001      	str	r0, [sp, #4]
     5dc:	2b06      	cmp	r3, #6
     5de:	d11d      	bne.n	61c <kMboxPend+0x120>
     5e0:	a901      	add	r1, sp, #4
     5e2:	4620      	mov	r0, r4
     5e4:	f000 f8ba 	bl	75c <kTCBQDeq>
     5e8:	2014      	movs	r0, #20
     5ea:	9901      	ldr	r1, [sp, #4]
     5ec:	4b10      	ldr	r3, [pc, #64]	@ (630 <kMboxPend+0x134>)
     5ee:	7f4a      	ldrb	r2, [r1, #29]
     5f0:	fb00 3002 	mla	r0, r0, r2, r3
     5f4:	f000 f9c8 	bl	988 <kTCBQEnq>
     5f8:	2201      	movs	r2, #1
     5fa:	9b01      	ldr	r3, [sp, #4]
     5fc:	605a      	str	r2, [r3, #4]
     5fe:	4a0a      	ldr	r2, [pc, #40]	@ (628 <kMboxPend+0x12c>)
     600:	6811      	ldr	r1, [r2, #0]
     602:	7f5a      	ldrb	r2, [r3, #29]
     604:	7f4b      	ldrb	r3, [r1, #29]
     606:	429a      	cmp	r2, r3
     608:	d208      	bcs.n	61c <kMboxPend+0x120>
     60a:	4a08      	ldr	r2, [pc, #32]	@ (62c <kMboxPend+0x130>)
     60c:	6853      	ldr	r3, [r2, #4]
     60e:	f043 5380 	orr.w	r3, r3, #268435456	@ 0x10000000
     612:	6053      	str	r3, [r2, #4]
     614:	f3bf 8f4f 	dsb	sy
     618:	f3bf 8f6f 	isb	sy
     61c:	4628      	mov	r0, r5
     61e:	f000 f9ab 	bl	978 <kExitCR>
     622:	2000      	movs	r0, #0
     624:	e791      	b.n	54a <kMboxPend+0x4e>
     626:	bf00      	nop
     628:	20000e28 	andcs	r0, r0, r8, lsr #28
     62c:	e000ed00 	and	lr, r0, r0, lsl #26
     630:	20000e2c 	andcs	r0, r0, ip, lsr #28

00000634 <kInitTcb_>:
     634:	b570      	push	{r4, r5, r6, lr}
     636:	2a00      	cmp	r2, #0
     638:	d05a      	beq.n	6f0 <kInitTcb_+0xbc>
     63a:	2b00      	cmp	r3, #0
     63c:	d058      	beq.n	6f0 <kInitTcb_+0xbc>
     63e:	2800      	cmp	r0, #0
     640:	d056      	beq.n	6f0 <kInitTcb_+0xbc>
     642:	f04f 7680 	mov.w	r6, #16777216	@ 0x1000000
     646:	f103 4480 	add.w	r4, r3, #1073741824	@ 0x40000000
     64a:	3c01      	subs	r4, #1
     64c:	f842 6024 	str.w	r6, [r2, r4, lsl #2]
     650:	00a5      	lsls	r5, r4, #2
     652:	eb02 0484 	add.w	r4, r2, r4, lsl #2
     656:	f844 0c04 	str.w	r0, [r4, #-4]
     65a:	f04f 3614 	mov.w	r6, #336860180	@ 0x14141414
     65e:	f04f 3012 	mov.w	r0, #303174162	@ 0x12121212
     662:	f04f 3c03 	mov.w	ip, #50529027	@ 0x3030303
     666:	e944 0603 	strd	r0, r6, [r4, #-12]
     66a:	f04f 3002 	mov.w	r0, #33686018	@ 0x2020202
     66e:	e944 0c05 	strd	r0, ip, [r4, #-20]
     672:	f04f 3001 	mov.w	r0, #16843009	@ 0x1010101
     676:	e944 1007 	strd	r1, r0, [r4, #-28]
     67a:	f04f 3110 	mov.w	r1, #269488144	@ 0x10101010
     67e:	f04f 3011 	mov.w	r0, #286331153	@ 0x11111111
     682:	f04f 3609 	mov.w	r6, #151587081	@ 0x9090909
     686:	e944 1009 	strd	r1, r0, [r4, #-36]	@ 0x24
     68a:	f04f 3108 	mov.w	r1, #134744072	@ 0x8080808
     68e:	f04f 3c07 	mov.w	ip, #117901063	@ 0x7070707
     692:	e944 160b 	strd	r1, r6, [r4, #-44]	@ 0x2c
     696:	f04f 3106 	mov.w	r1, #101058054	@ 0x6060606
     69a:	e944 1c0d 	strd	r1, ip, [r4, #-52]	@ 0x34
     69e:	f04f 3105 	mov.w	r1, #84215045	@ 0x5050505
     6a2:	f04f 3004 	mov.w	r0, #67372036	@ 0x4040404
     6a6:	f844 1c38 	str.w	r1, [r4, #-56]
     6aa:	f1a5 013c 	sub.w	r1, r5, #60	@ 0x3c
     6ae:	5050      	str	r0, [r2, r1]
     6b0:	2011      	movs	r0, #17
     6b2:	1856      	adds	r6, r2, r1
     6b4:	4c10      	ldr	r4, [pc, #64]	@ (6f8 <kInitTcb_+0xc4>)
     6b6:	f1a3 0110 	sub.w	r1, r3, #16
     6ba:	eb02 0181 	add.w	r1, r2, r1, lsl #2
     6be:	4283      	cmp	r3, r0
     6c0:	d812      	bhi.n	6e8 <kInitTcb_+0xb4>
     6c2:	205c      	movs	r0, #92	@ 0x5c
     6c4:	490d      	ldr	r1, [pc, #52]	@ (6fc <kInitTcb_+0xc8>)
     6c6:	4d0e      	ldr	r5, [pc, #56]	@ (700 <kInitTcb_+0xcc>)
     6c8:	6011      	str	r1, [r2, #0]
     6ca:	490e      	ldr	r1, [pc, #56]	@ (704 <kInitTcb_+0xd0>)
     6cc:	780c      	ldrb	r4, [r1, #0]
     6ce:	4360      	muls	r0, r4
     6d0:	1829      	adds	r1, r5, r0
     6d2:	618b      	str	r3, [r1, #24]
     6d4:	2301      	movs	r3, #1
     6d6:	604b      	str	r3, [r1, #4]
     6d8:	f06f 0302 	mvn.w	r3, #2
     6dc:	502e      	str	r6, [r5, r0]
     6de:	2000      	movs	r0, #0
     6e0:	614a      	str	r2, [r1, #20]
     6e2:	770c      	strb	r4, [r1, #28]
     6e4:	60cb      	str	r3, [r1, #12]
     6e6:	bd70      	pop	{r4, r5, r6, pc}
     6e8:	f841 4d04 	str.w	r4, [r1, #-4]!
     6ec:	3001      	adds	r0, #1
     6ee:	e7e6      	b.n	6be <kInitTcb_+0x8a>
     6f0:	f04f 30ff 	mov.w	r0, #4294967295	@ 0xffffffff
     6f4:	e7f7      	b.n	6e6 <kInitTcb_+0xb2>
     6f6:	bf00      	nop
     6f8:	badc0ffe 	blt	ff7046f8 <SCB_ICSR+0x1f6f59f4>
     6fc:	0badc0de 	bleq	feb70a7c <SCB_ICSR+0x1eb61d78>
     700:	20000c5c 	andcs	r0, r0, ip, asr ip
     704:	20000c38 	andcs	r0, r0, r8, lsr ip

00000708 <kCalcNextTaskPrio_>:
     708:	4a08      	ldr	r2, [pc, #32]	@ (72c <kCalcNextTaskPrio_+0x24>)
     70a:	b508      	push	{r3, lr}
     70c:	6813      	ldr	r3, [r2, #0]
     70e:	b153      	cbz	r3, 726 <kCalcNextTaskPrio_+0x1e>
     710:	6813      	ldr	r3, [r2, #0]
     712:	6812      	ldr	r2, [r2, #0]
     714:	425b      	negs	r3, r3
     716:	4013      	ands	r3, r2
     718:	4a05      	ldr	r2, [pc, #20]	@ (730 <kCalcNextTaskPrio_+0x28>)
     71a:	6013      	str	r3, [r2, #0]
     71c:	6810      	ldr	r0, [r2, #0]
     71e:	f7ff fc9f 	bl	60 <__getReadyPrio>
     722:	b2c0      	uxtb	r0, r0
     724:	bd08      	pop	{r3, pc}
     726:	2002      	movs	r0, #2
     728:	e7fc      	b.n	724 <kCalcNextTaskPrio_+0x1c>
     72a:	bf00      	nop
     72c:	20000c44 	andcs	r0, r0, r4, asr #24
     730:	20000c40 	andcs	r0, r0, r0, asr #24

00000734 <kTCBQInit>:
     734:	b508      	push	{r3, lr}
     736:	b930      	cbnz	r0, 746 <kTCBQInit+0x12>
     738:	f06f 0001 	mvn.w	r0, #1
     73c:	f000 fc0c 	bl	f58 <kErrHandler>
     740:	f06f 0001 	mvn.w	r0, #1
     744:	bd08      	pop	{r3, pc}
     746:	2300      	movs	r3, #0
     748:	2201      	movs	r2, #1
     74a:	e9c0 0000 	strd	r0, r0, [r0]
     74e:	e9c0 3203 	strd	r3, r2, [r0, #12]
     752:	6081      	str	r1, [r0, #8]
     754:	f3bf 8f5f 	dmb	sy
     758:	4618      	mov	r0, r3
     75a:	e7f3      	b.n	744 <kTCBQInit+0x10>

0000075c <kTCBQDeq>:
     75c:	b538      	push	{r3, r4, r5, lr}
     75e:	460d      	mov	r5, r1
     760:	4604      	mov	r4, r0
     762:	b918      	cbnz	r0, 76c <kTCBQDeq+0x10>
     764:	f06f 0001 	mvn.w	r0, #1
     768:	f000 fbf6 	bl	f58 <kErrHandler>
     76c:	68e2      	ldr	r2, [r4, #12]
     76e:	b312      	cbz	r2, 7b6 <kTCBQDeq+0x5a>
     770:	6823      	ldr	r3, [r4, #0]
     772:	3a01      	subs	r2, #1
     774:	e9d3 0100 	ldrd	r0, r1, [r3]
     778:	6041      	str	r1, [r0, #4]
     77a:	6008      	str	r0, [r1, #0]
     77c:	2000      	movs	r0, #0
     77e:	4619      	mov	r1, r3
     780:	6058      	str	r0, [r3, #4]
     782:	f841 0954 	str.w	r0, [r1], #-84
     786:	60e2      	str	r2, [r4, #12]
     788:	f3bf 8f5f 	dmb	sy
     78c:	2214      	movs	r2, #20
     78e:	6029      	str	r1, [r5, #0]
     790:	f813 0c37 	ldrb.w	r0, [r3, #-55]
     794:	4b09      	ldr	r3, [pc, #36]	@ (7bc <kTCBQDeq+0x60>)
     796:	fb02 3300 	mla	r3, r2, r0, r3
     79a:	429c      	cmp	r4, r3
     79c:	d101      	bne.n	7a2 <kTCBQDeq+0x46>
     79e:	68e3      	ldr	r3, [r4, #12]
     7a0:	b10b      	cbz	r3, 7a6 <kTCBQDeq+0x4a>
     7a2:	2000      	movs	r0, #0
     7a4:	bd38      	pop	{r3, r4, r5, pc}
     7a6:	2201      	movs	r2, #1
     7a8:	4905      	ldr	r1, [pc, #20]	@ (7c0 <kTCBQDeq+0x64>)
     7aa:	4082      	lsls	r2, r0
     7ac:	680b      	ldr	r3, [r1, #0]
     7ae:	ea23 0302 	bic.w	r3, r3, r2
     7b2:	600b      	str	r3, [r1, #0]
     7b4:	e7f5      	b.n	7a2 <kTCBQDeq+0x46>
     7b6:	f06f 0004 	mvn.w	r0, #4
     7ba:	e7f3      	b.n	7a4 <kTCBQDeq+0x48>
     7bc:	20000e2c 	andcs	r0, r0, ip, lsr #28
     7c0:	20000c44 	andcs	r0, r0, r4, asr #24

000007c4 <kTCBQRem>:
     7c4:	b538      	push	{r3, r4, r5, lr}
     7c6:	460d      	mov	r5, r1
     7c8:	4604      	mov	r4, r0
     7ca:	b1d0      	cbz	r0, 802 <kTCBQRem+0x3e>
     7cc:	b1c9      	cbz	r1, 802 <kTCBQRem+0x3e>
     7ce:	680b      	ldr	r3, [r1, #0]
     7d0:	68e2      	ldr	r2, [r4, #12]
     7d2:	b342      	cbz	r2, 826 <kTCBQRem+0x62>
     7d4:	e9d3 0115 	ldrd	r0, r1, [r3, #84]	@ 0x54
     7d8:	6041      	str	r1, [r0, #4]
     7da:	6008      	str	r0, [r1, #0]
     7dc:	2100      	movs	r1, #0
     7de:	3a01      	subs	r2, #1
     7e0:	e9c3 1115 	strd	r1, r1, [r3, #84]	@ 0x54
     7e4:	60e2      	str	r2, [r4, #12]
     7e6:	f3bf 8f5f 	dmb	sy
     7ea:	2214      	movs	r2, #20
     7ec:	602b      	str	r3, [r5, #0]
     7ee:	7f58      	ldrb	r0, [r3, #29]
     7f0:	4b0e      	ldr	r3, [pc, #56]	@ (82c <kTCBQRem+0x68>)
     7f2:	fb02 3300 	mla	r3, r2, r0, r3
     7f6:	429c      	cmp	r4, r3
     7f8:	d101      	bne.n	7fe <kTCBQRem+0x3a>
     7fa:	68e3      	ldr	r3, [r4, #12]
     7fc:	b15b      	cbz	r3, 816 <kTCBQRem+0x52>
     7fe:	2000      	movs	r0, #0
     800:	bd38      	pop	{r3, r4, r5, pc}
     802:	f06f 0001 	mvn.w	r0, #1
     806:	f000 fba7 	bl	f58 <kErrHandler>
     80a:	682b      	ldr	r3, [r5, #0]
     80c:	2c00      	cmp	r4, #0
     80e:	d1df      	bne.n	7d0 <kTCBQRem+0xc>
     810:	f06f 0001 	mvn.w	r0, #1
     814:	e7f4      	b.n	800 <kTCBQRem+0x3c>
     816:	2201      	movs	r2, #1
     818:	4905      	ldr	r1, [pc, #20]	@ (830 <kTCBQRem+0x6c>)
     81a:	4082      	lsls	r2, r0
     81c:	680b      	ldr	r3, [r1, #0]
     81e:	ea23 0302 	bic.w	r3, r3, r2
     822:	600b      	str	r3, [r1, #0]
     824:	e7eb      	b.n	7fe <kTCBQRem+0x3a>
     826:	f06f 0004 	mvn.w	r0, #4
     82a:	e7e9      	b.n	800 <kTCBQRem+0x3c>
     82c:	20000e2c 	andcs	r0, r0, ip, lsr #28
     830:	20000c44 	andcs	r0, r0, r4, asr #24

00000834 <kTCBQPeek>:
     834:	b510      	push	{r4, lr}
     836:	4604      	mov	r4, r0
     838:	b918      	cbnz	r0, 842 <kTCBQPeek+0xe>
     83a:	f06f 0001 	mvn.w	r0, #1
     83e:	f000 fb8b 	bl	f58 <kErrHandler>
     842:	6820      	ldr	r0, [r4, #0]
     844:	3854      	subs	r0, #84	@ 0x54
     846:	bd10      	pop	{r4, pc}

00000848 <kReadyQDeq>:
     848:	460a      	mov	r2, r1
     84a:	4601      	mov	r1, r0
     84c:	2014      	movs	r0, #20
     84e:	4b06      	ldr	r3, [pc, #24]	@ (868 <kReadyQDeq+0x20>)
     850:	b510      	push	{r4, lr}
     852:	fb00 3002 	mla	r0, r0, r2, r3
     856:	f7ff ff81 	bl	75c <kTCBQDeq>
     85a:	4604      	mov	r4, r0
     85c:	b110      	cbz	r0, 864 <kReadyQDeq+0x1c>
     85e:	2000      	movs	r0, #0
     860:	f000 fb7a 	bl	f58 <kErrHandler>
     864:	4620      	mov	r0, r4
     866:	bd10      	pop	{r4, pc}
     868:	20000e2c 	andcs	r0, r0, ip, lsr #28

0000086c <kCreateTask>:
     86c:	e92d 4ff8 	stmdb	sp!, {r3, r4, r5, r6, r7, r8, r9, sl, fp, lr}
     870:	4c30      	ldr	r4, [pc, #192]	@ (934 <kCreateTask+0xc8>)
     872:	4606      	mov	r6, r0
     874:	7825      	ldrb	r5, [r4, #0]
     876:	4688      	mov	r8, r1
     878:	4617      	mov	r7, r2
     87a:	4699      	mov	r9, r3
     87c:	f89d a030 	ldrb.w	sl, [sp, #48]	@ 0x30
     880:	2d00      	cmp	r5, #0
     882:	d132      	bne.n	8ea <kCreateTask+0x7e>
     884:	2340      	movs	r3, #64	@ 0x40
     886:	4a2c      	ldr	r2, [pc, #176]	@ (938 <kCreateTask+0xcc>)
     888:	990b      	ldr	r1, [sp, #44]	@ 0x2c
     88a:	482c      	ldr	r0, [pc, #176]	@ (93c <kCreateTask+0xd0>)
     88c:	f7ff fed2 	bl	634 <kInitTcb_>
     890:	b110      	cbz	r0, 898 <kCreateTask+0x2c>
     892:	4628      	mov	r0, r5
     894:	f000 fb60 	bl	f58 <kErrHandler>
     898:	235c      	movs	r3, #92	@ 0x5c
     89a:	2102      	movs	r1, #2
     89c:	f04f 0b00 	mov.w	fp, #0
     8a0:	7822      	ldrb	r2, [r4, #0]
     8a2:	4d27      	ldr	r5, [pc, #156]	@ (940 <kCreateTask+0xd4>)
     8a4:	4827      	ldr	r0, [pc, #156]	@ (944 <kCreateTask+0xd8>)
     8a6:	fb03 5302 	mla	r3, r3, r2, r5
     8aa:	7759      	strb	r1, [r3, #29]
     8ac:	4926      	ldr	r1, [pc, #152]	@ (948 <kCreateTask+0xdc>)
     8ae:	3201      	adds	r2, #1
     8b0:	6119      	str	r1, [r3, #16]
     8b2:	4926      	ldr	r1, [pc, #152]	@ (94c <kCreateTask+0xe0>)
     8b4:	f8c3 b02c 	str.w	fp, [r3, #44]	@ 0x2c
     8b8:	600b      	str	r3, [r1, #0]
     8ba:	7022      	strb	r2, [r4, #0]
     8bc:	2340      	movs	r3, #64	@ 0x40
     8be:	4a24      	ldr	r2, [pc, #144]	@ (950 <kCreateTask+0xe4>)
     8c0:	990b      	ldr	r1, [sp, #44]	@ 0x2c
     8c2:	f7ff feb7 	bl	634 <kInitTcb_>
     8c6:	b110      	cbz	r0, 8ce <kCreateTask+0x62>
     8c8:	4658      	mov	r0, fp
     8ca:	f000 fb45 	bl	f58 <kErrHandler>
     8ce:	225c      	movs	r2, #92	@ 0x5c
     8d0:	7823      	ldrb	r3, [r4, #0]
     8d2:	fb02 5503 	mla	r5, r2, r3, r5
     8d6:	2200      	movs	r2, #0
     8d8:	776a      	strb	r2, [r5, #29]
     8da:	4a1e      	ldr	r2, [pc, #120]	@ (954 <kCreateTask+0xe8>)
     8dc:	3301      	adds	r3, #1
     8de:	612a      	str	r2, [r5, #16]
     8e0:	2201      	movs	r2, #1
     8e2:	62ea      	str	r2, [r5, #44]	@ 0x2c
     8e4:	4a1c      	ldr	r2, [pc, #112]	@ (958 <kCreateTask+0xec>)
     8e6:	7023      	strb	r3, [r4, #0]
     8e8:	6015      	str	r5, [r2, #0]
     8ea:	464a      	mov	r2, r9
     8ec:	4640      	mov	r0, r8
     8ee:	9b0a      	ldr	r3, [sp, #40]	@ 0x28
     8f0:	990b      	ldr	r1, [sp, #44]	@ 0x2c
     8f2:	f7ff fe9f 	bl	634 <kInitTcb_>
     8f6:	4605      	mov	r5, r0
     8f8:	b9c8      	cbnz	r0, 92e <kCreateTask+0xc2>
     8fa:	f1ba 0f02 	cmp.w	sl, #2
     8fe:	d903      	bls.n	908 <kCreateTask+0x9c>
     900:	f06f 000a 	mvn.w	r0, #10
     904:	f000 fb28 	bl	f58 <kErrHandler>
     908:	215c      	movs	r1, #92	@ 0x5c
     90a:	7822      	ldrb	r2, [r4, #0]
     90c:	4b0c      	ldr	r3, [pc, #48]	@ (940 <kCreateTask+0xd4>)
     90e:	fb01 3302 	mla	r3, r1, r2, r3
     912:	2100      	movs	r1, #0
     914:	6299      	str	r1, [r3, #40]	@ 0x28
     916:	6219      	str	r1, [r3, #32]
     918:	990d      	ldr	r1, [sp, #52]	@ 0x34
     91a:	3201      	adds	r2, #1
     91c:	f883 a01d 	strb.w	sl, [r3, #29]
     920:	611f      	str	r7, [r3, #16]
     922:	62d9      	str	r1, [r3, #44]	@ 0x2c
     924:	7022      	strb	r2, [r4, #0]
     926:	6033      	str	r3, [r6, #0]
     928:	4628      	mov	r0, r5
     92a:	e8bd 8ff8 	ldmia.w	sp!, {r3, r4, r5, r6, r7, r8, r9, sl, fp, pc}
     92e:	f04f 35ff 	mov.w	r5, #4294967295	@ 0xffffffff
     932:	e7f9      	b.n	928 <kCreateTask+0xbc>
     934:	20000c38 	andcs	r0, r0, r8, lsr ip
     938:	20000f6c 	andcs	r0, r0, ip, ror #30
     93c:	00000ca9 	andeq	r0, r0, r9, lsr #25
     940:	20000c5c 	andcs	r0, r0, ip, asr ip
     944:	00000cc1 	andeq	r0, r0, r1, asr #25
     948:	00001018 	andeq	r1, r0, r8, lsl r0
     94c:	20000c54 	andcs	r0, r0, r4, asr ip
     950:	20000e6c 	andcs	r0, r0, ip, ror #28
     954:	00001021 	andeq	r1, r0, r1, lsr #32
     958:	20000c58 	andcs	r0, r0, r8, asr ip

0000095c <kEnterCR>:
     95c:	f3bf 8f4f 	dsb	sy
     960:	f3ef 8010 	mrs	r0, PRIMASK
     964:	b928      	cbnz	r0, 972 <kEnterCR+0x16>
     966:	f3bf 8f4f 	dsb	sy
     96a:	b672      	cpsid	i
     96c:	f3bf 8f6f 	isb	sy
     970:	4770      	bx	lr
     972:	f3bf 8f4f 	dsb	sy
     976:	4770      	bx	lr

00000978 <kExitCR>:
     978:	f3bf 8f4f 	dsb	sy
     97c:	f380 8810 	msr	PRIMASK, r0
     980:	f3bf 8f6f 	isb	sy
     984:	4770      	bx	lr
	...

00000988 <kTCBQEnq>:
     988:	b5f8      	push	{r3, r4, r5, r6, r7, lr}
     98a:	4604      	mov	r4, r0
     98c:	f7ff ffe6 	bl	95c <kEnterCR>
     990:	460d      	mov	r5, r1
     992:	4606      	mov	r6, r0
     994:	f101 0754 	add.w	r7, r1, #84	@ 0x54
     998:	b1fc      	cbz	r4, 9da <kTCBQEnq+0x52>
     99a:	b1f1      	cbz	r1, 9da <kTCBQEnq+0x52>
     99c:	6863      	ldr	r3, [r4, #4]
     99e:	b30b      	cbz	r3, 9e4 <kTCBQEnq+0x5c>
     9a0:	681a      	ldr	r2, [r3, #0]
     9a2:	656a      	str	r2, [r5, #84]	@ 0x54
     9a4:	6057      	str	r7, [r2, #4]
     9a6:	65ab      	str	r3, [r5, #88]	@ 0x58
     9a8:	601f      	str	r7, [r3, #0]
     9aa:	68e3      	ldr	r3, [r4, #12]
     9ac:	3301      	adds	r3, #1
     9ae:	60e3      	str	r3, [r4, #12]
     9b0:	f3bf 8f5f 	dmb	sy
     9b4:	2214      	movs	r2, #20
     9b6:	7f69      	ldrb	r1, [r5, #29]
     9b8:	4b0c      	ldr	r3, [pc, #48]	@ (9ec <kTCBQEnq+0x64>)
     9ba:	fb02 3301 	mla	r3, r2, r1, r3
     9be:	429c      	cmp	r4, r3
     9c0:	d105      	bne.n	9ce <kTCBQEnq+0x46>
     9c2:	2301      	movs	r3, #1
     9c4:	4a0a      	ldr	r2, [pc, #40]	@ (9f0 <kTCBQEnq+0x68>)
     9c6:	408b      	lsls	r3, r1
     9c8:	6810      	ldr	r0, [r2, #0]
     9ca:	4303      	orrs	r3, r0
     9cc:	6013      	str	r3, [r2, #0]
     9ce:	2300      	movs	r3, #0
     9d0:	4630      	mov	r0, r6
     9d2:	f7ff ffd1 	bl	978 <kExitCR>
     9d6:	4618      	mov	r0, r3
     9d8:	bdf8      	pop	{r3, r4, r5, r6, r7, pc}
     9da:	f06f 0001 	mvn.w	r0, #1
     9de:	f000 fabb 	bl	f58 <kErrHandler>
     9e2:	e7db      	b.n	99c <kTCBQEnq+0x14>
     9e4:	f06f 0301 	mvn.w	r3, #1
     9e8:	e7f2      	b.n	9d0 <kTCBQEnq+0x48>
     9ea:	bf00      	nop
     9ec:	20000e2c 	andcs	r0, r0, ip, lsr #28
     9f0:	20000c44 	andcs	r0, r0, r4, asr #24

000009f4 <kReadyRunningTask_>:
     9f4:	b510      	push	{r4, lr}
     9f6:	4c0a      	ldr	r4, [pc, #40]	@ (a20 <kReadyRunningTask_+0x2c>)
     9f8:	6821      	ldr	r1, [r4, #0]
     9fa:	684b      	ldr	r3, [r1, #4]
     9fc:	2b02      	cmp	r3, #2
     9fe:	d10d      	bne.n	a1c <kReadyRunningTask_+0x28>
     a00:	2014      	movs	r0, #20
     a02:	7f4a      	ldrb	r2, [r1, #29]
     a04:	4b07      	ldr	r3, [pc, #28]	@ (a24 <kReadyRunningTask_+0x30>)
     a06:	fb00 3002 	mla	r0, r0, r2, r3
     a0a:	f7ff ffbd 	bl	988 <kTCBQEnq>
     a0e:	b110      	cbz	r0, a16 <kReadyRunningTask_+0x22>
     a10:	2000      	movs	r0, #0
     a12:	f000 faa1 	bl	f58 <kErrHandler>
     a16:	2201      	movs	r2, #1
     a18:	6823      	ldr	r3, [r4, #0]
     a1a:	605a      	str	r2, [r3, #4]
     a1c:	bd10      	pop	{r4, pc}
     a1e:	bf00      	nop
     a20:	20000e28 	andcs	r0, r0, r8, lsr #28
     a24:	20000e2c 	andcs	r0, r0, ip, lsr #28

00000a28 <kInit>:
     a28:	e92d 43f8 	stmdb	sp!, {r3, r4, r5, r6, r7, r8, r9, lr}
     a2c:	f000 fa90 	bl	f50 <kGetVersion>
     a30:	4b33      	ldr	r3, [pc, #204]	@ (b00 <kInit+0xd8>)
     a32:	4a34      	ldr	r2, [pc, #208]	@ (b04 <kInit+0xdc>)
     a34:	6018      	str	r0, [r3, #0]
     a36:	6819      	ldr	r1, [r3, #0]
     a38:	7853      	ldrb	r3, [r2, #1]
     a3a:	7810      	ldrb	r0, [r2, #0]
     a3c:	021b      	lsls	r3, r3, #8
     a3e:	7892      	ldrb	r2, [r2, #2]
     a40:	ea43 4300 	orr.w	r3, r3, r0, lsl #16
     a44:	4313      	orrs	r3, r2
     a46:	428b      	cmp	r3, r1
     a48:	d003      	beq.n	a52 <kInit+0x2a>
     a4a:	f06f 0010 	mvn.w	r0, #16
     a4e:	f000 fa83 	bl	f58 <kErrHandler>
     a52:	2400      	movs	r4, #0
     a54:	4d2c      	ldr	r5, [pc, #176]	@ (b08 <kInit+0xe0>)
     a56:	4627      	mov	r7, r4
     a58:	462e      	mov	r6, r5
     a5a:	f8df 80b0 	ldr.w	r8, [pc, #176]	@ b0c <kInit+0xe4>
     a5e:	4628      	mov	r0, r5
     a60:	4641      	mov	r1, r8
     a62:	f7ff fe67 	bl	734 <kTCBQInit>
     a66:	3401      	adds	r4, #1
     a68:	2c03      	cmp	r4, #3
     a6a:	ea47 0700 	orr.w	r7, r7, r0
     a6e:	f105 0514 	add.w	r5, r5, #20
     a72:	d1f4      	bne.n	a5e <kInit+0x36>
     a74:	b117      	cbz	r7, a7c <kInit+0x54>
     a76:	2000      	movs	r0, #0
     a78:	f000 fa6e 	bl	f58 <kErrHandler>
     a7c:	2300      	movs	r3, #0
     a7e:	4c24      	ldr	r4, [pc, #144]	@ (b10 <kInit+0xe8>)
     a80:	4619      	mov	r1, r3
     a82:	4620      	mov	r0, r4
     a84:	46a0      	mov	r8, r4
     a86:	4a23      	ldr	r2, [pc, #140]	@ (b14 <kInit+0xec>)
     a88:	4d23      	ldr	r5, [pc, #140]	@ (b18 <kInit+0xf0>)
     a8a:	e9c2 3300 	strd	r3, r3, [r2]
     a8e:	7f62      	ldrb	r2, [r4, #29]
     a90:	702a      	strb	r2, [r5, #0]
     a92:	7f47      	ldrb	r7, [r0, #29]
     a94:	3101      	adds	r1, #1
     a96:	4297      	cmp	r7, r2
     a98:	bf3c      	itt	cc
     a9a:	463a      	movcc	r2, r7
     a9c:	2301      	movcc	r3, #1
     a9e:	2905      	cmp	r1, #5
     aa0:	f100 005c 	add.w	r0, r0, #92	@ 0x5c
     aa4:	d1f5      	bne.n	a92 <kInit+0x6a>
     aa6:	b103      	cbz	r3, aaa <kInit+0x82>
     aa8:	702a      	strb	r2, [r5, #0]
     aaa:	2700      	movs	r7, #0
     aac:	f04f 0914 	mov.w	r9, #20
     ab0:	7f60      	ldrb	r0, [r4, #29]
     ab2:	4621      	mov	r1, r4
     ab4:	fb09 6000 	mla	r0, r9, r0, r6
     ab8:	3701      	adds	r7, #1
     aba:	f7ff ff65 	bl	988 <kTCBQEnq>
     abe:	2f05      	cmp	r7, #5
     ac0:	f104 045c 	add.w	r4, r4, #92	@ 0x5c
     ac4:	d1f4      	bne.n	ab0 <kInit+0x88>
     ac6:	4c15      	ldr	r4, [pc, #84]	@ (b1c <kInit+0xf4>)
     ac8:	7829      	ldrb	r1, [r5, #0]
     aca:	4620      	mov	r0, r4
     acc:	f7ff febc 	bl	848 <kReadyQDeq>
     ad0:	6823      	ldr	r3, [r4, #0]
     ad2:	685b      	ldr	r3, [r3, #4]
     ad4:	2b01      	cmp	r3, #1
     ad6:	d002      	beq.n	ade <kInit+0xb6>
     ad8:	2000      	movs	r0, #0
     ada:	f000 fa3d 	bl	f58 <kErrHandler>
     ade:	f898 301d 	ldrb.w	r3, [r8, #29]
     ae2:	2b02      	cmp	r3, #2
     ae4:	d002      	beq.n	aec <kInit+0xc4>
     ae6:	2000      	movs	r0, #0
     ae8:	f000 fa36 	bl	f58 <kErrHandler>
     aec:	f7ff fb4e 	bl	18c <kApplicationInit>
     af0:	f3bf 8f4f 	dsb	sy
     af4:	b662      	cpsie	i
     af6:	f3bf 8f6f 	isb	sy
     afa:	dfaa      	svc	170	@ 0xaa
     afc:	e7fe      	b.n	afc <kInit+0xd4>
     afe:	bf00      	nop
     b00:	20000c3c 	andcs	r0, r0, ip, lsr ip
     b04:	00001037 	andeq	r1, r0, r7, lsr r0
     b08:	20000e2c 	andcs	r0, r0, ip, lsr #28
     b0c:	00001030 	andeq	r1, r0, r0, lsr r0
     b10:	20000c5c 	andcs	r0, r0, ip, asr ip
     b14:	20000c4c 	andcs	r0, r0, ip, asr #24
     b18:	20000c49 	andcs	r0, r0, r9, asr #24
     b1c:	20000e28 	andcs	r0, r0, r8, lsr #28

00000b20 <kSchSwtch>:
     b20:	2300      	movs	r3, #0
     b22:	b573      	push	{r0, r1, r4, r5, r6, lr}
     b24:	4e13      	ldr	r6, [pc, #76]	@ (b74 <kSchSwtch+0x54>)
     b26:	9301      	str	r3, [sp, #4]
     b28:	6835      	ldr	r5, [r6, #0]
     b2a:	686b      	ldr	r3, [r5, #4]
     b2c:	2b02      	cmp	r3, #2
     b2e:	d101      	bne.n	b34 <kSchSwtch+0x14>
     b30:	f7ff ff60 	bl	9f4 <kReadyRunningTask_>
     b34:	f7ff fde8 	bl	708 <kCalcNextTaskPrio_>
     b38:	2214      	movs	r2, #20
     b3a:	4b0f      	ldr	r3, [pc, #60]	@ (b78 <kSchSwtch+0x58>)
     b3c:	a901      	add	r1, sp, #4
     b3e:	7018      	strb	r0, [r3, #0]
     b40:	4b0e      	ldr	r3, [pc, #56]	@ (b7c <kSchSwtch+0x5c>)
     b42:	fb02 3000 	mla	r0, r2, r0, r3
     b46:	f7ff fe09 	bl	75c <kTCBQDeq>
     b4a:	9c01      	ldr	r4, [sp, #4]
     b4c:	b91c      	cbnz	r4, b56 <kSchSwtch+0x36>
     b4e:	f06f 0001 	mvn.w	r0, #1
     b52:	f000 fa01 	bl	f58 <kErrHandler>
     b56:	7f2b      	ldrb	r3, [r5, #28]
     b58:	7f22      	ldrb	r2, [r4, #28]
     b5a:	6034      	str	r4, [r6, #0]
     b5c:	4293      	cmp	r3, r2
     b5e:	bf1f      	itttt	ne
     b60:	6b63      	ldrne	r3, [r4, #52]	@ 0x34
     b62:	3301      	addne	r3, #1
     b64:	6363      	strne	r3, [r4, #52]	@ 0x34
     b66:	f885 2038 	strbne.w	r2, [r5, #56]	@ 0x38
     b6a:	f3bf 8f4f 	dsb	sy
     b6e:	b002      	add	sp, #8
     b70:	bd70      	pop	{r4, r5, r6, pc}
     b72:	bf00      	nop
     b74:	20000e28 	andcs	r0, r0, r8, lsr #28
     b78:	20000c48 	andcs	r0, r0, r8, asr #24
     b7c:	20000e2c 	andcs	r0, r0, ip, lsr #28

00000b80 <kTickHandler>:
     b80:	b570      	push	{r4, r5, r6, lr}
     b82:	4e1c      	ldr	r6, [pc, #112]	@ (bf4 <kTickHandler+0x74>)
     b84:	4b1c      	ldr	r3, [pc, #112]	@ (bf8 <kTickHandler+0x78>)
     b86:	6830      	ldr	r0, [r6, #0]
     b88:	681a      	ldr	r2, [r3, #0]
     b8a:	6a41      	ldr	r1, [r0, #36]	@ 0x24
     b8c:	3201      	adds	r2, #1
     b8e:	601a      	str	r2, [r3, #0]
     b90:	b109      	cbz	r1, b96 <kTickHandler+0x16>
     b92:	3901      	subs	r1, #1
     b94:	6241      	str	r1, [r0, #36]	@ 0x24
     b96:	3201      	adds	r2, #1
     b98:	d104      	bne.n	ba4 <kTickHandler+0x24>
     b9a:	2200      	movs	r2, #0
     b9c:	601a      	str	r2, [r3, #0]
     b9e:	685a      	ldr	r2, [r3, #4]
     ba0:	3201      	adds	r2, #1
     ba2:	605a      	str	r2, [r3, #4]
     ba4:	4b15      	ldr	r3, [pc, #84]	@ (bfc <kTickHandler+0x7c>)
     ba6:	681c      	ldr	r4, [r3, #0]
     ba8:	b114      	cbz	r4, bb0 <kTickHandler+0x30>
     baa:	f000 f9b1 	bl	f10 <kHandleTimeoutList>
     bae:	4604      	mov	r4, r0
     bb0:	6833      	ldr	r3, [r6, #0]
     bb2:	6add      	ldr	r5, [r3, #44]	@ 0x2c
     bb4:	685a      	ldr	r2, [r3, #4]
     bb6:	b175      	cbz	r5, bd6 <kTickHandler+0x56>
     bb8:	2a02      	cmp	r2, #2
     bba:	d119      	bne.n	bf0 <kTickHandler+0x70>
     bbc:	7f1d      	ldrb	r5, [r3, #28]
     bbe:	3d00      	subs	r5, #0
     bc0:	bf18      	it	ne
     bc2:	2501      	movne	r5, #1
     bc4:	f7ff fda0 	bl	708 <kCalcNextTaskPrio_>
     bc8:	6833      	ldr	r3, [r6, #0]
     bca:	7f5b      	ldrb	r3, [r3, #29]
     bcc:	4283      	cmp	r3, r0
     bce:	d904      	bls.n	bda <kTickHandler+0x5a>
     bd0:	f7ff ff10 	bl	9f4 <kReadyRunningTask_>
     bd4:	e001      	b.n	bda <kTickHandler+0x5a>
     bd6:	2a02      	cmp	r2, #2
     bd8:	d0f4      	beq.n	bc4 <kTickHandler+0x44>
     bda:	6833      	ldr	r3, [r6, #0]
     bdc:	f085 0501 	eor.w	r5, r5, #1
     be0:	685b      	ldr	r3, [r3, #4]
     be2:	2b01      	cmp	r3, #1
     be4:	bf08      	it	eq
     be6:	f044 0401 	orreq.w	r4, r4, #1
     bea:	ea04 0005 	and.w	r0, r4, r5
     bee:	bd70      	pop	{r4, r5, r6, pc}
     bf0:	2500      	movs	r5, #0
     bf2:	e7f2      	b.n	bda <kTickHandler+0x5a>
     bf4:	20000e28 	andcs	r0, r0, r8, lsr #28
     bf8:	20000c4c 	andcs	r0, r0, ip, asr #24
     bfc:	20000c34 	andcs	r0, r0, r4, lsr ip

00000c00 <kPend>:
     c00:	b5f8      	push	{r3, r4, r5, r6, r7, lr}
     c02:	f3ef 8305 	mrs	r3, IPSR
     c06:	4605      	mov	r5, r0
     c08:	f3bf 8f5f 	dmb	sy
     c0c:	b11b      	cbz	r3, c16 <kPend+0x16>
     c0e:	f06f 0014 	mvn.w	r0, #20
     c12:	f000 f9a1 	bl	f58 <kErrHandler>
     c16:	f7ff fea1 	bl	95c <kEnterCR>
     c1a:	4e21      	ldr	r6, [pc, #132]	@ (ca0 <kPend+0xa0>)
     c1c:	4604      	mov	r4, r0
     c1e:	6833      	ldr	r3, [r6, #0]
     c20:	6a1a      	ldr	r2, [r3, #32]
     c22:	2a01      	cmp	r2, #1
     c24:	d106      	bne.n	c34 <kPend+0x34>
     c26:	2200      	movs	r2, #0
     c28:	621a      	str	r2, [r3, #32]
     c2a:	4620      	mov	r0, r4
     c2c:	f7ff fea4 	bl	978 <kExitCR>
     c30:	2000      	movs	r0, #0
     c32:	e004      	b.n	c3e <kPend+0x3e>
     c34:	b925      	cbnz	r5, c40 <kPend+0x40>
     c36:	f7ff fe9f 	bl	978 <kExitCR>
     c3a:	f06f 0029 	mvn.w	r0, #41	@ 0x29
     c3e:	bdf8      	pop	{r3, r4, r5, r6, r7, pc}
     c40:	2203      	movs	r2, #3
     c42:	605a      	str	r2, [r3, #4]
     c44:	2200      	movs	r2, #0
     c46:	1c68      	adds	r0, r5, #1
     c48:	621a      	str	r2, [r3, #32]
     c4a:	f105 37ff 	add.w	r7, r5, #4294967295	@ 0xffffffff
     c4e:	d007      	beq.n	c60 <kPend+0x60>
     c50:	2102      	movs	r1, #2
     c52:	651a      	str	r2, [r3, #80]	@ 0x50
     c54:	6459      	str	r1, [r3, #68]	@ 0x44
     c56:	f103 003c 	add.w	r0, r3, #60	@ 0x3c
     c5a:	4629      	mov	r1, r5
     c5c:	f000 f84e 	bl	cfc <kTimeOut>
     c60:	4a10      	ldr	r2, [pc, #64]	@ (ca4 <kPend+0xa4>)
     c62:	6853      	ldr	r3, [r2, #4]
     c64:	f043 5380 	orr.w	r3, r3, #268435456	@ 0x10000000
     c68:	6053      	str	r3, [r2, #4]
     c6a:	f3bf 8f4f 	dsb	sy
     c6e:	f3bf 8f6f 	isb	sy
     c72:	4620      	mov	r0, r4
     c74:	f7ff fe80 	bl	978 <kExitCR>
     c78:	f7ff fe70 	bl	95c <kEnterCR>
     c7c:	6833      	ldr	r3, [r6, #0]
     c7e:	4604      	mov	r4, r0
     c80:	6b1a      	ldr	r2, [r3, #48]	@ 0x30
     c82:	b132      	cbz	r2, c92 <kPend+0x92>
     c84:	2200      	movs	r2, #0
     c86:	631a      	str	r2, [r3, #48]	@ 0x30
     c88:	f7ff fe76 	bl	978 <kExitCR>
     c8c:	f06f 0018 	mvn.w	r0, #24
     c90:	e7d5      	b.n	c3e <kPend+0x3e>
     c92:	3702      	adds	r7, #2
     c94:	d0c9      	beq.n	c2a <kPend+0x2a>
     c96:	f103 003c 	add.w	r0, r3, #60	@ 0x3c
     c9a:	f000 f923 	bl	ee4 <kRemoveTimeoutNode>
     c9e:	e7c4      	b.n	c2a <kPend+0x2a>
     ca0:	20000e28 	andcs	r0, r0, r8, lsr #28
     ca4:	e000ed00 	and	lr, r0, r0, lsl #26

00000ca8 <IdleTask>:
     ca8:	4a04      	ldr	r2, [pc, #16]	@ (cbc <IdleTask+0x14>)
     caa:	f3bf 8f4f 	dsb	sy
     cae:	6813      	ldr	r3, [r2, #0]
     cb0:	3301      	adds	r3, #1
     cb2:	6013      	str	r3, [r2, #0]
     cb4:	bf30      	wfi
     cb6:	f3bf 8f6f 	isb	sy
     cba:	e7f6      	b.n	caa <IdleTask+0x2>
     cbc:	20000e68 	andcs	r0, r0, r8, ror #28

00000cc0 <TimerHandlerTask>:
     cc0:	f04f 23e0 	mov.w	r3, #3758153728	@ 0xe000e000
     cc4:	691a      	ldr	r2, [r3, #16]
     cc6:	f04f 32ff 	mov.w	r2, #4294967295	@ 0xffffffff
     cca:	b570      	push	{r4, r5, r6, lr}
     ccc:	2503      	movs	r5, #3
     cce:	4e09      	ldr	r6, [pc, #36]	@ (cf4 <TimerHandlerTask+0x34>)
     cd0:	4c09      	ldr	r4, [pc, #36]	@ (cf8 <TimerHandlerTask+0x38>)
     cd2:	611a      	str	r2, [r3, #16]
     cd4:	f7ff fe42 	bl	95c <kEnterCR>
     cd8:	6833      	ldr	r3, [r6, #0]
     cda:	605d      	str	r5, [r3, #4]
     cdc:	6863      	ldr	r3, [r4, #4]
     cde:	f043 5380 	orr.w	r3, r3, #268435456	@ 0x10000000
     ce2:	6063      	str	r3, [r4, #4]
     ce4:	f3bf 8f4f 	dsb	sy
     ce8:	f3bf 8f6f 	isb	sy
     cec:	f7ff fe44 	bl	978 <kExitCR>
     cf0:	e7f0      	b.n	cd4 <TimerHandlerTask+0x14>
     cf2:	bf00      	nop
     cf4:	20000e28 	andcs	r0, r0, r8, lsr #28
     cf8:	e000ed00 	and	lr, r0, r0, lsl #26

00000cfc <kTimeOut>:
     cfc:	b530      	push	{r4, r5, lr}
     cfe:	2900      	cmp	r1, #0
     d00:	d036      	beq.n	d70 <kTimeOut+0x74>
     d02:	2800      	cmp	r0, #0
     d04:	d037      	beq.n	d76 <kTimeOut+0x7a>
     d06:	4b1d      	ldr	r3, [pc, #116]	@ (d7c <kTimeOut+0x80>)
     d08:	681a      	ldr	r2, [r3, #0]
     d0a:	2300      	movs	r3, #0
     d0c:	6313      	str	r3, [r2, #48]	@ 0x30
     d0e:	6882      	ldr	r2, [r0, #8]
     d10:	e9c0 1103 	strd	r1, r1, [r0, #12]
     d14:	2a03      	cmp	r2, #3
     d16:	e9c0 3300 	strd	r3, r3, [r0]
     d1a:	d11a      	bne.n	d52 <kTimeOut+0x56>
     d1c:	4c18      	ldr	r4, [pc, #96]	@ (d80 <kTimeOut+0x84>)
     d1e:	6822      	ldr	r2, [r4, #0]
     d20:	b11a      	cbz	r2, d2a <kTimeOut+0x2e>
     d22:	6915      	ldr	r5, [r2, #16]
     d24:	6901      	ldr	r1, [r0, #16]
     d26:	428d      	cmp	r5, r1
     d28:	d30b      	bcc.n	d42 <kTimeOut+0x46>
     d2a:	6002      	str	r2, [r0, #0]
     d2c:	b1f2      	cbz	r2, d6c <kTimeOut+0x70>
     d2e:	6911      	ldr	r1, [r2, #16]
     d30:	6905      	ldr	r5, [r0, #16]
     d32:	1b49      	subs	r1, r1, r5
     d34:	6111      	str	r1, [r2, #16]
     d36:	6851      	ldr	r1, [r2, #4]
     d38:	6041      	str	r1, [r0, #4]
     d3a:	6050      	str	r0, [r2, #4]
     d3c:	b933      	cbnz	r3, d4c <kTimeOut+0x50>
     d3e:	6020      	str	r0, [r4, #0]
     d40:	e005      	b.n	d4e <kTimeOut+0x52>
     d42:	1b49      	subs	r1, r1, r5
     d44:	4613      	mov	r3, r2
     d46:	6101      	str	r1, [r0, #16]
     d48:	6812      	ldr	r2, [r2, #0]
     d4a:	e7e9      	b.n	d20 <kTimeOut+0x24>
     d4c:	6018      	str	r0, [r3, #0]
     d4e:	2000      	movs	r0, #0
     d50:	bd30      	pop	{r4, r5, pc}
     d52:	4c0c      	ldr	r4, [pc, #48]	@ (d84 <kTimeOut+0x88>)
     d54:	6822      	ldr	r2, [r4, #0]
     d56:	2a00      	cmp	r2, #0
     d58:	d0e7      	beq.n	d2a <kTimeOut+0x2e>
     d5a:	6915      	ldr	r5, [r2, #16]
     d5c:	6901      	ldr	r1, [r0, #16]
     d5e:	428d      	cmp	r5, r1
     d60:	d2e3      	bcs.n	d2a <kTimeOut+0x2e>
     d62:	1b49      	subs	r1, r1, r5
     d64:	4613      	mov	r3, r2
     d66:	6101      	str	r1, [r0, #16]
     d68:	6812      	ldr	r2, [r2, #0]
     d6a:	e7f4      	b.n	d56 <kTimeOut+0x5a>
     d6c:	6043      	str	r3, [r0, #4]
     d6e:	e7e5      	b.n	d3c <kTimeOut+0x40>
     d70:	f06f 0026 	mvn.w	r0, #38	@ 0x26
     d74:	e7ec      	b.n	d50 <kTimeOut+0x54>
     d76:	f06f 0001 	mvn.w	r0, #1
     d7a:	e7e9      	b.n	d50 <kTimeOut+0x54>
     d7c:	20000e28 	andcs	r0, r0, r8, lsr #28
     d80:	20000c30 	andcs	r0, r0, r0, lsr ip
     d84:	20000c34 	andcs	r0, r0, r4, lsr ip

00000d88 <kSleep>:
     d88:	b5f8      	push	{r3, r4, r5, r6, r7, lr}
     d8a:	4606      	mov	r6, r0
     d8c:	f7ff fde6 	bl	95c <kEnterCR>
     d90:	4b0d      	ldr	r3, [pc, #52]	@ (dc8 <kSleep+0x40>)
     d92:	2704      	movs	r7, #4
     d94:	681c      	ldr	r4, [r3, #0]
     d96:	2300      	movs	r3, #0
     d98:	4605      	mov	r5, r0
     d9a:	6523      	str	r3, [r4, #80]	@ 0x50
     d9c:	4631      	mov	r1, r6
     d9e:	6467      	str	r7, [r4, #68]	@ 0x44
     da0:	f104 003c 	add.w	r0, r4, #60	@ 0x3c
     da4:	f7ff ffaa 	bl	cfc <kTimeOut>
     da8:	4a08      	ldr	r2, [pc, #32]	@ (dcc <kSleep+0x44>)
     daa:	6067      	str	r7, [r4, #4]
     dac:	6853      	ldr	r3, [r2, #4]
     dae:	f043 5380 	orr.w	r3, r3, #268435456	@ 0x10000000
     db2:	6053      	str	r3, [r2, #4]
     db4:	f3bf 8f4f 	dsb	sy
     db8:	f3bf 8f6f 	isb	sy
     dbc:	4628      	mov	r0, r5
     dbe:	e8bd 40f8 	ldmia.w	sp!, {r3, r4, r5, r6, r7, lr}
     dc2:	f7ff bdd9 	b.w	978 <kExitCR>
     dc6:	bf00      	nop
     dc8:	20000e28 	andcs	r0, r0, r8, lsr #28
     dcc:	e000ed00 	and	lr, r0, r0, lsl #26

00000dd0 <kSleepUntil>:
     dd0:	e92d 43f8 	stmdb	sp!, {r3, r4, r5, r6, r7, r8, r9, lr}
     dd4:	4604      	mov	r4, r0
     dd6:	f7ff fdc1 	bl	95c <kEnterCR>
     dda:	4607      	mov	r7, r0
     ddc:	b394      	cbz	r4, e44 <kSleepUntil+0x74>
     dde:	f8df 806c 	ldr.w	r8, [pc, #108]	@ e4c <kSleepUntil+0x7c>
     de2:	4b1b      	ldr	r3, [pc, #108]	@ (e50 <kSleepUntil+0x80>)
     de4:	f8d8 6000 	ldr.w	r6, [r8]
     de8:	681b      	ldr	r3, [r3, #0]
     dea:	6ab5      	ldr	r5, [r6, #40]	@ 0x28
     dec:	4425      	add	r5, r4
     dee:	42ab      	cmp	r3, r5
     df0:	d919      	bls.n	e26 <kSleepUntil+0x56>
     df2:	18e5      	adds	r5, r4, r3
     df4:	2300      	movs	r3, #0
     df6:	f04f 0904 	mov.w	r9, #4
     dfa:	4621      	mov	r1, r4
     dfc:	f8c6 9044 	str.w	r9, [r6, #68]	@ 0x44
     e00:	6533      	str	r3, [r6, #80]	@ 0x50
     e02:	f106 003c 	add.w	r0, r6, #60	@ 0x3c
     e06:	f7ff ff79 	bl	cfc <kTimeOut>
     e0a:	4604      	mov	r4, r0
     e0c:	b980      	cbnz	r0, e30 <kSleepUntil+0x60>
     e0e:	4a11      	ldr	r2, [pc, #68]	@ (e54 <kSleepUntil+0x84>)
     e10:	f8c6 9004 	str.w	r9, [r6, #4]
     e14:	6853      	ldr	r3, [r2, #4]
     e16:	f043 5380 	orr.w	r3, r3, #268435456	@ 0x10000000
     e1a:	6053      	str	r3, [r2, #4]
     e1c:	f3bf 8f4f 	dsb	sy
     e20:	f3bf 8f6f 	isb	sy
     e24:	e000      	b.n	e28 <kSleepUntil+0x58>
     e26:	d1e5      	bne.n	df4 <kSleepUntil+0x24>
     e28:	2400      	movs	r4, #0
     e2a:	f8d8 3000 	ldr.w	r3, [r8]
     e2e:	629d      	str	r5, [r3, #40]	@ 0x28
     e30:	f3bf 8f4f 	dsb	sy
     e34:	4638      	mov	r0, r7
     e36:	f7ff fd9f 	bl	978 <kExitCR>
     e3a:	f3bf 8f6f 	isb	sy
     e3e:	4620      	mov	r0, r4
     e40:	e8bd 83f8 	ldmia.w	sp!, {r3, r4, r5, r6, r7, r8, r9, pc}
     e44:	f06f 0426 	mvn.w	r4, #38	@ 0x26
     e48:	e7f2      	b.n	e30 <kSleepUntil+0x60>
     e4a:	bf00      	nop
     e4c:	20000e28 	andcs	r0, r0, r8, lsr #28
     e50:	20000c4c 	andcs	r0, r0, ip, asr #24
     e54:	e000ed00 	and	lr, r0, r0, lsl #26

00000e58 <kTimeOutReadyTask>:
     e58:	b513      	push	{r0, r1, r4, lr}
     e5a:	6884      	ldr	r4, [r0, #8]
     e5c:	f1a0 033c 	sub.w	r3, r0, #60	@ 0x3c
     e60:	2c01      	cmp	r4, #1
     e62:	9301      	str	r3, [sp, #4]
     e64:	d115      	bne.n	e92 <kTimeOutReadyTask+0x3a>
     e66:	6940      	ldr	r0, [r0, #20]
     e68:	a901      	add	r1, sp, #4
     e6a:	f7ff fcab 	bl	7c4 <kTCBQRem>
     e6e:	b980      	cbnz	r0, e92 <kTimeOutReadyTask+0x3a>
     e70:	2014      	movs	r0, #20
     e72:	9901      	ldr	r1, [sp, #4]
     e74:	4b1a      	ldr	r3, [pc, #104]	@ (ee0 <kTimeOutReadyTask+0x88>)
     e76:	7f4a      	ldrb	r2, [r1, #29]
     e78:	fb00 3002 	mla	r0, r0, r2, r3
     e7c:	f7ff fd84 	bl	988 <kTCBQEnq>
     e80:	b920      	cbnz	r0, e8c <kTimeOutReadyTask+0x34>
     e82:	9b01      	ldr	r3, [sp, #4]
     e84:	631c      	str	r4, [r3, #48]	@ 0x30
     e86:	605c      	str	r4, [r3, #4]
     e88:	6458      	str	r0, [r3, #68]	@ 0x44
     e8a:	6518      	str	r0, [r3, #80]	@ 0x50
     e8c:	2000      	movs	r0, #0
     e8e:	b002      	add	sp, #8
     e90:	bd10      	pop	{r4, pc}
     e92:	9901      	ldr	r1, [sp, #4]
     e94:	6c4b      	ldr	r3, [r1, #68]	@ 0x44
     e96:	2b04      	cmp	r3, #4
     e98:	d10d      	bne.n	eb6 <kTimeOutReadyTask+0x5e>
     e9a:	2014      	movs	r0, #20
     e9c:	7f4a      	ldrb	r2, [r1, #29]
     e9e:	4b10      	ldr	r3, [pc, #64]	@ (ee0 <kTimeOutReadyTask+0x88>)
     ea0:	fb00 3002 	mla	r0, r0, r2, r3
     ea4:	f7ff fd70 	bl	988 <kTCBQEnq>
     ea8:	b928      	cbnz	r0, eb6 <kTimeOutReadyTask+0x5e>
     eaa:	2201      	movs	r2, #1
     eac:	9b01      	ldr	r3, [sp, #4]
     eae:	6318      	str	r0, [r3, #48]	@ 0x30
     eb0:	605a      	str	r2, [r3, #4]
     eb2:	6458      	str	r0, [r3, #68]	@ 0x44
     eb4:	e7ea      	b.n	e8c <kTimeOutReadyTask+0x34>
     eb6:	9901      	ldr	r1, [sp, #4]
     eb8:	6c4b      	ldr	r3, [r1, #68]	@ 0x44
     eba:	2b02      	cmp	r3, #2
     ebc:	d002      	beq.n	ec4 <kTimeOutReadyTask+0x6c>
     ebe:	f04f 30ff 	mov.w	r0, #4294967295	@ 0xffffffff
     ec2:	e7e4      	b.n	e8e <kTimeOutReadyTask+0x36>
     ec4:	2014      	movs	r0, #20
     ec6:	7f4a      	ldrb	r2, [r1, #29]
     ec8:	4b05      	ldr	r3, [pc, #20]	@ (ee0 <kTimeOutReadyTask+0x88>)
     eca:	fb00 3002 	mla	r0, r0, r2, r3
     ece:	f7ff fd5b 	bl	988 <kTCBQEnq>
     ed2:	2800      	cmp	r0, #0
     ed4:	d1f3      	bne.n	ebe <kTimeOutReadyTask+0x66>
     ed6:	2201      	movs	r2, #1
     ed8:	9b01      	ldr	r3, [sp, #4]
     eda:	631a      	str	r2, [r3, #48]	@ 0x30
     edc:	e7e8      	b.n	eb0 <kTimeOutReadyTask+0x58>
     ede:	bf00      	nop
     ee0:	20000e2c 	andcs	r0, r0, ip, lsr #28

00000ee4 <kRemoveTimeoutNode>:
     ee4:	b510      	push	{r4, lr}
     ee6:	b168      	cbz	r0, f04 <kRemoveTimeoutNode+0x20>
     ee8:	6803      	ldr	r3, [r0, #0]
     eea:	b12b      	cbz	r3, ef8 <kRemoveTimeoutNode+0x14>
     eec:	6904      	ldr	r4, [r0, #16]
     eee:	691a      	ldr	r2, [r3, #16]
     ef0:	6841      	ldr	r1, [r0, #4]
     ef2:	4422      	add	r2, r4
     ef4:	611a      	str	r2, [r3, #16]
     ef6:	6059      	str	r1, [r3, #4]
     ef8:	6842      	ldr	r2, [r0, #4]
     efa:	b122      	cbz	r2, f06 <kRemoveTimeoutNode+0x22>
     efc:	6013      	str	r3, [r2, #0]
     efe:	2300      	movs	r3, #0
     f00:	e9c0 3300 	strd	r3, r3, [r0]
     f04:	bd10      	pop	{r4, pc}
     f06:	4a01      	ldr	r2, [pc, #4]	@ (f0c <kRemoveTimeoutNode+0x28>)
     f08:	e7f8      	b.n	efc <kRemoveTimeoutNode+0x18>
     f0a:	bf00      	nop
     f0c:	20000c34 	andcs	r0, r0, r4, lsr ip

00000f10 <kHandleTimeoutList>:
     f10:	b538      	push	{r3, r4, r5, lr}
     f12:	4c0d      	ldr	r4, [pc, #52]	@ (f48 <kHandleTimeoutList+0x38>)
     f14:	6823      	ldr	r3, [r4, #0]
     f16:	691a      	ldr	r2, [r3, #16]
     f18:	b112      	cbz	r2, f20 <kHandleTimeoutList+0x10>
     f1a:	691a      	ldr	r2, [r3, #16]
     f1c:	3a01      	subs	r2, #1
     f1e:	611a      	str	r2, [r3, #16]
     f20:	f04f 33ff 	mov.w	r3, #4294967295	@ 0xffffffff
     f24:	4d09      	ldr	r5, [pc, #36]	@ (f4c <kHandleTimeoutList+0x3c>)
     f26:	6820      	ldr	r0, [r4, #0]
     f28:	b108      	cbz	r0, f2e <kHandleTimeoutList+0x1e>
     f2a:	6902      	ldr	r2, [r0, #16]
     f2c:	b11a      	cbz	r2, f36 <kHandleTimeoutList+0x26>
     f2e:	fab3 f083 	clz	r0, r3
     f32:	0940      	lsrs	r0, r0, #5
     f34:	bd38      	pop	{r3, r4, r5, pc}
     f36:	6803      	ldr	r3, [r0, #0]
     f38:	6028      	str	r0, [r5, #0]
     f3a:	6023      	str	r3, [r4, #0]
     f3c:	f7ff ffd2 	bl	ee4 <kRemoveTimeoutNode>
     f40:	f7ff ff8a 	bl	e58 <kTimeOutReadyTask>
     f44:	4603      	mov	r3, r0
     f46:	e7ee      	b.n	f26 <kHandleTimeoutList+0x16>
     f48:	20000c34 	andcs	r0, r0, r4, lsr ip
     f4c:	2000106c 	andcs	r1, r0, ip, rrx

00000f50 <kGetVersion>:
     f50:	f44f 6080 	mov.w	r0, #1024	@ 0x400
     f54:	4770      	bx	lr
	...

00000f58 <kErrHandler>:
     f58:	4b01      	ldr	r3, [pc, #4]	@ (f60 <kErrHandler+0x8>)
     f5a:	6018      	str	r0, [r3, #0]
     f5c:	b672      	cpsid	i
     f5e:	e7fe      	b.n	f5e <kErrHandler+0x6>
     f60:	20001070 	andcs	r1, r0, r0, ror r0

00000f64 <memset>:
     f64:	4603      	mov	r3, r0
     f66:	4402      	add	r2, r0
     f68:	4293      	cmp	r3, r2
     f6a:	d100      	bne.n	f6e <memset+0xa>
     f6c:	4770      	bx	lr
     f6e:	f803 1b01 	strb.w	r1, [r3], #1
     f72:	e7f9      	b.n	f68 <memset+0x4>

00000f74 <memcpy>:
     f74:	440a      	add	r2, r1
     f76:	4291      	cmp	r1, r2
     f78:	f100 33ff 	add.w	r3, r0, #4294967295	@ 0xffffffff
     f7c:	d100      	bne.n	f80 <memcpy+0xc>
     f7e:	4770      	bx	lr
     f80:	b510      	push	{r4, lr}
     f82:	f811 4b01 	ldrb.w	r4, [r1], #1
     f86:	4291      	cmp	r1, r2
     f88:	f803 4f01 	strb.w	r4, [r3, #1]!
     f8c:	d1f9      	bne.n	f82 <memcpy+0xe>
     f8e:	bd10      	pop	{r4, pc}
     f90:	6b736154 	blvs	1cd94e8 <__exidx_end+0x1cd84a4>
     f94:	77203120 	strvc	r3, [r0, -r0, lsr #2]!
     f98:	206c6c69 	rsbcs	r6, ip, r9, ror #24
     f9c:	636f6c62 	cmnvs	pc, #25088	@ 0x6200
     fa0:	000d0a6b 	andeq	r0, sp, fp, ror #20
     fa4:	6b736154 	blvs	1cd94fc <__exidx_end+0x1cd84b8>
     fa8:	53203120 			@ <UNDEFINED> instruction: 0x53203120
     fac:	616e6769 	cmnvs	lr, r9, ror #14
     fb0:	64656c6c 	strbtvs	r6, [r5], #-3180	@ 0xfffff394
     fb4:	54000d0a 	strpl	r0, [r0], #-3338	@ 0xfffff2f6
     fb8:	206b7361 	rsbcs	r7, fp, r1, ror #6
     fbc:	75722032 	ldrbvc	r2, [r2, #-50]!	@ 0xffffffce
     fc0:	6e696e6e 	cdpvs	14, 6, cr6, cr9, cr14, {3}
     fc4:	000a0d67 	andeq	r0, sl, r7, ror #26
     fc8:	6f626f4e 	svcvs	0x00626f4e
     fcc:	63207964 			@ <UNDEFINED> instruction: 0x63207964
     fd0:	73657261 	cmnvc	r5, #268435462	@ 0x10000006
     fd4:	6f626120 	svcvs	0x00626120
     fd8:	54207475 	strtpl	r7, [r0], #-1141	@ 0xfffffb8b
     fdc:	336b7361 	cmncc	fp, #-2080374783	@ 0x84000001
     fe0:	0a2e2e2e 	beq	b8c8a0 <__exidx_end+0xb8b85c>
     fe4:	6154000d 	cmpvs	r4, sp
     fe8:	20336b73 	eorscs	r6, r3, r3, ror fp
     fec:	656d6974 	strbvs	r6, [sp, #-2420]!	@ 0xfffff68c
     ff0:	756f2d64 	strbvc	r2, [pc, #-3428]!	@ 294 <main+0x70>
     ff4:	61202c74 			@ <UNDEFINED> instruction: 0x61202c74
     ff8:	656e6f6c 	strbvs	r6, [lr, #-3948]!	@ 0xfffff094
     ffc:	000d0a2e 	andeq	r0, sp, lr, lsr #20
    1000:	6b736154 	blvs	1cd9558 <__exidx_end+0x1cd8514>
    1004:	61540031 	cmpvs	r4, r1, lsr r0
    1008:	00326b73 	eorseq	r6, r2, r3, ror fp
    100c:	6b736154 	blvs	1cd9564 <__exidx_end+0x1cd8520>
    1010:	616d0033 	cmnvs	sp, r3, lsr r0
    1014:	00716c69 	rsbseq	r6, r1, r9, ror #24
    1018:	656c6449 	strbvs	r6, [ip, #-1097]!	@ 0xfffffbb7
    101c:	6b736154 	blvs	1cd9574 <__exidx_end+0x1cd8530>
    1020:	6d695400 	cfstrdvs	mvd5, [r9, #-0]
    1024:	646e6148 	strbtvs	r6, [lr], #-328	@ 0xfffffeb8
    1028:	5472656c 	ldrbtpl	r6, [r2], #-1388	@ 0xfffffa94
    102c:	006b7361 	rsbeq	r7, fp, r1, ror #6
    1030:	64616552 	strbtvs	r6, [r1], #-1362	@ 0xfffffaae
    1034:	 	andeq	r5, r0, r9, ror r1

00001037 <KVERSION>:
    1037:	00000400 	andeq	r0, r0, r0, lsl #8
	...

Disassembly of section .init:

0000103c <_init>:
    103c:	b5f8      	push	{r3, r4, r5, r6, r7, lr}
    103e:	bf00      	nop

Disassembly of section .fini:

00001040 <_fini>:
    1040:	b5f8      	push	{r3, r4, r5, r6, r7, lr}
    1042:	bf00      	nop

Disassembly of section .bss:

20000000 <stack3>:
	...

20000400 <stack2>:
	...

20000800 <stack1>:
	...

20000c00 <mbox>:
	...

20000c24 <task3Handle>:
20000c24:	00000000 	andeq	r0, r0, r0

20000c28 <task2Handle>:
20000c28:	00000000 	andeq	r0, r0, r0

20000c2c <task1Handle>:
20000c2c:	00000000 	andeq	r0, r0, r0

20000c30 <timerListHeadPtr>:
20000c30:	00000000 	andeq	r0, r0, r0

20000c34 <timeOutListHeadPtr>:
20000c34:	00000000 	andeq	r0, r0, r0

20000c38 <pPid>:
20000c38:	00000000 	andeq	r0, r0, r0

20000c3c <version>:
20000c3c:	00000000 	andeq	r0, r0, r0

20000c40 <readyQRightMask>:
20000c40:	00000000 	andeq	r0, r0, r0

20000c44 <readyQBitMask>:
20000c44:	00000000 	andeq	r0, r0, r0

20000c48 <nextTaskPrio>:
	...

20000c49 <highestPrio>:
20000c49:	 	andeq	r0, r0, r0

20000c4c <runTime>:
	...

20000c54 <idleTaskHandle>:
20000c54:	00000000 	andeq	r0, r0, r0

20000c58 <timTaskHandle>:
20000c58:	00000000 	andeq	r0, r0, r0

20000c5c <tcbs>:
	...

20000e28 <runPtr>:
20000e28:	00000000 	andeq	r0, r0, r0

20000e2c <readyQueue>:
	...

20000e68 <idleTicks>:
20000e68:	00000000 	andeq	r0, r0, r0

20000e6c <timerHandlerStack>:
	...

20000f6c <idleStack>:
	...

2000106c <node>:
2000106c:	00000000 	andeq	r0, r0, r0

20001070 <faultID>:
20001070:	00000000 	andeq	r0, r0, r0

Disassembly of section ._user_heap_stack:

20001074 <end-0x4>:
20001074:	00000000 	andeq	r0, r0, r0

20001078 <end>:
	...

Disassembly of section .ARM.attributes:

00000000 <.ARM.attributes>:
   0:	00002841 	andeq	r2, r0, r1, asr #16
   4:	61656100 	cmnvs	r5, r0, lsl #2
   8:	01006962 	tsteq	r0, r2, ror #18
   c:	0000001e 	andeq	r0, r0, lr, lsl r0
  10:	4d2d3705 	stcmi	7, cr3, [sp, #-20]!	@ 0xffffffec
  14:	070a0600 	streq	r0, [sl, -r0, lsl #12]
  18:	1202094d 	andne	r0, r2, #1261568	@ 0x134000
  1c:	15011404 	strne	r1, [r1, #-1028]	@ 0xfffffbfc
  20:	18031701 	stmdane	r3, {r0, r8, r9, sl, ip}
  24:	22011a01 	andcs	r1, r1, #4096	@ 0x1000
  28:	Address 0x28 is out of bounds.


Disassembly of section .comment:

00000000 <.comment>:
   0:	3a434347 	bcc	10d0d24 <__exidx_end+0x10cfce0>
   4:	4e472820 	cdpmi	8, 4, cr2, cr7, cr0, {1}
   8:	6f542055 	svcvs	0x00542055
   c:	20736c6f 	rsbscs	r6, r3, pc, ror #24
  10:	20726f66 	rsbscs	r6, r2, r6, ror #30
  14:	334d5453 	movtcc	r5, #54355	@ 0xd453
  18:	32312032 	eorscc	r2, r1, #50	@ 0x32
  1c:	722e332e 	eorvc	r3, lr, #-1207959552	@ 0xb8000000
  20:	2e316c65 	cdpcs	12, 3, cr6, cr1, cr5, {3}
  24:	34323032 	ldrtcc	r3, [r2], #-50	@ 0xffffffce
  28:	36323930 			@ <UNDEFINED> instruction: 0x36323930
  2c:	3137312d 	teqcc	r7, sp, lsr #2
  30:	31202935 			@ <UNDEFINED> instruction: 0x31202935
  34:	2e332e32 	mrccs	14, 1, r2, cr3, cr2, {1}
  38:	30322031 	eorscc	r2, r2, r1, lsr r0
  3c:	36303332 			@ <UNDEFINED> instruction: 0x36303332
  40:	Address 0x40 is out of bounds.


Disassembly of section .debug_info:

00000000 <.debug_info>:
       0:	00000798 	muleq	r0, r8, r7
       4:	04010005 	streq	r0, [r1], #-5
       8:	00000000 	andeq	r0, r0, r0
       c:	00014916 	andeq	r4, r1, r6, lsl r9
      10:	038e1d00 	orreq	r1, lr, #0, 26
      14:	00110000 	andseq	r0, r1, r0
      18:	00300000 	eorseq	r0, r0, r0
	...
      24:	04170000 	ldreq	r0, [r7], #-0
      28:	746e6905 	strbtvc	r6, [lr], #-2309	@ 0xfffff6fb
      2c:	07040500 	streq	r0, [r4, -r0, lsl #10]
      30:	00000076 	andeq	r0, r0, r6, ror r0
      34:	00002d18 	andeq	r2, r0, r8, lsl sp
      38:	05080500 	streq	r0, [r8, #-1280]	@ 0xfffffb00
      3c:	0000008f 	andeq	r0, r0, pc, lsl #1
      40:	24040805 	strcs	r0, [r4], #-2053	@ 0xfffff7fb
      44:	05000002 	streq	r0, [r0, #-2]
      48:	029e0601 	addseq	r0, lr, #1048576	@ 0x100000
      4c:	01050000 	mrseq	r0, (UNDEF: 5)
      50:	00029c08 	andeq	r9, r2, r8, lsl #24
      54:	05020500 	streq	r0, [r2, #-1280]	@ 0xfffffb00
      58:	000002b5 			@ <UNDEFINED> instruction: 0x000002b5
      5c:	36070205 	strcc	r0, [r7], -r5, lsl #4
      60:	05000001 	streq	r0, [r0, #-1]
      64:	00940504 	addseq	r0, r4, r4, lsl #10
      68:	04050000 	streq	r0, [r5], #-0
      6c:	00007107 	andeq	r7, r0, r7, lsl #2
      70:	07080500 	streq	r0, [r8, -r0, lsl #10]
      74:	0000006c 	andeq	r0, r0, ip, rrx
      78:	2a021019 	bcs	840e4 <__exidx_end+0x830a0>
      7c:	0000b609 	andeq	fp, r0, r9, lsl #12
      80:	03390100 	teqeq	r9, #0, 2
      84:	2c020000 	stccs	0, cr0, [r2], {-0}
      88:	00003417 	andeq	r3, r0, r7, lsl r4
      8c:	18010000 	stmdane	r1, {}	@ <UNPREDICTABLE>
      90:	02000002 	andeq	r0, r0, #2
      94:	0034172d 	eorseq	r1, r4, sp, lsr #14
      98:	0e040000 	cdpeq	0, 0, cr0, cr4, cr0, {0}
      9c:	004c4156 	subeq	r4, ip, r6, asr r1
      a0:	34172e02 	ldrcc	r2, [r7], #-3586	@ 0xfffff1fe
      a4:	08000000 	stmdaeq	r0, {}	@ <UNPREDICTABLE>
      a8:	00034601 	andeq	r4, r3, r1, lsl #12
      ac:	172f0200 	strne	r0, [pc, -r0, lsl #4]!
      b0:	00000034 	andeq	r0, r0, r4, lsr r0
      b4:	c403000c 	strgt	r0, [r3], #-12
      b8:	02000001 	andeq	r0, r0, #1
      bc:	00780330 	rsbseq	r0, r8, r0, lsr r3
      c0:	fb1a0000 	blx	6800ca <__exidx_end+0x67f086>
      c4:	03000001 	movweq	r0, #1
      c8:	14030e1b 	strne	r0, [r3], #-3611	@ 0xfffff1e5
      cc:	03000003 	movweq	r0, #3
      d0:	00db0e1c 	sbcseq	r0, fp, ip, lsl lr
      d4:	ca0a0000 	bgt	2800dc <__exidx_end+0x27f098>
      d8:	05000000 	streq	r0, [r0, #-0]
      dc:	02a50801 	adceq	r0, r5, #65536	@ 0x10000
      e0:	491b0000 	ldmdbmi	fp, {}	@ <UNPREDICTABLE>
      e4:	0300544e 	movweq	r5, #1102	@ 0x44e
      e8:	0026101e 	eoreq	r1, r6, lr, lsl r0
      ec:	1c030000 	stcne	0, cr0, [r3], {-0}
      f0:	03000001 	movweq	r0, #1
      f4:	002d121f 	eoreq	r1, sp, pc, lsl r2
      f8:	7b030000 	blvc	c0100 <__exidx_end+0xbf0bc>
      fc:	03000002 	movweq	r0, #2
     100:	006a1720 	rsbeq	r1, sl, r0, lsr #14
     104:	7c030000 	stcvc	0, cr0, [r3], {-0}
     108:	03000002 	movweq	r0, #2
     10c:	00630e21 	rsbeq	r0, r3, r1, lsr #28
     110:	8a030000 	bhi	c0118 <__exidx_end+0xbf0d4>
     114:	03000000 	movweq	r0, #0
     118:	01230f22 			@ <UNDEFINED> instruction: 0x01230f22
     11c:	120a0000 	andne	r0, sl, #0
     120:	1c000001 	stcne	0, cr0, [r0], {1}
     124:	02000304 	andeq	r0, r0, #4, 6	@ 0x10000000
     128:	26030000 	strcs	r0, [r3], -r0
     12c:	00002d12 	andeq	r2, r0, r2, lsl sp
     130:	036b0300 	cmneq	fp, #0, 6
     134:	52030000 	andpl	r0, r3, #0
     138:	00004e17 	andeq	r4, r0, r7, lsl lr
     13c:	02fc0300 	rscseq	r0, ip, #0, 6
     140:	53030000 	movwpl	r0, #12288	@ 0x3000
     144:	00004e17 	andeq	r4, r0, r7, lsl lr
     148:	009d0300 	addseq	r0, sp, r0, lsl #6
     14c:	54030000 	strpl	r0, [r3], #-0
     150:	00006a17 	andeq	r6, r0, r7, lsl sl
     154:	01490a00 	cmpeq	r9, r0, lsl #20
     158:	83030000 	movwhi	r0, #12288	@ 0x3000
     15c:	03000000 	movweq	r0, #0
     160:	01060e8a 	smlabbeq	r6, sl, lr, r0
     164:	a4030000 	strge	r0, [r3], #-0
     168:	03000003 	movweq	r0, #3
     16c:	00fa0fcb 	rscseq	r0, sl, fp, asr #31
     170:	aa030000 	bge	c0178 <__exidx_end+0xbf134>
     174:	03000002 	movweq	r0, #2
     178:	00fa0fd9 	ldrsbteq	r0, [sl], #249	@ 0xf9
     17c:	f70b0000 			@ <UNDEFINED> instruction: 0xf70b0000
     180:	5c000002 	stcpl	0, cr0, [r0], {2}
     184:	00027142 	andeq	r7, r2, r2, asr #2
     188:	70730e00 	rsbsvc	r0, r3, r0, lsl #28
     18c:	0b450400 	bleq	1141194 <__exidx_end+0x1140150>
     190:	000003ba 			@ <UNDEFINED> instruction: 0x000003ba
     194:	03540100 	cmpeq	r4, #0, 2
     198:	46040000 	strmi	r0, [r4], -r0
     19c:	00016615 	andeq	r6, r1, r5, lsl r6
     1a0:	5b010400 	blpl	411a8 <__exidx_end+0x40164>
     1a4:	04000003 	streq	r0, [r0], #-3
     1a8:	00fa0c47 	rscseq	r0, sl, r7, asr #24
     1ac:	01080000 	mrseq	r0, (UNDEF: 8)
     1b0:	000001f3 	strdeq	r0, [r0], -r3
     1b4:	e20c4804 	and	r4, ip, #4, 16	@ 0x40000
     1b8:	0c000000 	stceq	0, cr0, [r0], {-0}
     1bc:	0000c801 	andeq	ip, r0, r1, lsl #16
     1c0:	0c4b0400 	cfstrdeq	mvd0, [fp], {-0}
     1c4:	000003b5 			@ <UNDEFINED> instruction: 0x000003b5
     1c8:	02cb0110 	sbceq	r0, fp, #16, 2
     1cc:	4c040000 	stcmi	0, cr0, [r4], {-0}
     1d0:	0003ba0b 	andeq	fp, r3, fp, lsl #20
     1d4:	04011400 	streq	r1, [r1], #-1024	@ 0xfffffc00
     1d8:	04000003 	streq	r0, [r0], #-3
     1dc:	00ee0b4d 	rsceq	r0, lr, sp, asr #22
     1e0:	0e180000 	cdpeq	0, 1, cr0, cr8, cr0, {0}
     1e4:	00646970 	rsbeq	r6, r4, r0, ror r9
     1e8:	310d4e04 	tstcc	sp, r4, lsl #28
     1ec:	1c000001 	stcne	0, cr0, [r0], {1}
     1f0:	0001ea01 	andeq	lr, r1, r1, lsl #20
     1f4:	0e4f0400 	cdpeq	4, 4, cr0, cr15, cr0, {0}
     1f8:	0000013d 	andeq	r0, r0, sp, lsr r1
     1fc:	0062011d 	rsbeq	r0, r2, sp, lsl r1
     200:	54040000 	strpl	r0, [r4], #-0
     204:	0001250b 	andeq	r2, r1, fp, lsl #10
     208:	e9012000 	stmdb	r1, {sp}
     20c:	04000000 	streq	r0, [r0], #-0
     210:	01490e5f 	cmpeq	r9, pc, asr lr
     214:	01240000 			@ <UNDEFINED> instruction: 0x01240000
     218:	00000251 	andeq	r0, r0, r1, asr r2
     21c:	490e6104 	stmdbmi	lr, {r2, r8, sp, lr}
     220:	28000001 	stmdacs	r0, {r0}
     224:	00000601 	andeq	r0, r0, r1, lsl #12
     228:	0b630400 	bleq	18c1230 <__exidx_end+0x18c01ec>
     22c:	00000125 	andeq	r0, r0, r5, lsr #2
     230:	01e2012c 	mvneq	r0, ip, lsr #2
     234:	64040000 	strvs	r0, [r4], #-0
     238:	0001250b 	andeq	r2, r1, fp, lsl #10
     23c:	3e013000 	cdpcc	0, 0, cr3, cr1, cr0, {0}
     240:	04000000 	streq	r0, [r0], #-0
     244:	00ee0b66 	rsceq	r0, lr, r6, ror #22
     248:	01340000 	teqeq	r4, r0
     24c:	000002bf 			@ <UNDEFINED> instruction: 0x000002bf
     250:	310d6704 	tstcc	sp, r4, lsl #14
     254:	38000001 	stmdacc	r0, {r0}
     258:	0002050d 	andeq	r0, r2, sp, lsl #10
     25c:	f31a6800 	vsub.i16	d6, d10, d0
     260:	3c000002 	stccc	0, cr0, [r0], {2}
     264:	0001290d 	andeq	r2, r1, sp, lsl #18
     268:	bc176900 			@ <UNDEFINED> instruction: 0xbc176900
     26c:	54000002 	strpl	r0, [r0], #-2
     270:	00a50300 	adceq	r0, r5, r0, lsl #6
     274:	ef030000 	svc	0x00030000
     278:	00027d16 	andeq	r7, r2, r6, lsl sp
     27c:	02d80b00 	sbcseq	r0, r8, #0, 22
     280:	3a140000 	bcc	500288 <__exidx_end+0x4ff244>
     284:	000002bc 			@ <UNDEFINED> instruction: 0x000002bc
     288:	0000f60d 	andeq	pc, r0, sp, lsl #12
     28c:	bc173c00 	ldclt	12, cr3, [r7], {-0}
     290:	00000002 	andeq	r0, r0, r2
     294:	0001d901 	andeq	sp, r1, r1, lsl #18
     298:	0c3d0400 	cfldrseq	mvf0, [sp], #-0
     29c:	000003b5 			@ <UNDEFINED> instruction: 0x000003b5
     2a0:	01310108 	teqeq	r1, r8, lsl #2
     2a4:	3e040000 	cdpcc	0, 0, cr0, cr4, cr0, {0}
     2a8:	0000fa0c 	andeq	pc, r0, ip, lsl #20
     2ac:	5d010c00 	stcpl	12, cr0, [r1, #-0]
     2b0:	04000000 	streq	r0, [r0], #-0
     2b4:	01250b3f 			@ <UNDEFINED> instruction: 0x01250b3f
     2b8:	00100000 	andseq	r0, r0, r0
     2bc:	0001000b 	andeq	r0, r1, fp
     2c0:	e2340800 	eors	r0, r4, #0, 16
     2c4:	01000002 	tsteq	r0, r2
     2c8:	000000c0 	andeq	r0, r0, r0, asr #1
     2cc:	b0183604 	andslt	r3, r8, r4, lsl #12
     2d0:	00000003 	andeq	r0, r0, r3
     2d4:	00034c01 	andeq	r4, r3, r1, lsl #24
     2d8:	18370400 	ldmdane	r7!, {sl}
     2dc:	000003b0 			@ <UNDEFINED> instruction: 0x000003b0
     2e0:	e8030004 	stmda	r3, {r2}
     2e4:	03000002 	movweq	r0, #2
     2e8:	02ee16f2 	rsceq	r1, lr, #253755392	@ 0xf200000
     2ec:	7e040000 	cdpvc	0, 0, cr0, cr4, cr0, {0}
     2f0:	0b000001 	bleq	2fc <Reset_Handler+0x20>
     2f4:	000000d1 	ldrdeq	r0, [r0], -r1
     2f8:	034d1f18 	movteq	r1, #57112	@ 0xdf18
     2fc:	c0010000 	andgt	r0, r1, r0
     300:	04000000 	streq	r0, [r0], #-0
     304:	03a61b21 			@ <UNDEFINED> instruction: 0x03a61b21
     308:	01000000 	mrseq	r0, (UNDEF: 0)
     30c:	0000034c 	andeq	r0, r0, ip, asr #6
     310:	a61b2204 	ldrge	r2, [fp], -r4, lsl #4
     314:	04000003 	streq	r0, [r0], #-3
     318:	00025e01 	andeq	r5, r2, r1, lsl #28
     31c:	0b230400 	bleq	8c1324 <__exidx_end+0x8c02e0>
     320:	000000ee 	andeq	r0, r0, lr, ror #1
     324:	01210108 			@ <UNDEFINED> instruction: 0x01210108
     328:	24040000 	strcs	r0, [r4], #-0
     32c:	0001490e 	andeq	r4, r1, lr, lsl #18
     330:	0e010c00 	cdpeq	12, 0, cr0, cr1, cr0, {0}
     334:	04000003 	streq	r0, [r0], #-3
     338:	01490e25 	cmpeq	r9, r5, lsr #28
     33c:	01100000 	tsteq	r0, r0
     340:	00000230 	andeq	r0, r0, r0, lsr r2
     344:	ab0f2604 	blge	3c9b5c <__exidx_end+0x3c8b18>
     348:	14000003 	strne	r0, [r0], #-3
     34c:	03191d00 	tsteq	r9, #0, 26
     350:	01030000 	mrseq	r0, (UNDEF: 3)
     354:	035a1901 	cmpeq	sl, #16384	@ 0x4000
     358:	620b0000 	andvs	r0, fp, #0
     35c:	24000003 	strcs	r0, [r0], #-3
     360:	0003a6a6 	andeq	sl, r3, r6, lsr #13
     364:	00000100 	andeq	r0, r0, r0, lsl #2
     368:	a8040000 	stmdage	r4, {}	@ <UNPREDICTABLE>
     36c:	00017211 	andeq	r7, r1, r1, lsl r2
     370:	5d010000 	stcpl	0, cr0, [r1, #-0]
     374:	04000000 	streq	r0, [r0], #-0
     378:	01250ba9 	smulwbeq	r5, r9, fp
     37c:	01040000 	mrseq	r0, (UNDEF: 4)
     380:	00000049 	andeq	r0, r0, r9, asr #32
     384:	120baa04 	andne	sl, fp, #4, 20	@ 0x4000
     388:	08000001 	stmdaeq	r0, {r0}
     38c:	0000ad0d 	andeq	sl, r0, sp, lsl #26
     390:	7d13ab00 	vldrvc	d10, [r3, #-0]
     394:	0c000002 	stceq	0, cr0, [r0], {2}
     398:	00028101 	andeq	r8, r2, r1, lsl #2
     39c:	13ac0400 			@ <UNDEFINED> instruction: 0x13ac0400
     3a0:	000002ee 	andeq	r0, r0, lr, ror #5
     3a4:	f3040020 	vhadd.u8	d0, d4, d16
     3a8:	04000002 	streq	r0, [r0], #-2
     3ac:	00000271 	andeq	r0, r0, r1, ror r2
     3b0:	0002bc04 	andeq	fp, r2, r4, lsl #24
     3b4:	00ca0400 	sbceq	r0, sl, r0, lsl #8
     3b8:	e2040000 	and	r0, r4, #0
     3bc:	1e000000 	cdpne	0, 0, cr0, cr0, cr0, {0}
     3c0:	000000e2 	andeq	r0, r0, r2, ror #1
     3c4:	000003cf 	andeq	r0, r0, pc, asr #7
     3c8:	00002d1f 	andeq	r2, r0, pc, lsl sp
     3cc:	0800ff00 	stmdaeq	r0, {r8, r9, sl, fp, ip, sp, lr, pc}
     3d0:	00000211 	andeq	r0, r0, r1, lsl r2
     3d4:	03bf0c0a 			@ <UNDEFINED> instruction: 0x03bf0c0a
     3d8:	21080000 	mrscs	r0, (UNDEF: 8)
     3dc:	0b000003 	bleq	3f0 <kMboxPost+0x2c>
     3e0:	0003bf0c 	andeq	fp, r3, ip, lsl #30
     3e4:	021d0800 	andseq	r0, sp, #0, 16
     3e8:	0c0c0000 	stceq	0, cr0, [ip], {-0}
     3ec:	000003bf 			@ <UNDEFINED> instruction: 0x000003bf
     3f0:	00024508 	andeq	r4, r2, r8, lsl #10
     3f4:	e2170e00 	ands	r0, r7, #0, 28
     3f8:	08000002 	stmdaeq	r0, {r1}
     3fc:	00000051 	andeq	r0, r0, r1, asr r0
     400:	02e2170f 	rsceq	r1, r2, #3932160	@ 0x3c0000
     404:	6a080000 	bvs	20040c <__exidx_end+0x1ff3c8>
     408:	10000002 	andne	r0, r0, r2
     40c:	0002e217 	andeq	lr, r2, r7, lsl r2
     410:	03f00900 	mvnseq	r0, #0, 18
     414:	10040000 	andne	r0, r4, r0
     418:	0c2c0305 	stceq	3, cr0, [ip], #-20	@ 0xffffffec
     41c:	fb092000 	blx	248426 <__exidx_end+0x2473e2>
     420:	05000003 	streq	r0, [r0, #-3]
     424:	28030510 	stmdacs	r3, {r4, r8, sl}
     428:	0920000c 	stmdbeq	r0!, {r2, r3}
     42c:	00000406 	andeq	r0, r0, r6, lsl #8
     430:	03051006 	movweq	r1, #20486	@ 0x5006
     434:	20000c24 	andcs	r0, r0, r4, lsr #24
     438:	0002760f 	andeq	r7, r2, pc, lsl #12
     43c:	4d090800 	stcmi	8, cr0, [r9, #-0]
     440:	05000003 	streq	r0, [r0, #-3]
     444:	000c0003 	andeq	r0, ip, r3
     448:	03cf0920 	biceq	r0, pc, #32, 18	@ 0x80000
     44c:	050b0000 	streq	r0, [fp, #-0]
     450:	08000305 	stmdaeq	r0, {r0, r2, r8, r9}
     454:	da092000 	ble	24845c <__exidx_end+0x247418>
     458:	0c000003 	stceq	0, cr0, [r0], {3}
     45c:	00030505 	andeq	r0, r3, r5, lsl #10
     460:	09200004 	stmdbeq	r0!, {r2}
     464:	000003e5 	andeq	r0, r0, r5, ror #7
     468:	0305050d 	movweq	r0, #21773	@ 0x550d
     46c:	20000000 	andcs	r0, r0, r0
     470:	0000350f 	andeq	r3, r0, pc, lsl #10
     474:	861b1300 	ldrhi	r1, [fp], -r0, lsl #6
     478:	05000004 	streq	r0, [r0, #-4]
     47c:	00000003 	andeq	r0, r0, r3
     480:	00340400 	eorseq	r0, r4, r0, lsl #8
     484:	810a0000 	mrshi	r0, (UNDEF: 10)
     488:	0f000004 	svceq	0x00000004
     48c:	00000389 	andeq	r0, r0, r9, lsl #7
     490:	00ee062b 	rsceq	r0, lr, fp, lsr #12
     494:	03050000 	movweq	r0, #20480	@ 0x5000
     498:	00000000 	andeq	r0, r0, r0
     49c:	00029520 	andeq	r9, r2, r0, lsr #10
     4a0:	023f0600 	eorseq	r0, pc, #0, 12
     4a4:	0004af06 	andeq	sl, r4, r6, lsl #30
     4a8:	01550600 	cmpeq	r5, r0, lsl #12
     4ac:	13000000 	movwne	r0, #0
     4b0:	00000116 	andeq	r0, r0, r6, lsl r1
     4b4:	015a01a7 	cmpeq	sl, r7, lsr #3
     4b8:	04c40000 	strbeq	r0, [r4], #0
     4bc:	55060000 	strpl	r0, [r6, #-0]
     4c0:	00000001 	andeq	r0, r0, r1
     4c4:	0002de10 	andeq	sp, r2, r0, lsl lr
     4c8:	015acc00 	cmpeq	sl, r0, lsl #24
     4cc:	04e20000 	strbteq	r0, [r2], #0
     4d0:	e7060000 	str	r0, [r6, -r0]
     4d4:	06000004 	streq	r0, [r0], -r4
     4d8:	0000011e 	andeq	r0, r0, lr, lsl r1
     4dc:	00014906 	andeq	r4, r1, r6, lsl #18
     4e0:	4d040000 	stcmi	0, cr0, [r4, #-0]
     4e4:	0a000003 	beq	4f8 <kMboxPost+0x134>
     4e8:	000004e2 	andeq	r0, r0, r2, ror #9
     4ec:	00010a13 	andeq	r0, r1, r3, lsl sl
     4f0:	5a024700 	bpl	920f8 <__exidx_end+0x910b4>
     4f4:	01000001 	tsteq	r0, r1
     4f8:	06000005 	streq	r0, [r0], -r5
     4fc:	00000149 	andeq	r0, r0, r9, asr #2
     500:	03b31000 			@ <UNDEFINED> instruction: 0x03b31000
     504:	5ad50000 	bpl	ff54050c <SCB_ICSR+0x1f531808>
     508:	1f000001 	svcne	0x00000001
     50c:	06000005 	streq	r0, [r0], -r5
     510:	000004e7 	andeq	r0, r0, r7, ror #9
     514:	00051f06 	andeq	r1, r5, r6, lsl #30
     518:	01490600 	cmpeq	r9, r0, lsl #12
     51c:	04000000 	streq	r0, [r0], #-0
     520:	00000112 	andeq	r0, r0, r2, lsl r1
     524:	00028b10 	andeq	r8, r2, r0, lsl fp
     528:	015abb00 	cmpeq	sl, r0, lsl #22
     52c:	053d0000 	ldreq	r0, [sp, #-0]!
     530:	e7060000 	str	r0, [r6, -r0]
     534:	06000004 	streq	r0, [r0], -r4
     538:	00000112 	andeq	r0, r0, r2, lsl r1
     53c:	037e0c00 	cmneq	lr, #0, 24
     540:	f8490000 			@ <UNDEFINED> instruction: 0xf8490000
     544:	2c000001 	stccs	0, cr0, [r0], {1}
     548:	01000000 	mrseq	r0, (UNDEF: 0)
     54c:	0005c99c 	muleq	r5, ip, r9
     550:	03841100 	orreq	r1, r4, #0, 2
     554:	c9490000 	stmdbgt	r9, {}^	@ <UNPREDICTABLE>
     558:	10000005 	andne	r0, r0, r5
     55c:	0c000000 	stceq	0, cr0, [r0], {-0}
     560:	14000000 	strne	r0, [r0], #-0
     564:	00000024 	andeq	r0, r0, r4, lsr #32
     568:	72726521 	rsbsvc	r6, r2, #138412032	@ 0x8400000
     56c:	0d4f0100 	stfeqe	f0, [pc, #-0]	@ 574 <kMboxPend+0x78>
     570:	0000015a 	andeq	r0, r0, sl, asr r1
     574:	00000027 	andeq	r0, r0, r7, lsr #32
     578:	00000023 	andeq	r0, r0, r3, lsr #32
     57c:	00020407 	andeq	r0, r2, r7, lsl #8
     580:	00071f00 	andeq	r1, r7, r0, lsl #30
     584:	00059000 	andeq	r9, r5, r0
     588:	50010200 	andpl	r0, r1, r0, lsl #4
     58c:	00007402 	andeq	r7, r0, r2, lsl #8
     590:	00020a07 	andeq	r0, r2, r7, lsl #20
     594:	0004af00 	andeq	sl, r4, r0, lsl #30
     598:	0005a400 	andeq	sl, r5, r0, lsl #8
     59c:	50010200 	andpl	r0, r1, r0, lsl #4
     5a0:	00270802 	eoreq	r0, r7, r2, lsl #16
     5a4:	00021407 	andeq	r1, r2, r7, lsl #8
     5a8:	00071f00 	andeq	r1, r7, r0, lsl #30
     5ac:	0005b800 	andeq	fp, r5, r0, lsl #16
     5b0:	50010200 	andpl	r0, r1, r0, lsl #4
     5b4:	00007502 	andeq	r7, r0, r2, lsl #10
     5b8:	00021a12 	andeq	r1, r2, r2, lsl sl
     5bc:	00049c00 	andeq	r9, r4, r0, lsl #24
     5c0:	50010200 	andpl	r0, r1, r0, lsl #4
     5c4:	00003f01 	andeq	r3, r0, r1, lsl #30
     5c8:	00c20400 	sbceq	r0, r2, r0, lsl #8
     5cc:	780c0000 	stmdavc	ip, {}	@ <UNPREDICTABLE>
     5d0:	3d000003 	stccc	0, cr0, [r0, #-12]
     5d4:	000001cc 	andeq	r0, r0, ip, asr #3
     5d8:	0000002c 	andeq	r0, r0, ip, lsr #32
     5dc:	06469c01 	strbeq	r9, [r6], -r1, lsl #24
     5e0:	84110000 	ldrhi	r0, [r1], #-0
     5e4:	3d000003 	stccc	0, cr0, [r0, #-12]
     5e8:	000005c9 	andeq	r0, r0, r9, asr #11
     5ec:	0000003d 	andeq	r0, r0, sp, lsr r0
     5f0:	00000039 	andeq	r0, r0, r9, lsr r0
     5f4:	00024015 	andeq	r4, r2, r5, lsl r0
     5f8:	ee073f00 	cdp	15, 0, cr3, cr7, cr0, {0}
     5fc:	02000000 	andeq	r0, r0, #0
     600:	dc077491 	cfstrsle	mvf7, [r7], {145}	@ 0x91
     604:	1f000001 	svcne	0x00000001
     608:	16000007 	strne	r0, [r0], -r7
     60c:	02000006 	andeq	r0, r0, #6
     610:	75025001 	strvc	r5, [r2, #-1]
     614:	e8070000 	stmda	r7, {}	@ <UNPREDICTABLE>
     618:	c4000001 	strgt	r0, [r0], #-1
     61c:	36000004 	strcc	r0, [r0], -r4
     620:	02000006 	andeq	r0, r0, #6
     624:	74025001 	strvc	r5, [r2], #-1
     628:	51010200 	mrspl	r0, R9_usr
     62c:	02749102 	rsbseq	r9, r4, #-2147483648	@ 0x80000000
     630:	09025201 	stmdbeq	r2, {r0, r9, ip, lr}
     634:	ee1200ff 	mrc	0, 0, r0, cr2, cr15, {7}
     638:	ec000001 	stc	0, cr0, [r0], {1}
     63c:	02000004 	andeq	r0, r0, #4
     640:	41015001 	tstmi	r1, r1
     644:	720c0000 	andvc	r0, ip, #0
     648:	2c000003 	stccs	0, cr0, [r0], {3}
     64c:	00000198 	muleq	r0, r8, r1
     650:	00000034 	andeq	r0, r0, r4, lsr r0
     654:	06ed9c01 	strbteq	r9, [sp], r1, lsl #24
     658:	84110000 	ldrhi	r0, [r1], #-0
     65c:	2c000003 	stccs	0, cr0, [r0], {3}
     660:	000005c9 	andeq	r0, r0, r9, asr #11
     664:	00000054 	andeq	r0, r0, r4, asr r0
     668:	00000050 	andeq	r0, r0, r0, asr r0
     66c:	00033e15 	andeq	r3, r3, r5, lsl lr
     670:	ed082f00 	stc	15, cr2, [r8, #-0]
     674:	02000006 	andeq	r0, r0, #6
     678:	18146c91 	ldmdane	r4, {r0, r4, r7, sl, fp, sp, lr}
     67c:	22000000 	andcs	r0, r0, #0
     680:	000000de 	ldrdeq	r0, [r0], -lr
     684:	ee0e3401 	cdp	4, 0, cr3, cr14, cr1, {0}
     688:	69000000 	stmdbvs	r0, {}	@ <UNPREDICTABLE>
     68c:	67000000 	strvs	r0, [r0, -r0]
     690:	07000000 	streq	r0, [r0, -r0]
     694:	000001a6 	andeq	r0, r0, r6, lsr #3
     698:	0000071f 	andeq	r0, r0, pc, lsl r7
     69c:	000006a7 	andeq	r0, r0, r7, lsr #13
     6a0:	02500102 	subseq	r0, r0, #-2147483648	@ 0x80000000
     6a4:	07000076 	smlsdxeq	r0, r6, r0, r0
     6a8:	000001b2 			@ <UNDEFINED> instruction: 0x000001b2
     6ac:	00000501 	andeq	r0, r0, r1, lsl #10
     6b0:	000006c7 	andeq	r0, r0, r7, asr #13
     6b4:	02500102 	subseq	r0, r0, #-2147483648	@ 0x80000000
     6b8:	01020075 	tsteq	r2, r5, ror r0
     6bc:	6c910251 	lfmvs	f0, 4, [r1], {81}	@ 0x51
     6c0:	02520102 	subseq	r0, r2, #-2147483648	@ 0x80000000
     6c4:	0700ff09 	streq	pc, [r0, -r9, lsl #30]
     6c8:	000001b8 			@ <UNDEFINED> instruction: 0x000001b8
     6cc:	0000071f 	andeq	r0, r0, pc, lsl r7
     6d0:	000006db 	ldrdeq	r0, [r0], -fp
     6d4:	02500102 	subseq	r0, r0, #-2147483648	@ 0x80000000
     6d8:	12000074 	andne	r0, r0, #116	@ 0x74
     6dc:	000001be 			@ <UNDEFINED> instruction: 0x000001be
     6e0:	000004ec 	andeq	r0, r0, ip, ror #9
     6e4:	02500102 	subseq	r0, r0, #-2147483648	@ 0x80000000
     6e8:	00002108 	andeq	r2, r0, r8, lsl #2
     6ec:	00ee0400 	rsceq	r0, lr, r0, lsl #8
     6f0:	280c0000 	stmdacs	ip, {}	@ <UNPREDICTABLE>
     6f4:	26000003 	strcs	r0, [r0], -r3
     6f8:	0000018c 	andeq	r0, r0, ip, lsl #3
     6fc:	0000000c 	andeq	r0, r0, ip
     700:	071f9c01 	ldreq	r9, [pc, -r1, lsl #24]
     704:	94230000 	strtls	r0, [r3], #-0
     708:	24000001 	strcs	r0, [r0], #-1
     70c:	02000005 	andeq	r0, r0, #5
     710:	03055001 	movweq	r5, #20481	@ 0x5001
     714:	20000c00 	andcs	r0, r0, r0, lsl #24
     718:	01510102 	cmpeq	r1, r2, lsl #2
     71c:	0c000030 	stceq	0, cr0, [r0], {48}	@ 0x30
     720:	000000e3 	andeq	r0, r0, r3, ror #1
     724:	0001601a 	andeq	r6, r1, sl, lsl r0
     728:	00002c00 	andeq	r2, r0, r0, lsl #24
     72c:	679c0100 	ldrvs	r0, [ip, r0, lsl #2]
     730:	24000007 	strcs	r0, [r0], #-7
     734:	00727473 	rsbseq	r7, r2, r3, ror r4
     738:	67181a01 	ldrvs	r1, [r8, -r1, lsl #20]
     73c:	7c000007 	stcvc	0, cr0, [r0], {7}
     740:	74000000 	strvc	r0, [r0], #-0
     744:	25000000 	strcs	r0, [r0, #-0]
     748:	0000076c 	andeq	r0, r0, ip, ror #14
     74c:	0000017e 	andeq	r0, r0, lr, ror r1
     750:	00000c01 	andeq	r0, r0, r1, lsl #24
     754:	09200100 	stmdbeq	r0!, {r8}
     758:	00077926 	andeq	r7, r7, r6, lsr #18
     75c:	00009c00 	andeq	r9, r0, r0, lsl #24
     760:	00009a00 	andeq	r9, r0, r0, lsl #20
     764:	04000000 	streq	r0, [r0], #-0
     768:	000000d6 	ldrdeq	r0, [r0], -r6
     76c:	0000ba27 	andeq	fp, r0, r7, lsr #20
     770:	06150100 	ldreq	r0, [r5], -r0, lsl #2
     774:	00078401 	andeq	r8, r7, r1, lsl #8
     778:	00632800 	rsbeq	r2, r3, r0, lsl #16
     77c:	d6171501 	ldrle	r1, [r7], -r1, lsl #10
     780:	00000000 	andeq	r0, r0, r0
     784:	00076c29 	andeq	r6, r7, r9, lsr #24
     788:	00000000 	andeq	r0, r0, r0
     78c:	00000c00 	andeq	r0, r0, r0, lsl #24
     790:	2a9c0100 	bcs	fe700b98 <SCB_ICSR+0x1e6f1e94>
     794:	00000779 	andeq	r0, r0, r9, ror r7
     798:	00005001 	andeq	r5, r0, r1
     79c:	0000058d 	andeq	r0, r0, sp, lsl #11
     7a0:	04010005 	streq	r0, [r1], #-5
     7a4:	00000286 	andeq	r0, r0, r6, lsl #5
     7a8:	0001490f 	andeq	r4, r1, pc, lsl #18
     7ac:	03ef1d00 	mvneq	r1, #0, 26
     7b0:	00110000 	andseq	r0, r1, r0
     7b4:	00610000 	rsbeq	r0, r1, r0
     7b8:	00000000 	andeq	r0, r0, r0
     7bc:	01de0000 	bicseq	r0, lr, r0
     7c0:	04100000 	ldreq	r0, [r0], #-0
     7c4:	746e6905 	strbtvc	r6, [lr], #-2309	@ 0xfffff6fb
     7c8:	07040500 	streq	r0, [r4, -r0, lsl #10]
     7cc:	00000076 	andeq	r0, r0, r6, ror r0
     7d0:	00002d11 	andeq	r2, r0, r1, lsl sp
     7d4:	05080500 	streq	r0, [r8, #-1280]	@ 0xfffffb00
     7d8:	0000008f 	andeq	r0, r0, pc, lsl #1
     7dc:	24040805 	strcs	r0, [r4], #-2053	@ 0xfffff7fb
     7e0:	05000002 	streq	r0, [r0, #-2]
     7e4:	029e0601 	addseq	r0, lr, #1048576	@ 0x100000
     7e8:	01050000 	mrseq	r0, (UNDEF: 5)
     7ec:	00029c08 	andeq	r9, r2, r8, lsl #24
     7f0:	05020500 	streq	r0, [r2, #-1280]	@ 0xfffffb00
     7f4:	000002b5 			@ <UNDEFINED> instruction: 0x000002b5
     7f8:	36070205 	strcc	r0, [r7], -r5, lsl #4
     7fc:	05000001 	streq	r0, [r0, #-1]
     800:	00940504 	addseq	r0, r4, r4, lsl #10
     804:	04050000 	streq	r0, [r5], #-0
     808:	00007107 	andeq	r7, r0, r7, lsl #2
     80c:	07080500 	streq	r0, [r8, -r0, lsl #10]
     810:	0000006c 	andeq	r0, r0, ip, rrx
     814:	2a021012 	bcs	84864 <__exidx_end+0x83820>
     818:	0000b609 	andeq	fp, r0, r9, lsl #12
     81c:	03390100 	teqeq	r9, #0, 2
     820:	2c020000 	stccs	0, cr0, [r2], {-0}
     824:	00003417 	andeq	r3, r0, r7, lsl r4
     828:	18010000 	stmdane	r1, {}	@ <UNPREDICTABLE>
     82c:	02000002 	andeq	r0, r0, #2
     830:	0034172d 	eorseq	r1, r4, sp, lsr #14
     834:	0c040000 	stceq	0, cr0, [r4], {-0}
     838:	004c4156 	subeq	r4, ip, r6, asr r1
     83c:	34172e02 	ldrcc	r2, [r7], #-3586	@ 0xfffff1fe
     840:	08000000 	stmdaeq	r0, {}	@ <UNPREDICTABLE>
     844:	00034601 	andeq	r4, r3, r1, lsl #12
     848:	172f0200 	strne	r0, [pc, -r0, lsl #4]!
     84c:	00000034 	andeq	r0, r0, r4, lsr r0
     850:	c404000c 	strgt	r0, [r4], #-12
     854:	02000001 	andeq	r0, r0, #1
     858:	00780330 	rsbseq	r0, r8, r0, lsr r3
     85c:	fb130000 	blx	4c0866 <__exidx_end+0x4bf822>
     860:	03000001 	movweq	r0, #1
     864:	14040e1b 	strne	r0, [r4], #-3611	@ 0xfffff1e5
     868:	03000003 	movweq	r0, #3
     86c:	00d60e1c 	sbcseq	r0, r6, ip, lsl lr
     870:	01050000 	mrseq	r0, (UNDEF: 5)
     874:	0002a508 	andeq	sl, r2, r8, lsl #10
     878:	4e491400 	cdpmi	4, 4, cr1, cr9, cr0, {0}
     87c:	1e030054 	mcrne	0, 0, r0, cr3, cr4, {2}
     880:	00002610 	andeq	r2, r0, r0, lsl r6
     884:	011c0400 	tsteq	ip, r0, lsl #8
     888:	1f030000 	svcne	0x00030000
     88c:	00002d12 	andeq	r2, r0, r2, lsl sp
     890:	00e90800 	rsceq	r0, r9, r0, lsl #16
     894:	7b040000 	blvc	10089c <__exidx_end+0xff858>
     898:	03000002 	movweq	r0, #2
     89c:	006a1720 	rsbeq	r1, sl, r0, lsr #14
     8a0:	7c040000 	stcvc	0, cr0, [r4], {-0}
     8a4:	03000002 	movweq	r0, #2
     8a8:	00630e21 	rsbeq	r0, r3, r1, lsr #28
     8ac:	04150000 	ldreq	r0, [r5], #-0
     8b0:	00020004 	andeq	r0, r2, r4
     8b4:	12260300 	eorne	r0, r6, #0, 6
     8b8:	0000002d 	andeq	r0, r0, sp, lsr #32
     8bc:	00011408 	andeq	r1, r1, r8, lsl #8
     8c0:	036b0400 	cmneq	fp, #0, 8
     8c4:	52030000 	andpl	r0, r3, #0
     8c8:	00004e17 	andeq	r4, r0, r7, lsl lr
     8cc:	02fc0400 	rscseq	r0, ip, #0, 8
     8d0:	53030000 	movwpl	r0, #12288	@ 0x3000
     8d4:	00004e17 	andeq	r4, r0, r7, lsl lr
     8d8:	01310800 	teqeq	r1, r0, lsl #16
     8dc:	9d040000 	stcls	0, cr0, [r4, #-0]
     8e0:	03000000 	movweq	r0, #0
     8e4:	006a1754 	rsbeq	r1, sl, r4, asr r7
     8e8:	f6040000 			@ <UNDEFINED> instruction: 0xf6040000
     8ec:	03000003 	movweq	r0, #3
     8f0:	015f1058 	cmpeq	pc, r8, asr r0	@ <UNPREDICTABLE>
     8f4:	4e080000 	cdpmi	0, 0, cr0, cr8, cr0, {0}
     8f8:	06000001 	streq	r0, [r0], -r1
     8fc:	00000164 	andeq	r0, r0, r4, ror #2
     900:	00016f16 	andeq	r6, r1, r6, lsl pc
     904:	01120300 	tsteq	r2, r0, lsl #6
     908:	04000000 	streq	r0, [r0], #-0
     90c:	00000083 	andeq	r0, r0, r3, lsl #1
     910:	060e8a03 	streq	r8, [lr], -r3, lsl #20
     914:	04000001 	streq	r0, [r0], #-1
     918:	000003a4 	andeq	r0, r0, r4, lsr #7
     91c:	fa0fcb03 	blx	3f3530 <__exidx_end+0x3f24ec>
     920:	0a000000 	beq	928 <kCreateTask+0xbc>
     924:	000002f7 	strdeq	r0, [r0], -r7
     928:	027a425c 	rsbseq	r4, sl, #92, 4	@ 0xc0000005
     92c:	730c0000 	movwvc	r0, #49152	@ 0xc000
     930:	45040070 	strmi	r0, [r4, #-112]	@ 0xffffff90
     934:	00036f0b 	andeq	r6, r3, fp, lsl #30
     938:	54010000 	strpl	r0, [r1], #-0
     93c:	04000003 	streq	r0, [r0], #-3
     940:	017b1546 	cmneq	fp, r6, asr #10
     944:	01040000 	mrseq	r0, (UNDEF: 4)
     948:	0000035b 	andeq	r0, r0, fp, asr r3
     94c:	fa0c4704 	blx	312564 <__exidx_end+0x311520>
     950:	08000000 	stmdaeq	r0, {}	@ <UNPREDICTABLE>
     954:	0001f301 	andeq	pc, r1, r1, lsl #6
     958:	0c480400 	cfstrdeq	mvd0, [r8], {-0}
     95c:	000000dd 	ldrdeq	r0, [r0], -sp
     960:	00c8010c 	sbceq	r0, r8, ip, lsl #2
     964:	4b040000 	blmi	10096c <__exidx_end+0xff928>
     968:	0003650c 	andeq	r6, r3, ip, lsl #10
     96c:	cb011000 	blgt	44974 <__exidx_end+0x43930>
     970:	04000002 	streq	r0, [r0], #-2
     974:	036f0b4c 	cmneq	pc, #76, 22	@ 0x13000
     978:	01140000 	tsteq	r4, r0
     97c:	00000304 	andeq	r0, r0, r4, lsl #6
     980:	e90b4d04 	stmdb	fp, {r2, r8, sl, fp, lr}
     984:	18000000 	stmdane	r0, {}	@ <UNPREDICTABLE>
     988:	6469700c 	strbtvs	r7, [r9], #-12
     98c:	0d4e0400 	cfstrdeq	mvd0, [lr, #-0]
     990:	00000125 	andeq	r0, r0, r5, lsr #2
     994:	01ea011c 	mvneq	r0, ip, lsl r1
     998:	4f040000 	svcmi	0x00040000
     99c:	0001310e 	andeq	r3, r1, lr, lsl #2
     9a0:	62011d00 	andvs	r1, r1, #0, 26
     9a4:	04000000 	streq	r0, [r0], #-0
     9a8:	01140b54 	tsteq	r4, r4, asr fp
     9ac:	01200000 			@ <UNDEFINED> instruction: 0x01200000
     9b0:	000000e9 	andeq	r0, r0, r9, ror #1
     9b4:	420e5f04 	andmi	r5, lr, #4, 30
     9b8:	24000001 	strcs	r0, [r0], #-1
     9bc:	00025101 	andeq	r5, r2, r1, lsl #2
     9c0:	0e610400 	cdpeq	4, 6, cr0, cr1, cr0, {0}
     9c4:	00000142 	andeq	r0, r0, r2, asr #2
     9c8:	00060128 	andeq	r0, r6, r8, lsr #2
     9cc:	63040000 	movwvs	r0, #16384	@ 0x4000
     9d0:	0001140b 	andeq	r1, r1, fp, lsl #8
     9d4:	e2012c00 	and	r2, r1, #0, 24
     9d8:	04000001 	streq	r0, [r0], #-1
     9dc:	01140b64 	tsteq	r4, r4, ror #22
     9e0:	01300000 	teqeq	r0, r0
     9e4:	0000003e 	andeq	r0, r0, lr, lsr r0
     9e8:	e90b6604 	stmdb	fp, {r2, r9, sl, sp, lr}
     9ec:	34000000 	strcc	r0, [r0], #-0
     9f0:	0002bf01 	andeq	fp, r2, r1, lsl #30
     9f4:	0d670400 	cfstrdeq	mvd0, [r7, #-0]
     9f8:	00000125 	andeq	r0, r0, r5, lsr #2
     9fc:	02050d38 	andeq	r0, r5, #56, 26	@ 0xe00
     a00:	1a680000 	bne	1a00a08 <__exidx_end+0x19ff9c4>
     a04:	000002fc 	strdeq	r0, [r0], -ip
     a08:	01290d3c 			@ <UNDEFINED> instruction: 0x01290d3c
     a0c:	17690000 	strbne	r0, [r9, -r0]!
     a10:	000002c5 	andeq	r0, r0, r5, asr #5
     a14:	a5040054 	strge	r0, [r4, #-84]	@ 0xffffffac
     a18:	03000000 	movweq	r0, #0
     a1c:	028616ef 	addeq	r1, r6, #250609664	@ 0xef00000
     a20:	d80a0000 	stmdale	sl, {}	@ <UNPREDICTABLE>
     a24:	14000002 	strne	r0, [r0], #-2
     a28:	0002c53a 	andeq	ip, r2, sl, lsr r5
     a2c:	00f60d00 	rscseq	r0, r6, r0, lsl #26
     a30:	173c0000 	ldrne	r0, [ip, -r0]!
     a34:	000002c5 	andeq	r0, r0, r5, asr #5
     a38:	01d90100 	bicseq	r0, r9, r0, lsl #2
     a3c:	3d040000 	stccc	0, cr0, [r4, #-0]
     a40:	0003650c 	andeq	r6, r3, ip, lsl #10
     a44:	31010800 	tstcc	r1, r0, lsl #16
     a48:	04000001 	streq	r0, [r0], #-1
     a4c:	00fa0c3e 	rscseq	r0, sl, lr, lsr ip
     a50:	010c0000 	mrseq	r0, (UNDEF: 12)
     a54:	0000005d 	andeq	r0, r0, sp, asr r0
     a58:	140b3f04 	strne	r3, [fp], #-3844	@ 0xfffff0fc
     a5c:	10000001 	andne	r0, r0, r1
     a60:	01000a00 	tsteq	r0, r0, lsl #20
     a64:	34080000 	strcc	r0, [r8], #-0
     a68:	000002eb 	andeq	r0, r0, fp, ror #5
     a6c:	0000c001 	andeq	ip, r0, r1
     a70:	18360400 	ldmdane	r6!, {sl}
     a74:	00000360 	andeq	r0, r0, r0, ror #6
     a78:	034c0100 	movteq	r0, #49408	@ 0xc100
     a7c:	37040000 	strcc	r0, [r4, -r0]
     a80:	00036018 	andeq	r6, r3, r8, lsl r0
     a84:	04000400 	streq	r0, [r0], #-1024	@ 0xfffffc00
     a88:	000002e8 	andeq	r0, r0, r8, ror #5
     a8c:	f716f203 	pldw	[r6, -r3, lsl #4]
     a90:	06000002 	streq	r0, [r0], -r2
     a94:	00000187 	andeq	r0, r0, r7, lsl #3
     a98:	0000d10a 	andeq	sp, r0, sl, lsl #2
     a9c:	561f1800 	ldrpl	r1, [pc], -r0, lsl #16
     aa0:	01000003 	tsteq	r0, r3
     aa4:	000000c0 	andeq	r0, r0, r0, asr #1
     aa8:	561b2104 	ldrpl	r2, [fp], -r4, lsl #2
     aac:	00000003 	andeq	r0, r0, r3
     ab0:	00034c01 	andeq	r4, r3, r1, lsl #24
     ab4:	1b220400 	blne	881abc <__exidx_end+0x880a78>
     ab8:	00000356 	andeq	r0, r0, r6, asr r3
     abc:	025e0104 	subseq	r0, lr, #4, 2
     ac0:	23040000 	movwcs	r0, #16384	@ 0x4000
     ac4:	0000e90b 	andeq	lr, r0, fp, lsl #18
     ac8:	21010800 	tstcs	r1, r0, lsl #16
     acc:	04000001 	streq	r0, [r0], #-1
     ad0:	01420e24 	cmpeq	r2, r4, lsr #28
     ad4:	010c0000 	mrseq	r0, (UNDEF: 12)
     ad8:	0000030e 	andeq	r0, r0, lr, lsl #6
     adc:	420e2504 	andmi	r2, lr, #4, 10	@ 0x1000000
     ae0:	10000001 	andne	r0, r0, r1
     ae4:	00023001 	andeq	r3, r2, r1
     ae8:	0f260400 	svceq	0x00260400
     aec:	0000035b 	andeq	r0, r0, fp, asr r3
     af0:	fc060014 	stc2	0, cr0, [r6], {20}
     af4:	06000002 	streq	r0, [r0], -r2
     af8:	0000027a 	andeq	r0, r0, sl, ror r2
     afc:	0002c506 	andeq	ip, r2, r6, lsl #10
     b00:	00ca0600 	sbceq	r0, sl, r0, lsl #12
     b04:	65080000 	strvs	r0, [r8, #-0]
     b08:	06000003 	streq	r0, [r0], -r3
     b0c:	000000dd 	ldrdeq	r0, [r0], -sp
     b10:	00036f08 	andeq	r6, r3, r8, lsl #30
     b14:	00dd1700 	sbcseq	r1, sp, r0, lsl #14
     b18:	03890000 	orreq	r0, r9, #0
     b1c:	2d180000 	ldccs	0, cr0, [r8, #-0]
     b20:	ff000000 			@ <UNDEFINED> instruction: 0xff000000
     b24:	02110900 	andseq	r0, r1, #0, 18
     b28:	0c0a0000 	stceq	0, cr0, [sl], {-0}
     b2c:	00000379 	andeq	r0, r0, r9, ror r3
     b30:	00032109 	andeq	r2, r3, r9, lsl #2
     b34:	790c0b00 	stmdbvc	ip, {r8, r9, fp}
     b38:	09000003 	stmdbeq	r0, {r0, r1}
     b3c:	0000021d 	andeq	r0, r0, sp, lsl r2
     b40:	03790c0c 	cmneq	r9, #12, 24	@ 0xc00
     b44:	45090000 	strmi	r0, [r9, #-0]
     b48:	0e000002 	cdpeq	0, 0, cr0, cr0, cr2, {0}
     b4c:	0002eb17 	andeq	lr, r2, r7, lsl fp
     b50:	00510900 	subseq	r0, r1, r0, lsl #18
     b54:	170f0000 	strne	r0, [pc, -r0]
     b58:	000002eb 	andeq	r0, r0, fp, ror #5
     b5c:	00026a09 	andeq	r6, r2, r9, lsl #20
     b60:	eb171000 	bl	5c4b68 <__exidx_end+0x5c3b24>
     b64:	19000002 	stmdbne	r0, {r1}
     b68:	00000403 	andeq	r0, r0, r3, lsl #8
     b6c:	0b065e06 	bleq	19838c <__exidx_end+0x197348>
     b70:	0000037e 	andeq	r0, r0, lr, ror r3
     b74:	03e41a05 	mvneq	r1, #20480	@ 0x5000
     b78:	e4030000 	str	r0, [r3], #-0
     b7c:	00000003 	andeq	r0, r0, r3
     b80:	0000c206 	andeq	ip, r0, r6, lsl #4
     b84:	03780b00 	cmneq	r8, #0, 22
     b88:	19050000 	stmdbne	r5, {}	@ <UNPREDICTABLE>
     b8c:	000003fa 	strdeq	r0, [r0], -sl
     b90:	0003e403 	andeq	lr, r3, r3, lsl #8
     b94:	720b0000 	andvc	r0, fp, #0
     b98:	05000003 	streq	r0, [r0, #-3]
     b9c:	00040b18 	andeq	r0, r4, r8, lsl fp
     ba0:	03e40300 	mvneq	r0, #0, 6
     ba4:	0e000000 	cdpeq	0, 0, cr0, cr0, cr0, {0}
     ba8:	00000409 	andeq	r0, r0, r9, lsl #8
     bac:	6f084d06 	svcvs	0x00084d06
     bb0:	44000001 	strmi	r0, [r0], #-1
     bb4:	03000004 	movweq	r0, #4
     bb8:	00000444 	andeq	r0, r0, r4, asr #8
     bbc:	00015a03 	andeq	r5, r1, r3, lsl #20
     bc0:	036a0300 	cmneq	sl, #0, 6
     bc4:	74030000 	strvc	r0, [r3], #-0
     bc8:	03000003 	movweq	r0, #3
     bcc:	000000f5 	strdeq	r0, [r0], -r5
     bd0:	0003e403 	andeq	lr, r3, r3, lsl #8
     bd4:	013d0300 	teqeq	sp, r0, lsl #6
     bd8:	20030000 	andcs	r0, r3, r0
     bdc:	00000001 	andeq	r0, r0, r1
     be0:	0002eb06 	andeq	lr, r2, r6, lsl #22
     be4:	03c20b00 	biceq	r0, r2, #0, 22
     be8:	5f020000 	svcpl	0x00020000
     bec:	0000045f 	andeq	r0, r0, pc, asr r4
     bf0:	00002603 	andeq	r2, r0, r3, lsl #12
     bf4:	002d0300 	eoreq	r0, sp, r0, lsl #6
     bf8:	0e000000 	cdpeq	0, 0, cr0, cr0, cr0, {0}
     bfc:	000003dc 	ldrdeq	r0, [r0], -ip
     c00:	2d0a7402 	cfstrscs	mvf7, [sl, #-8]
     c04:	75000000 	strvc	r0, [r0, #-0]
     c08:	03000004 	movweq	r0, #4
     c0c:	0000002d 	andeq	r0, r0, sp, lsr #32
     c10:	03bd1a00 			@ <UNDEFINED> instruction: 0x03bd1a00
     c14:	03010000 	movweq	r0, #4096	@ 0x1000
     c18:	00002605 	andeq	r2, r0, r5, lsl #12
     c1c:	00022400 	andeq	r2, r2, r0, lsl #8
     c20:	0000b400 	andeq	fp, r0, r0, lsl #8
     c24:	079c0100 	ldreq	r0, [ip, r0, lsl #2]
     c28:	0000022c 	andeq	r0, r0, ip, lsr #4
     c2c:	0000045f 	andeq	r0, r0, pc, asr r4
     c30:	000004a2 	andeq	r0, r0, r2, lsr #9
     c34:	05500102 	ldrbeq	r0, [r0, #-258]	@ 0xfffffefe
     c38:	03d0900c 	bicseq	r9, r0, #12
     c3c:	4a070000 	bmi	1c0c44 <__exidx_end+0x1bfc00>
     c40:	49000002 	stmdbmi	r0, {r1}
     c44:	bb000004 	bllt	c5c <kPend+0x5c>
     c48:	02000004 	andeq	r0, r0, #4
     c4c:	09025001 	stmdbeq	r2, {r0, ip, lr}
     c50:	510102fb 	strdpl	r0, [r1, -fp]
     c54:	07003701 	streq	r3, [r0, -r1, lsl #14]
     c58:	00000254 	andeq	r0, r0, r4, asr r2
     c5c:	00000449 	andeq	r0, r0, r9, asr #8
     c60:	000004d4 	ldrdeq	r0, [r0], -r4
     c64:	02500102 	subseq	r0, r0, #-2147483648	@ 0x80000000
     c68:	0102ff09 	tsteq	r2, r9, lsl #30	@ <UNPREDICTABLE>
     c6c:	00380151 	eorseq	r0, r8, r1, asr r1
     c70:	00025e07 	andeq	r5, r2, r7, lsl #28
     c74:	00044900 	andeq	r4, r4, r0, lsl #18
     c78:	0004ed00 	andeq	lr, r4, r0, lsl #26
     c7c:	50010200 	andpl	r0, r1, r0, lsl #4
     c80:	02fe0902 	rscseq	r0, lr, #32768	@ 0x8000
     c84:	3a015101 	bcc	55090 <__exidx_end+0x5404c>
     c88:	02720700 	rsbseq	r0, r2, #0, 14
     c8c:	040b0000 	streq	r0, [fp], #-0
     c90:	05200000 	streq	r0, [r0, #-0]!
     c94:	01020000 	mrseq	r0, (UNDEF: 2)
     c98:	00030552 	andeq	r0, r3, r2, asr r5
     c9c:	02000010 	andeq	r0, r0, #16
     ca0:	02007d02 	andeq	r7, r0, #2, 26	@ 0x80
     ca4:	02020075 	andeq	r0, r2, #117	@ 0x75
     ca8:	7402047d 	strvc	r0, [r2], #-1149	@ 0xfffffb83
     cac:	7d020200 	sfmvc	f0, 4, [r2, #-0]
     cb0:	00760208 	rsbseq	r0, r6, r8, lsl #4
     cb4:	0c7d0202 	lfmeq	f0, 2, [sp], #-8
     cb8:	00007402 	andeq	r7, r0, r2, lsl #8
     cbc:	00028607 	andeq	r8, r2, r7, lsl #12
     cc0:	00040b00 	andeq	r0, r4, r0, lsl #22
     cc4:	00055300 	andeq	r5, r5, r0, lsl #6
     cc8:	52010200 	andpl	r0, r1, #0, 4
     ccc:	10060305 	andne	r0, r6, r5, lsl #6
     cd0:	02020000 	andeq	r0, r2, #0
     cd4:	7502007d 	strvc	r0, [r2, #-125]	@ 0xffffff83
     cd8:	7d020200 	sfmvc	f0, 4, [r2, #-0]
     cdc:	00740204 	rsbseq	r0, r4, r4, lsl #4
     ce0:	087d0202 	ldmdaeq	sp!, {r1, r9}^
     ce4:	02007602 	andeq	r7, r0, #2097152	@ 0x200000
     ce8:	020c7d02 	andeq	r7, ip, #2, 26	@ 0x80
     cec:	07000074 	smlsdxeq	r0, r4, r0, r0
     cf0:	0000029a 	muleq	r0, sl, r2
     cf4:	0000040b 	andeq	r0, r0, fp, lsl #8
     cf8:	00000586 	andeq	r0, r0, r6, lsl #11
     cfc:	05520102 	ldrbeq	r0, [r2, #-258]	@ 0xfffffefe
     d00:	00100c03 	andseq	r0, r0, r3, lsl #24
     d04:	7d020200 	sfmvc	f0, 4, [r2, #-0]
     d08:	00750200 	rsbseq	r0, r5, r0, lsl #4
     d0c:	047d0202 	ldrbteq	r0, [sp], #-514	@ 0xfffffdfe
     d10:	02007402 	andeq	r7, r0, #33554432	@ 0x2000000
     d14:	02087d02 	andeq	r7, r8, #2, 26	@ 0x80
     d18:	02020076 	andeq	r0, r2, #118	@ 0x76
     d1c:	74020c7d 	strvc	r0, [r2], #-3197	@ 0xfffff383
     d20:	9e1b0000 	cdpls	0, 1, cr0, cr11, cr0, {0}
     d24:	cb000002 	blgt	d34 <kTimeOut+0x38>
     d28:	00000003 	andeq	r0, r0, r3
     d2c:	00019600 	andeq	r9, r1, r0, lsl #12
     d30:	01000500 	tsteq	r0, r0, lsl #10
     d34:	00040604 	andeq	r0, r4, r4, lsl #12
     d38:	01490a00 	cmpeq	r9, r0, lsl #20
     d3c:	cb1d0000 	blgt	740d44 <__exidx_end+0x73fd00>
     d40:	11000004 	tstne	r0, r4
     d44:	75000000 	strvc	r0, [r0, #-0]
     d48:	00000000 	andeq	r0, r0, r0
     d4c:	89000000 	stmdbhi	r0, {}	@ <UNPREDICTABLE>
     d50:	01000002 	tsteq	r0, r2
     d54:	029e0601 	addseq	r0, lr, #1048576	@ 0x100000
     d58:	01010000 	mrseq	r0, (UNDEF: 1)
     d5c:	00029c08 	andeq	r9, r2, r8, lsl #24
     d60:	05020100 	streq	r0, [r2, #-256]	@ 0xffffff00
     d64:	000002b5 			@ <UNDEFINED> instruction: 0x000002b5
     d68:	36070201 	strcc	r0, [r7], -r1, lsl #4
     d6c:	01000001 	tsteq	r0, r1
     d70:	00940504 	addseq	r0, r4, r4, lsl #10
     d74:	79040000 	stmdbvc	r4, {}	@ <UNPREDICTABLE>
     d78:	02000004 	andeq	r0, r0, #4
     d7c:	0055194f 	subseq	r1, r5, pc, asr #18
     d80:	04010000 	streq	r0, [r1], #-0
     d84:	00007107 	andeq	r7, r0, r7, lsl #2
     d88:	05080100 	streq	r0, [r8, #-256]	@ 0xffffff00
     d8c:	0000008f 	andeq	r0, r0, pc, lsl #1
     d90:	6c070801 	stcvs	8, cr0, [r7], {1}
     d94:	0b000000 	bleq	d9c <kSleep+0x14>
     d98:	6e690504 	cdpvs	5, 6, cr0, cr9, cr4, {0}
     d9c:	04010074 	streq	r0, [r1], #-116	@ 0xffffff8c
     da0:	00007607 	andeq	r7, r0, r7, lsl #12
     da4:	047b0400 	ldrbteq	r0, [fp], #-1024	@ 0xfffffc00
     da8:	30030000 	andcc	r0, r3, r0
     dac:	00004914 	andeq	r4, r0, r4, lsl r9
     db0:	009e0c00 	addseq	r0, lr, r0, lsl #24
     db4:	00940000 	addseq	r0, r4, r0
     db8:	710d0000 	mrsvc	r0, (UNDEF: 13)
     dbc:	16000000 	strne	r0, [r0], -r0
     dc0:	00840500 	addeq	r0, r4, r0, lsl #10
     dc4:	a3060000 	movwge	r0, #24576	@ 0x6000
     dc8:	05000000 	streq	r0, [r0, #-0]
     dcc:	00000099 	muleq	r0, r9, r0
     dd0:	04460f0e 	strbeq	r0, [r6], #-3854	@ 0xfffff0f2
     dd4:	1d010000 	stcne	0, cr0, [r1, #-0]
     dd8:	0000940f 	andeq	r9, r0, pc, lsl #8
     ddc:	00030500 	andeq	r0, r3, r0, lsl #10
     de0:	02000000 	andeq	r0, r0, #0
     de4:	00000460 	andeq	r0, r0, r0, ror #8
     de8:	0000783b 	andeq	r7, r0, fp, lsr r8
     dec:	04150200 	ldreq	r0, [r5], #-512	@ 0xfffffe00
     df0:	783c0000 	ldmdavc	ip!, {}	@ <UNPREDICTABLE>
     df4:	02000000 	andeq	r0, r0, #0
     df8:	00000459 	andeq	r0, r0, r9, asr r4
     dfc:	0000783d 	andeq	r7, r0, sp, lsr r8
     e00:	041c0200 	ldreq	r0, [ip], #-512	@ 0xfffffe00
     e04:	783e0000 	ldmdavc	lr!, {}	@ <UNPREDICTABLE>
     e08:	02000000 	andeq	r0, r0, #0
     e0c:	00000422 	andeq	r0, r0, r2, lsr #8
     e10:	0000783f 	andeq	r7, r0, pc, lsr r8
     e14:	03bd1000 			@ <UNDEFINED> instruction: 0x03bd1000
     e18:	19010000 	stmdbne	r1, {}	@ <UNPREDICTABLE>
     e1c:	00006a0c 	andeq	r6, r0, ip, lsl #20
     e20:	04360300 	ldrteq	r0, [r6], #-768	@ 0xfffffd00
     e24:	030d0000 	movweq	r0, #53248	@ 0xd000
     e28:	000004bc 			@ <UNDEFINED> instruction: 0x000004bc
     e2c:	04b0030c 	ldrteq	r0, [r0], #780	@ 0x30c
     e30:	110a0000 	mrsne	r0, (UNDEF: 10)
     e34:	00000495 	muleq	r0, r5, r4
     e38:	d8066901 	stmdale	r6, {r0, r8, fp, sp, lr}
     e3c:	02000002 	andeq	r0, r0, #2
     e40:	01000000 	mrseq	r0, (UNDEF: 0)
     e44:	0428129c 	strteq	r1, [r8], #-668	@ 0xfffffd64
     e48:	4b010000 	blmi	40e50 <__exidx_end+0x3fe0c>
     e4c:	0002dc06 	andeq	sp, r2, r6, lsl #24
     e50:	00005000 	andeq	r5, r0, r0
     e54:	6a9c0100 	bvs	fe70125c <SCB_ICSR+0x1e6f2558>
     e58:	07000001 	streq	r0, [r0, -r1]
     e5c:	000004dd 	ldrdeq	r0, [r0], -sp
     e60:	016a0f4c 	cmneq	sl, ip, asr #30
     e64:	53070000 	movwpl	r0, #28672	@ 0x7000
     e68:	4c000004 	stcmi	0, cr0, [r0], {4}
     e6c:	00016a16 	andeq	r6, r1, r6, lsl sl
     e70:	02f80800 	rscseq	r0, r8, #0, 16
     e74:	01870000 	orreq	r0, r7, r0
     e78:	12130000 	andsne	r0, r3, #0
     e7c:	90000003 	andls	r0, r0, r3
     e80:	60000001 	andvs	r0, r0, r1
     e84:	14000001 	strne	r0, [r0], #-1
     e88:	30015101 	andcc	r5, r1, r1, lsl #2
     e8c:	03160800 	tsteq	r6, #0, 16
     e90:	00e80000 	rsceq	r0, r8, r0
     e94:	06000000 	streq	r0, [r0], -r0
     e98:	00000078 	andeq	r0, r0, r8, ror r0
     e9c:	0004a515 	andeq	sl, r4, r5, lsl r5
     ea0:	06440100 	strbeq	r0, [r4], -r0, lsl #2
     ea4:	016f1601 	cmneq	pc, r1, lsl #12
     ea8:	00000000 	andeq	r0, r0, r0
     eac:	00020000 	andeq	r0, r2, r0
     eb0:	9c010000 	stcls	0, cr0, [r1], {-0}
     eb4:	00048e09 	andeq	r8, r4, r9, lsl #28
     eb8:	00048400 	andeq	r8, r4, r0, lsl #8
     ebc:	04720900 	ldrbteq	r0, [r2], #-2304	@ 0xfffff700
     ec0:	04680000 	strbteq	r0, [r8], #-0
     ec4:	6d000000 	stcvs	0, cr0, [r0, #-0]
     ec8:	05000004 	streq	r0, [r0, #-4]
     ecc:	51040100 	mrspl	r0, (UNDEF: 20)
     ed0:	10000005 	andne	r0, r0, r5
     ed4:	00000149 	andeq	r0, r0, r9, asr #2
     ed8:	0006781d 	andeq	r7, r6, sp, lsl r8
     edc:	00001100 	andeq	r1, r0, r0, lsl #2
     ee0:	00009400 	andeq	r9, r0, r0, lsl #8
     ee4:	00000000 	andeq	r0, r0, r0
     ee8:	0004c800 	andeq	ip, r4, r0, lsl #16
     eec:	18400c00 	stmdane	r0, {sl, fp}^
     ef0:	000000d6 	ldrdeq	r0, [r0], -r6
     ef4:	00062201 	andeq	r2, r6, r1, lsl #4
     ef8:	dd171a00 	vldrle	s2, [r7, #-0]
     efc:	00000000 	andeq	r0, r0, r0
     f00:	0005e401 	andeq	lr, r5, r1, lsl #8
     f04:	dd171b00 	vldrle	d1, [r7, #-0]
     f08:	04000000 	streq	r0, [r0], #-0
     f0c:	00055a01 	andeq	r5, r5, r1, lsl #20
     f10:	dd171c00 	ldcle	12, cr1, [r7, #-0]
     f14:	08000000 	stmdaeq	r0, {}	@ <UNPREDICTABLE>
     f18:	00061701 	andeq	r1, r6, r1, lsl #14
     f1c:	dd171d00 	ldcle	13, cr1, [r7, #-0]
     f20:	0c000000 	stceq	0, cr0, [r0], {-0}
     f24:	52435308 	subpl	r5, r3, #8, 6	@ 0x20000000
     f28:	dd171e00 	ldcle	14, cr1, [r7, #-0]
     f2c:	10000000 	andne	r0, r0, r0
     f30:	52434308 	subpl	r4, r3, #8, 6	@ 0x20000000
     f34:	dd171f00 	ldcle	15, cr1, [r7, #-0]
     f38:	14000000 	strne	r0, [r0], #-0
     f3c:	50485308 	subpl	r5, r8, r8, lsl #6
     f40:	f21c2000 	vhadd.s16	d2, d12, d0
     f44:	18000000 	stmdane	r0, {}	@ <UNPREDICTABLE>
     f48:	00052801 	andeq	r2, r5, r1, lsl #16
     f4c:	dd172100 	ldfles	f2, [r7, #-0]
     f50:	24000000 	strcs	r0, [r0], #-0
     f54:	0005bf01 	andeq	fp, r5, r1, lsl #30
     f58:	dd172200 	lfmle	f2, 4, [r7, #-0]
     f5c:	28000000 	stmdacs	r0, {}	@ <UNPREDICTABLE>
     f60:	0005c401 	andeq	ip, r5, r1, lsl #8
     f64:	dd172300 	ldcle	3, cr2, [r7, #-0]
     f68:	2c000000 	stccs	0, cr0, [r0], {-0}
     f6c:	0005df01 	andeq	sp, r5, r1, lsl #30
     f70:	dd172400 	cfldrsle	mvf2, [r7, #-0]
     f74:	30000000 	andcc	r0, r0, r0
     f78:	00065701 	andeq	r5, r6, r1, lsl #14
     f7c:	dd172500 	cfldr32le	mvfx2, [r7, #-0]
     f80:	34000000 	strcc	r0, [r0], #-0
     f84:	00061d01 	andeq	r1, r6, r1, lsl #26
     f88:	dd172600 	ldcle	6, cr2, [r7, #-0]
     f8c:	38000000 	stmdacc	r0, {}	@ <UNPREDICTABLE>
     f90:	0006d501 	andeq	sp, r6, r1, lsl #10
     f94:	dd172700 	ldcle	7, cr2, [r7, #-0]
     f98:	3c000000 	stccc	0, cr0, [r0], {-0}
     f9c:	07040d00 	streq	r0, [r4, -r0, lsl #26]
     fa0:	00000076 	andeq	r0, r0, r6, ror r0
     fa4:	0000d605 	andeq	sp, r0, r5, lsl #12
     fa8:	00fe0400 	rscseq	r0, lr, r0, lsl #8
     fac:	00f20000 	rscseq	r0, r2, r0
     fb0:	d6060000 	strle	r0, [r6], -r0
     fb4:	0b000000 	bleq	fbc <memcpy+0x48>
     fb8:	00e20500 	rsceq	r0, r2, r0, lsl #10
     fbc:	010d0000 	mrseq	r0, (UNDEF: 13)
     fc0:	00029c08 	andeq	r9, r2, r8, lsl #24
     fc4:	00f70500 	rscseq	r0, r7, r0, lsl #10
     fc8:	c9090000 	stmdbgt	r9, {}	@ <UNPREDICTABLE>
     fcc:	28000005 	stmdacs	r0, {r0, r2}
     fd0:	00000026 	andeq	r0, r0, r6, lsr #32
     fd4:	452a100c 	strmi	r1, [sl, #-12]!
     fd8:	01000001 	tsteq	r0, r1
     fdc:	00000339 	andeq	r0, r0, r9, lsr r3
     fe0:	00dd172c 	sbcseq	r1, sp, ip, lsr #14
     fe4:	01000000 	mrseq	r0, (UNDEF: 0)
     fe8:	00000218 	andeq	r0, r0, r8, lsl r2
     fec:	00dd172d 	sbcseq	r1, sp, sp, lsr #14
     ff0:	08040000 	stmdaeq	r4, {}	@ <UNPREDICTABLE>
     ff4:	004c4156 	subeq	r4, ip, r6, asr r1
     ff8:	00dd172e 	sbcseq	r1, sp, lr, lsr #14
     ffc:	01080000 	mrseq	r0, (UNDEF: 8)
    1000:	00000346 	andeq	r0, r0, r6, asr #6
    1004:	00dd172f 	sbcseq	r1, sp, pc, lsr #14
    1008:	000c0000 	andeq	r0, ip, r0
    100c:	0001c409 	andeq	ip, r1, r9, lsl #8
    1010:	010d3000 	mrseq	r3, (UNDEF: 13)
    1014:	04110000 	ldreq	r0, [r1], #-0
    1018:	0932020e 	ldmdbeq	r2!, {r1, r2, r3, r9}
    101c:	000001ff 	strdeq	r0, [r0], -pc	@ <UNPREDICTABLE>
    1020:	00065201 	andeq	r5, r6, r1, lsl #4
    1024:	0f173400 	svceq	0x00173400
    1028:	00000002 	andeq	r0, r0, r2
    102c:	00055f01 	andeq	r5, r5, r1, lsl #30
    1030:	140e3500 	strne	r3, [lr], #-1280	@ 0xfffffb00
    1034:	20000002 	andcs	r0, r0, r2
    1038:	0006b301 	andeq	fp, r6, r1, lsl #6
    103c:	0f173600 	svceq	0x00173600
    1040:	80000002 	andhi	r0, r0, r2
    1044:	00056901 	andeq	r6, r5, r1, lsl #18
    1048:	140e3700 	strne	r3, [lr], #-1792	@ 0xfffff900
    104c:	a0000002 	andge	r0, r0, r2
    1050:	0005da03 	andeq	sp, r5, r3, lsl #20
    1054:	0f173800 	svceq	0x00173800
    1058:	00000002 	andeq	r0, r0, r2
    105c:	06da0301 	ldrbeq	r0, [sl], r1, lsl #6
    1060:	0e390000 	cdpeq	0, 3, cr0, cr9, cr0, {0}
    1064:	00000214 	andeq	r0, r0, r4, lsl r2
    1068:	0a030120 	beq	c14f0 <__exidx_end+0xc04ac>
    106c:	3a000005 	bcc	1088 <__exidx_end+0x44>
    1070:	00020f17 	andeq	r0, r2, r7, lsl pc
    1074:	03018000 	movweq	r8, #4096	@ 0x1000
    1078:	000006e9 	andeq	r0, r0, r9, ror #13
    107c:	02140e3b 	andseq	r0, r4, #944	@ 0x3b0
    1080:	01a00000 	moveq	r0, r0
    1084:	0006b803 	andeq	fp, r6, r3, lsl #16
    1088:	0f173c00 	svceq	0x00173c00
    108c:	00000002 	andeq	r0, r0, r2
    1090:	05730302 	ldrbeq	r0, [r3, #-770]!	@ 0xfffffcfe
    1094:	0e3d0000 	cdpeq	0, 3, cr0, cr13, cr0, {0}
    1098:	00000224 	andeq	r0, r0, r4, lsr #4
    109c:	49120220 	ldmdbmi	r2, {r5, r9}
    10a0:	3e020050 	mcrcc	0, 0, r0, cr2, cr0, {2}
    10a4:	0002441c 	andeq	r4, r2, ip, lsl r4
    10a8:	03030000 	movweq	r0, #12288	@ 0x3000
    10ac:	0000057d 	andeq	r0, r0, sp, ror r5
    10b0:	02490e3f 	subeq	r0, r9, #1008	@ 0x3f0
    10b4:	03f00000 	mvnseq	r0, #0
    10b8:	0005a003 	andeq	sl, r5, r3
    10bc:	dd174000 	ldcle	0, cr4, [r7, #-0]
    10c0:	00000000 	andeq	r0, r0, r0
    10c4:	dd04000e 	stcle	0, cr0, [r4, #-56]	@ 0xffffffc8
    10c8:	0f000000 	svceq	0x00000000
    10cc:	06000002 	streq	r0, [r0], -r2
    10d0:	000000d6 	ldrdeq	r0, [r0], -r6
    10d4:	ff050007 			@ <UNDEFINED> instruction: 0xff050007
    10d8:	04000001 	streq	r0, [r0], #-1
    10dc:	000000d6 	ldrdeq	r0, [r0], -r6
    10e0:	00000224 	andeq	r0, r0, r4, lsr #4
    10e4:	0000d606 	andeq	sp, r0, r6, lsl #12
    10e8:	04001700 	streq	r1, [r0], #-1792	@ 0xfffff900
    10ec:	000000d6 	ldrdeq	r0, [r0], -r6
    10f0:	00000234 	andeq	r0, r0, r4, lsr r2
    10f4:	0000d606 	andeq	sp, r0, r6, lsl #12
    10f8:	04003700 	streq	r3, [r0], #-1792	@ 0xfffff900
    10fc:	000000fe 	strdeq	r0, [r0], -lr
    1100:	00000244 	andeq	r0, r0, r4, asr #4
    1104:	0000d606 	andeq	sp, r0, r6, lsl #12
    1108:	0500ef00 	streq	lr, [r0, #-3840]	@ 0xfffff100
    110c:	00000234 	andeq	r0, r0, r4, lsr r2
    1110:	0000d604 	andeq	sp, r0, r4, lsl #12
    1114:	00025a00 	andeq	r5, r2, r0, lsl #20
    1118:	00d61300 	sbcseq	r1, r6, r0, lsl #6
    111c:	02830000 	addeq	r0, r3, #0
    1120:	04f80900 	ldrbteq	r0, [r8], #2304	@ 0x900
    1124:	4f410000 	svcmi	0x00410000
    1128:	0a000001 	beq	1134 <__exidx_end+0xf0>
    112c:	000006bd 			@ <UNDEFINED> instruction: 0x000006bd
    1130:	000000a4 	andeq	r0, r0, r4, lsr #1
    1134:	00000e00 	andeq	r0, r0, r0, lsl #28
    1138:	0a9c0100 	beq	fe701540 <SCB_ICSR+0x1e6f283c>
    113c:	0000069c 	muleq	r0, ip, r6
    1140:	0000009f 	muleq	r0, pc, r0	@ <UNPREDICTABLE>
    1144:	00000e00 	andeq	r0, r0, r0, lsl #28
    1148:	0e9c0100 	fmleqe	f0, f4, f0
    114c:	00000602 	andeq	r0, r0, r2, lsl #12
    1150:	0000d69a 	muleq	r0, sl, r6
    1154:	00000000 	andeq	r0, r0, r0
    1158:	00000800 	andeq	r0, r0, r0, lsl #16
    115c:	0b9c0100 	bleq	fe701564 <SCB_ICSR+0x1e6f2860>
    1160:	000003dc 	ldrdeq	r0, [r0], -ip
    1164:	0000d686 	andeq	sp, r0, r6, lsl #13
    1168:	00035400 	andeq	r5, r3, r0, lsl #8
    116c:	00001e00 	andeq	r1, r0, r0, lsl #28
    1170:	c49c0100 	ldrgt	r0, [ip], #256	@ 0x100
    1174:	02000002 	andeq	r0, r0, #2
    1178:	00000554 	andeq	r0, r0, r4, asr r5
    117c:	00d62786 	sbcseq	r2, r6, r6, lsl #15
    1180:	00b80000 	adcseq	r0, r8, r0
    1184:	00b20000 	adcseq	r0, r2, r0
    1188:	0b000000 	bleq	1190 <__exidx_end+0x14c>
    118c:	000005e9 	andeq	r0, r0, r9, ror #11
    1190:	0000d675 	andeq	sp, r0, r5, ror r6
    1194:	00000000 	andeq	r0, r0, r0
    1198:	00002400 	andeq	r2, r0, r0, lsl #8
    119c:	f09c0100 			@ <UNDEFINED> instruction: 0xf09c0100
    11a0:	02000002 	andeq	r0, r0, #2
    11a4:	000006e4 	andeq	r0, r0, r4, ror #13
    11a8:	02f02875 	rscseq	r2, r0, #7667712	@ 0x750000
    11ac:	00d60000 	sbcseq	r0, r6, r0
    11b0:	00d20000 	sbcseq	r0, r2, r0
    11b4:	14000000 	strne	r0, [r0], #-0
    11b8:	6e690504 	cdpvs	5, 6, cr0, cr9, cr4, {0}
    11bc:	0f070074 	svceq	0x00070074
    11c0:	6d000005 	stcvs	0, cr0, [r0, #-20]	@ 0xffffffec
    11c4:	00000000 	andeq	r0, r0, r0
    11c8:	0000001c 	andeq	r0, r0, ip, lsl r0
    11cc:	031f9c01 	tsteq	pc, #256	@ 0x100
    11d0:	e4020000 	str	r0, [r2], #-0
    11d4:	6d000006 	stcvs	0, cr0, [r0, #-24]	@ 0xffffffe8
    11d8:	0002f024 	andeq	pc, r2, r4, lsr #32
    11dc:	0000ed00 	andeq	lr, r0, r0, lsl #26
    11e0:	0000e900 	andeq	lr, r0, r0, lsl #18
    11e4:	5d070000 	stcpl	0, cr0, [r7, #-0]
    11e8:	65000006 	strvs	r0, [r0, #-6]
    11ec:	00000000 	andeq	r0, r0, r0
    11f0:	0000001c 	andeq	r0, r0, ip, lsl r0
    11f4:	03479c01 	movteq	r9, #31745	@ 0x7c01
    11f8:	e4020000 	str	r0, [r2], #-0
    11fc:	65000006 	strvs	r0, [r0, #-6]
    1200:	0002f026 	andeq	pc, r2, r6, lsr #32
    1204:	00010400 	andeq	r0, r1, r0, lsl #8
    1208:	00010000 	andeq	r0, r1, r0
    120c:	e2070000 	and	r0, r7, #0
    1210:	5d000004 	stcpl	0, cr0, [r0, #-16]
    1214:	00000000 	andeq	r0, r0, r0
    1218:	0000001c 	andeq	r0, r0, ip, lsl r0
    121c:	036f9c01 	cmneq	pc, #256	@ 0x100
    1220:	e4020000 	str	r0, [r2], #-0
    1224:	5d000006 	stcpl	0, cr0, [r0, #-24]	@ 0xffffffe8
    1228:	0002f021 	andeq	pc, r2, r1, lsr #32
    122c:	00011b00 	andeq	r1, r1, r0, lsl #22
    1230:	00011700 	andeq	r1, r1, r0, lsl #14
    1234:	2e070000 	cdpcs	0, 0, cr0, cr7, cr0, {0}
    1238:	55000005 	strpl	r0, [r0, #-5]
    123c:	00000000 	andeq	r0, r0, r0
    1240:	0000001c 	andeq	r0, r0, ip, lsl r0
    1244:	03979c01 	orrseq	r9, r7, #256	@ 0x100
    1248:	e4020000 	str	r0, [r2], #-0
    124c:	55000006 	strpl	r0, [r0, #-6]
    1250:	0002f020 	andeq	pc, r2, r0, lsr #32
    1254:	00013200 	andeq	r3, r1, r0, lsl #4
    1258:	00012e00 	andeq	r2, r1, r0, lsl #28
    125c:	a50b0000 	strge	r0, [fp, #-0]
    1260:	47000005 	strmi	r0, [r0, -r5]
    1264:	000000d6 	ldrdeq	r0, [r0], -r6
    1268:	00000000 	andeq	r0, r0, r0
    126c:	00000024 	andeq	r0, r0, r4, lsr #32
    1270:	03c39c01 	biceq	r9, r3, #256	@ 0x100
    1274:	e4020000 	str	r0, [r2], #-0
    1278:	47000006 	strmi	r0, [r0, -r6]
    127c:	0002f029 	andeq	pc, r2, r9, lsr #32
    1280:	00014900 	andeq	r4, r1, r0, lsl #18
    1284:	00014500 	andeq	r4, r1, r0, lsl #10
    1288:	c2070000 	andgt	r0, r7, #0
    128c:	38000003 	stmdacc	r0, {r0, r1}
    1290:	0000032c 	andeq	r0, r0, ip, lsr #6
    1294:	00000028 	andeq	r0, r0, r8, lsr #32
    1298:	03fe9c01 	mvnseq	r9, #256	@ 0x100
    129c:	e4020000 	str	r0, [r2], #-0
    12a0:	38000006 	stmdacc	r0, {r1, r2}
    12a4:	0002f025 	andeq	pc, r2, r5, lsr #32
    12a8:	00016000 	andeq	r6, r1, r0
    12ac:	00015c00 	andeq	r5, r1, r0, lsl #24
    12b0:	01ea0200 	mvneq	r0, r0, lsl #4
    12b4:	34380000 	ldrtcc	r0, [r8], #-0
    12b8:	000000d6 	ldrdeq	r0, [r0], -r6
    12bc:	00000177 	andeq	r0, r0, r7, ror r1
    12c0:	00000173 	andeq	r0, r0, r3, ror r1
    12c4:	06400a00 	strbeq	r0, [r0], -r0, lsl #20
    12c8:	00330000 	eorseq	r0, r3, r0
    12cc:	10000000 	andne	r0, r0, r0
    12d0:	01000000 	mrseq	r0, (UNDEF: 0)
    12d4:	05870e9c 	streq	r0, [r7, #3740]	@ 0xe9c
    12d8:	d62e0000 	strtle	r0, [lr], -r0
    12dc:	00000000 	andeq	r0, r0, r0
    12e0:	10000000 	andne	r0, r0, r0
    12e4:	01000000 	mrseq	r0, (UNDEF: 0)
    12e8:	0683159c 	pkhbteq	r1, r3, ip, lsl #11
    12ec:	21010000 	mrscs	r0, (UNDEF: 1)
    12f0:	0000d60a 	andeq	sp, r0, sl, lsl #12
    12f4:	00000000 	andeq	r0, r0, r0
    12f8:	00002000 	andeq	r2, r0, r0
    12fc:	029c0100 	addseq	r0, ip, #0, 2
    1300:	00000628 	andeq	r0, r0, r8, lsr #12
    1304:	00d62d21 	sbcseq	r2, r6, r1, lsr #26
    1308:	018e0000 	orreq	r0, lr, r0
    130c:	018a0000 	orreq	r0, sl, r0
    1310:	360f0000 	strcc	r0, [pc], -r0
    1314:	23000006 	movwcs	r0, #6
    1318:	000000d6 	ldrdeq	r0, [r0], -r6
    131c:	000001a5 	andeq	r0, r0, r5, lsr #3
    1320:	000001a1 	andeq	r0, r0, r1, lsr #3
    1324:	0005430f 	andeq	r4, r5, pc, lsl #6
    1328:	00d62400 	sbcseq	r2, r6, r0, lsl #8
    132c:	01ba0000 			@ <UNDEFINED> instruction: 0x01ba0000
    1330:	01b60000 			@ <UNDEFINED> instruction: 0x01b60000
    1334:	00000000 	andeq	r0, r0, r0
    1338:	00000bac 	andeq	r0, r0, ip, lsr #23
    133c:	04010005 	streq	r0, [r1], #-5
    1340:	000006cf 	andeq	r0, r0, pc, asr #13
    1344:	0001491e 	andeq	r4, r1, lr, lsl r9
    1348:	071e1d00 	ldreq	r1, [lr, -r0, lsl #26]
    134c:	00110000 	andseq	r0, r1, r0
    1350:	01190000 	tsteq	r9, r0
    1354:	00000000 	andeq	r0, r0, r0
    1358:	078a0000 	streq	r0, [sl, r0]
    135c:	041f0000 	ldreq	r0, [pc], #-0	@ 1364 <__exidx_end+0x320>
    1360:	746e6905 	strbtvc	r6, [lr], #-2309	@ 0xfffff6fb
    1364:	07040800 	streq	r0, [r4, -r0, lsl #16]
    1368:	00000076 	andeq	r0, r0, r6, ror r0
    136c:	00002d11 	andeq	r2, r0, r1, lsl sp
    1370:	05080800 	streq	r0, [r8, #-2048]	@ 0xfffff800
    1374:	0000008f 	andeq	r0, r0, pc, lsl #1
    1378:	24040808 	strcs	r0, [r4], #-2056	@ 0xfffff7f8
    137c:	08000002 	stmdaeq	r0, {r1}
    1380:	029e0601 	addseq	r0, lr, #1048576	@ 0x100000
    1384:	01080000 	mrseq	r0, (UNDEF: 8)
    1388:	00029c08 	andeq	r9, r2, r8, lsl #24
    138c:	004e1100 	subeq	r1, lr, r0, lsl #2
    1390:	02080000 	andeq	r0, r8, #0
    1394:	0002b505 	andeq	fp, r2, r5, lsl #10
    1398:	07020800 	streq	r0, [r2, -r0, lsl #16]
    139c:	00000136 	andeq	r0, r0, r6, lsr r1
    13a0:	94050408 	strls	r0, [r5], #-1032	@ 0xfffffbf8
    13a4:	08000000 	stmdaeq	r0, {}	@ <UNPREDICTABLE>
    13a8:	00710704 	rsbseq	r0, r1, r4, lsl #14
    13ac:	08080000 	stmdaeq	r8, {}	@ <UNPREDICTABLE>
    13b0:	00006c07 	andeq	r6, r0, r7, lsl #24
    13b4:	04402000 	strbeq	r2, [r0], #-0
    13b8:	013d0918 	teqeq	sp, r8, lsl r9
    13bc:	22010000 	andcs	r0, r1, #0
    13c0:	04000006 	streq	r0, [r0], #-6
    13c4:	0034171a 	eorseq	r1, r4, sl, lsl r7
    13c8:	01000000 	mrseq	r0, (UNDEF: 0)
    13cc:	000005e4 	andeq	r0, r0, r4, ror #11
    13d0:	34171b04 	ldrcc	r1, [r7], #-2820	@ 0xfffff4fc
    13d4:	04000000 	streq	r0, [r0], #-0
    13d8:	00055a01 	andeq	r5, r5, r1, lsl #20
    13dc:	171c0400 	ldrne	r0, [ip, -r0, lsl #8]
    13e0:	00000034 	andeq	r0, r0, r4, lsr r0
    13e4:	06170108 	ldreq	r0, [r7], -r8, lsl #2
    13e8:	1d040000 	stcne	0, cr0, [r4, #-0]
    13ec:	00003417 	andeq	r3, r0, r7, lsl r4
    13f0:	530b0c00 	movwpl	r0, #48128	@ 0xbc00
    13f4:	04005243 	streq	r5, [r0], #-579	@ 0xfffffdbd
    13f8:	0034171e 	eorseq	r1, r4, lr, lsl r7
    13fc:	0b100000 	bleq	401404 <__exidx_end+0x4003c0>
    1400:	00524343 	subseq	r4, r2, r3, asr #6
    1404:	34171f04 	ldrcc	r1, [r7], #-3844	@ 0xfffff0fc
    1408:	14000000 	strne	r0, [r0], #-0
    140c:	5048530b 	subpl	r5, r8, fp, lsl #6
    1410:	1c200400 	cfstrsne	mvf0, [r0], #-0
    1414:	0000014d 	andeq	r0, r0, sp, asr #2
    1418:	05280118 	streq	r0, [r8, #-280]!	@ 0xfffffee8
    141c:	21040000 	mrscs	r0, (UNDEF: 4)
    1420:	00003417 	andeq	r3, r0, r7, lsl r4
    1424:	bf012400 	svclt	0x00012400
    1428:	04000005 	streq	r0, [r0], #-5
    142c:	00341722 	eorseq	r1, r4, r2, lsr #14
    1430:	01280000 			@ <UNDEFINED> instruction: 0x01280000
    1434:	000005c4 	andeq	r0, r0, r4, asr #11
    1438:	34172304 	ldrcc	r2, [r7], #-772	@ 0xfffffcfc
    143c:	2c000000 	stccs	0, cr0, [r0], {-0}
    1440:	0005df01 	andeq	sp, r5, r1, lsl #30
    1444:	17240400 	strne	r0, [r4, -r0, lsl #8]!
    1448:	00000034 	andeq	r0, r0, r4, lsr r0
    144c:	06570130 			@ <UNDEFINED> instruction: 0x06570130
    1450:	25040000 	strcs	r0, [r4, #-0]
    1454:	00003417 	andeq	r3, r0, r7, lsl r4
    1458:	1d013400 	cfstrsne	mvf3, [r1, #-0]
    145c:	04000006 	streq	r0, [r0], #-6
    1460:	00341726 	eorseq	r1, r4, r6, lsr #14
    1464:	01380000 	teqeq	r8, r0
    1468:	000006d5 	ldrdeq	r0, [r0], -r5
    146c:	34172704 	ldrcc	r2, [r7], #-1796	@ 0xfffff8fc
    1470:	3c000000 	stccc	0, cr0, [r0], {-0}
    1474:	00552100 	subseq	r2, r5, r0, lsl #2
    1478:	014d0000 	mrseq	r0, (UNDEF: 77)
    147c:	2d160000 	ldccs	0, cr0, [r6, #-0]
    1480:	0b000000 	bleq	1488 <__exidx_end+0x444>
    1484:	013d1100 	teqeq	sp, r0, lsl #2
    1488:	c9040000 	stmdbgt	r4, {}	@ <UNPREDICTABLE>
    148c:	04000005 	streq	r0, [r0], #-5
    1490:	007d0328 	rsbseq	r0, sp, r8, lsr #6
    1494:	14040000 	strne	r0, [r4], #-0
    1498:	03000003 	movweq	r0, #3
    149c:	016a0e1c 	cmneq	sl, ip, lsl lr
    14a0:	01080000 	mrseq	r0, (UNDEF: 8)
    14a4:	0002a508 	andeq	sl, r2, r8, lsl #10
    14a8:	4e492200 	cdpmi	2, 4, cr2, cr9, cr0, {0}
    14ac:	1e030054 	mcrne	0, 0, r0, cr3, cr4, {2}
    14b0:	00002610 	andeq	r2, r0, r0, lsl r6
    14b4:	011c0400 	tsteq	ip, r0, lsl #8
    14b8:	1f030000 	svcne	0x00030000
    14bc:	00002d12 	andeq	r2, r0, r2, lsl sp
    14c0:	027b0400 	rsbseq	r0, fp, #0, 8
    14c4:	20030000 	andcs	r0, r3, r0
    14c8:	00006f17 	andeq	r6, r0, r7, lsl pc
    14cc:	027c0400 	rsbseq	r0, ip, #0, 8
    14d0:	21030000 	mrscs	r0, (UNDEF: 3)
    14d4:	0000680e 	andeq	r6, r0, lr, lsl #16
    14d8:	008a0400 	addeq	r0, sl, r0, lsl #8
    14dc:	22030000 	andcs	r0, r3, #0
    14e0:	0001b20f 	andeq	fp, r1, pc, lsl #4
    14e4:	01a10a00 			@ <UNDEFINED> instruction: 0x01a10a00
    14e8:	04230000 	strteq	r0, [r3], #-0
    14ec:	00020004 	andeq	r0, r2, r4
    14f0:	12260300 	eorne	r0, r6, #0, 6
    14f4:	0000002d 	andeq	r0, r0, sp, lsr #32
    14f8:	00036b04 	andeq	r6, r3, r4, lsl #22
    14fc:	17520300 	ldrbne	r0, [r2, -r0, lsl #6]
    1500:	0000004e 	andeq	r0, r0, lr, asr #32
    1504:	0002fc04 	andeq	pc, r2, r4, lsl #24
    1508:	17530300 	ldrbne	r0, [r3, -r0, lsl #6]
    150c:	0000004e 	andeq	r0, r0, lr, asr #32
    1510:	00009d04 	andeq	r9, r0, r4, lsl #26
    1514:	17540300 	ldrbne	r0, [r4, -r0, lsl #6]
    1518:	0000006f 	andeq	r0, r0, pc, rrx
    151c:	0001d80a 	andeq	sp, r1, sl, lsl #16
    1520:	00830400 	addeq	r0, r3, r0, lsl #8
    1524:	8a030000 	bhi	c152c <__exidx_end+0xc04e8>
    1528:	0001950e 	andeq	r9, r1, lr, lsl #10
    152c:	07550400 	ldrbeq	r0, [r5, -r0, lsl #8]
    1530:	bc030000 	stclt	0, cr0, [r3], {-0}
    1534:	0001950e 	andeq	r9, r1, lr, lsl #10
    1538:	03a40400 			@ <UNDEFINED> instruction: 0x03a40400
    153c:	cb030000 	blgt	c1544 <__exidx_end+0xc0500>
    1540:	0001890f 	andeq	r8, r1, pc, lsl #18
    1544:	02aa0400 	adceq	r0, sl, #0, 8
    1548:	d9030000 	stmdble	r3, {}	@ <UNPREDICTABLE>
    154c:	0001890f 	andeq	r8, r1, pc, lsl #18
    1550:	075e0400 	ldrbeq	r0, [lr, -r0, lsl #8]
    1554:	ed030000 	stc	0, cr0, [r3, #-0]
    1558:	00022515 	andeq	r2, r2, r5, lsl r5
    155c:	02f70c00 	rscseq	r0, r7, #0, 24
    1560:	425c0000 	subsmi	r0, ip, #0
    1564:	00000318 	andeq	r0, r0, r8, lsl r3
    1568:	0070730b 	rsbseq	r7, r0, fp, lsl #6
    156c:	830b4505 	movwhi	r4, #46341	@ 0xb505
    1570:	00000004 	andeq	r0, r0, r4
    1574:	00035401 	andeq	r5, r3, r1, lsl #8
    1578:	15460500 	strbne	r0, [r6, #-1280]	@ 0xfffffb00
    157c:	00000201 	andeq	r0, r0, r1, lsl #4
    1580:	035b0104 	cmpeq	fp, #4, 2
    1584:	47050000 	strmi	r0, [r5, -r0]
    1588:	0001890c 	andeq	r8, r1, ip, lsl #18
    158c:	f3010800 	vsub.i8	d0, d1, d0
    1590:	05000001 	streq	r0, [r0, #-1]
    1594:	01710c48 	cmneq	r1, r8, asr #24
    1598:	010c0000 	mrseq	r0, (UNDEF: 12)
    159c:	000000c8 	andeq	r0, r0, r8, asr #1
    15a0:	7e0c4b05 	vmlavc.f64	d4, d12, d5
    15a4:	10000004 	andne	r0, r0, r4
    15a8:	0002cb01 	andeq	ip, r2, r1, lsl #22
    15ac:	0b4c0500 	bleq	13029b4 <__exidx_end+0x1301970>
    15b0:	00000483 	andeq	r0, r0, r3, lsl #9
    15b4:	03040114 	movweq	r0, #16660	@ 0x4114
    15b8:	4d050000 	stcmi	0, cr0, [r5, #-0]
    15bc:	00017d0b 	andeq	r7, r1, fp, lsl #26
    15c0:	700b1800 	andvc	r1, fp, r0, lsl #16
    15c4:	05006469 	streq	r6, [r0, #-1129]	@ 0xfffffb97
    15c8:	01c00d4e 	biceq	r0, r0, lr, asr #26
    15cc:	011c0000 	tsteq	ip, r0
    15d0:	000001ea 	andeq	r0, r0, sl, ror #3
    15d4:	cc0e4f05 	stcgt	15, cr4, [lr], {5}
    15d8:	1d000001 	stcne	0, cr0, [r0, #-4]
    15dc:	00006201 	andeq	r6, r0, r1, lsl #4
    15e0:	0b540500 	bleq	15029e8 <__exidx_end+0x15019a4>
    15e4:	000001b4 			@ <UNDEFINED> instruction: 0x000001b4
    15e8:	00e90120 	rsceq	r0, r9, r0, lsr #2
    15ec:	5f050000 	svcpl	0x00050000
    15f0:	0001d80e 	andeq	sp, r1, lr, lsl #16
    15f4:	51012400 	tstpl	r1, r0, lsl #8
    15f8:	05000002 	streq	r0, [r0, #-2]
    15fc:	01d80e61 	bicseq	r0, r8, r1, ror #28
    1600:	01280000 			@ <UNDEFINED> instruction: 0x01280000
    1604:	00000006 	andeq	r0, r0, r6
    1608:	b40b6305 	strlt	r6, [fp], #-773	@ 0xfffffcfb
    160c:	2c000001 	stccs	0, cr0, [r0], {1}
    1610:	0001e201 	andeq	lr, r1, r1, lsl #4
    1614:	0b640500 	bleq	1902a1c <__exidx_end+0x19019d8>
    1618:	000001b4 			@ <UNDEFINED> instruction: 0x000001b4
    161c:	003e0130 	eorseq	r0, lr, r0, lsr r1
    1620:	66050000 	strvs	r0, [r5], -r0
    1624:	00017d0b 	andeq	r7, r1, fp, lsl #26
    1628:	bf013400 	svclt	0x00013400
    162c:	05000002 	streq	r0, [r0, #-2]
    1630:	01c00d67 	biceq	r0, r0, r7, ror #26
    1634:	0f380000 	svceq	0x00380000
    1638:	00000205 	andeq	r0, r0, r5, lsl #4
    163c:	03b71a68 			@ <UNDEFINED> instruction: 0x03b71a68
    1640:	0f3c0000 	svceq	0x003c0000
    1644:	00000129 	andeq	r0, r0, r9, lsr #2
    1648:	03631769 	cmneq	r3, #27525120	@ 0x1a40000
    164c:	00540000 	subseq	r0, r4, r0
    1650:	0000a504 	andeq	sl, r0, r4, lsl #10
    1654:	16ef0300 	strbtne	r0, [pc], r0, lsl #6
    1658:	00000324 	andeq	r0, r0, r4, lsr #6
    165c:	0002d80c 	andeq	sp, r2, ip, lsl #16
    1660:	633a1400 	teqvs	sl, #0, 8
    1664:	0f000003 	svceq	0x00000003
    1668:	000000f6 	strdeq	r0, [r0], -r6
    166c:	0363173c 	cmneq	r3, #60, 14	@ 0xf00000
    1670:	01000000 	mrseq	r0, (UNDEF: 0)
    1674:	000001d9 	ldrdeq	r0, [r0], -r9
    1678:	7e0c3d05 	cdpvc	13, 0, cr3, cr12, cr5, {0}
    167c:	08000004 	stmdaeq	r0, {r2}
    1680:	00013101 	andeq	r3, r1, r1, lsl #2
    1684:	0c3e0500 	cfldr32eq	mvfx0, [lr], #-0
    1688:	00000189 	andeq	r0, r0, r9, lsl #3
    168c:	005d010c 	subseq	r0, sp, ip, lsl #2
    1690:	3f050000 	svccc	0x00050000
    1694:	0001b40b 	andeq	fp, r1, fp, lsl #8
    1698:	0c001000 	stceq	0, cr1, [r0], {-0}
    169c:	00000100 	andeq	r0, r0, r0, lsl #2
    16a0:	03893408 	orreq	r3, r9, #8, 8	@ 0x8000000
    16a4:	c0010000 	andgt	r0, r1, r0
    16a8:	05000000 	streq	r0, [r0, #-0]
    16ac:	04791836 	ldrbteq	r1, [r9], #-2102	@ 0xfffff7ca
    16b0:	01000000 	mrseq	r0, (UNDEF: 0)
    16b4:	0000034c 	andeq	r0, r0, ip, asr #6
    16b8:	79183705 	ldmdbvc	r8, {r0, r2, r8, r9, sl, ip, sp}
    16bc:	04000004 	streq	r0, [r0], #-4
    16c0:	06fb0400 	ldrbteq	r0, [fp], r0, lsl #8
    16c4:	f1030000 			@ <UNDEFINED> instruction: 0xf1030000
    16c8:	00031811 	andeq	r1, r3, r1, lsl r8
    16cc:	02e80400 	rsceq	r0, r8, #0, 8
    16d0:	f2030000 	vhadd.s8	d0, d3, d0
    16d4:	0003a616 	andeq	sl, r3, r6, lsl r6
    16d8:	03950a00 	orrseq	r0, r5, #0, 20
    16dc:	25060000 	strcs	r0, [r6, #-0]
    16e0:	04000002 	streq	r0, [r0], #-2
    16e4:	000007a1 	andeq	r0, r0, r1, lsr #15
    16e8:	b71df303 	ldrlt	pc, [sp, -r3, lsl #6]
    16ec:	0c000003 	stceq	0, cr0, [r0], {3}
    16f0:	000000d1 	ldrdeq	r0, [r0], -r1
    16f4:	04111f18 	ldreq	r1, [r1], #-3864	@ 0xfffff0e8
    16f8:	c0010000 	andgt	r0, r1, r0
    16fc:	05000000 	streq	r0, [r0, #-0]
    1700:	046a1b21 	strbteq	r1, [sl], #-2849	@ 0xfffff4df
    1704:	01000000 	mrseq	r0, (UNDEF: 0)
    1708:	0000034c 	andeq	r0, r0, ip, asr #6
    170c:	6a1b2205 	bvs	6c9f28 <__exidx_end+0x6c8ee4>
    1710:	04000004 	streq	r0, [r0], #-4
    1714:	00025e01 	andeq	r5, r2, r1, lsl #28
    1718:	0b230500 	bleq	8c2b20 <__exidx_end+0x8c1adc>
    171c:	0000017d 	andeq	r0, r0, sp, ror r1
    1720:	01210108 			@ <UNDEFINED> instruction: 0x01210108
    1724:	24050000 	strcs	r0, [r5], #-0
    1728:	0001d80e 	andeq	sp, r1, lr, lsl #16
    172c:	0e010c00 	cdpeq	12, 0, cr0, cr1, cr0, {0}
    1730:	05000003 	streq	r0, [r0, #-3]
    1734:	01d80e25 	bicseq	r0, r8, r5, lsr #28
    1738:	01100000 	tsteq	r0, r0
    173c:	00000230 	andeq	r0, r0, r0, lsr r2
    1740:	6f0f2605 	svcvs	0x000f2605
    1744:	14000004 	strne	r0, [r0], #-4
    1748:	03192400 	tsteq	r9, #0, 8
    174c:	01030000 	mrseq	r0, (UNDEF: 3)
    1750:	041e1901 	ldreq	r1, [lr], #-2305	@ 0xfffff6ff
    1754:	620c0000 	andvs	r0, ip, #0
    1758:	24000003 	strcs	r0, [r0], #-3
    175c:	00046aa6 	andeq	r6, r4, r6, lsr #21
    1760:	00000100 	andeq	r0, r0, r0, lsl #2
    1764:	a8050000 	stmdage	r5, {}	@ <UNPREDICTABLE>
    1768:	00020d11 	andeq	r0, r2, r1, lsl sp
    176c:	5d010000 	stcpl	0, cr0, [r1, #-0]
    1770:	05000000 	streq	r0, [r0, #-0]
    1774:	01b40ba9 			@ <UNDEFINED> instruction: 0x01b40ba9
    1778:	01040000 	mrseq	r0, (UNDEF: 4)
    177c:	00000049 	andeq	r0, r0, r9, asr #32
    1780:	a10baa05 	tstge	fp, r5, lsl #20
    1784:	08000001 	stmdaeq	r0, {r0}
    1788:	0000ad0f 	andeq	sl, r0, pc, lsl #26
    178c:	2413ab00 	ldrcs	sl, [r3], #-2816	@ 0xfffff500
    1790:	0c000003 	stceq	0, cr0, [r0], {3}
    1794:	00028101 	andeq	r8, r2, r1, lsl #2
    1798:	13ac0500 			@ <UNDEFINED> instruction: 0x13ac0500
    179c:	000003a6 	andeq	r0, r0, r6, lsr #7
    17a0:	b7060020 	strlt	r0, [r6, -r0, lsr #32]
    17a4:	06000003 	streq	r0, [r0], -r3
    17a8:	00000318 	andeq	r0, r0, r8, lsl r3
    17ac:	00046f0a 	andeq	r6, r4, sl, lsl #30
    17b0:	03630600 	cmneq	r3, #0, 12
    17b4:	5e060000 	cdppl	0, 0, cr0, cr6, cr0, {0}
    17b8:	06000001 	streq	r0, [r0], -r1
    17bc:	00000171 	andeq	r0, r0, r1, ror r1
    17c0:	00072a17 	andeq	r2, r7, r7, lsl sl
    17c4:	04921200 	ldreq	r1, [r2], #512	@ 0x200
    17c8:	19060000 	stmdbne	r6, {}	@ <UNPREDICTABLE>
    17cc:	0a000002 	beq	17dc <__exidx_end+0x798>
    17d0:	00000492 	muleq	r0, r2, r4
    17d4:	00038925 	andeq	r8, r3, r5, lsr #18
    17d8:	04ad0400 	strteq	r0, [sp], #1024	@ 0x400
    17dc:	2d160000 	ldccs	0, cr0, [r6, #-0]
    17e0:	02000000 	andeq	r0, r0, #0
    17e4:	07031700 	streq	r1, [r3, -r0, lsl #14]
    17e8:	9c170000 	ldcls	0, cr0, [r7], {-0}
    17ec:	10000004 	andne	r0, r0, r4
    17f0:	0000073a 	andeq	r0, r0, sl, lsr r7
    17f4:	e9082502 	stmdb	r8, {r1, r8, sl, sp}
    17f8:	d2000001 	andle	r0, r0, #1
    17fc:	09000004 	stmdbeq	r0, {r2}
    1800:	000004d7 	ldrdeq	r0, [r0], -r7
    1804:	0004e109 	andeq	lr, r4, r9, lsl #2
    1808:	89060000 	stmdbhi	r6, {}	@ <UNPREDICTABLE>
    180c:	0a000003 	beq	1820 <__exidx_end+0x7dc>
    1810:	000004d2 	ldrdeq	r0, [r0], -r2
    1814:	00049206 	andeq	r9, r4, r6, lsl #4
    1818:	04dc0a00 	ldrbeq	r0, [ip], #2560	@ 0xa00
    181c:	0e100000 	cdpeq	0, 1, cr0, cr0, cr0, {0}
    1820:	02000008 	andeq	r0, r0, #8
    1824:	04920929 	ldreq	r0, [r2], #2345	@ 0x929
    1828:	04fc0000 	ldrbteq	r0, [ip], #0
    182c:	d7090000 	strle	r0, [r9, -r0]
    1830:	00000004 	andeq	r0, r0, r4
    1834:	00077212 	andeq	r7, r7, r2, lsl r2
    1838:	0d270600 	stceq	6, cr0, [r7, #-0]
    183c:	09000005 	stmdbeq	r0, {r0, r2}
    1840:	0000050d 	andeq	r0, r0, sp, lsl #10
    1844:	03ab0600 			@ <UNDEFINED> instruction: 0x03ab0600
    1848:	31100000 	tstcc	r0, r0
    184c:	06000007 	streq	r0, [r0], -r7
    1850:	01e90825 	mvneq	r0, r5, lsr #16
    1854:	052d0000 	streq	r0, [sp, #-0]!
    1858:	0d090000 	stceq	0, cr0, [r9, #-0]
    185c:	09000005 	stmdbeq	r0, {r0, r2}
    1860:	000001d8 	ldrdeq	r0, [r0], -r8
    1864:	07431000 	strbeq	r1, [r3, -r0]
    1868:	24020000 	strcs	r0, [r2], #-0
    186c:	0001e908 	andeq	lr, r1, r8, lsl #18
    1870:	00054800 	andeq	r4, r5, r0, lsl #16
    1874:	04740900 	ldrbteq	r0, [r4], #-2304	@ 0xfffff700
    1878:	97090000 	strls	r0, [r9, -r0]
    187c:	00000004 	andeq	r0, r0, r4
    1880:	00078e12 	andeq	r8, r7, r2, lsl lr
    1884:	591e0200 	ldmdbpl	lr, {r9}
    1888:	09000005 	stmdbeq	r0, {r0, r2}
    188c:	0000017d 	andeq	r0, r0, sp, ror r1
    1890:	082f1200 	stmdaeq	pc!, {r9, ip}	@ <UNPREDICTABLE>
    1894:	13070000 	movwne	r0, #28672	@ 0x7000
    1898:	0000056a 	andeq	r0, r0, sl, ror #10
    189c:	0001f509 	andeq	pc, r1, r9, lsl #10
    18a0:	0e260000 	cdpeq	0, 2, cr0, cr6, cr0, {0}
    18a4:	02000007 	andeq	r0, r0, #7
    18a8:	017d061d 	cmneq	sp, sp, lsl r6
    18ac:	ea180000 	b	6018b4 <__exidx_end+0x600870>
    18b0:	1c000007 	stcne	0, cr0, [r0], {7}
    18b4:	01e90801 	mvneq	r0, r1, lsl #16
    18b8:	00000000 	andeq	r0, r0, r0
    18bc:	00460000 	subeq	r0, r6, r0
    18c0:	9c010000 	stcls	0, cr0, [r1], {-0}
    18c4:	00000606 	andeq	r0, r0, r6, lsl #12
    18c8:	0007d213 	andeq	sp, r7, r3, lsl r2
    18cc:	22011c00 	andcs	r1, r1, #0, 24
    18d0:	0000060b 	andeq	r0, r0, fp, lsl #12
    18d4:	000001e3 	andeq	r0, r0, r3, ror #3
    18d8:	000001df 	ldrdeq	r0, [r0], -pc	@ <UNPREDICTABLE>
    18dc:	00074c13 	andeq	r4, r7, r3, lsl ip
    18e0:	2e011c00 	cdpcs	12, 0, cr1, cr1, cr0, {0}
    18e4:	00000610 	andeq	r0, r0, r0, lsl r6
    18e8:	000001f7 	strdeq	r0, [r0], -r7
    18ec:	000001f3 	strdeq	r0, [r0], -r3
    18f0:	00081827 	andeq	r1, r8, r7, lsr #16
    18f4:	011e0100 	tsteq	lr, r0, lsl #2
    18f8:	00017d05 	andeq	r7, r1, r5, lsl #26
    18fc:	00021700 	andeq	r1, r2, r0, lsl #14
    1900:	00020700 	andeq	r0, r2, r0, lsl #14
    1904:	00000500 	andeq	r0, r0, r0, lsl #10
    1908:	056a0000 	strbeq	r0, [sl, #-0]!
    190c:	00050000 	andeq	r0, r5, r0
    1910:	59000000 	stmdbpl	r0, {}	@ <UNPREDICTABLE>
    1914:	03000005 	movweq	r0, #5
    1918:	00000000 	andeq	r0, r0, r0
    191c:	00000548 	andeq	r0, r0, r8, asr #10
    1920:	000005f3 	strdeq	r0, [r0], -r3
    1924:	02500102 	subseq	r0, r0, #-2147483648	@ 0x80000000
    1928:	05000076 	streq	r0, [r0, #-118]	@ 0xffffff8a
    192c:	00000000 	andeq	r0, r0, r0
    1930:	00000548 	andeq	r0, r0, r8, asr #10
    1934:	00000005 	andeq	r0, r0, r5
    1938:	00054800 	andeq	r4, r5, r0, lsl #16
    193c:	11060000 	mrsne	r0, (UNDEF: 6)
    1940:	0a000004 	beq	1958 <__exidx_end+0x914>
    1944:	00000606 	andeq	r0, r0, r6, lsl #12
    1948:	0001a106 	andeq	sl, r1, r6, lsl #2
    194c:	07c71800 	strbeq	r1, [r7, r0, lsl #16]
    1950:	01150000 	tsteq	r5, r0
    1954:	0001b406 	andeq	fp, r1, r6, lsl #8
    1958:	00000000 	andeq	r0, r0, r0
    195c:	00000a00 	andeq	r0, r0, r0, lsl #20
    1960:	449c0100 	ldrmi	r0, [ip], #256	@ 0x100
    1964:	13000006 	movwne	r0, #6
    1968:	000007d2 	ldrdeq	r0, [r0], -r2
    196c:	0b210115 	bleq	841dc8 <__exidx_end+0x840d84>
    1970:	49000006 	stmdbmi	r0, {r1, r2}
    1974:	45000002 	strmi	r0, [r0, #-2]
    1978:	00000002 	andeq	r0, r0, r2
    197c:	0003b30d 	andeq	fp, r3, sp, lsl #6
    1980:	01e9ca00 	mvneq	ip, r0, lsl #20
    1984:	04fc0000 	ldrbteq	r0, [ip], #0
    1988:	01380000 	teqeq	r8, r0
    198c:	9c010000 	stcls	0, cr0, [r1], {-0}
    1990:	000007e8 	andeq	r0, r0, r8, ror #15
    1994:	0007d207 	andeq	sp, r7, r7, lsl #4
    1998:	0b22ca00 	bleq	8b41a0 <__exidx_end+0x8b315c>
    199c:	68000006 	stmdavs	r0, {r1, r2}
    19a0:	5c000002 	stcpl	0, cr0, [r0], {2}
    19a4:	07000002 	streq	r0, [r0, -r2]
    19a8:	00000785 	andeq	r0, r0, r5, lsl #15
    19ac:	06102eca 	ldreq	r2, [r0], -sl, asr #29
    19b0:	029d0000 	addseq	r0, sp, #0
    19b4:	02990000 	addseq	r0, r9, #0
    19b8:	21070000 	mrscs	r0, (UNDEF: 7)
    19bc:	ca000001 	bgt	19c8 <__exidx_end+0x984>
    19c0:	0001e446 	andeq	lr, r1, r6, asr #8
    19c4:	0002b200 	andeq	fp, r2, r0, lsl #4
    19c8:	0002ae00 	andeq	sl, r2, r0, lsl #28
    19cc:	08180e00 	ldmdaeq	r8, {r9, sl, fp}
    19d0:	7dcd0000 	stclvc	0, cr0, [sp]
    19d4:	cf000001 	svcgt	0x00000001
    19d8:	c3000002 	movwgt	r0, #2
    19dc:	19000002 	stmdbne	r0, {r1}
    19e0:	000005d0 	ldrdeq	r0, [r0], -r0	@ <UNPREDICTABLE>
    19e4:	0000004c 	andeq	r0, r0, ip, asr #32
    19e8:	000006fc 	strdeq	r0, [r0], -ip
    19ec:	0007f428 	andeq	pc, r7, r8, lsr #8
    19f0:	01030100 	mrseq	r0, (UNDEF: 19)
    19f4:	00049211 	andeq	r9, r4, r1, lsl r2
    19f8:	5c910200 	lfmpl	f0, 4, [r1], {0}
    19fc:	0005d803 	andeq	sp, r5, r3, lsl #16
    1a00:	0004e600 	andeq	lr, r4, r0, lsl #12
    1a04:	0006d800 	andeq	sp, r6, r0, lsl #16
    1a08:	50010200 	andpl	r0, r1, r0, lsl #4
    1a0c:	00007402 	andeq	r7, r0, r2, lsl #8
    1a10:	0005e803 	andeq	lr, r5, r3, lsl #16
    1a14:	0004b700 	andeq	fp, r4, r0, lsl #14
    1a18:	0006f200 	andeq	pc, r6, r0, lsl #4
    1a1c:	50010200 	andpl	r0, r1, r0, lsl #4
    1a20:	02007402 	andeq	r7, r0, #33554432	@ 0x2000000
    1a24:	91025101 	tstls	r2, r1, lsl #2
    1a28:	f805005c 			@ <UNDEFINED> instruction: 0xf805005c
    1a2c:	2d000005 	stccs	0, cr0, [r0, #-20]	@ 0xffffffec
    1a30:	00000005 	andeq	r0, r0, r5
    1a34:	000b9314 	andeq	r9, fp, r4, lsl r3
    1a38:	00051000 	andeq	r1, r5, r0
    1a3c:	010d0100 	mrseq	r0, (UNDEF: 29)
    1a40:	09cf0000 	stmibeq	pc, {}^	@ <UNPREDICTABLE>
    1a44:	0000071c 	andeq	r0, r0, ip, lsl r7
    1a48:	00010d1a 	andeq	r0, r1, sl, lsl sp
    1a4c:	0ba11b00 	bleq	fe848654 <SCB_ICSR+0x1e839950>
    1a50:	00000000 	andeq	r0, r0, r0
    1a54:	00050a05 	andeq	r0, r5, r5, lsl #20
    1a58:	00056a00 	andeq	r6, r5, r0, lsl #20
    1a5c:	05200300 	streq	r0, [r0, #-768]!	@ 0xfffffd00
    1a60:	05590000 	ldrbeq	r0, [r9, #-0]
    1a64:	07390000 	ldreq	r0, [r9, -r0]!
    1a68:	01020000 	mrseq	r0, (UNDEF: 2)
    1a6c:	eb090250 	bl	2423b4 <__exidx_end+0x241370>
    1a70:	052c0300 	streq	r0, [ip, #-768]!	@ 0xfffffd00
    1a74:	05590000 	ldrbeq	r0, [r9, #-0]
    1a78:	074d0000 	strbeq	r0, [sp, -r0]
    1a7c:	01020000 	mrseq	r0, (UNDEF: 2)
    1a80:	fe090250 	mcr2	2, 0, r0, cr9, cr0, {2}
    1a84:	05380300 	ldreq	r0, [r8, #-768]!	@ 0xfffffd00
    1a88:	05590000 	ldrbeq	r0, [r9, #-0]
    1a8c:	07610000 	strbeq	r0, [r1, -r0]!
    1a90:	01020000 	mrseq	r0, (UNDEF: 2)
    1a94:	fd090250 	stc2	2, cr0, [r9, #-320]	@ 0xfffffec0
    1a98:	05460300 	strbeq	r0, [r6, #-768]	@ 0xfffffd00
    1a9c:	05480000 	strbeq	r0, [r8, #-0]
    1aa0:	07750000 	ldrbeq	r0, [r5, -r0]!
    1aa4:	01020000 	mrseq	r0, (UNDEF: 2)
    1aa8:	00750250 	rsbseq	r0, r5, r0, asr r2
    1aac:	05780300 	ldrbeq	r0, [r8, #-768]!	@ 0xfffffd00
    1ab0:	05120000 	ldreq	r0, [r2, #-0]
    1ab4:	07890000 	streq	r0, [r9, r0]
    1ab8:	01020000 	mrseq	r0, (UNDEF: 2)
    1abc:	00760251 	rsbseq	r0, r6, r1, asr r2
    1ac0:	05820300 	streq	r0, [r2, #768]	@ 0x300
    1ac4:	052d0000 	streq	r0, [sp, #-0]!
    1ac8:	079d0000 	ldreq	r0, [sp, r0]
    1acc:	01020000 	mrseq	r0, (UNDEF: 2)
    1ad0:	007a0250 	rsbseq	r0, sl, r0, asr r2
    1ad4:	059a0300 	ldreq	r0, [sl, #768]	@ 0x300
    1ad8:	05480000 	strbeq	r0, [r8, #-0]
    1adc:	07b10000 	ldreq	r0, [r1, r0]!
    1ae0:	01020000 	mrseq	r0, (UNDEF: 2)
    1ae4:	00750250 	rsbseq	r0, r5, r0, asr r2
    1ae8:	059e0500 	ldreq	r0, [lr, #1280]	@ 0x500
    1aec:	056a0000 	strbeq	r0, [sl, #-0]!
    1af0:	b0030000 	andlt	r0, r3, r0
    1af4:	48000005 	stmdami	r0, {r0, r2}
    1af8:	ce000005 	cdpgt	0, 0, cr0, cr0, cr5, {0}
    1afc:	02000007 	andeq	r0, r0, #7
    1b00:	75025001 	strvc	r5, [r2, #-1]
    1b04:	c4050000 	strgt	r0, [r5], #-0
    1b08:	fc000005 	stc2	0, cr0, [r0], {5}
    1b0c:	15000004 	strne	r0, [r0, #-4]
    1b10:	00000622 	andeq	r0, r0, r2, lsr #12
    1b14:	00000548 	andeq	r0, r0, r8, asr #10
    1b18:	02500102 	subseq	r0, r0, #-2147483648	@ 0x80000000
    1b1c:	00000075 	andeq	r0, r0, r5, ror r0
    1b20:	0007650d 	andeq	r6, r7, sp, lsl #10
    1b24:	01e9a000 	mvneq	sl, r0
    1b28:	00000000 	andeq	r0, r0, r0
    1b2c:	00300000 	eorseq	r0, r0, r0
    1b30:	9c010000 	stcls	0, cr0, [r1], {-0}
    1b34:	0000088c 	andeq	r0, r0, ip, lsl #17
    1b38:	0007d207 	andeq	sp, r7, r7, lsl #4
    1b3c:	0b25a000 	bleq	969b44 <__exidx_end+0x968b00>
    1b40:	00000006 	andeq	r0, r0, r6
    1b44:	fc000003 	stc2	0, cr0, [r0], {3}
    1b48:	07000002 	streq	r0, [r0, -r2]
    1b4c:	000006f3 	strdeq	r0, [r0], -r3
    1b50:	01ad36a0 			@ <UNDEFINED> instruction: 0x01ad36a0
    1b54:	03140000 	tsteq	r4, #0
    1b58:	03100000 	tsteq	r0, #0
    1b5c:	180e0000 	stmdane	lr, {}	@ <UNPREDICTABLE>
    1b60:	a2000008 	andge	r0, r0, #8
    1b64:	0000017d 	andeq	r0, r0, sp, ror r1
    1b68:	00000328 	andeq	r0, r0, r8, lsr #6
    1b6c:	00000324 	andeq	r0, r0, r4, lsr #6
    1b70:	00084a29 	andeq	r4, r8, r9, lsr #20
    1b74:	08022a00 	stmdaeq	r2, {r9, fp, sp}
    1b78:	b3010000 	movwlt	r0, #4096	@ 0x1000
    1b7c:	00049215 	andeq	r9, r4, r5, lsl r2
    1b80:	00050000 	andeq	r0, r5, r0
    1b84:	6a000000 	bvs	1b8c <__exidx_end+0xb48>
    1b88:	03000005 	movweq	r0, #5
    1b8c:	00000000 	andeq	r0, r0, r0
    1b90:	00000559 	andeq	r0, r0, r9, asr r5
    1b94:	00000867 	andeq	r0, r0, r7, ror #16
    1b98:	02500102 	subseq	r0, r0, #-2147483648	@ 0x80000000
    1b9c:	0300fe09 	movweq	pc, #3593	@ 0xe09	@ <UNPREDICTABLE>
    1ba0:	00000000 	andeq	r0, r0, r0
    1ba4:	00000559 	andeq	r0, r0, r9, asr r5
    1ba8:	0000087b 	andeq	r0, r0, fp, ror r8
    1bac:	02500102 	subseq	r0, r0, #-2147483648	@ 0x80000000
    1bb0:	1500fd09 	strne	pc, [r0, #-3337]	@ 0xfffff2f7
    1bb4:	00000000 	andeq	r0, r0, r0
    1bb8:	00000548 	andeq	r0, r0, r8, asr #10
    1bbc:	02500102 	subseq	r0, r0, #-2147483648	@ 0x80000000
    1bc0:	00000076 	andeq	r0, r0, r6, ror r0
    1bc4:	0002de0d 	andeq	sp, r2, sp, lsl #28
    1bc8:	01e94f00 	mvneq	r4, r0, lsl #30
    1bcc:	03c40000 	biceq	r0, r4, #0
    1bd0:	01380000 	teqeq	r8, r0
    1bd4:	9c010000 	stcls	0, cr0, [r1], {-0}
    1bd8:	00000a38 	andeq	r0, r0, r8, lsr sl
    1bdc:	0007d207 	andeq	sp, r7, r7, lsl #4
    1be0:	0b224f00 	bleq	8957e8 <__exidx_end+0x8947a4>
    1be4:	44000006 	strmi	r0, [r0], #-6
    1be8:	38000003 	stmdacc	r0, {r0, r1}
    1bec:	07000003 	streq	r0, [r0, -r3]
    1bf0:	000006f3 	strdeq	r0, [r0], -r3
    1bf4:	01ad334f 			@ <UNDEFINED> instruction: 0x01ad334f
    1bf8:	03790000 	cmneq	r9, #0
    1bfc:	03750000 	cmneq	r5, #0
    1c00:	21070000 	mrscs	r0, (UNDEF: 7)
    1c04:	50000001 	andpl	r0, r0, r1
    1c08:	0001e417 	andeq	lr, r1, r7, lsl r4
    1c0c:	00038e00 	andeq	r8, r3, r0, lsl #28
    1c10:	00038a00 	andeq	r8, r3, r0, lsl #20
    1c14:	08180e00 	ldmdaeq	r8, {r9, sl, fp}
    1c18:	7d530000 	ldclvc	0, cr0, [r3, #-0]
    1c1c:	ab000001 	blge	1c28 <__exidx_end+0xbe4>
    1c20:	9f000003 	svcls	0x00000003
    1c24:	19000003 	stmdbne	r0, {r0, r1}
    1c28:	00000492 	muleq	r0, r2, r4
    1c2c:	00000054 	andeq	r0, r0, r4, asr r0
    1c30:	0000094c 	andeq	r0, r0, ip, asr #18
    1c34:	0008022b 	andeq	r0, r8, fp, lsr #4
    1c38:	118f0100 	orrne	r0, pc, r0, lsl #2
    1c3c:	00000492 	muleq	r0, r2, r4
    1c40:	035c9102 	cmpeq	ip, #-2147483648	@ 0x80000000
    1c44:	0000049a 	muleq	r0, sl, r4
    1c48:	000004e6 	andeq	r0, r0, r6, ror #9
    1c4c:	0000091f 	andeq	r0, r0, pc, lsl r9
    1c50:	02500102 	subseq	r0, r0, #-2147483648	@ 0x80000000
    1c54:	03000074 	movweq	r0, #116	@ 0x74
    1c58:	000004aa 	andeq	r0, r0, sl, lsr #9
    1c5c:	000004b7 			@ <UNDEFINED> instruction: 0x000004b7
    1c60:	00000939 	andeq	r0, r0, r9, lsr r9
    1c64:	02500102 	subseq	r0, r0, #-2147483648	@ 0x80000000
    1c68:	01020074 	tsteq	r2, r4, ror r0
    1c6c:	5c910251 	lfmpl	f0, 4, [r1], {81}	@ 0x51
    1c70:	04b20500 	ldrteq	r0, [r2], #1280	@ 0x500
    1c74:	05590000 	ldrbeq	r0, [r9, #-0]
    1c78:	c2050000 	andgt	r0, r5, #0
    1c7c:	2d000004 	stccs	0, cr0, [r0, #-16]
    1c80:	00000005 	andeq	r0, r0, r5
    1c84:	000b9314 	andeq	r9, fp, r4, lsl r3
    1c88:	0003d800 	andeq	sp, r3, r0, lsl #16
    1c8c:	01010100 	mrseq	r0, (UNDEF: 17)
    1c90:	09550000 	ldmdbeq	r5, {}^	@ <UNPREDICTABLE>
    1c94:	0000096c 	andeq	r0, r0, ip, ror #18
    1c98:	0001011a 	andeq	r0, r1, sl, lsl r1
    1c9c:	0ba11b00 	bleq	fe8488a4 <SCB_ICSR+0x1e839ba0>
    1ca0:	00000000 	andeq	r0, r0, r0
    1ca4:	0003d205 	andeq	sp, r3, r5, lsl #4
    1ca8:	00056a00 	andeq	r6, r5, r0, lsl #20
    1cac:	03e80300 	mvneq	r0, #0, 6
    1cb0:	05590000 	ldrbeq	r0, [r9, #-0]
    1cb4:	09890000 	stmibeq	r9, {}	@ <UNPREDICTABLE>
    1cb8:	01020000 	mrseq	r0, (UNDEF: 2)
    1cbc:	eb090250 	bl	242604 <__exidx_end+0x2415c0>
    1cc0:	03f40300 	mvnseq	r0, #0, 6
    1cc4:	05590000 	ldrbeq	r0, [r9, #-0]
    1cc8:	099d0000 	ldmibeq	sp, {}	@ <UNPREDICTABLE>
    1ccc:	01020000 	mrseq	r0, (UNDEF: 2)
    1cd0:	fe090250 	mcr2	2, 0, r0, cr9, cr0, {2}
    1cd4:	04000300 	streq	r0, [r0], #-768	@ 0xfffffd00
    1cd8:	05590000 	ldrbeq	r0, [r9, #-0]
    1cdc:	09b10000 	ldmibeq	r1!, {}	@ <UNPREDICTABLE>
    1ce0:	01020000 	mrseq	r0, (UNDEF: 2)
    1ce4:	fd090250 	stc2	2, cr0, [r9, #-320]	@ 0xfffffec0
    1ce8:	040e0300 	streq	r0, [lr], #-768	@ 0xfffffd00
    1cec:	05480000 	strbeq	r0, [r8, #-0]
    1cf0:	09c50000 	stmibeq	r5, {}^	@ <UNPREDICTABLE>
    1cf4:	01020000 	mrseq	r0, (UNDEF: 2)
    1cf8:	00750250 	rsbseq	r0, r5, r0, asr r2
    1cfc:	042a0300 	strteq	r0, [sl], #-768	@ 0xfffffd00
    1d00:	052d0000 	streq	r0, [sp, #-0]!
    1d04:	09d90000 	ldmibeq	r9, {}^	@ <UNPREDICTABLE>
    1d08:	01020000 	mrseq	r0, (UNDEF: 2)
    1d0c:	007a0250 	rsbseq	r0, sl, r0, asr r2
    1d10:	044a0300 	strbeq	r0, [sl], #-768	@ 0xfffffd00
    1d14:	05120000 	ldreq	r0, [r2, #-0]
    1d18:	09ed0000 	stmibeq	sp!, {}^	@ <UNPREDICTABLE>
    1d1c:	01020000 	mrseq	r0, (UNDEF: 2)
    1d20:	00760251 	rsbseq	r0, r6, r1, asr r2
    1d24:	04620300 	strbteq	r0, [r2], #-768	@ 0xfffffd00
    1d28:	05480000 	strbeq	r0, [r8, #-0]
    1d2c:	0a010000 	beq	41d34 <__exidx_end+0x40cf0>
    1d30:	01020000 	mrseq	r0, (UNDEF: 2)
    1d34:	00750250 	rsbseq	r0, r5, r0, asr r2
    1d38:	04660500 	strbteq	r0, [r6], #-1280	@ 0xfffffb00
    1d3c:	056a0000 	strbeq	r0, [sl, #-0]!
    1d40:	78030000 	stmdavc	r3, {}	@ <UNPREDICTABLE>
    1d44:	48000004 	stmdami	r0, {r2}
    1d48:	1e000005 	cdpne	0, 0, cr0, cr0, cr5, {0}
    1d4c:	0200000a 	andeq	r0, r0, #10
    1d50:	75025001 	strvc	r5, [r2, #-1]
    1d54:	8c050000 	stchi	0, cr0, [r5], {-0}
    1d58:	fc000004 	stc2	0, cr0, [r0], {4}
    1d5c:	15000004 	strne	r0, [r0, #-4]
    1d60:	000004ec 	andeq	r0, r0, ip, ror #9
    1d64:	00000548 	andeq	r0, r0, r8, asr #10
    1d68:	02500102 	subseq	r0, r0, #-2147483648	@ 0x80000000
    1d6c:	00000075 	andeq	r0, r0, r5, ror r0
    1d70:	0008210d 	andeq	r2, r8, sp, lsl #2
    1d74:	01e94100 	mvneq	r4, r0, lsl #2
    1d78:	00000000 	andeq	r0, r0, r0
    1d7c:	00260000 	eoreq	r0, r6, r0
    1d80:	9c010000 	stcls	0, cr0, [r1], {-0}
    1d84:	00000aa4 	andeq	r0, r0, r4, lsr #21
    1d88:	0007d207 	andeq	sp, r7, r7, lsl #4
    1d8c:	0b264100 	bleq	992194 <__exidx_end+0x991150>
    1d90:	dc000006 	stcle	0, cr0, [r0], {6}
    1d94:	d8000003 	stmdale	r0, {r0, r1}
    1d98:	07000003 	streq	r0, [r0, -r3]
    1d9c:	00000796 	muleq	r0, r6, r7
    1da0:	03a14141 			@ <UNDEFINED> instruction: 0x03a14141
    1da4:	03f00000 	mvnseq	r0, #0
    1da8:	03ec0000 	mvneq	r0, #0
    1dac:	180e0000 	stmdane	lr, {}	@ <UNPREDICTABLE>
    1db0:	43000008 	movwmi	r0, #8
    1db4:	0000017d 	andeq	r0, r0, sp, ror r1
    1db8:	00000406 	andeq	r0, r0, r6, lsl #8
    1dbc:	00000400 	andeq	r0, r0, r0, lsl #8
    1dc0:	00000005 	andeq	r0, r0, r5
    1dc4:	00056a00 	andeq	r6, r5, r0, lsl #20
    1dc8:	00000500 	andeq	r0, r0, r0, lsl #10
    1dcc:	05480000 	strbeq	r0, [r8, #-0]
    1dd0:	00050000 	andeq	r0, r5, r0
    1dd4:	48000000 	stmdami	r0, {}	@ <UNPREDICTABLE>
    1dd8:	00000005 	andeq	r0, r0, r5
    1ddc:	00028b0d 	andeq	r8, r2, sp, lsl #22
    1de0:	01e92c00 	mvneq	r2, r0, lsl #24
    1de4:	03740000 	cmneq	r4, #0
    1de8:	00500000 	subseq	r0, r0, r0
    1dec:	9c010000 	stcls	0, cr0, [r1], {-0}
    1df0:	00000b6b 	andeq	r0, r0, fp, ror #22
    1df4:	0007d207 	andeq	sp, r7, r7, lsl #4
    1df8:	0b222c00 	bleq	88ce00 <__exidx_end+0x88bdbc>
    1dfc:	1f000006 	svcne	0x00000006
    1e00:	1b000004 	blne	1e18 <__exidx_end+0xdd4>
    1e04:	07000004 	streq	r0, [r0, -r4]
    1e08:	000007b1 			@ <UNDEFINED> instruction: 0x000007b1
    1e0c:	01ad332c 			@ <UNDEFINED> instruction: 0x01ad332c
    1e10:	043b0000 	ldrteq	r0, [fp], #-0
    1e14:	042f0000 	strteq	r0, [pc], #-0	@ 1e1c <__exidx_end+0xdd8>
    1e18:	180e0000 	stmdane	lr, {}	@ <UNPREDICTABLE>
    1e1c:	2e000008 	cdpcs	0, 0, cr0, cr0, cr8, {0}
    1e20:	0000017d 	andeq	r0, r0, sp, ror r1
    1e24:	0000046e 	andeq	r0, r0, lr, ror #8
    1e28:	00000466 	andeq	r0, r0, r6, ror #8
    1e2c:	0007d72c 	andeq	sp, r7, ip, lsr #14
    1e30:	0c370100 	ldfeqs	f0, [r7], #-0
    1e34:	000001e9 	andeq	r0, r0, r9, ror #3
    1e38:	0b6b1400 	bleq	1ac6e40 <__exidx_end+0x1ac5dfc>
    1e3c:	03a20000 			@ <UNDEFINED> instruction: 0x03a20000
    1e40:	f5020000 			@ <UNDEFINED> instruction: 0xf5020000
    1e44:	38000000 	stmdacc	r0, {}	@ <UNPREDICTABLE>
    1e48:	000b300f 	andeq	r3, fp, pc
    1e4c:	0b871c00 	bleq	fe1c8e54 <SCB_ICSR+0x1e1ba150>
    1e50:	048a0000 	streq	r0, [sl], #0
    1e54:	04880000 	streq	r0, [r8], #0
    1e58:	7c1c0000 	ldcvc	0, cr0, [ip], {-0}
    1e5c:	9a00000b 	bls	1e90 <__exidx_end+0xe4c>
    1e60:	98000004 	stmdals	r0, {r2}
    1e64:	00000004 	andeq	r0, r0, r4
    1e68:	00037e05 	andeq	r7, r3, r5, lsl #28
    1e6c:	00056a00 	andeq	r6, r5, r0, lsl #20
    1e70:	038a0300 	orreq	r0, sl, #0, 6
    1e74:	05590000 	ldrbeq	r0, [r9, #-0]
    1e78:	0b4d0000 	bleq	1341e80 <__exidx_end+0x1340e3c>
    1e7c:	01020000 	mrseq	r0, (UNDEF: 2)
    1e80:	fe090250 	mcr2	2, 0, r0, cr9, cr0, {2}
    1e84:	03900300 	orrseq	r0, r0, #0, 6
    1e88:	05480000 	strbeq	r0, [r8, #-0]
    1e8c:	0b610000 	bleq	1841e94 <__exidx_end+0x1840e50>
    1e90:	01020000 	mrseq	r0, (UNDEF: 2)
    1e94:	00760250 	rsbseq	r0, r6, r0, asr r2
    1e98:	03ba0500 			@ <UNDEFINED> instruction: 0x03ba0500
    1e9c:	05480000 	strbeq	r0, [r8, #-0]
    1ea0:	2d000000 	stccs	0, cr0, [r0, #-0]
    1ea4:	000007bd 			@ <UNDEFINED> instruction: 0x000007bd
    1ea8:	e9353c02 	ldmdb	r5!, {r1, sl, fp, ip, sp}
    1eac:	03000001 	movweq	r0, #1
    1eb0:	00000b93 	muleq	r0, r3, fp
    1eb4:	0007d21d 	andeq	sp, r7, sp, lsl r2
    1eb8:	744e3c00 	strbvc	r3, [lr], #-3072	@ 0xfffff400
    1ebc:	1d000004 	stcne	0, cr0, [r0, #-16]
    1ec0:	000001d9 	ldrdeq	r0, [r0], -r9
    1ec4:	047e0f3d 	ldrbteq	r0, [lr], #-3901	@ 0xfffff0c3
    1ec8:	2e000000 	cdpcs	0, 0, cr0, cr0, cr0, {0}
    1ecc:	00000717 	andeq	r0, r0, r7, lsl r7
    1ed0:	0a014103 	beq	522e4 <__exidx_end+0x512a0>
    1ed4:	0000002d 	andeq	r0, r0, sp, lsr #32
    1ed8:	07df2f03 	ldrbeq	r2, [pc, r3, lsl #30]
    1edc:	43030000 	movwmi	r0, #12288	@ 0x3000
    1ee0:	002d0e01 	eoreq	r0, sp, r1, lsl #28
    1ee4:	00000000 	andeq	r0, r0, r0
    1ee8:	000014d5 	ldrdeq	r1, [r0], -r5
    1eec:	04010005 	streq	r0, [r1], #-5
    1ef0:	000009a2 	andeq	r0, r0, r2, lsr #19
    1ef4:	00014933 	andeq	r4, r1, r3, lsr r9
    1ef8:	09721d00 	ldmdbeq	r2!, {r8, sl, fp, ip}^
    1efc:	00110000 	andseq	r0, r1, r0
    1f00:	01f50000 	mvnseq	r0, r0
    1f04:	00000000 	andeq	r0, r0, r0
    1f08:	0c640000 	stcleq	0, cr0, [r4], #-0
    1f0c:	04340000 	ldrteq	r0, [r4], #-0
    1f10:	746e6905 	strbtvc	r6, [lr], #-2309	@ 0xfffff6fb
    1f14:	07040e00 	streq	r0, [r4, -r0, lsl #28]
    1f18:	00000076 	andeq	r0, r0, r6, ror r0
    1f1c:	00002d12 	andeq	r2, r0, r2, lsl sp
    1f20:	05080e00 	streq	r0, [r8, #-3584]	@ 0xfffff200
    1f24:	0000008f 	andeq	r0, r0, pc, lsl #1
    1f28:	2404080e 	strcs	r0, [r4], #-2062	@ 0xfffff7f2
    1f2c:	0e000002 	cdpeq	0, 0, cr0, cr0, cr2, {0}
    1f30:	029e0601 	addseq	r0, lr, #1048576	@ 0x100000
    1f34:	010e0000 	mrseq	r0, (UNDEF: 14)
    1f38:	00029c08 	andeq	r9, r2, r8, lsl #24
    1f3c:	004e1200 	subeq	r1, lr, r0, lsl #4
    1f40:	020e0000 	andeq	r0, lr, #0
    1f44:	0002b505 	andeq	fp, r2, r5, lsl #10
    1f48:	07020e00 	streq	r0, [r2, -r0, lsl #28]
    1f4c:	00000136 	andeq	r0, r0, r6, lsr r1
    1f50:	9405040e 	strls	r0, [r5], #-1038	@ 0xfffffbf2
    1f54:	03000000 	movweq	r0, #0
    1f58:	00000479 	andeq	r0, r0, r9, ror r4
    1f5c:	7b194f04 	blvc	655b74 <__exidx_end+0x654b30>
    1f60:	0e000000 	cdpeq	0, 0, cr0, cr0, cr0, {0}
    1f64:	00710704 	rsbseq	r0, r1, r4, lsl #14
    1f68:	080e0000 	stmdaeq	lr, {}	@ <UNPREDICTABLE>
    1f6c:	00006c07 	andeq	r6, r0, r7, lsl #24
    1f70:	047b0300 	ldrbteq	r0, [fp], #-768	@ 0xfffffd00
    1f74:	30050000 	andcc	r0, r5, r0
    1f78:	00006f14 	andeq	r6, r0, r4, lsl pc
    1f7c:	06403500 	strbeq	r3, [r0], -r0, lsl #10
    1f80:	01550918 	cmpeq	r5, r8, lsl r9
    1f84:	22010000 	andcs	r0, r1, #0
    1f88:	06000006 	streq	r0, [r0], -r6
    1f8c:	0034171a 	eorseq	r1, r4, sl, lsl r7
    1f90:	01000000 	mrseq	r0, (UNDEF: 0)
    1f94:	000005e4 	andeq	r0, r0, r4, ror #11
    1f98:	34171b06 	ldrcc	r1, [r7], #-2822	@ 0xfffff4fa
    1f9c:	04000000 	streq	r0, [r0], #-0
    1fa0:	00055a01 	andeq	r5, r5, r1, lsl #20
    1fa4:	171c0600 	ldrne	r0, [ip, -r0, lsl #12]
    1fa8:	00000034 	andeq	r0, r0, r4, lsr r0
    1fac:	06170108 	ldreq	r0, [r7], -r8, lsl #2
    1fb0:	1d060000 	stcne	0, cr0, [r6, #-0]
    1fb4:	00003417 	andeq	r3, r0, r7, lsl r4
    1fb8:	53160c00 	tstpl	r6, #0, 24
    1fbc:	06005243 	streq	r5, [r0], -r3, asr #4
    1fc0:	0034171e 	eorseq	r1, r4, lr, lsl r7
    1fc4:	16100000 	ldrne	r0, [r0], -r0
    1fc8:	00524343 	subseq	r4, r2, r3, asr #6
    1fcc:	34171f06 	ldrcc	r1, [r7], #-3846	@ 0xfffff0fa
    1fd0:	14000000 	strne	r0, [r0], #-0
    1fd4:	50485316 	subpl	r5, r8, r6, lsl r3
    1fd8:	1c200600 	stcne	6, cr0, [r0], #-0
    1fdc:	00000165 	andeq	r0, r0, r5, ror #2
    1fe0:	05280118 	streq	r0, [r8, #-280]!	@ 0xfffffee8
    1fe4:	21060000 	mrscs	r0, (UNDEF: 6)
    1fe8:	00003417 	andeq	r3, r0, r7, lsl r4
    1fec:	bf012400 	svclt	0x00012400
    1ff0:	06000005 	streq	r0, [r0], -r5
    1ff4:	00341722 	eorseq	r1, r4, r2, lsr #14
    1ff8:	01280000 			@ <UNDEFINED> instruction: 0x01280000
    1ffc:	000005c4 	andeq	r0, r0, r4, asr #11
    2000:	34172306 	ldrcc	r2, [r7], #-774	@ 0xfffffcfa
    2004:	2c000000 	stccs	0, cr0, [r0], {-0}
    2008:	0005df01 	andeq	sp, r5, r1, lsl #30
    200c:	17240600 	strne	r0, [r4, -r0, lsl #12]!
    2010:	00000034 	andeq	r0, r0, r4, lsr r0
    2014:	06570130 			@ <UNDEFINED> instruction: 0x06570130
    2018:	25060000 	strcs	r0, [r6, #-0]
    201c:	00003417 	andeq	r3, r0, r7, lsl r4
    2020:	1d013400 	cfstrsne	mvf3, [r1, #-0]
    2024:	06000006 	streq	r0, [r0], -r6
    2028:	00341726 	eorseq	r1, r4, r6, lsr #14
    202c:	01380000 	teqeq	r8, r0
    2030:	000006d5 	ldrdeq	r0, [r0], -r5
    2034:	34172706 	ldrcc	r2, [r7], #-1798	@ 0xfffff8fa
    2038:	3c000000 	stccc	0, cr0, [r0], {-0}
    203c:	00552500 	subseq	r2, r5, r0, lsl #10
    2040:	01650000 	cmneq	r5, r0
    2044:	2d1a0000 	ldccs	0, cr0, [sl, #-0]
    2048:	0b000000 	bleq	2050 <__exidx_end+0x100c>
    204c:	01551200 	cmpeq	r5, r0, lsl #4
    2050:	c9030000 	stmdbgt	r3, {}	@ <UNPREDICTABLE>
    2054:	06000005 	streq	r0, [r0], -r5
    2058:	00950328 	addseq	r0, r5, r8, lsr #6
    205c:	fb360000 	blx	d82066 <__exidx_end+0xd81022>
    2060:	07000001 	streq	r0, [r0, -r1]
    2064:	14030e1b 	strne	r0, [r3], #-3611	@ 0xfffff1e5
    2068:	07000003 	streq	r0, [r0, -r3]
    206c:	018a0e1c 	orreq	r0, sl, ip, lsl lr
    2070:	010e0000 	mrseq	r0, (UNDEF: 14)
    2074:	0002a508 	andeq	sl, r2, r8, lsl #10
    2078:	4e493700 	cdpmi	7, 4, cr3, cr9, cr0, {0}
    207c:	1e070054 	mcrne	0, 0, r0, cr7, cr4, {2}
    2080:	00002610 	andeq	r2, r0, r0, lsl r6
    2084:	011c0300 	tsteq	ip, r0, lsl #6
    2088:	1f070000 	svcne	0x00070000
    208c:	00002d12 	andeq	r2, r0, r2, lsl sp
    2090:	019d0a00 	orrseq	r0, sp, r0, lsl #20
    2094:	7b030000 	blvc	c209c <__exidx_end+0xc1058>
    2098:	07000002 	streq	r0, [r0, -r2]
    209c:	007b1720 	rsbseq	r1, fp, r0, lsr #14
    20a0:	ae120000 	cdpge	0, 1, cr0, cr2, cr0, {0}
    20a4:	03000001 	movweq	r0, #1
    20a8:	0000027c 	andeq	r0, r0, ip, ror r2
    20ac:	680e2107 	stmdavs	lr, {r0, r1, r2, r8, sp}
    20b0:	38000000 	stmdacc	r0, {}	@ <UNPREDICTABLE>
    20b4:	02000304 	andeq	r0, r0, #4, 6	@ 0x10000000
    20b8:	26070000 	strcs	r0, [r7], -r0
    20bc:	00002d12 	andeq	r2, r0, r2, lsl sp
    20c0:	01cd0a00 	biceq	r0, sp, r0, lsl #20
    20c4:	6b030000 	blvs	c20cc <__exidx_end+0xc1088>
    20c8:	07000003 	streq	r0, [r0, -r3]
    20cc:	004e1752 	subeq	r1, lr, r2, asr r7
    20d0:	fc030000 	stc2	0, cr0, [r3], {-0}
    20d4:	07000002 	streq	r0, [r0, -r2]
    20d8:	004e1753 	subeq	r1, lr, r3, asr r7
    20dc:	ea0a0000 	b	2820e4 <__exidx_end+0x2810a0>
    20e0:	03000001 	movweq	r0, #1
    20e4:	0000009d 	muleq	r0, sp, r0
    20e8:	7b175407 	blvc	5d710c <__exidx_end+0x5d60c8>
    20ec:	03000000 	movweq	r0, #0
    20f0:	000003f6 	strdeq	r0, [r0], -r6
    20f4:	18105807 	ldmdane	r0, {r0, r1, r2, fp, ip, lr}
    20f8:	0a000002 	beq	2108 <__exidx_end+0x10c4>
    20fc:	00000207 	andeq	r0, r0, r7, lsl #4
    2100:	00021d06 	andeq	r1, r2, r6, lsl #26
    2104:	02283900 	eoreq	r3, r8, #0, 18
    2108:	cb170000 	blgt	5c2110 <__exidx_end+0x5c10cc>
    210c:	00000001 	andeq	r0, r0, r1
    2110:	00008303 	andeq	r8, r0, r3, lsl #6
    2114:	0e8a0700 	cdpeq	7, 8, cr0, cr10, cr0, {0}
    2118:	000001bf 			@ <UNDEFINED> instruction: 0x000001bf
    211c:	00075503 	andeq	r5, r7, r3, lsl #10
    2120:	0ebc0700 	cdpeq	7, 11, cr0, cr12, cr0, {0}
    2124:	000001bf 			@ <UNDEFINED> instruction: 0x000001bf
    2128:	0003a403 	andeq	sl, r3, r3, lsl #8
    212c:	0fcb0700 	svceq	0x00cb0700
    2130:	000001ae 	andeq	r0, r0, lr, lsr #3
    2134:	00075e03 	andeq	r5, r7, r3, lsl #28
    2138:	15ed0700 	strbne	r0, [sp, #1792]!	@ 0x700
    213c:	00000258 	andeq	r0, r0, r8, asr r2
    2140:	0002f718 	andeq	pc, r2, r8, lsl r7	@ <UNPREDICTABLE>
    2144:	4b425c00 	blmi	109914c <__exidx_end+0x1098108>
    2148:	16000003 	strne	r0, [r0], -r3
    214c:	08007073 	stmdaeq	r0, {r0, r1, r4, r5, r6, ip, sp, lr}
    2150:	04840b45 	streq	r0, [r4], #2885	@ 0xb45
    2154:	01000000 	mrseq	r0, (UNDEF: 0)
    2158:	00000354 	andeq	r0, r0, r4, asr r3
    215c:	40154608 	andsmi	r4, r5, r8, lsl #12
    2160:	04000002 	streq	r0, [r0], #-2
    2164:	00035b01 	andeq	r5, r3, r1, lsl #22
    2168:	0c470800 	mcrreq	8, 0, r0, r7, cr0
    216c:	000001ae 	andeq	r0, r0, lr, lsr #3
    2170:	01f30108 	mvnseq	r0, r8, lsl #2
    2174:	48080000 	stmdami	r8, {}	@ <UNPREDICTABLE>
    2178:	0001910c 	andeq	r9, r1, ip, lsl #2
    217c:	c8010c00 	stmdagt	r1, {sl, fp}
    2180:	08000000 	stmdaeq	r0, {}	@ <UNPREDICTABLE>
    2184:	047a0c4b 	ldrbteq	r0, [sl], #-3147	@ 0xfffff3b5
    2188:	01100000 	tsteq	r0, r0
    218c:	000002cb 	andeq	r0, r0, fp, asr #5
    2190:	840b4c08 	strhi	r4, [fp], #-3080	@ 0xfffff3f8
    2194:	14000004 	strne	r0, [r0], #-4
    2198:	00030401 	andeq	r0, r3, r1, lsl #8
    219c:	0b4d0800 	bleq	13441a4 <__exidx_end+0x1343160>
    21a0:	0000019d 	muleq	r0, sp, r1
    21a4:	69701618 	ldmdbvs	r0!, {r3, r4, r9, sl, ip}^
    21a8:	4e080064 	cdpmi	0, 0, cr0, cr8, cr4, {3}
    21ac:	0001de0d 	andeq	sp, r1, sp, lsl #28
    21b0:	ea011c00 	b	491b8 <__exidx_end+0x48174>
    21b4:	08000001 	stmdaeq	r0, {r0}
    21b8:	01ea0e4f 	mvneq	r0, pc, asr #28
    21bc:	011d0000 	tsteq	sp, r0
    21c0:	00000062 	andeq	r0, r0, r2, rrx
    21c4:	cd0b5408 	cfstrsgt	mvf5, [fp, #-32]	@ 0xffffffe0
    21c8:	20000001 	andcs	r0, r0, r1
    21cc:	0000e901 	andeq	lr, r0, r1, lsl #18
    21d0:	0e5f0800 	cdpeq	8, 5, cr0, cr15, cr0, {0}
    21d4:	000001fb 	strdeq	r0, [r0], -fp
    21d8:	02510124 	subseq	r0, r1, #36, 2
    21dc:	61080000 	mrsvs	r0, (UNDEF: 8)
    21e0:	0001fb0e 	andeq	pc, r1, lr, lsl #22
    21e4:	06012800 	streq	r2, [r1], -r0, lsl #16
    21e8:	08000000 	stmdaeq	r0, {}	@ <UNPREDICTABLE>
    21ec:	01cd0b63 	biceq	r0, sp, r3, ror #22
    21f0:	012c0000 			@ <UNDEFINED> instruction: 0x012c0000
    21f4:	000001e2 	andeq	r0, r0, r2, ror #3
    21f8:	cd0b6408 	cfstrsgt	mvf6, [fp, #-32]	@ 0xffffffe0
    21fc:	30000001 	andcc	r0, r0, r1
    2200:	00003e01 	andeq	r3, r0, r1, lsl #28
    2204:	0b660800 	bleq	198420c <__exidx_end+0x19831c8>
    2208:	0000019d 	muleq	r0, sp, r1
    220c:	02bf0134 	adcseq	r0, pc, #52, 2
    2210:	67080000 	strvs	r0, [r8, -r0]
    2214:	0001de0d 	andeq	sp, r1, sp, lsl #28
    2218:	051e3800 	ldreq	r3, [lr, #-2048]	@ 0xfffff800
    221c:	68000002 	stmdavs	r0, {r1}
    2220:	0003f61a 	andeq	pc, r3, sl, lsl r6	@ <UNPREDICTABLE>
    2224:	291e3c00 	ldmdbcs	lr, {sl, fp, ip, sp}
    2228:	69000001 	stmdbvs	r0, {r0}
    222c:	0003a217 	andeq	sl, r3, r7, lsl r2
    2230:	03005400 	movweq	r5, #1024	@ 0x400
    2234:	000000a5 	andeq	r0, r0, r5, lsr #1
    2238:	5716ef07 	ldrpl	lr, [r6, -r7, lsl #30]
    223c:	18000003 	stmdane	r0, {r0, r1}
    2240:	000002d8 	ldrdeq	r0, [r0], -r8
    2244:	03963a14 	orrseq	r3, r6, #20, 20	@ 0x14000
    2248:	f61e0000 			@ <UNDEFINED> instruction: 0xf61e0000
    224c:	3c000000 	stccc	0, cr0, [r0], {-0}
    2250:	0003a217 	andeq	sl, r3, r7, lsl r2
    2254:	d9010000 	stmdble	r1, {}	@ <UNPREDICTABLE>
    2258:	08000001 	stmdaeq	r0, {r0}
    225c:	047a0c3d 	ldrbteq	r0, [sl], #-3133	@ 0xfffff3c3
    2260:	01080000 	mrseq	r0, (UNDEF: 8)
    2264:	00000131 	andeq	r0, r0, r1, lsr r1
    2268:	ae0c3e08 	cdpge	14, 0, cr3, cr12, cr8, {0}
    226c:	0c000001 	stceq	0, cr0, [r0], {1}
    2270:	00005d01 	andeq	r5, r0, r1, lsl #26
    2274:	0b3f0800 	bleq	fc427c <__exidx_end+0xfc3238>
    2278:	000001cd 	andeq	r0, r0, sp, asr #3
    227c:	4b030010 	blmi	c22c4 <__exidx_end+0xc1280>
    2280:	0700000b 	streq	r0, [r0, -fp]
    2284:	03a21af0 			@ <UNDEFINED> instruction: 0x03a21af0
    2288:	00180000 	andseq	r0, r8, r0
    228c:	08000001 	stmdaeq	r0, {r0}
    2290:	0003c834 	andeq	ip, r3, r4, lsr r8
    2294:	00c00100 	sbceq	r0, r0, r0, lsl #2
    2298:	36080000 	strcc	r0, [r8], -r0
    229c:	00047518 	andeq	r7, r4, r8, lsl r5
    22a0:	4c010000 	stcmi	0, cr0, [r1], {-0}
    22a4:	08000003 	stmdaeq	r0, {r0, r1}
    22a8:	04751837 	ldrbteq	r1, [r5], #-2103	@ 0xfffff7c9
    22ac:	00040000 	andeq	r0, r4, r0
    22b0:	0006fb03 	andeq	pc, r6, r3, lsl #22
    22b4:	11f10700 	mvnsne	r0, r0, lsl #14
    22b8:	0000034b 	andeq	r0, r0, fp, asr #6
    22bc:	0002e803 	andeq	lr, r2, r3, lsl #16
    22c0:	16f20700 	ldrbtne	r0, [r2], r0, lsl #14
    22c4:	000003e0 	andeq	r0, r0, r0, ror #7
    22c8:	00025806 	andeq	r5, r2, r6, lsl #16
    22cc:	07a10300 	streq	r0, [r1, r0, lsl #6]!
    22d0:	f3070000 	vhadd.u8	d0, d7, d0
    22d4:	0003f61d 	andeq	pc, r3, sp, lsl r6	@ <UNPREDICTABLE>
    22d8:	03e51200 	mvneq	r1, #0, 4
    22dc:	d1180000 	tstle	r8, r0
    22e0:	18000000 	stmdane	r0, {}	@ <UNPREDICTABLE>
    22e4:	0004501f 	andeq	r5, r4, pc, lsl r0
    22e8:	00c00100 	sbceq	r0, r0, r0, lsl #2
    22ec:	21080000 	mrscs	r0, (UNDEF: 8)
    22f0:	0004661b 	andeq	r6, r4, fp, lsl r6
    22f4:	4c010000 	stcmi	0, cr0, [r1], {-0}
    22f8:	08000003 	stmdaeq	r0, {r0, r1}
    22fc:	04661b22 	strbteq	r1, [r6], #-2850	@ 0xfffff4de
    2300:	01040000 	mrseq	r0, (UNDEF: 4)
    2304:	0000025e 	andeq	r0, r0, lr, asr r2
    2308:	9d0b2308 	stcls	3, cr2, [fp, #-32]	@ 0xffffffe0
    230c:	08000001 	stmdaeq	r0, {r0}
    2310:	00012101 	andeq	r2, r1, r1, lsl #2
    2314:	0e240800 	cdpeq	8, 2, cr0, cr4, cr0, {0}
    2318:	000001fb 	strdeq	r0, [r0], -fp
    231c:	030e010c 	movweq	r0, #57612	@ 0xe10c
    2320:	25080000 	strcs	r0, [r8, #-0]
    2324:	0001fb0e 	andeq	pc, r1, lr, lsl #22
    2328:	30011000 	andcc	r1, r1, r0
    232c:	08000002 	stmdaeq	r0, {r1}
    2330:	046b0f26 	strbteq	r0, [fp], #-3878	@ 0xfffff0da
    2334:	00140000 	andseq	r0, r4, r0
    2338:	000b0503 	andeq	r0, fp, r3, lsl #10
    233c:	17f50700 	ldrbne	r0, [r5, r0, lsl #14]!
    2340:	00000461 	andeq	r0, r0, r1, ror #8
    2344:	00045012 	andeq	r5, r4, r2, lsl r0
    2348:	08d13a00 	ldmeq	r1, {r9, fp, ip, sp}^
    234c:	f6060000 			@ <UNDEFINED> instruction: 0xf6060000
    2350:	06000003 	streq	r0, [r0], -r3
    2354:	0000034b 	andeq	r0, r0, fp, asr #6
    2358:	00046b0a 	andeq	r6, r4, sl, lsl #22
    235c:	03a20600 			@ <UNDEFINED> instruction: 0x03a20600
    2360:	7e060000 	cdpvc	0, 0, cr0, cr6, cr0, {0}
    2364:	0a000001 	beq	2370 <__exidx_end+0x132c>
    2368:	0000047a 	andeq	r0, r0, sl, ror r4
    236c:	00019106 	andeq	r9, r1, r6, lsl #2
    2370:	04840a00 	streq	r0, [r4], #2560	@ 0xa00
    2374:	91180000 	tstls	r8, r0
    2378:	0800000b 	stmdaeq	r0, {r0, r1, r3}
    237c:	0004b46c 	andeq	fp, r4, ip, ror #8
    2380:	0ba00100 	bleq	fe802788 <SCB_ICSR+0x1e7f3a84>
    2384:	6e080000 	cdpvs	0, 0, cr0, cr8, cr0, {0}
    2388:	0001fb0e 	andeq	pc, r1, lr, lsl #22
    238c:	88010000 	stmdahi	r1, {}	@ <UNPREDICTABLE>
    2390:	08000009 	stmdaeq	r0, {r0, r3}
    2394:	019d0b6f 	orrseq	r0, sp, pc, ror #22
    2398:	00040000 	andeq	r0, r4, r0
    239c:	000a4a0c 	andeq	r4, sl, ip, lsl #20
    23a0:	19720800 	ldmdbne	r2!, {fp}^
    23a4:	0000048e 	andeq	r0, r0, lr, lsl #9
    23a8:	00083b3b 	andeq	r3, r8, fp, lsr fp
    23ac:	21090300 	mrscs	r0, (UNDEF: 57)
    23b0:	0004f508 	andeq	pc, r4, r8, lsl #10
    23b4:	0b9a0100 	bleq	fe6827bc <SCB_ICSR+0x1e673ab8>
    23b8:	23090000 	movwcs	r0, #36864	@ 0x9000
    23bc:	00004e13 	andeq	r4, r0, r3, lsl lr
    23c0:	db010000 	blle	423c8 <__exidx_end+0x41384>
    23c4:	09000009 	stmdbeq	r0, {r0, r3}
    23c8:	004e1324 	subeq	r1, lr, r4, lsr #6
    23cc:	01010000 	mrseq	r0, (UNDEF: 1)
    23d0:	00000ac2 	andeq	r0, r0, r2, asr #21
    23d4:	4e132509 	cfmul32mi	mvfx2, mvfx3, mvfx9
    23d8:	02000000 	andeq	r0, r0, #0
    23dc:	04c00a00 	strbeq	r0, [r0], #2560	@ 0xa00
    23e0:	750c0000 	strvc	r0, [ip, #-0]
    23e4:	09000008 	stmdbeq	r0, {r3}
    23e8:	04f51e14 	ldrbteq	r1, [r5], #3604	@ 0xe14
    23ec:	2a0c0000 	bcs	3023f4 <__exidx_end+0x3013b0>
    23f0:	02000007 	andeq	r0, r0, #7
    23f4:	05121012 	ldreq	r1, [r2, #-18]	@ 0xffffffee
    23f8:	4c060000 	stcmi	0, cr0, [r6], {-0}
    23fc:	0a000002 	beq	240c <__exidx_end+0x13c8>
    2400:	00000512 	andeq	r0, r0, r2, lsl r5
    2404:	00024c26 	andeq	r4, r2, r6, lsr #24
    2408:	00052c00 	andeq	r2, r5, r0, lsl #24
    240c:	002d1a00 	eoreq	r1, sp, r0, lsl #20
    2410:	00040000 	andeq	r0, r4, r0
    2414:	0009000c 	andeq	r0, r9, ip
    2418:	0f130200 	svceq	0x00130200
    241c:	0000051c 	andeq	r0, r0, ip, lsl r5
    2420:	00019125 	andeq	r9, r1, r5, lsr #2
    2424:	00054800 	andeq	r4, r5, r0, lsl #16
    2428:	002d1a00 	eoreq	r1, sp, r0, lsl #20
    242c:	003f0000 	eorseq	r0, pc, r0
    2430:	0009a20c 	andeq	sl, r9, ip, lsl #4
    2434:	0c150200 	lfmeq	f0, 4, [r5], {-0}
    2438:	00000538 	andeq	r0, r0, r8, lsr r5
    243c:	000b170c 	andeq	r1, fp, ip, lsl #14
    2440:	0c160200 	lfmeq	f0, 4, [r6], {-0}
    2444:	00000538 	andeq	r0, r0, r8, lsr r5
    2448:	0003c826 	andeq	ip, r3, r6, lsr #16
    244c:	00057000 	andeq	r7, r5, r0
    2450:	002d1a00 	eoreq	r1, sp, r0, lsl #20
    2454:	00020000 	andeq	r0, r2, r0
    2458:	0007030c 	andeq	r0, r7, ip, lsl #6
    245c:	10170200 	andsne	r0, r7, r0, lsl #4
    2460:	00000560 	andeq	r0, r0, r0, ror #10
    2464:	000a2f0c 	andeq	r2, sl, ip, lsl #30
    2468:	22210a00 	eorcs	r0, r1, #0, 20
    246c:	00000588 	andeq	r0, r0, r8, lsl #11
    2470:	0003f106 	andeq	pc, r3, r6, lsl #2
    2474:	09f70c00 	ldmibeq	r7!, {sl, fp}^
    2478:	220a0000 	andcs	r0, sl, #0
    247c:	00058822 	andeq	r8, r5, r2, lsr #16
    2480:	0ad50c00 	beq	ff545488 <SCB_ICSR+0x1f536784>
    2484:	230a0000 	movwcs	r0, #40960	@ 0xa000
    2488:	00058822 	andeq	r8, r5, r2, lsr #16
    248c:	0aeb0c00 	beq	ffac5494 <SCB_ICSR+0x1fab6790>
    2490:	120b0000 	andne	r0, fp, #0
    2494:	0003d417 	andeq	sp, r3, r7, lsl r4
    2498:	09c40c00 	stmibeq	r4, {sl, fp}^
    249c:	130b0000 	movwne	r0, #45056	@ 0xb000
    24a0:	0003d417 	andeq	sp, r3, r7, lsl r4
    24a4:	05701300 	ldrbeq	r1, [r0, #-768]!	@ 0xfffffd00
    24a8:	0a1b0000 	beq	6c24b0 <__exidx_end+0x6c146c>
    24ac:	0e2c0305 	cdpeq	3, 2, cr0, cr12, cr5, {0}
    24b0:	06132000 	ldreq	r2, [r3], -r0
    24b4:	1c000005 	stcne	0, cr0, [r0], {5}
    24b8:	2803050a 	stmdacs	r3, {r1, r3, r8, sl}
    24bc:	1320000e 			@ <UNDEFINED> instruction: 0x1320000e
    24c0:	0000052c 	andeq	r0, r0, ip, lsr #10
    24c4:	0305091d 	movweq	r0, #22813	@ 0x591d
    24c8:	20000c5c 	andcs	r0, r0, ip, asr ip
    24cc:	0005a513 	andeq	sl, r5, r3, lsl r5
    24d0:	05111e00 	ldreq	r1, [r1, #-3584]	@ 0xfffff200
    24d4:	000c5803 	andeq	r5, ip, r3, lsl #16
    24d8:	05b11320 	ldreq	r1, [r1, #800]!	@ 0x320
    24dc:	111f0000 	tstne	pc, r0
    24e0:	0c540305 	mrrceq	3, 0, r0, r4, cr5
    24e4:	b4132000 	ldrlt	r2, [r3], #-0
    24e8:	20000004 	andcs	r0, r0, r4
    24ec:	4c030512 	cfstr32mi	mvfx0, [r3], {18}
    24f0:	1420000c 	strtne	r0, [r0], #-12
    24f4:	00000949 	andeq	r0, r0, r9, asr #18
    24f8:	01ea1122 	mvneq	r1, r2, lsr #2
    24fc:	03050000 	movweq	r0, #20480	@ 0x5000
    2500:	20000c49 	andcs	r0, r0, r9, asr #24
    2504:	000a523c 	andeq	r5, sl, ip, lsr r2
    2508:	17230100 	strne	r0, [r3, -r0, lsl #2]!
    250c:	000001f6 	strdeq	r0, [r0], -r6
    2510:	0bb21401 	bleq	fec8751c <SCB_ICSR+0x1ec78818>
    2514:	11240000 			@ <UNDEFINED> instruction: 0x11240000
    2518:	000001ea 	andeq	r0, r0, sl, ror #3
    251c:	0c480305 	mcrreq	3, 0, r0, r8, cr5
    2520:	c4272000 	strtgt	r2, [r7], #-0
    2524:	01000008 	tsteq	r0, r8
    2528:	01ea1125 	mvneq	r1, r5, lsr #2
    252c:	5c140000 	ldcpl	0, cr0, [r4], {-0}
    2530:	26000008 	strcs	r0, [r0], -r8
    2534:	0001ba18 	andeq	fp, r1, r8, lsl sl
    2538:	44030500 	strmi	r0, [r3], #-1280	@ 0xfffffb00
    253c:	1420000c 	strtne	r0, [r0], #-12
    2540:	00000bbf 			@ <UNDEFINED> instruction: 0x00000bbf
    2544:	01ba1827 			@ <UNDEFINED> instruction: 0x01ba1827
    2548:	03050000 	movweq	r0, #20480	@ 0x5000
    254c:	20000c40 	andcs	r0, r0, r0, asr #24
    2550:	00083c14 	andeq	r3, r8, r4, lsl ip
    2554:	ba182800 	blt	60c55c <__exidx_end+0x60b518>
    2558:	05000001 	streq	r0, [r0, #-1]
    255c:	000c3c03 	andeq	r3, ip, r3, lsl #24
    2560:	0ad01420 	beq	ff4075e8 <SCB_ICSR+0x1f3f88e4>
    2564:	10e50000 	rscne	r0, r5, r0
    2568:	000001de 	ldrdeq	r0, [r0], -lr
    256c:	0c380305 	ldceq	3, cr0, [r8], #-20	@ 0xffffffec
    2570:	7c1f2000 	ldcvc	0, cr2, [pc], {-0}
    2574:	2d000005 	stccs	0, cr0, [r0, #-20]	@ 0xffffffec
    2578:	34030502 	strcc	r0, [r3], #-1282	@ 0xfffffafe
    257c:	1f20000c 	svcne	0x0020000c
    2580:	0000058d 	andeq	r0, r0, sp, lsl #11
    2584:	0305022e 	movweq	r0, #21038	@ 0x522e
    2588:	20000c30 	andcs	r0, r0, r0, lsr ip
    258c:	000b763d 	andeq	r7, fp, sp, lsr r6
    2590:	022f0100 	eoreq	r0, pc, #0, 2
    2594:	0006b715 	andeq	fp, r6, r5, lsl r7
    2598:	00030500 	andeq	r0, r3, r0, lsl #10
    259c:	06000000 	streq	r0, [r0], -r0
    25a0:	0000045c 	andeq	r0, r0, ip, asr r4
    25a4:	0005991f 	andeq	r9, r5, pc, lsl r9
    25a8:	05023000 	streq	r3, [r2, #-0]
    25ac:	00000003 	andeq	r0, r0, r3
    25b0:	08a12800 	stmiaeq	r1!, {fp, sp}
    25b4:	260a0000 	strcs	r0, [sl], -r0
    25b8:	0001cd06 	andeq	ip, r1, r6, lsl #26
    25bc:	09113e00 	ldmdbeq	r1, {r9, sl, fp, ip, sp}
    25c0:	22020000 	andcs	r0, r2, #0
    25c4:	00002d11 	andeq	r2, r0, r1, lsl sp
    25c8:	0006eb00 	andeq	lr, r6, r0, lsl #22
    25cc:	002d1700 	eoreq	r1, sp, r0, lsl #14
    25d0:	3f000000 	svccc	0x00000000
    25d4:	00000328 	andeq	r0, r0, r8, lsr #6
    25d8:	28062102 	stmdacs	r6, {r1, r8, sp}
    25dc:	00000a13 	andeq	r0, r0, r3, lsl sl
    25e0:	2d0e2809 	stccs	8, cr2, [lr, #-36]	@ 0xffffffdc
    25e4:	20000000 	andcs	r0, r0, r0
    25e8:	00000b3a 	andeq	r0, r0, sl, lsr fp
    25ec:	0710160b 	ldreq	r1, [r0, -fp, lsl #12]
    25f0:	cb170000 	blgt	5c25f8 <__exidx_end+0x5c15b4>
    25f4:	00000001 	andeq	r0, r0, r1
    25f8:	0008d820 	andeq	sp, r8, r0, lsr #16
    25fc:	21150b00 	tstcs	r5, r0, lsl #22
    2600:	17000007 	strne	r0, [r0, -r7]
    2604:	000001cb 	andeq	r0, r0, fp, asr #3
    2608:	082f2000 	stmdaeq	pc!, {sp}	@ <UNPREDICTABLE>
    260c:	130c0000 	movwne	r0, #49152	@ 0xc000
    2610:	00000732 	andeq	r0, r0, r2, lsr r7
    2614:	00023417 	andeq	r3, r2, r7, lsl r4
    2618:	53290000 			@ <UNDEFINED> instruction: 0x53290000
    261c:	3200000b 	andcc	r0, r0, #11
    2620:	01cd0702 	biceq	r0, sp, r2, lsl #14
    2624:	0b800000 	bleq	fe00262c <SCB_ICSR+0x1dff3928>
    2628:	00800000 	addeq	r0, r0, r0
    262c:	9c010000 	stcls	0, cr0, [r1], {-0}
    2630:	000007c6 	andeq	r0, r0, r6, asr #15
    2634:	0000061b 	andeq	r0, r0, fp, lsl r6
    2638:	0b023500 	bleq	8fa40 <__exidx_end+0x8e9fc>
    263c:	000001cd 	andeq	r0, r0, sp, asr #3
    2640:	000004b8 			@ <UNDEFINED> instruction: 0x000004b8
    2644:	000004b0 			@ <UNDEFINED> instruction: 0x000004b0
    2648:	0009051b 	andeq	r0, r9, fp, lsl r5
    264c:	0b023600 	bleq	8fe54 <__exidx_end+0x8ee10>
    2650:	000001cd 	andeq	r0, r0, sp, asr #3
    2654:	000004db 	ldrdeq	r0, [r0], -fp
    2658:	000004d5 	ldrdeq	r0, [r0], -r5
    265c:	74657221 	strbtvc	r7, [r5], #-545	@ 0xfffffddf
    2660:	0b023700 	bleq	90268 <__exidx_end+0x8f224>
    2664:	000001cd 	andeq	r0, r0, sp, asr #3
    2668:	000004fa 	strdeq	r0, [r0], -sl
    266c:	000004f2 	strdeq	r0, [r0], -r2
    2670:	000bc42a 	andeq	ip, fp, sl, lsr #8
    2674:	00001200 	andeq	r1, r0, r0, lsl #4
    2678:	0007bc00 	andeq	fp, r7, r0, lsl #24
    267c:	0b291b00 	bleq	a49284 <__exidx_end+0xa48240>
    2680:	027d0000 	rsbseq	r0, sp, #0
    2684:	0001ea12 	andeq	lr, r1, r2, lsl sl
    2688:	00054300 	andeq	r4, r5, r0, lsl #6
    268c:	00054100 	andeq	r4, r5, r0, lsl #2
    2690:	0bc80700 	bleq	ff204298 <SCB_ICSR+0x1f1f5594>
    2694:	08400000 	stmdaeq	r0, {}^	@ <UNPREDICTABLE>
    2698:	d4070000 	strle	r0, [r7], #-0
    269c:	c600000b 	strgt	r0, [r0], -fp
    26a0:	00000007 	andeq	r0, r0, r7
    26a4:	000bae07 	andeq	sl, fp, r7, lsl #28
    26a8:	0006c900 	andeq	ip, r6, r0, lsl #18
    26ac:	8f220000 	svchi	0x00220000
    26b0:	01000009 	tsteq	r0, r9
    26b4:	0315020c 	tsteq	r5, #12, 4	@ 0xc0000000
    26b8:	000a6523 	andeq	r6, sl, r3, lsr #10
    26bc:	2001f000 	andcs	pc, r1, r0
    26c0:	6000000b 	andvs	r0, r0, fp
    26c4:	01000000 	mrseq	r0, (UNDEF: 0)
    26c8:	0008409c 	muleq	r8, ip, r0
    26cc:	097d4000 	ldmdbeq	sp!, {lr}^
    26d0:	f3010000 	vhadd.u8	d0, d1, d0
    26d4:	05120e01 	ldreq	r0, [r2, #-3585]	@ 0xfffff1ff
    26d8:	91020000 	mrsls	r0, (UNDEF: 2)
    26dc:	09ec1b6c 	stmibeq	ip!, {r2, r3, r5, r6, r8, r9, fp, ip}^
    26e0:	01f40000 	mvnseq	r0, r0
    26e4:	0005120e 	andeq	r1, r5, lr, lsl #4
    26e8:	00054e00 	andeq	r4, r5, r0, lsl #28
    26ec:	00054c00 	andeq	r4, r5, r0, lsl #24
    26f0:	0b340700 	bleq	d042f8 <__exidx_end+0xd032b4>
    26f4:	07c60000 	strbeq	r0, [r6, r0]
    26f8:	38070000 	stmdacc	r7, {}	@ <UNPREDICTABLE>
    26fc:	4000000b 	andmi	r0, r0, fp
    2700:	05000008 	streq	r0, [r0, #-8]
    2704:	00000b4a 	andeq	r0, r0, sl, asr #22
    2708:	00001011 	andeq	r1, r0, r1, lsl r0
    270c:	0000082f 	andeq	r0, r0, pc, lsr #16
    2710:	02510102 	subseq	r0, r1, #-2147483648	@ 0x80000000
    2714:	0b006c91 	bleq	1d960 <__exidx_end+0x1c91c>
    2718:	00000b56 	andeq	r0, r0, r6, asr fp
    271c:	00000721 	andeq	r0, r0, r1, lsr #14
    2720:	02500102 	subseq	r0, r0, #-2147483648	@ 0x80000000
    2724:	0000fe09 	andeq	pc, r0, r9, lsl #28
    2728:	0008e141 	andeq	lr, r8, r1, asr #2
    272c:	01e30100 	mvneq	r0, r0, lsl #2
    2730:	0001ea18 	andeq	lr, r1, r8, lsl sl
    2734:	08600300 	stmdaeq	r0!, {r8, r9}^
    2738:	6f1c0000 	svcvs	0x001c0000
    273c:	0100000a 	tsteq	r0, sl
    2740:	ea0e01ea 	b	382ef0 <__exidx_end+0x381eac>
    2744:	00000001 	andeq	r0, r0, r1
    2748:	00040323 	andeq	r0, r4, r3, lsr #6
    274c:	2801bc00 	stmdacs	r1, {sl, fp, ip, sp, pc}
    2750:	f800000a 			@ <UNDEFINED> instruction: 0xf800000a
    2754:	01000000 	mrseq	r0, (UNDEF: 0)
    2758:	0009ae9c 	muleq	r9, ip, lr
    275c:	01e94200 	mvneq	r4, r0, lsl #4
    2760:	08910000 	ldmeq	r1, {}	@ <UNPREDICTABLE>
    2764:	69210000 	stmdbvs	r1!, {}	@ <UNPREDICTABLE>
    2768:	1101c500 	tstne	r1, r0, lsl #10
    276c:	000001ae 	andeq	r0, r0, lr, lsr #3
    2770:	0000055f 	andeq	r0, r0, pc, asr r5
    2774:	00000557 	andeq	r0, r0, r7, asr r5
    2778:	0aaa2a00 	beq	fea8cf80 <SCB_ICSR+0x1ea7e27c>
    277c:	001c0000 	andseq	r0, ip, r0
    2780:	08c10000 	stmiaeq	r1, {}^	@ <UNPREDICTABLE>
    2784:	69210000 	stmdbvs	r1!, {}	@ <UNPREDICTABLE>
    2788:	1101cd00 	tstne	r1, r0, lsl #26
    278c:	000001ae 	andeq	r0, r0, lr, lsr #3
    2790:	00000582 	andeq	r0, r0, r2, lsl #11
    2794:	0000057c 	andeq	r0, r0, ip, ror r5
    2798:	000abe0b 	andeq	fp, sl, fp, lsl #28
    279c:	0010ee00 	andseq	lr, r0, r0, lsl #28
    27a0:	51010200 	mrspl	r0, R9_usr
    27a4:	00007402 	andeq	r7, r0, r2, lsl #8
    27a8:	09ae4300 	stmibeq	lr!, {r8, r9, lr}
    27ac:	01c20000 	biceq	r0, r2, r0
    27b0:	c2010000 	andgt	r0, r1, #0
    27b4:	09260601 	stmdbeq	r6!, {r0, r9, sl}
    27b8:	c22b0000 	eorgt	r0, fp, #0
    27bc:	11000001 	tstne	r0, r1
    27c0:	000009c0 	andeq	r0, r0, r0, asr #19
    27c4:	0000059d 	muleq	r0, sp, r5
    27c8:	00000599 	muleq	r0, r9, r5
    27cc:	0009cc44 	andeq	ip, r9, r4, asr #24
    27d0:	0001ce00 	andeq	ip, r1, r0, lsl #28
    27d4:	00091500 	andeq	r1, r9, r0, lsl #10
    27d8:	09cd1100 	stmibeq	sp, {r8, ip}^
    27dc:	05b20000 	ldreq	r0, [r2, #0]!
    27e0:	05ae0000 	streq	r0, [lr, #0]!
    27e4:	660b0000 	strvs	r0, [fp], -r0
    27e8:	e800000a 	stmda	r0, {r1, r3}
    27ec:	02000011 	andeq	r0, r0, #17
    27f0:	75025001 	strvc	r5, [r2, #-1]
    27f4:	51010200 	mrspl	r0, R9_usr
    27f8:	00007802 	andeq	r7, r0, r2, lsl #16
    27fc:	0a7c0b00 	beq	1f05404 <__exidx_end+0x1f043c0>
    2800:	07210000 	streq	r0, [r1, -r0]!
    2804:	01020000 	mrseq	r0, (UNDEF: 2)
    2808:	00300150 	eorseq	r0, r0, r0, asr r1
    280c:	dc450000 	marle	acc0, r0, r5
    2810:	7c000009 	stcvc	0, cr0, [r0], {9}
    2814:	0300000a 	movweq	r0, #10
    2818:	000001da 	ldrdeq	r0, [r0], -sl
    281c:	0601c301 	streq	ip, [r1], -r1, lsl #6
    2820:	0013e82c 	andseq	lr, r3, ip, lsr #16
    2824:	000af400 	andeq	pc, sl, r0, lsl #8
    2828:	0af40100 	beq	ffd02c30 <SCB_ICSR+0x1fcf3f2c>
    282c:	00020000 	andeq	r0, r2, r0
    2830:	01d70000 	bicseq	r0, r7, r0
    2834:	0a300706 	beq	c04454 <__exidx_end+0xc03410>
    2838:	06f30000 	ldrbteq	r0, [r3], r0
    283c:	52050000 	andpl	r0, r5, #0
    2840:	2100000a 	tstcs	r0, sl
    2844:	6a000007 	bvs	2868 <__exidx_end+0x1824>
    2848:	02000009 	andeq	r0, r0, #9
    284c:	09025001 	stmdbeq	r2, {r0, ip, lr}
    2850:	d00500ef 	andle	r0, r5, pc, ror #1
    2854:	c400000a 	strgt	r0, [r0], #-10
    2858:	7e00000c 	cdpvc	0, 0, cr0, cr0, cr12, {0}
    285c:	02000009 	andeq	r0, r0, #9
    2860:	74025001 	strvc	r5, [r2], #-1
    2864:	de050000 	cdple	0, 0, cr0, cr5, cr0, {0}
    2868:	2100000a 	tstcs	r0, sl
    286c:	91000007 	tstls	r0, r7
    2870:	02000009 	andeq	r0, r0, #9
    2874:	30015001 	andcc	r5, r1, r1
    2878:	0aec0500 	beq	ffb03c80 <SCB_ICSR+0x1faf4f7c>
    287c:	07210000 	streq	r0, [r1, -r0]!
    2880:	09a40000 	stmibeq	r4!, {}	@ <UNPREDICTABLE>
    2884:	01020000 	mrseq	r0, (UNDEF: 2)
    2888:	00300150 	eorseq	r0, r0, r0, asr r1
    288c:	000af007 	andeq	pc, sl, r7
    2890:	0006eb00 	andeq	lr, r6, r0, lsl #22
    2894:	822d0000 	eorhi	r0, sp, #0
    2898:	0100000a 	tsteq	r0, sl
    289c:	281001b1 	ldmdacs	r0, {r0, r4, r5, r7, r8}
    28a0:	01000002 	tsteq	r0, r2
    28a4:	000009dc 	ldrdeq	r0, [r0], -ip
    28a8:	7272652e 	rsbsvc	r6, r2, #192937984	@ 0xb800000
    28ac:	0d01b300 	stceq	3, cr11, [r1, #-0]
    28b0:	00000228 	andeq	r0, r0, r8, lsr #4
    28b4:	0a6f1c2f 	beq	1bc9978 <__exidx_end+0x1bc8934>
    28b8:	b4010000 	strlt	r0, [r1], #-0
    28bc:	01ea1301 	mvneq	r1, r1, lsl #6
    28c0:	00000000 	andeq	r0, r0, r0
    28c4:	00089322 	andeq	r9, r8, r2, lsr #6
    28c8:	01ac0100 			@ <UNDEFINED> instruction: 0x01ac0100
    28cc:	8e23010e 	sufhis	f0, f3, #0.5
    28d0:	88000007 	stmdahi	r0, {r0, r1, r2}
    28d4:	00097801 	andeq	r7, r9, r1, lsl #16
    28d8:	00000e00 	andeq	r0, r0, r0, lsl #28
    28dc:	2c9c0100 	ldfcss	f0, [ip], {0}
    28e0:	3000000a 	andcc	r0, r0, sl
    28e4:	00000ac8 	andeq	r0, r0, r8, asr #21
    28e8:	019d0188 	orrseq	r0, sp, r8, lsl #3
    28ec:	50010000 	andpl	r0, r1, r0
    28f0:	0013ac24 	andseq	sl, r3, r4, lsr #24
    28f4:	00097c00 	andeq	r7, r9, r0, lsl #24
    28f8:	097c0100 	ldmdbeq	ip!, {r8}^
    28fc:	00040000 	andeq	r0, r4, r0
    2900:	018b0000 	orreq	r0, fp, r0
    2904:	13ba0406 			@ <UNDEFINED> instruction: 0x13ba0406
    2908:	05c50000 	strbeq	r0, [r5]
    290c:	05c30000 	strbeq	r0, [r3]
    2910:	00000000 	andeq	r0, r0, r0
    2914:	00070e46 	andeq	r0, r7, r6, asr #28
    2918:	01750100 	cmneq	r5, r0, lsl #2
    291c:	00019d07 	andeq	r9, r1, r7, lsl #26
    2920:	0a4c0100 	beq	1302d28 <__exidx_end+0x1301ce4>
    2924:	c81c0000 	ldmdagt	ip, {}	@ <UNPREDICTABLE>
    2928:	0100000a 	tsteq	r0, sl
    292c:	9d0b0179 	stflss	f0, [fp, #-484]	@ 0xfffffe1c
    2930:	00000001 	andeq	r0, r0, r1
    2934:	00040929 	andeq	r0, r4, r9, lsr #18
    2938:	09011900 	stmdbeq	r1, {r8, fp, ip}
    293c:	00000228 	andeq	r0, r0, r8, lsr #4
    2940:	0000086c 	andeq	r0, r0, ip, ror #16
    2944:	000000f0 	strdeq	r0, [r0], -r0	@ <UNPREDICTABLE>
    2948:	0ba99c01 	bleq	fea69954 <SCB_ICSR+0x1ea5ac50>
    294c:	8f0f0000 	svchi	0x000f0000
    2950:	1900000a 	stmdbne	r0, {r1, r3}
    2954:	0ba92601 	bleq	fea4c160 <SCB_ICSR+0x1ea3d45c>
    2958:	05d20000 	ldrbeq	r0, [r2]
    295c:	05ce0000 	strbeq	r0, [lr]
    2960:	f40f0000 	vst4.8	{d0-d3}, [pc], r0
    2964:	1a000008 	bne	298c <__exidx_end+0x1948>
    2968:	02131801 	andseq	r1, r3, #65536	@ 0x10000
    296c:	05e70000 	strbeq	r0, [r7, #0]!
    2970:	05e30000 	strbeq	r0, [r3, #0]!
    2974:	c80f0000 	stmdagt	pc, {}	@ <UNPREDICTABLE>
    2978:	1b000000 	blne	2980 <__exidx_end+0x193c>
    297c:	047f1101 	ldrbteq	r1, [pc], #-257	@ 2984 <__exidx_end+0x1940>
    2980:	05fc0000 	ldrbeq	r0, [ip, #0]!
    2984:	05f80000 	ldrbeq	r0, [r8, #0]!
    2988:	cb0f0000 	blgt	3c2990 <__exidx_end+0x3c194c>
    298c:	1c000002 	stcne	0, cr0, [r0], {2}
    2990:	04891001 	streq	r1, [r9], #1
    2994:	06170000 	ldreq	r0, [r7], -r0
    2998:	060d0000 	streq	r0, [sp], -r0
    299c:	040f0000 	streq	r0, [pc], #-0	@ 29a4 <__exidx_end+0x1960>
    29a0:	1d000003 	stcne	0, cr0, [r0, #-12]
    29a4:	01a91001 			@ <UNDEFINED> instruction: 0x01a91001
    29a8:	06410000 	strbeq	r0, [r1], -r0
    29ac:	063d0000 	ldrteq	r0, [sp], -r0
    29b0:	d30f0000 	movwle	r0, #61440	@ 0xf000
    29b4:	1e000009 	cdpne	0, 0, cr0, cr0, cr9, {0}
    29b8:	0bae0b01 	bleq	feb855c4 <SCB_ICSR+0x1eb768c0>
    29bc:	065a0000 	ldrbeq	r0, [sl], -r0
    29c0:	06560000 	ldrbeq	r0, [r6], -r0
    29c4:	ea0f0000 	b	3c29cc <__exidx_end+0x3c1988>
    29c8:	22000001 	andcs	r0, r0, #1
    29cc:	01f61301 	mvnseq	r1, r1, lsl #6
    29d0:	06730000 	ldrbteq	r0, [r3], -r0
    29d4:	066f0000 	strbteq	r0, [pc], -r0
    29d8:	060f0000 	streq	r0, [pc], -r0
    29dc:	23000000 	movwcs	r0, #0
    29e0:	01d91101 	bicseq	r1, r9, r1, lsl #2
    29e4:	068c0000 	streq	r0, [ip], r0
    29e8:	06880000 	streq	r0, [r8], r0
    29ec:	90050000 	andls	r0, r5, r0
    29f0:	b3000008 	movwlt	r0, #8
    29f4:	2700000b 	strcs	r0, [r0, -fp]
    29f8:	0200000b 	andeq	r0, r0, #11
    29fc:	91035101 	tstls	r3, r1, lsl #2
    2a00:	01020604 	tsteq	r2, r4, lsl #12
    2a04:	00720252 	rsbseq	r0, r2, r2, asr r2
    2a08:	02530102 	subseq	r0, r3, #-2147483648	@ 0x80000000
    2a0c:	05004008 	streq	r4, [r0, #-8]
    2a10:	00000898 	muleq	r0, r8, r8
    2a14:	00000721 	andeq	r0, r0, r1, lsr #14
    2a18:	00000b3b 	andeq	r0, r0, fp, lsr fp
    2a1c:	02500102 	subseq	r0, r0, #-2147483648	@ 0x80000000
    2a20:	05000075 	streq	r0, [r0, #-117]	@ 0xffffff8b
    2a24:	000008c6 	andeq	r0, r0, r6, asr #17
    2a28:	00000bb3 			@ <UNDEFINED> instruction: 0x00000bb3
    2a2c:	00000b5c 	andeq	r0, r0, ip, asr fp
    2a30:	03510102 	cmpeq	r1, #-2147483648	@ 0x80000000
    2a34:	02060491 	andeq	r0, r6, #-1862270976	@ 0x91000000
    2a38:	72025201 	andvc	r5, r2, #268435456	@ 0x10000000
    2a3c:	53010200 	movwpl	r0, #4608	@ 0x1200
    2a40:	00400802 	subeq	r0, r0, r2, lsl #16
    2a44:	0008ce05 	andeq	ip, r8, r5, lsl #28
    2a48:	00072100 	andeq	r2, r7, r0, lsl #2
    2a4c:	000b7000 	andeq	r7, fp, r0
    2a50:	50010200 	andpl	r0, r1, r0, lsl #4
    2a54:	00007b02 	andeq	r7, r0, r2, lsl #22
    2a58:	0008f605 	andeq	pc, r8, r5, lsl #12
    2a5c:	000bb300 	andeq	fp, fp, r0, lsl #6
    2a60:	000b9800 	andeq	r9, fp, r0, lsl #16
    2a64:	50010200 	andpl	r0, r1, r0, lsl #4
    2a68:	02007802 	andeq	r7, r0, #131072	@ 0x20000
    2a6c:	91035101 	tstls	r3, r1, lsl #2
    2a70:	01020604 	tsteq	r2, r4, lsl #12
    2a74:	00720252 	rsbseq	r0, r2, r2, asr r2
    2a78:	03530102 	cmpeq	r3, #-2147483648	@ 0x80000000
    2a7c:	00060091 	muleq	r6, r1, r0
    2a80:	0009080b 	andeq	r0, r9, fp, lsl #16
    2a84:	00072100 	andeq	r2, r7, r0, lsl #2
    2a88:	50010200 	andpl	r0, r1, r0, lsl #4
    2a8c:	00f50902 	rscseq	r0, r5, r2, lsl #18
    2a90:	03d40600 	bicseq	r0, r4, #0, 12
    2a94:	76060000 	strvc	r0, [r6], -r0
    2a98:	47000001 	strmi	r0, [r0, -r1]
    2a9c:	0000093f 	andeq	r0, r0, pc, lsr r9
    2aa0:	10010801 	andne	r0, r1, r1, lsl #16
    2aa4:	00000228 	andeq	r0, r0, r8, lsr #4
    2aa8:	00000634 	andeq	r0, r0, r4, lsr r6
    2aac:	000000d4 	ldrdeq	r0, [r0], -r4
    2ab0:	0c769c01 	ldcleq	12, cr9, [r6], #-4
    2ab4:	f40f0000 	vst4.8	{d0-d3}, [pc], r0
    2ab8:	08000008 	stmdaeq	r0, {r3}
    2abc:	02132e01 	andseq	r2, r3, #1, 28
    2ac0:	06ad0000 	strteq	r0, [sp], r0
    2ac4:	06a10000 	strteq	r0, [r1], r0
    2ac8:	d30f0000 	movwle	r0, #61440	@ 0xf000
    2acc:	08000009 	stmdaeq	r0, {r0, r3}
    2ad0:	0bae4101 	bleq	feb92edc <SCB_ICSR+0x1eb841d8>
    2ad4:	06f70000 	ldrbteq	r0, [r7], r0
    2ad8:	06ed0000 	strbteq	r0, [sp], r0
    2adc:	cb300000 	blgt	c02ae4 <__exidx_end+0xc01aa0>
    2ae0:	09000002 	stmdbeq	r0, {r1}
    2ae4:	00048901 	andeq	r8, r4, r1, lsl #18
    2ae8:	0f520100 	svceq	0x00520100
    2aec:	00000304 	andeq	r0, r0, r4, lsl #6
    2af0:	a92e0109 	stmdbge	lr!, {r0, r3, r8}
    2af4:	35000001 	strcc	r0, [r0, #-1]
    2af8:	2d000007 	stccs	0, cr0, [r0, #-28]	@ 0xffffffe4
    2afc:	48000007 	stmdami	r0, {r0, r1, r2}
    2b00:	00000c76 	andeq	r0, r0, r6, ror ip
    2b04:	00000634 	andeq	r0, r0, r4, lsr r6
    2b08:	00015202 	andeq	r5, r1, r2, lsl #4
    2b0c:	010b0100 	mrseq	r0, (UNDEF: 27)
    2b10:	0cab040a 	cfstrseq	mvf0, [fp], #40	@ 0x28
    2b14:	07660000 	strbeq	r0, [r6, -r0]!
    2b18:	075a0000 	ldrbeq	r0, [sl, -r0]
    2b1c:	9f040000 	svcls	0x00040000
    2b20:	b200000c 	andlt	r0, r0, #12
    2b24:	a6000007 	strge	r0, [r0], -r7
    2b28:	04000007 	streq	r0, [r0], #-7
    2b2c:	00000c93 	muleq	r0, r3, ip
    2b30:	000007f6 	strdeq	r0, [r0], -r6
    2b34:	000007f2 	strdeq	r0, [r0], -r2
    2b38:	000c8704 	andeq	r8, ip, r4, lsl #14
    2b3c:	00080d00 	andeq	r0, r8, r0, lsl #26
    2b40:	00080900 	andeq	r0, r8, r0, lsl #18
    2b44:	0cb74900 			@ <UNDEFINED> instruction: 0x0cb74900
    2b48:	016e0000 	cmneq	lr, r0
    2b4c:	b8110000 	ldmdalt	r1, {}	@ <UNPREDICTABLE>
    2b50:	2600000c 	strcs	r0, [r0], -ip
    2b54:	20000008 	andcs	r0, r0, r8
    2b58:	00000008 	andeq	r0, r0, r8
    2b5c:	b6150000 	ldrlt	r0, [r5], -r0
    2b60:	0100000a 	tsteq	r0, sl
    2b64:	022810e7 	eoreq	r1, r8, #231	@ 0xe7
    2b68:	c4010000 	strgt	r0, [r1], #-0
    2b6c:	0800000c 	stmdaeq	r0, {r2, r3}
    2b70:	000002cb 	andeq	r0, r0, fp, asr #5
    2b74:	8928e701 	stmdbhi	r8!, {r0, r8, r9, sl, sp, lr, pc}
    2b78:	08000004 	stmdaeq	r0, {r2}
    2b7c:	00000304 	andeq	r0, r0, r4, lsl #6
    2b80:	a941e701 	stmdbge	r1, {r0, r8, r9, sl, sp, lr, pc}^
    2b84:	08000001 	stmdaeq	r0, {r0}
    2b88:	000008f4 	strdeq	r0, [r0], -r4
    2b8c:	131de801 	tstne	sp, #65536	@ 0x10000
    2b90:	08000002 	stmdaeq	r0, {r1}
    2b94:	000009d3 	ldrdeq	r0, [r0], -r3
    2b98:	ae30e801 	cdpge	8, 3, cr14, cr0, cr1, {0}
    2b9c:	2f00000b 	svccs	0x0000000b
    2ba0:	00006a2e 	andeq	r6, r0, lr, lsr #20
    2ba4:	01ae1101 			@ <UNDEFINED> instruction: 0x01ae1101
    2ba8:	00000000 	andeq	r0, r0, r0
    2bac:	0009e110 	andeq	lr, r9, r0, lsl r1
    2bb0:	2809d900 	stmdacs	r9, {r8, fp, ip, lr, pc}
    2bb4:	48000002 	stmdami	r0, {r1}
    2bb8:	24000008 	strcs	r0, [r0], #-8
    2bbc:	01000000 	mrseq	r0, (UNDEF: 0)
    2bc0:	000d3a9c 	muleq	sp, ip, sl
    2bc4:	0b6e0900 	bleq	1b84fcc <__exidx_end+0x1b83f88>
    2bc8:	24d90000 	ldrbcs	r0, [r9], #0
    2bcc:	00000d3f 	andeq	r0, r0, pc, lsr sp
    2bd0:	00000842 	andeq	r0, r0, r2, asr #16
    2bd4:	0000083c 	andeq	r0, r0, ip, lsr r8
    2bd8:	0001ea09 	andeq	lr, r1, r9, lsl #20
    2bdc:	ea35d900 	b	d78fe4 <__exidx_end+0xd77fa0>
    2be0:	5e000001 	cdppl	0, 0, cr0, cr0, cr1, {0}
    2be4:	5a000008 	bpl	2c0c <__exidx_end+0x1bc8>
    2be8:	19000008 	stmdbne	r0, {r3}
    2bec:	00727265 	rsbseq	r7, r2, r5, ror #4
    2bf0:	000228dc 	ldrdeq	r2, [r2], -ip
    2bf4:	00087700 	andeq	r7, r8, r0, lsl #14
    2bf8:	00087100 	andeq	r7, r8, r0, lsl #2
    2bfc:	085a0500 	ldmdaeq	sl, {r8, sl}^
    2c00:	10110000 	andsne	r0, r1, r0
    2c04:	0d2a0000 	stceq	0, cr0, [sl, #-0]
    2c08:	01020000 	mrseq	r0, (UNDEF: 2)
    2c0c:	01a30351 			@ <UNDEFINED> instruction: 0x01a30351
    2c10:	640b0050 	strvs	r0, [fp], #-80	@ 0xffffffb0
    2c14:	21000008 	tstcs	r0, r8
    2c18:	02000007 	andeq	r0, r0, #7
    2c1c:	30015001 	andcc	r5, r1, r1
    2c20:	12060000 	andne	r0, r6, #0
    2c24:	0a000005 	beq	2c40 <__exidx_end+0x1bfc>
    2c28:	00000d3a 	andeq	r0, r0, sl, lsr sp
    2c2c:	0008b410 	andeq	fp, r8, r0, lsl r4
    2c30:	2809bf00 	stmdacs	r9, {r8, r9, sl, fp, ip, sp, pc}
    2c34:	00000002 	andeq	r0, r0, r2
    2c38:	90000000 	andls	r0, r0, r0
    2c3c:	01000000 	mrseq	r0, (UNDEF: 0)
    2c40:	000df69c 	muleq	sp, ip, r6
    2c44:	0b600900 	bleq	180504c <__exidx_end+0x1804008>
    2c48:	28bf0000 	ldmcs	pc!, {}	@ <UNPREDICTABLE>
    2c4c:	00000517 	andeq	r0, r0, r7, lsl r5
    2c50:	00000896 	muleq	r0, r6, r8
    2c54:	0000088c 	andeq	r0, r0, ip, lsl #17
    2c58:	0008180d 	andeq	r1, r8, sp, lsl #16
    2c5c:	9d06c100 	stflsd	f4, [r6, #-0]
    2c60:	c4000001 	strgt	r0, [r0], #-1
    2c64:	bc000008 	stclt	0, cr0, [r0], {8}
    2c68:	07000008 	streq	r0, [r0, -r8]
    2c6c:	00000000 	andeq	r0, r0, r0
    2c70:	00000a2c 	andeq	r0, r0, ip, lsr #20
    2c74:	00000005 	andeq	r0, r0, r5
    2c78:	00072100 	andeq	r2, r7, r0, lsl #2
    2c7c:	000da000 	andeq	sl, sp, r0
    2c80:	50010200 	andpl	r0, r1, r0, lsl #4
    2c84:	00fe0902 	rscseq	r0, lr, r2, lsl #18
    2c88:	00000005 	andeq	r0, r0, r5
    2c8c:	0009e600 	andeq	lr, r9, r0, lsl #12
    2c90:	000db400 	andeq	fp, sp, r0, lsl #8
    2c94:	50010200 	andpl	r0, r1, r0, lsl #4
    2c98:	00007502 	andeq	r7, r0, r2, lsl #10
    2c9c:	00000005 	andeq	r0, r0, r5
    2ca0:	0010ee00 	andseq	lr, r0, r0, lsl #28
    2ca4:	000dc800 	andeq	ip, sp, r0, lsl #16
    2ca8:	51010200 	mrspl	r0, R9_usr
    2cac:	00007402 	andeq	r7, r0, r2, lsl #8
    2cb0:	00000007 	andeq	r0, r0, r7
    2cb4:	0010ee00 	andseq	lr, r0, r0, lsl #28
    2cb8:	00000500 	andeq	r0, r0, r0, lsl #10
    2cbc:	07210000 	streq	r0, [r1, -r0]!
    2cc0:	0de50000 	stcleq	0, cr0, [r5]
    2cc4:	01020000 	mrseq	r0, (UNDEF: 2)
    2cc8:	00760250 	rsbseq	r0, r6, r0, asr r2
    2ccc:	00000b00 	andeq	r0, r0, r0, lsl #22
    2cd0:	09e60000 	stmibeq	r6!, {}^	@ <UNPREDICTABLE>
    2cd4:	01020000 	mrseq	r0, (UNDEF: 2)
    2cd8:	00700250 	rsbseq	r0, r0, r0, asr r2
    2cdc:	a7100000 	ldrge	r0, [r0, -r0]
    2ce0:	9d00000a 	stcls	0, cr0, [r0, #-40]	@ 0xffffffd8
    2ce4:	00022809 	andeq	r2, r2, r9, lsl #16
    2ce8:	00000000 	andeq	r0, r0, r0
    2cec:	00006200 	andeq	r6, r0, r0, lsl #4
    2cf0:	e39c0100 	orrs	r0, ip, #0, 2
    2cf4:	0900000e 	stmdbeq	r0, {r1, r2, r3}
    2cf8:	000007d2 	ldrdeq	r0, [r0], -r2
    2cfc:	0ee8289d 	mcreq	8, 7, r2, cr8, cr13, {4}
    2d00:	08e90000 	stmiaeq	r9!, {}^	@ <UNPREDICTABLE>
    2d04:	08df0000 	ldmeq	pc, {}^	@ <UNPREDICTABLE>
    2d08:	60090000 	andvs	r0, r9, r0
    2d0c:	9d00000b 	stcls	0, cr0, [r0, #-44]	@ 0xffffffd4
    2d10:	0005173c 	andeq	r1, r5, ip, lsr r7
    2d14:	00091500 	andeq	r1, r9, r0, lsl #10
    2d18:	00090b00 	andeq	r0, r9, r0, lsl #22
    2d1c:	72651900 	rsbvc	r1, r5, #0, 18
    2d20:	289f0072 	ldmcs	pc, {r1, r4, r5, r6}	@ <UNPREDICTABLE>
    2d24:	3b000002 	blcc	2d34 <__exidx_end+0x1cf0>
    2d28:	37000009 	strcc	r0, [r0, -r9]
    2d2c:	0d000009 	stceq	0, cr0, [r0, #-36]	@ 0xffffffdc
    2d30:	000009ac 	andeq	r0, r0, ip, lsr #19
    2d34:	0eed0fac 	cdpeq	15, 14, cr0, cr13, cr12, {5}
    2d38:	09520000 	ldmdbeq	r2, {}^	@ <UNPREDICTABLE>
    2d3c:	094e0000 	stmdbeq	lr, {}^	@ <UNPREDICTABLE>
    2d40:	510d0000 	mrspl	r0, (UNDEF: 13)
    2d44:	ad000008 	stcge	0, cr0, [r0, #-32]	@ 0xffffffe0
    2d48:	0005120e 	andeq	r1, r5, lr, lsl #4
    2d4c:	00096600 	andeq	r6, r9, r0, lsl #12
    2d50:	00096200 	andeq	r6, r9, r0, lsl #4
    2d54:	134c1d00 	movtne	r1, #52480	@ 0xcd00
    2d58:	00000000 	andeq	r0, r0, r0
    2d5c:	b6000000 	strlt	r0, [r0], -r0
    2d60:	b8000001 	stmdalt	r0, {r0}
    2d64:	000ea90c 	andeq	sl, lr, ip, lsl #18
    2d68:	13750400 	cmnne	r5, #0, 8
    2d6c:	09780000 	ldmdbeq	r8!, {}^	@ <UNPREDICTABLE>
    2d70:	09760000 	ldmdbeq	r6!, {}^	@ <UNPREDICTABLE>
    2d74:	69040000 	stmdbvs	r4, {}	@ <UNPREDICTABLE>
    2d78:	83000013 	movwhi	r0, #19
    2d7c:	81000009 	tsthi	r0, r9
    2d80:	04000009 	streq	r0, [r0], #-9
    2d84:	0000135d 	andeq	r1, r0, sp, asr r3
    2d88:	0000098e 	andeq	r0, r0, lr, lsl #19
    2d8c:	0000098c 	andeq	r0, r0, ip, lsl #19
    2d90:	00000500 	andeq	r0, r0, r0, lsl #10
    2d94:	07210000 	streq	r0, [r1, -r0]!
    2d98:	0ebd0000 	cdpeq	0, 11, cr0, cr13, cr0, {0}
    2d9c:	01020000 	mrseq	r0, (UNDEF: 2)
    2da0:	fe090250 	mcr2	2, 0, r0, cr9, cr0, {2}
    2da4:	00004a00 	andeq	r4, r0, r0, lsl #20
    2da8:	10ee0000 	rscne	r0, lr, r0
    2dac:	0ed90000 	cdpeq	0, 13, cr0, cr9, cr0, {0}
    2db0:	01020000 	mrseq	r0, (UNDEF: 2)
    2db4:	01a30350 			@ <UNDEFINED> instruction: 0x01a30350
    2db8:	51010250 	tstpl	r1, r0, asr r2
    2dbc:	5101a303 	tstpl	r1, r3, lsl #6
    2dc0:	00000700 	andeq	r0, r0, r0, lsl #14
    2dc4:	07210000 	streq	r0, [r1, -r0]!
    2dc8:	06000000 	streq	r0, [r0], -r0
    2dcc:	000003c8 	andeq	r0, r0, r8, asr #7
    2dd0:	000ee30a 	andeq	lr, lr, sl, lsl #6
    2dd4:	03960600 	orrseq	r0, r6, #0, 12
    2dd8:	ed0a0000 	stc	0, cr0, [sl, #-0]
    2ddc:	1000000e 	andne	r0, r0, lr
    2de0:	0000080e 	andeq	r0, r0, lr, lsl #16
    2de4:	05120a93 	ldreq	r0, [r2, #-2707]	@ 0xfffff56d
    2de8:	08340000 	ldmdaeq	r4!, {}	@ <UNPREDICTABLE>
    2dec:	00140000 	andseq	r0, r4, r0
    2df0:	9c010000 	stcls	0, cr0, [r1], {-0}
    2df4:	00000f47 	andeq	r0, r0, r7, asr #30
    2df8:	0007d209 	andeq	sp, r7, r9, lsl #4
    2dfc:	e8249300 	stmda	r4!, {r8, r9, ip, pc}
    2e00:	9b00000e 	blls	2e40 <__exidx_end+0x1dfc>
    2e04:	97000009 	strls	r0, [r0, -r9]
    2e08:	0d000009 	stceq	0, cr0, [r0, #-36]	@ 0xffffffdc
    2e0c:	00000a5d 	andeq	r0, r0, sp, asr sl
    2e10:	0eed0f99 	mcreq	15, 7, r0, cr13, cr9, {4}
    2e14:	09ad0000 	stmibeq	sp!, {}	@ <UNPREDICTABLE>
    2e18:	09ab0000 	stmibeq	fp!, {}	@ <UNPREDICTABLE>
    2e1c:	420b0000 	andmi	r0, fp, #0
    2e20:	21000008 	tstcs	r0, r8
    2e24:	02000007 	andeq	r0, r0, #7
    2e28:	09025001 	stmdbeq	r2, {r0, ip, lr}
    2e2c:	100000fe 	strdne	r0, [r0], -lr
    2e30:	00000b0e 	andeq	r0, r0, lr, lsl #22
    2e34:	0228097b 	eoreq	r0, r8, #2015232	@ 0x1ec000
    2e38:	07c40000 	strbeq	r0, [r4, r0]
    2e3c:	00700000 	rsbseq	r0, r0, r0
    2e40:	9c010000 	stcls	0, cr0, [r1], {-0}
    2e44:	00001011 	andeq	r1, r0, r1, lsl r0
    2e48:	0007d209 	andeq	sp, r7, r9, lsl #4
    2e4c:	e8227b00 	stmda	r2!, {r8, r9, fp, ip, sp, lr}
    2e50:	bf00000e 	svclt	0x0000000e
    2e54:	b7000009 	strlt	r0, [r0, -r9]
    2e58:	09000009 	stmdbeq	r0, {r0, r3}
    2e5c:	00000b6e 	andeq	r0, r0, lr, ror #22
    2e60:	0d3f377b 	ldceq	7, cr3, [pc, #-492]!	@ 2c7c <__exidx_end+0x1c38>
    2e64:	09e10000 	stmibeq	r1!, {}^	@ <UNPREDICTABLE>
    2e68:	09d90000 	ldmibeq	r9, {}^	@ <UNPREDICTABLE>
    2e6c:	810d0000 	mrshi	r0, (UNDEF: 13)
    2e70:	8100000b 	tsthi	r0, fp
    2e74:	000eed0f 	andeq	lr, lr, pc, lsl #26
    2e78:	0009ff00 	andeq	pc, r9, r0, lsl #30
    2e7c:	0009fb00 	andeq	pc, r9, r0, lsl #22
    2e80:	72651900 	rsbvc	r1, r5, #0, 18
    2e84:	28820072 	stmcs	r2, {r1, r4, r5, r6}
    2e88:	19000002 	stmdbne	r0, {r1}
    2e8c:	1500000a 	strne	r0, [r0, #-10]
    2e90:	0d00000a 	stceq	0, cr0, [r0, #-40]	@ 0xffffffd8
    2e94:	0000088b 	andeq	r0, r0, fp, lsl #17
    2e98:	05120e8c 	ldreq	r0, [r2, #-3724]	@ 0xfffff174
    2e9c:	0a310000 	beq	c42ea4 <__exidx_end+0xc41e60>
    2ea0:	0a2b0000 	beq	ac2ea8 <__exidx_end+0xac1e64>
    2ea4:	2b0d0000 	blcs	342eac <__exidx_end+0x341e68>
    2ea8:	8d000009 	stchi	0, cr0, [r0, #-36]	@ 0xffffffdc
    2eac:	0001ea0e 	andeq	lr, r1, lr, lsl #20
    2eb0:	000a4c00 	andeq	r4, sl, r0, lsl #24
    2eb4:	000a4800 	andeq	r4, sl, r0, lsl #16
    2eb8:	13221d00 			@ <UNDEFINED> instruction: 0x13221d00
    2ebc:	07d00000 	ldrbeq	r0, [r0, r0]
    2ec0:	89010000 	stmdbhi	r1, {}	@ <UNPREDICTABLE>
    2ec4:	82000001 	andhi	r0, r0, #1
    2ec8:	00100013 	andseq	r0, r0, r3, lsl r0
    2ecc:	133f0400 	teqne	pc, #0, 8
    2ed0:	0a600000 	beq	1802ed8 <__exidx_end+0x1801e94>
    2ed4:	0a5c0000 	beq	1702edc <__exidx_end+0x1701e98>
    2ed8:	33040000 	movwcc	r0, #16384	@ 0x4000
    2edc:	7e000013 	mcrvc	0, 0, r0, cr0, cr3, {0}
    2ee0:	7600000a 	strvc	r0, [r0], -sl
    2ee4:	0000000a 	andeq	r0, r0, sl
    2ee8:	00080a0b 	andeq	r0, r8, fp, lsl #20
    2eec:	00072100 	andeq	r2, r7, r0, lsl #2
    2ef0:	50010200 	andpl	r0, r1, r0, lsl #4
    2ef4:	00fe0902 	rscseq	r0, lr, r2, lsl #18
    2ef8:	073a1000 	ldreq	r1, [sl, -r0]!
    2efc:	09600000 	stmdbeq	r0!, {}^	@ <UNPREDICTABLE>
    2f00:	00000228 	andeq	r0, r0, r8, lsr #4
    2f04:	0000075c 	andeq	r0, r0, ip, asr r7
    2f08:	00000068 	andeq	r0, r0, r8, rrx
    2f0c:	10ee9c01 	rscne	r9, lr, r1, lsl #24
    2f10:	d2090000 	andle	r0, r9, #0
    2f14:	60000007 	andvs	r0, r0, r7
    2f18:	000ee822 	andeq	lr, lr, r2, lsr #16
    2f1c:	000a9c00 	andeq	r9, sl, r0, lsl #24
    2f20:	000a9800 	andeq	r9, sl, r0, lsl #16
    2f24:	0b6e0900 	bleq	1b8532c <__exidx_end+0x1b842e8>
    2f28:	37600000 	strbcc	r0, [r0, -r0]!
    2f2c:	00000d3f 	andeq	r0, r0, pc, lsr sp
    2f30:	00000ab0 			@ <UNDEFINED> instruction: 0x00000ab0
    2f34:	00000aac 	andeq	r0, r0, ip, lsr #21
    2f38:	000b810d 	andeq	r8, fp, sp, lsl #2
    2f3c:	ed0f6600 	stc	6, cr6, [pc, #-0]	@ 2f44 <__exidx_end+0x1f00>
    2f40:	ce00000e 	cdpgt	0, 0, cr0, cr0, cr14, {0}
    2f44:	c000000a 	andgt	r0, r0, sl
    2f48:	1900000a 	stmdbne	r0, {r1, r3}
    2f4c:	00727265 	rsbseq	r7, r2, r5, ror #4
    2f50:	00022867 	andeq	r2, r2, r7, ror #16
    2f54:	000b0d00 	andeq	r0, fp, r0, lsl #26
    2f58:	000b0900 	andeq	r0, fp, r0, lsl #18
    2f5c:	088b0d00 	stmeq	fp, {r8, sl, fp}
    2f60:	0e740000 	cdpeq	0, 7, cr0, cr4, cr0, {0}
    2f64:	00000512 	andeq	r0, r0, r2, lsl r5
    2f68:	00000b27 	andeq	r0, r0, r7, lsr #22
    2f6c:	00000b1f 	andeq	r0, r0, pc, lsl fp
    2f70:	00092b0d 	andeq	r2, r9, sp, lsl #22
    2f74:	ea0e7500 	b	3a037c <__exidx_end+0x39f338>
    2f78:	47000001 	strmi	r0, [r0, -r1]
    2f7c:	4300000b 	movwmi	r0, #11
    2f80:	1d00000b 	stcne	0, cr0, [r0, #-44]	@ 0xffffffd4
    2f84:	000012e2 	andeq	r1, r0, r2, ror #5
    2f88:	0000076c 	andeq	r0, r0, ip, ror #14
    2f8c:	00017d02 	andeq	r7, r1, r2, lsl #26
    2f90:	dd136700 	ldcle	7, cr6, [r3, #-0]
    2f94:	04000010 	streq	r0, [r0], #-16
    2f98:	000012ff 	strdeq	r1, [r0], -pc	@ <UNPREDICTABLE>
    2f9c:	00000b5b 	andeq	r0, r0, fp, asr fp
    2fa0:	00000b57 	andeq	r0, r0, r7, asr fp
    2fa4:	0012f304 	andseq	pc, r2, r4, lsl #6
    2fa8:	000b7900 	andeq	r7, fp, r0, lsl #18
    2fac:	000b7500 	andeq	r7, fp, r0, lsl #10
    2fb0:	017d2b00 	cmneq	sp, r0, lsl #22
    2fb4:	0b110000 	bleq	442fbc <__exidx_end+0x441f78>
    2fb8:	8b000013 	blhi	300c <__exidx_end+0x1fc8>
    2fbc:	8900000b 	stmdbhi	r0, {r0, r1, r3}
    2fc0:	0000000b 	andeq	r0, r0, fp
    2fc4:	076c0b00 	strbeq	r0, [ip, -r0, lsl #22]!
    2fc8:	07210000 	streq	r0, [r1, -r0]!
    2fcc:	01020000 	mrseq	r0, (UNDEF: 2)
    2fd0:	fe090250 	mcr2	2, 0, r0, cr9, cr0, {2}
    2fd4:	43100000 	tstmi	r0, #0
    2fd8:	4d000007 	stcmi	0, cr0, [r0, #-28]	@ 0xffffffe4
    2fdc:	00022809 	andeq	r2, r2, r9, lsl #16
    2fe0:	00098800 	andeq	r8, r9, r0, lsl #16
    2fe4:	00006c00 	andeq	r6, r0, r0, lsl #24
    2fe8:	e89c0100 	ldm	ip, {r8}
    2fec:	09000011 	stmdbeq	r0, {r0, r4}
    2ff0:	000007d2 	ldrdeq	r0, [r0], -r2
    2ff4:	0ee8224d 	cdpeq	2, 14, cr2, cr8, cr13, {2}
    2ff8:	0b980000 	bleq	fe603000 <SCB_ICSR+0x1e5f42fc>
    2ffc:	0b940000 	bleq	fe503004 <SCB_ICSR+0x1e4f4300>
    3000:	60090000 	andvs	r0, r9, r0
    3004:	4d00000b 	stcmi	0, cr0, [r0, #-44]	@ 0xffffffd4
    3008:	00051736 	andeq	r1, r5, r6, lsr r7
    300c:	000bb000 	andeq	fp, fp, r0
    3010:	000ba800 	andeq	sl, fp, r0, lsl #16
    3014:	08180d00 	ldmdaeq	r8, {r8, sl, fp}
    3018:	06500000 	ldrbeq	r0, [r0], -r0
    301c:	0000019d 	muleq	r0, sp, r1
    3020:	00000bd2 	ldrdeq	r0, [r0], -r2
    3024:	00000bca 	andeq	r0, r0, sl, asr #23
    3028:	72726519 	rsbsvc	r6, r2, #104857600	@ 0x6400000
    302c:	02285600 	eoreq	r5, r8, #0, 12
    3030:	0bee0000 	bleq	ffb83038 <SCB_ICSR+0x1fb74334>
    3034:	0bec0000 	bleq	ffb0303c <SCB_ICSR+0x1faf4338>
    3038:	b81d0000 	ldmdalt	sp, {}	@ <UNPREDICTABLE>
    303c:	9c000012 	stcls	0, cr0, [r0], {18}
    3040:	01000009 	tsteq	r0, r9
    3044:	00000198 	muleq	r0, r8, r1
    3048:	11ba1356 			@ <UNDEFINED> instruction: 0x11ba1356
    304c:	d5040000 	strle	r0, [r4, #-0]
    3050:	fc000012 	stc2	0, cr0, [r0], {18}
    3054:	f800000b 			@ <UNDEFINED> instruction: 0xf800000b
    3058:	0400000b 	streq	r0, [r0], #-11
    305c:	000012c9 	andeq	r1, r0, r9, asr #5
    3060:	00000c16 	andeq	r0, r0, r6, lsl ip
    3064:	00000c12 	andeq	r0, r0, r2, lsl ip
    3068:	00134c4b 	andseq	r4, r3, fp, asr #24
    306c:	00099e00 	andeq	r9, r9, r0, lsl #28
    3070:	01a70000 			@ <UNDEFINED> instruction: 0x01a70000
    3074:	80020000 	andhi	r0, r2, r0
    3078:	1375040d 	cmnne	r5, #218103808	@ 0xd000000
    307c:	0c2a0000 	stceq	0, cr0, [sl], #-0
    3080:	0c260000 	stceq	0, cr0, [r6], #-0
    3084:	69040000 	stmdbvs	r4, {}	@ <UNPREDICTABLE>
    3088:	48000013 	stmdami	r0, {r0, r1, r4}
    308c:	4000000c 	andmi	r0, r0, ip
    3090:	0400000c 	streq	r0, [r0], #-12
    3094:	0000135d 	andeq	r1, r0, sp, asr r3
    3098:	00000c69 	andeq	r0, r0, r9, ror #24
    309c:	00000c65 	andeq	r0, r0, r5, ror #24
    30a0:	90070000 	andls	r0, r7, r0
    30a4:	2c000009 	stccs	0, cr0, [r0], {9}
    30a8:	0500000a 	streq	r0, [r0, #-10]
    30ac:	000009d6 	ldrdeq	r0, [r0], -r6
    30b0:	000009e6 	andeq	r0, r0, r6, ror #19
    30b4:	000011d7 	ldrdeq	r1, [r0], -r7
    30b8:	02500102 	subseq	r0, r0, #-2147483648	@ 0x80000000
    30bc:	0b000070 	bleq	3284 <__exidx_end+0x2240>
    30c0:	000009e2 	andeq	r0, r0, r2, ror #19
    30c4:	00000721 	andeq	r0, r0, r1, lsr #14
    30c8:	02500102 	subseq	r0, r0, #-2147483648	@ 0x80000000
    30cc:	0000fe09 	andeq	pc, r0, r9, lsl #28
    30d0:	000a9d10 	andeq	r9, sl, r0, lsl sp
    30d4:	28094300 	stmdacs	r9, {r8, r9, lr}
    30d8:	34000002 	strcc	r0, [r0], #-2
    30dc:	28000007 	stmdacs	r0, {r0, r1, r2}
    30e0:	01000000 	mrseq	r0, (UNDEF: 0)
    30e4:	00126c9c 	mulseq	r2, ip, ip
    30e8:	07d20900 	ldrbeq	r0, [r2, r0, lsl #18]
    30ec:	23430000 	movtcs	r0, #12288	@ 0x3000
    30f0:	00000ee8 	andeq	r0, r0, r8, ror #29
    30f4:	00000c81 	andeq	r0, r0, r1, lsl #25
    30f8:	00000c79 	andeq	r0, r0, r9, ror ip
    30fc:	0001d909 	andeq	sp, r1, r9, lsl #18
    3100:	7a2f4300 	bvc	bd3d08 <__exidx_end+0xbd2cc4>
    3104:	a7000004 	strge	r0, [r0, -r4]
    3108:	a100000c 	tstge	r0, ip
    310c:	4c00000c 	stcmi	0, cr0, [r0], {12}
    3110:	00001382 	andeq	r1, r0, r2, lsl #7
    3114:	00000746 	andeq	r0, r0, r6, asr #14
    3118:	00074601 	andeq	r4, r7, r1, lsl #12
    311c:	00001200 	andeq	r1, r0, r0, lsl #4
    3120:	0e4a0100 	dvfeqe	f0, f2, f0
    3124:	0000125b 	andeq	r1, r0, fp, asr r2
    3128:	00139f04 	andseq	r9, r3, r4, lsl #30
    312c:	000cc100 	andeq	ip, ip, r0, lsl #2
    3130:	000cbf00 	andeq	fp, ip, r0, lsl #30
    3134:	13930400 	orrsne	r0, r3, #0, 8
    3138:	0ccc0000 	stcleq	0, cr0, [ip], {0}
    313c:	0cca0000 	stcleq	0, cr0, [sl], {0}
    3140:	0b000000 	bleq	3148 <__exidx_end+0x2104>
    3144:	00000740 	andeq	r0, r0, r0, asr #14
    3148:	00000721 	andeq	r0, r0, r1, lsr #14
    314c:	02500102 	subseq	r0, r0, #-2147483648	@ 0x80000000
    3150:	0000fe09 	andeq	pc, r0, r9, lsl #28
    3154:	000b674d 	andeq	r6, fp, sp, asr #14
    3158:	07350100 	ldreq	r0, [r5, -r0, lsl #2]!
    315c:	00000000 	andeq	r0, r0, r0
    3160:	0000002c 	andeq	r0, r0, ip, lsr #32
    3164:	12b89c01 	adcsne	r9, r8, #256	@ 0x100
    3168:	180d0000 	stmdane	sp, {}	@ <UNPREDICTABLE>
    316c:	37000008 	strcc	r0, [r0, -r8]
    3170:	00019d06 	andeq	r9, r1, r6, lsl #26
    3174:	000cdb00 	andeq	sp, ip, r0, lsl #22
    3178:	000cd500 	andeq	sp, ip, r0, lsl #10
    317c:	00000700 	andeq	r0, r0, r0, lsl #14
    3180:	0a2c0000 	beq	b03188 <__exidx_end+0xb02144>
    3184:	00070000 	andeq	r0, r7, r0
    3188:	c6000000 	strgt	r0, [r0], -r0
    318c:	4e000007 	cdpmi	0, 0, cr0, cr0, cr7, {0}
    3190:	00000000 	andeq	r0, r0, r0
    3194:	000009e6 	andeq	r0, r0, r6, ror #19
    3198:	02500102 	subseq	r0, r0, #-2147483648	@ 0x80000000
    319c:	00000070 	andeq	r0, r0, r0, ror r0
    31a0:	00084415 	andeq	r4, r8, r5, lsl r4
    31a4:	387d0200 	ldmdacc	sp!, {r9}^
    31a8:	00000228 	andeq	r0, r0, r8, lsr #4
    31ac:	0012e203 	andseq	lr, r2, r3, lsl #4
    31b0:	07d20800 	ldrbeq	r0, [r2, r0, lsl #16]
    31b4:	7e020000 	cdpvc	0, 0, cr0, cr2, cr0, {0}
    31b8:	00047018 	andeq	r7, r4, r8, lsl r0
    31bc:	086a0800 	stmdaeq	sl!, {fp}^
    31c0:	7e020000 	cdpvc	0, 0, cr0, cr2, cr0, {0}
    31c4:	000ef22d 	andeq	pc, lr, sp, lsr #4
    31c8:	1f150000 	svcne	0x00150000
    31cc:	0200000a 	andeq	r0, r0, #10
    31d0:	0228386d 	eoreq	r3, r8, #7143424	@ 0x6d0000
    31d4:	18030000 	stmdane	r3, {}	@ <UNPREDICTABLE>
    31d8:	08000013 	stmdaeq	r0, {r0, r1, r4}
    31dc:	000007d2 	ldrdeq	r0, [r0], -r2
    31e0:	70186e02 	andsvc	r6, r8, r2, lsl #28
    31e4:	08000004 	stmdaeq	r0, {r2}
    31e8:	00000af9 	strdeq	r0, [r0], -r9
    31ec:	1d2e6e02 	stcne	14, cr6, [lr, #-8]!
    31f0:	27000013 	smladcs	r0, r3, r0, r0
    31f4:	000009b8 			@ <UNDEFINED> instruction: 0x000009b8
    31f8:	ed0e7602 	stc	6, cr7, [lr, #-8]
    31fc:	0000000e 	andeq	r0, r0, lr
    3200:	000eed06 	andeq	lr, lr, r6, lsl #26
    3204:	13180a00 	tstne	r8, #0, 20
    3208:	55150000 	ldrpl	r0, [r5, #-0]
    320c:	02000009 	andeq	r0, r0, #9
    3210:	0228385c 	eoreq	r3, r8, #92, 16	@ 0x5c0000
    3214:	4c030000 	stcmi	0, cr0, [r3], {-0}
    3218:	08000013 	stmdaeq	r0, {r0, r1, r4}
    321c:	000007d2 	ldrdeq	r0, [r0], -r2
    3220:	70535c02 	subsvc	r5, r3, r2, lsl #24
    3224:	08000004 	stmdaeq	r0, {r2}
    3228:	00000a08 	andeq	r0, r0, r8, lsl #20
    322c:	f2185d02 	vadd.f16	d5, d8, d2
    3230:	0000000e 	andeq	r0, r0, lr
    3234:	00096115 	andeq	r6, r9, r5, lsl r1
    3238:	384b0200 	stmdacc	fp, {r9}^
    323c:	00000228 	andeq	r0, r0, r8, lsr #4
    3240:	00138203 	andseq	r8, r3, r3, lsl #4
    3244:	07d20800 	ldrbeq	r0, [r2, r0, lsl #16]
    3248:	4c020000 	stcmi	0, cr0, [r2], {-0}
    324c:	00047018 	andeq	r7, r4, r8, lsl r0
    3250:	09200800 	stmdbeq	r0!, {fp}
    3254:	4c020000 	stcmi	0, cr0, [r2], {-0}
    3258:	000ef22d 	andeq	pc, lr, sp, lsr #4
    325c:	086a0800 	stmdaeq	sl!, {fp}^
    3260:	4d020000 	stcmi	0, cr0, [r2, #-0]
    3264:	000ef218 	andeq	pc, lr, r8, lsl r2	@ <UNPREDICTABLE>
    3268:	bd150000 	ldclt	0, cr0, [r5, #-0]
    326c:	02000007 	andeq	r0, r0, #7
    3270:	0228353c 	eoreq	r3, r8, #60, 10	@ 0xf000000
    3274:	ac030000 	stcge	0, cr0, [r3], {-0}
    3278:	08000013 	stmdaeq	r0, {r0, r1, r4}
    327c:	000007d2 	ldrdeq	r0, [r0], -r2
    3280:	704e3c02 	subvc	r3, lr, r2, lsl #24
    3284:	08000004 	stmdaeq	r0, {r2}
    3288:	000001d9 	ldrdeq	r0, [r0], -r9
    328c:	7a0f3d02 	bvc	3d269c <__exidx_end+0x3d1658>
    3290:	00000004 	andeq	r0, r0, r4
    3294:	000a744f 	andeq	r7, sl, pc, asr #8
    3298:	04d20300 	ldrbeq	r0, [r2], #768	@ 0x300
    329c:	13c8031b 	bicne	r0, r8, #1811939328	@ 0x6c000000
    32a0:	42500000 	subsmi	r0, r0, #0
    32a4:	0300000a 	movweq	r0, #10
    32a8:	893204d2 	ldmdbhi	r2!, {r1, r4, r6, r7, sl}
    32ac:	00000000 	andeq	r0, r0, r0
    32b0:	0009312d 	andeq	r3, r9, sp, lsr #2
    32b4:	04b40300 	ldrteq	r0, [r4], #768	@ 0x300
    32b8:	0000891f 	andeq	r8, r0, pc, lsl r9
    32bc:	13e80300 	mvnne	r0, #0, 6
    32c0:	ab1c0000 	blge	7032c8 <__exidx_end+0x702284>
    32c4:	0300000b 	movweq	r0, #11
    32c8:	890c04b6 	stmdbhi	ip, {r1, r2, r4, r5, r7, sl}
    32cc:	00000000 	andeq	r0, r0, r0
    32d0:	00087e22 	andeq	r7, r8, r2, lsr #28
    32d4:	03b50300 			@ <UNDEFINED> instruction: 0x03b50300
    32d8:	4031031b 	eorsmi	r0, r1, fp, lsl r3
    32dc:	08000008 	stmdaeq	r0, {r3}
    32e0:	2c000007 	stccs	0, cr0, [r0], {7}
    32e4:	01000000 	mrseq	r0, (UNDEF: 0)
    32e8:	0014379c 	mulseq	r4, ip, r7
    32ec:	08523200 	ldmdaeq	r2, {r9, ip, sp}^
    32f0:	40240000 	eormi	r0, r4, r0
    32f4:	10000008 	andne	r0, r0, r8
    32f8:	00000007 	andeq	r0, r0, r7
    32fc:	00000710 	andeq	r0, r0, r0, lsl r7
    3300:	00000014 	andeq	r0, r0, r4, lsl r0
    3304:	111801e3 	tstne	r8, r3, ror #3
    3308:	00000852 	andeq	r0, r0, r2, asr r8
    330c:	00000cf2 	strdeq	r0, [r0], -r2
    3310:	00000cf0 	strdeq	r0, [r0], -r0	@ <UNPREDICTABLE>
    3314:	00072207 	andeq	r2, r7, r7, lsl #4
    3318:	0006d500 	andeq	sp, r6, r0, lsl #10
    331c:	31000000 	mrscc	r0, (UNDEF: 0)
    3320:	00000a2c 	andeq	r0, r0, ip, lsr #20
    3324:	0000095c 	andeq	r0, r0, ip, asr r9
    3328:	0000001c 	andeq	r0, r0, ip, lsl r0
    332c:	149b9c01 	ldrne	r9, [fp], #3073	@ 0xc01
    3330:	3e110000 	cdpcc	0, 1, cr0, cr1, cr0, {0}
    3334:	fd00000a 	stc2	0, cr0, [r0, #-40]	@ 0xffffffd8
    3338:	fb00000c 	blx	3372 <__exidx_end+0x232e>
    333c:	5100000c 	tstpl	r0, ip
    3340:	000013c8 	andeq	r1, r0, r8, asr #7
    3344:	00000960 	andeq	r0, r0, r0, ror #18
    3348:	00096002 	andeq	r6, r9, r2
    334c:	00000400 	andeq	r0, r0, r0, lsl #8
    3350:	017b0100 	cmneq	fp, r0, lsl #2
    3354:	00147f10 	andseq	r7, r4, r0, lsl pc
    3358:	13da1100 	bicsne	r1, sl, #0, 2
    335c:	0d080000 	stceq	0, cr0, [r8, #-0]
    3360:	0d060000 	stceq	0, cr0, [r6, #-0]
    3364:	24000000 	strcs	r0, [r0], #-0
    3368:	00000a2c 	andeq	r0, r0, ip, lsr #20
    336c:	00000966 	andeq	r0, r0, r6, ror #18
    3370:	00096600 	andeq	r6, r9, r0, lsl #12
    3374:	00000c00 	andeq	r0, r0, r0, lsl #24
    3378:	07017500 	streq	r7, [r1, -r0, lsl #10]
    337c:	000a3e32 	andeq	r3, sl, r2, lsr lr
    3380:	52000000 	andpl	r0, r0, #0
    3384:	000007c6 	andeq	r0, r0, r6, asr #15
    3388:	000009f4 	strdeq	r0, [r0], -r4
    338c:	00000034 	andeq	r0, r0, r4, lsr r0
    3390:	c62c9c01 	strtgt	r9, [ip], -r1, lsl #24
    3394:	16000007 	strne	r0, [r0], -r7
    3398:	0000000a 	andeq	r0, r0, sl
    339c:	00000a16 	andeq	r0, r0, r6, lsl sl
    33a0:	00000006 	andeq	r0, r0, r6
    33a4:	0715020c 	ldreq	r0, [r5, -ip, lsl #4]
    33a8:	00000a0e 	andeq	r0, r0, lr, lsl #20
    33ac:	000010ee 	andeq	r1, r0, lr, ror #1
    33b0:	000a160b 	andeq	r1, sl, fp, lsl #12
    33b4:	00072100 	andeq	r2, r7, r0, lsl #2
    33b8:	50010200 	andpl	r0, r1, r0, lsl #4
    33bc:	00003001 	andeq	r3, r0, r1
    33c0:	00063900 	andeq	r3, r6, r0, lsl #18
    33c4:	01000500 	tsteq	r0, r0, lsl #10
    33c8:	000ee704 	andeq	lr, lr, r4, lsl #14
    33cc:	01491600 	cmpeq	r9, r0, lsl #12
    33d0:	cf1d0000 	svcgt	0x001d0000
    33d4:	1100000b 	tstne	r0, fp
    33d8:	82000000 	andhi	r0, r0, #0
    33dc:	00000002 	andeq	r0, r0, r2
    33e0:	f5000000 			@ <UNDEFINED> instruction: 0xf5000000
    33e4:	17000018 	smladne	r0, r8, r0, r0
    33e8:	6e690504 	cdpvs	5, 6, cr0, cr9, cr4, {0}
    33ec:	04030074 	streq	r0, [r3], #-116	@ 0xffffff8c
    33f0:	00007607 	andeq	r7, r0, r7, lsl #12
    33f4:	002d0b00 	eoreq	r0, sp, r0, lsl #22
    33f8:	08030000 	stmdaeq	r3, {}	@ <UNPREDICTABLE>
    33fc:	00008f05 	andeq	r8, r0, r5, lsl #30
    3400:	04080300 	streq	r0, [r8], #-768	@ 0xfffffd00
    3404:	00000224 	andeq	r0, r0, r4, lsr #4
    3408:	9e060103 	adflss	f0, f6, f3
    340c:	03000002 	movweq	r0, #2
    3410:	029c0801 	addseq	r0, ip, #65536	@ 0x10000
    3414:	4e0b0000 	cdpmi	0, 0, cr0, cr11, cr0, {0}
    3418:	03000000 	movweq	r0, #0
    341c:	02b50502 	adcseq	r0, r5, #8388608	@ 0x800000
    3420:	02030000 	andeq	r0, r3, #0
    3424:	00013607 	andeq	r3, r1, r7, lsl #12
    3428:	05040300 	streq	r0, [r4, #-768]	@ 0xfffffd00
    342c:	00000094 	muleq	r0, r4, r0
    3430:	71070403 	tstvc	r7, r3, lsl #8
    3434:	03000000 	movweq	r0, #0
    3438:	006c0708 	rsbeq	r0, ip, r8, lsl #14
    343c:	40180000 	andsmi	r0, r8, r0
    3440:	3d091803 	stccc	8, cr1, [r9, #-12]
    3444:	01000001 	tsteq	r0, r1
    3448:	00000622 	andeq	r0, r0, r2, lsr #12
    344c:	34171a03 	ldrcc	r1, [r7], #-2563	@ 0xfffff5fd
    3450:	00000000 	andeq	r0, r0, r0
    3454:	0005e401 	andeq	lr, r5, r1, lsl #8
    3458:	171b0300 	ldrne	r0, [fp, -r0, lsl #6]
    345c:	00000034 	andeq	r0, r0, r4, lsr r0
    3460:	055a0104 	ldrbeq	r0, [sl, #-260]	@ 0xfffffefc
    3464:	1c030000 	stcne	0, cr0, [r3], {-0}
    3468:	00003417 	andeq	r3, r0, r7, lsl r4
    346c:	17010800 	strne	r0, [r1, -r0, lsl #16]
    3470:	03000006 	movweq	r0, #6
    3474:	0034171d 	eorseq	r1, r4, sp, lsl r7
    3478:	080c0000 	stmdaeq	ip, {}	@ <UNPREDICTABLE>
    347c:	00524353 	subseq	r4, r2, r3, asr r3
    3480:	34171e03 	ldrcc	r1, [r7], #-3587	@ 0xfffff1fd
    3484:	10000000 	andne	r0, r0, r0
    3488:	52434308 	subpl	r4, r3, #8, 6	@ 0x20000000
    348c:	171f0300 	ldrne	r0, [pc, -r0, lsl #6]
    3490:	00000034 	andeq	r0, r0, r4, lsr r0
    3494:	48530814 	ldmdami	r3, {r2, r4, fp}^
    3498:	20030050 	andcs	r0, r3, r0, asr r0
    349c:	00014d1c 	andeq	r4, r1, ip, lsl sp
    34a0:	28011800 	stmdacs	r1, {fp, ip}
    34a4:	03000005 	movweq	r0, #5
    34a8:	00341721 	eorseq	r1, r4, r1, lsr #14
    34ac:	01240000 			@ <UNDEFINED> instruction: 0x01240000
    34b0:	000005bf 			@ <UNDEFINED> instruction: 0x000005bf
    34b4:	34172203 	ldrcc	r2, [r7], #-515	@ 0xfffffdfd
    34b8:	28000000 	stmdacs	r0, {}	@ <UNPREDICTABLE>
    34bc:	0005c401 	andeq	ip, r5, r1, lsl #8
    34c0:	17230300 	strne	r0, [r3, -r0, lsl #6]!
    34c4:	00000034 	andeq	r0, r0, r4, lsr r0
    34c8:	05df012c 	ldrbeq	r0, [pc, #300]	@ 35fc <__exidx_end+0x25b8>
    34cc:	24030000 	strcs	r0, [r3], #-0
    34d0:	00003417 	andeq	r3, r0, r7, lsl r4
    34d4:	57013000 	strpl	r3, [r1, -r0]
    34d8:	03000006 	movweq	r0, #6
    34dc:	00341725 	eorseq	r1, r4, r5, lsr #14
    34e0:	01340000 	teqeq	r4, r0
    34e4:	0000061d 	andeq	r0, r0, sp, lsl r6
    34e8:	34172603 	ldrcc	r2, [r7], #-1539	@ 0xfffff9fd
    34ec:	38000000 	stmdacc	r0, {}	@ <UNPREDICTABLE>
    34f0:	0006d501 	andeq	sp, r6, r1, lsl #10
    34f4:	17270300 	strne	r0, [r7, -r0, lsl #6]!
    34f8:	00000034 	andeq	r0, r0, r4, lsr r0
    34fc:	5519003c 	ldrpl	r0, [r9, #-60]	@ 0xffffffc4
    3500:	4d000000 	stcmi	0, cr0, [r0, #-0]
    3504:	10000001 	andne	r0, r0, r1
    3508:	0000002d 	andeq	r0, r0, sp, lsr #32
    350c:	3d0b000b 	stccc	0, cr0, [fp, #-44]	@ 0xffffffd4
    3510:	02000001 	andeq	r0, r0, #1
    3514:	000005c9 	andeq	r0, r0, r9, asr #11
    3518:	7d032803 	stcvc	8, cr2, [r3, #-12]
    351c:	02000000 	andeq	r0, r0, #0
    3520:	00000314 	andeq	r0, r0, r4, lsl r3
    3524:	6a0e1c02 	bvs	38a534 <__exidx_end+0x3894f0>
    3528:	03000001 	movweq	r0, #1
    352c:	02a50801 	adceq	r0, r5, #65536	@ 0x10000
    3530:	491a0000 	ldmdbmi	sl, {}	@ <UNPREDICTABLE>
    3534:	0200544e 	andeq	r5, r0, #1308622848	@ 0x4e000000
    3538:	0026101e 	eoreq	r1, r6, lr, lsl r0
    353c:	1c020000 	stcne	0, cr0, [r2], {-0}
    3540:	02000001 	andeq	r0, r0, #1
    3544:	002d121f 	eoreq	r1, sp, pc, lsl r2
    3548:	7b020000 	blvc	83550 <__exidx_end+0x8250c>
    354c:	02000002 	andeq	r0, r0, #2
    3550:	006f1720 	rsbeq	r1, pc, r0, lsr #14
    3554:	7c020000 	stcvc	0, cr0, [r2], {-0}
    3558:	02000002 	andeq	r0, r0, #2
    355c:	00680e21 	rsbeq	r0, r8, r1, lsr #28
    3560:	00020000 	andeq	r0, r2, r0
    3564:	02000002 	andeq	r0, r0, #2
    3568:	002d1226 	eoreq	r1, sp, r6, lsr #4
    356c:	6b020000 	blvs	83574 <__exidx_end+0x82530>
    3570:	02000003 	andeq	r0, r0, #3
    3574:	004e1752 	subeq	r1, lr, r2, asr r7
    3578:	fc020000 	stc2	0, cr0, [r2], {-0}
    357c:	02000002 	andeq	r0, r0, #2
    3580:	004e1753 	subeq	r1, lr, r3, asr r7
    3584:	9d020000 	stcls	0, cr0, [r2, #-0]
    3588:	02000000 	andeq	r0, r0, #0
    358c:	006f1754 	rsbeq	r1, pc, r4, asr r7	@ <UNPREDICTABLE>
    3590:	c50c0000 	strgt	r0, [ip, #-0]
    3594:	02000001 	andeq	r0, r0, #1
    3598:	00000083 	andeq	r0, r0, r3, lsl #1
    359c:	950e8a02 	strls	r8, [lr, #-2562]	@ 0xfffff5fe
    35a0:	02000001 	andeq	r0, r0, #1
    35a4:	00000755 	andeq	r0, r0, r5, asr r7
    35a8:	950ebc02 	strls	fp, [lr, #-3074]	@ 0xfffff3fe
    35ac:	02000001 	andeq	r0, r0, #1
    35b0:	000003a4 	andeq	r0, r0, r4, lsr #7
    35b4:	890fcb02 	stmdbhi	pc, {r1, r8, r9, fp, lr, pc}	@ <UNPREDICTABLE>
    35b8:	02000001 	andeq	r0, r0, #1
    35bc:	0000075e 	andeq	r0, r0, lr, asr r7
    35c0:	0615ed02 	ldreq	lr, [r5], -r2, lsl #26
    35c4:	0a000002 	beq	35d4 <__exidx_end+0x2590>
    35c8:	000002f7 	strdeq	r0, [r0], -r7
    35cc:	02f9425c 	rscseq	r4, r9, #92, 4	@ 0xc0000005
    35d0:	73080000 	movwvc	r0, #32768	@ 0x8000
    35d4:	45040070 	strmi	r0, [r4, #-112]	@ 0xffffff90
    35d8:	0003fa0b 	andeq	pc, r3, fp, lsl #20
    35dc:	54010000 	strpl	r0, [r1], #-0
    35e0:	04000003 	streq	r0, [r0], #-3
    35e4:	01ee1546 	mvneq	r1, r6, asr #10
    35e8:	01040000 	mrseq	r0, (UNDEF: 4)
    35ec:	0000035b 	andeq	r0, r0, fp, asr r3
    35f0:	890c4704 	stmdbhi	ip, {r2, r8, r9, sl, lr}
    35f4:	08000001 	stmdaeq	r0, {r0}
    35f8:	0001f301 	andeq	pc, r1, r1, lsl #6
    35fc:	0c480400 	cfstrdeq	mvd0, [r8], {-0}
    3600:	00000171 	andeq	r0, r0, r1, ror r1
    3604:	00c8010c 	sbceq	r0, r8, ip, lsl #2
    3608:	4b040000 	blmi	103610 <__exidx_end+0x1025cc>
    360c:	0003f50c 	andeq	pc, r3, ip, lsl #10
    3610:	cb011000 	blgt	47618 <__exidx_end+0x465d4>
    3614:	04000002 	streq	r0, [r0], #-2
    3618:	03fa0b4c 	mvnseq	r0, #76, 22	@ 0x13000
    361c:	01140000 	tsteq	r4, r0
    3620:	00000304 	andeq	r0, r0, r4, lsl #6
    3624:	7d0b4d04 	stcvc	13, cr4, [fp, #-16]
    3628:	18000001 	stmdane	r0, {r0}
    362c:	64697008 	strbtvs	r7, [r9], #-8
    3630:	0d4e0400 	cfstrdeq	mvd0, [lr, #-0]
    3634:	000001ad 	andeq	r0, r0, sp, lsr #3
    3638:	01ea011c 	mvneq	r0, ip, lsl r1
    363c:	4f040000 	svcmi	0x00040000
    3640:	0001b90e 	andeq	fp, r1, lr, lsl #18
    3644:	62011d00 	andvs	r1, r1, #0, 26
    3648:	04000000 	streq	r0, [r0], #-0
    364c:	01a10b54 			@ <UNDEFINED> instruction: 0x01a10b54
    3650:	01200000 			@ <UNDEFINED> instruction: 0x01200000
    3654:	000000e9 	andeq	r0, r0, r9, ror #1
    3658:	c50e5f04 	strgt	r5, [lr, #-3844]	@ 0xfffff0fc
    365c:	24000001 	strcs	r0, [r0], #-1
    3660:	00025101 	andeq	r5, r2, r1, lsl #2
    3664:	0e610400 	cdpeq	4, 6, cr0, cr1, cr0, {0}
    3668:	000001c5 	andeq	r0, r0, r5, asr #3
    366c:	00060128 	andeq	r0, r6, r8, lsr #2
    3670:	63040000 	movwvs	r0, #16384	@ 0x4000
    3674:	0001a10b 	andeq	sl, r1, fp, lsl #2
    3678:	e2012c00 	and	r2, r1, #0, 24
    367c:	04000001 	streq	r0, [r0], #-1
    3680:	01a10b64 			@ <UNDEFINED> instruction: 0x01a10b64
    3684:	01300000 	teqeq	r0, r0
    3688:	0000003e 	andeq	r0, r0, lr, lsr r0
    368c:	7d0b6604 	stcvc	6, cr6, [fp, #-16]
    3690:	34000001 	strcc	r0, [r0], #-1
    3694:	0002bf01 	andeq	fp, r2, r1, lsl #30
    3698:	0d670400 	cfstrdeq	mvd0, [r7, #-0]
    369c:	000001ad 	andeq	r0, r0, sp, lsr #3
    36a0:	02050d38 	andeq	r0, r5, #56, 26	@ 0xe00
    36a4:	1a680000 	bne	1a036ac <__exidx_end+0x1a02668>
    36a8:	0000038c 	andeq	r0, r0, ip, lsl #7
    36ac:	01290d3c 			@ <UNDEFINED> instruction: 0x01290d3c
    36b0:	17690000 	strbne	r0, [r9, -r0]!
    36b4:	00000344 	andeq	r0, r0, r4, asr #6
    36b8:	a5020054 	strge	r0, [r2, #-84]	@ 0xffffffac
    36bc:	02000000 	andeq	r0, r0, #0
    36c0:	030516ef 	movweq	r1, #22255	@ 0x56ef
    36c4:	d80a0000 	stmdale	sl, {}	@ <UNPREDICTABLE>
    36c8:	14000002 	strne	r0, [r0], #-2
    36cc:	0003443a 	andeq	r4, r3, sl, lsr r4
    36d0:	00f60d00 	rscseq	r0, r6, r0, lsl #26
    36d4:	173c0000 	ldrne	r0, [ip, -r0]!
    36d8:	00000344 	andeq	r0, r0, r4, asr #6
    36dc:	01d90100 	bicseq	r0, r9, r0, lsl #2
    36e0:	3d040000 	stccc	0, cr0, [r4, #-0]
    36e4:	0003f50c 	andeq	pc, r3, ip, lsl #10
    36e8:	31010800 	tstcc	r1, r0, lsl #16
    36ec:	04000001 	streq	r0, [r0], #-1
    36f0:	01890c3e 	orreq	r0, r9, lr, lsr ip
    36f4:	010c0000 	mrseq	r0, (UNDEF: 12)
    36f8:	0000005d 	andeq	r0, r0, sp, asr r0
    36fc:	a10b3f04 	tstge	fp, r4, lsl #30
    3700:	10000001 	andne	r0, r0, r1
    3704:	01000a00 	tsteq	r0, r0, lsl #20
    3708:	34080000 	strcc	r0, [r8], #-0
    370c:	0000036a 	andeq	r0, r0, sl, ror #6
    3710:	0000c001 	andeq	ip, r0, r1
    3714:	18360400 	ldmdane	r6!, {sl}
    3718:	000003f0 	strdeq	r0, [r0], -r0	@ <UNPREDICTABLE>
    371c:	034c0100 	movteq	r0, #49408	@ 0xc100
    3720:	37040000 	strcc	r0, [r4, -r0]
    3724:	0003f018 	andeq	pc, r3, r8, lsl r0	@ <UNPREDICTABLE>
    3728:	02000400 	andeq	r0, r0, #0, 8
    372c:	000002e8 	andeq	r0, r0, r8, ror #5
    3730:	7b16f202 	blvc	5bff40 <__exidx_end+0x5beefc>
    3734:	0c000003 	stceq	0, cr0, [r0], {3}
    3738:	0000036a 	andeq	r0, r0, sl, ror #6
    373c:	00020604 	andeq	r0, r2, r4, lsl #12
    3740:	07a10200 	streq	r0, [r1, r0, lsl #4]!
    3744:	f3020000 	vhadd.u8	d0, d2, d0
    3748:	00038c1d 	andeq	r8, r3, sp, lsl ip
    374c:	00d10a00 	sbcseq	r0, r1, r0, lsl #20
    3750:	1f180000 	svcne	0x00180000
    3754:	000003e6 	andeq	r0, r0, r6, ror #7
    3758:	0000c001 	andeq	ip, r0, r1
    375c:	1b210400 	blne	844764 <__exidx_end+0x843720>
    3760:	000003e6 	andeq	r0, r0, r6, ror #7
    3764:	034c0100 	movteq	r0, #49408	@ 0xc100
    3768:	22040000 	andcs	r0, r4, #0
    376c:	0003e61b 	andeq	lr, r3, fp, lsl r6
    3770:	5e010400 	cfcpyspl	mvf0, mvf1
    3774:	04000002 	streq	r0, [r0], #-2
    3778:	017d0b23 	cmneq	sp, r3, lsr #22
    377c:	01080000 	mrseq	r0, (UNDEF: 8)
    3780:	00000121 	andeq	r0, r0, r1, lsr #2
    3784:	c50e2404 	strgt	r2, [lr, #-1028]	@ 0xfffffbfc
    3788:	0c000001 	stceq	0, cr0, [r0], {1}
    378c:	00030e01 	andeq	r0, r3, r1, lsl #28
    3790:	0e250400 	cdpeq	4, 2, cr0, cr5, cr0, {0}
    3794:	000001c5 	andeq	r0, r0, r5, asr #3
    3798:	02300110 	eorseq	r0, r0, #16, 2
    379c:	26040000 	strcs	r0, [r4], -r0
    37a0:	0003eb0f 	andeq	lr, r3, pc, lsl #22
    37a4:	04001400 	streq	r1, [r0], #-1024	@ 0xfffffc00
    37a8:	0000038c 	andeq	r0, r0, ip, lsl #7
    37ac:	0002f904 	andeq	pc, r2, r4, lsl #18
    37b0:	03440400 	movteq	r0, #17408	@ 0x4400
    37b4:	5e040000 	cdppl	0, 0, cr0, cr4, cr0, {0}
    37b8:	04000001 	streq	r0, [r0], #-1
    37bc:	00000171 	andeq	r0, r0, r1, ror r1
    37c0:	00072a11 	andeq	r2, r7, r1, lsl sl
    37c4:	0a101200 	beq	407fcc <__exidx_end+0x406f88>
    37c8:	04000004 	streq	r0, [r0], #-4
    37cc:	000001fa 	strdeq	r0, [r0], -sl
    37d0:	00040a0c 	andeq	r0, r4, ip, lsl #20
    37d4:	01fa1b00 	mvnseq	r1, r0, lsl #22
    37d8:	25040000 	strcs	r0, [r4, #-0]
    37dc:	10000004 	andne	r0, r0, r4
    37e0:	0000002d 	andeq	r0, r0, sp, lsr #32
    37e4:	00110004 	andseq	r0, r1, r4
    37e8:	13000009 	movwne	r0, #9
    37ec:	0004140f 	andeq	r1, r4, pc, lsl #8
    37f0:	08b41200 	ldmeq	r4!, {r9, ip}
    37f4:	27050000 	strcs	r0, [r5, -r0]
    37f8:	000001d6 	ldrdeq	r0, [r0], -r6
    37fc:	00000445 	andeq	r0, r0, r5, asr #8
    3800:	00040f05 	andeq	r0, r4, r5, lsl #30
    3804:	720e0000 	andvc	r0, lr, #0
    3808:	06000007 	streq	r0, [r0], -r7
    380c:	00045627 	andeq	r5, r4, r7, lsr #12
    3810:	04560500 	ldrbeq	r0, [r6], #-1280	@ 0xfffffb00
    3814:	04000000 	streq	r0, [r0], #-0
    3818:	00000380 	andeq	r0, r0, r0, lsl #7
    381c:	00073112 	andeq	r3, r7, r2, lsl r1
    3820:	d6250600 	strtle	r0, [r5], -r0, lsl #12
    3824:	75000001 	strvc	r0, [r0, #-1]
    3828:	05000004 	streq	r0, [r0, #-4]
    382c:	00000456 	andeq	r0, r0, r6, asr r4
    3830:	0001c505 	andeq	ip, r1, r5, lsl #10
    3834:	8e0e0000 	cdphi	0, 0, cr0, cr14, cr0, {0}
    3838:	05000007 	streq	r0, [r0, #-7]
    383c:	0004861e 	andeq	r8, r4, lr, lsl r6
    3840:	017d0500 	cmneq	sp, r0, lsl #10
    3844:	1c000000 	stcne	0, cr0, [r0], {-0}
    3848:	0000070e 	andeq	r0, r0, lr, lsl #14
    384c:	7d061d05 	stcvc	13, cr1, [r6, #-20]	@ 0xffffffec
    3850:	0e000001 	cdpeq	0, 0, cr0, cr0, cr1, {0}
    3854:	0000082f 	andeq	r0, r0, pc, lsr #16
    3858:	04a31307 	strteq	r1, [r3], #775	@ 0x307
    385c:	e2050000 	and	r0, r5, #0
    3860:	00000001 	andeq	r0, r0, r1
    3864:	000bdc13 	andeq	sp, fp, r3, lsl ip
    3868:	01d66300 	bicseq	r6, r6, r0, lsl #6
    386c:	00000000 	andeq	r0, r0, r0
    3870:	00540000 	subseq	r0, r4, r0
    3874:	9c010000 	stcls	0, cr0, [r1], {-0}
    3878:	00000527 	andeq	r0, r0, r7, lsr #10
    387c:	00079614 	andeq	r9, r7, r4, lsl r6
    3880:	76276300 	strtvc	r6, [r7], -r0, lsl #6
    3884:	29000003 	stmdbcs	r0, {r0, r1}
    3888:	1d00000d 	stcne	0, cr0, [r0, #-52]	@ 0xffffffcc
    388c:	0f00000d 	svceq	0x0000000d
    3890:	00727265 	rsbseq	r7, r2, r5, ror #4
    3894:	0001d666 	andeq	sp, r1, r6, ror #12
    3898:	000d5d00 	andeq	r5, sp, r0, lsl #26
    389c:	000d5300 	andeq	r5, sp, r0, lsl #6
    38a0:	08181500 	ldmdaeq	r8, {r8, sl, ip}
    38a4:	7d6a0000 	stclvc	0, cr0, [sl, #-0]
    38a8:	89000001 	stmdbhi	r0, {r0}
    38ac:	8300000d 	movwhi	r0, #13
    38b0:	0f00000d 	svceq	0x0000000d
    38b4:	00646970 	rsbeq	r6, r4, r0, ror r9
    38b8:	0001ad6c 	andeq	sl, r1, ip, ror #26
    38bc:	000da400 	andeq	sl, sp, r0, lsl #8
    38c0:	000d9e00 	andeq	r9, sp, r0, lsl #28
    38c4:	00000600 	andeq	r0, r0, r0, lsl #12
    38c8:	04860000 	streq	r0, [r6], #0
    38cc:	00060000 	andeq	r0, r6, r0
    38d0:	30000000 	andcc	r0, r0, r0
    38d4:	1d000004 	stcne	0, cr0, [r0, #-16]
    38d8:	00000000 	andeq	r0, r0, r0
    38dc:	00000475 	andeq	r0, r0, r5, ror r4
    38e0:	02500107 	subseq	r0, r0, #-1073741823	@ 0xc0000001
    38e4:	00000075 	andeq	r0, r0, r5, ror r0
    38e8:	00011613 	andeq	r1, r1, r3, lsl r6
    38ec:	01d63200 	bicseq	r3, r6, r0, lsl #4
    38f0:	0c000000 	stceq	0, cr0, [r0], {-0}
    38f4:	00a80000 	adceq	r0, r8, r0
    38f8:	9c010000 	stcls	0, cr0, [r1], {-0}
    38fc:	00000620 	andeq	r0, r0, r0, lsr #12
    3900:	00012114 	andeq	r2, r1, r4, lsl r1
    3904:	d11e3200 	tstle	lr, r0, lsl #4
    3908:	bf000001 	svclt	0x00000001
    390c:	bb00000d 	bllt	3948 <__exidx_end+0x2904>
    3910:	0f00000d 	svceq	0x0000000d
    3914:	00727265 	rsbseq	r7, r2, r5, ror #4
    3918:	0001d634 	andeq	sp, r1, r4, lsr r6
    391c:	000dd400 	andeq	sp, sp, r0, lsl #8
    3920:	000dd000 	andeq	sp, sp, r0
    3924:	08181500 	ldmdaeq	r8, {r8, sl, ip}
    3928:	7d370000 	ldcvc	0, cr0, [r7, #-0]
    392c:	fa000001 	blx	3938 <__exidx_end+0x28f4>
    3930:	e600000d 	str	r0, [r0], -sp
    3934:	1e00000d 	cdpne	0, 0, cr0, cr0, cr13, {0}
    3938:	00000620 	andeq	r0, r0, r0, lsr #12
    393c:	00000c00 	andeq	r0, r0, r0, lsl #24
    3940:	00027303 	andeq	r7, r2, r3, lsl #6
    3944:	0a350100 	beq	d43d4c <__exidx_end+0xd42d08>
    3948:	00000597 	muleq	r0, r7, r5
    394c:	0002731f 	andeq	r7, r2, pc, lsl r3
    3950:	062e2000 	strteq	r2, [lr], -r0
    3954:	00000000 	andeq	r0, r0, r0
    3958:	000c1609 	andeq	r1, ip, r9, lsl #12
    395c:	00049200 	andeq	r9, r4, r0, lsl #4
    3960:	0005ab00 	andeq	sl, r5, r0, lsl #22
    3964:	50010700 	andpl	r0, r1, r0, lsl #14
    3968:	00eb0902 	rsceq	r0, fp, r2, lsl #18
    396c:	000c1a06 	andeq	r1, ip, r6, lsl #20
    3970:	00048600 	andeq	r8, r4, r0, lsl #12
    3974:	0c300900 			@ <UNDEFINED> instruction: 0x0c300900
    3978:	04750000 	ldrbteq	r0, [r5], #-0
    397c:	05c80000 	strbeq	r0, [r8]
    3980:	01070000 	mrseq	r0, (UNDEF: 7)
    3984:	00740250 	rsbseq	r0, r4, r0, asr r2
    3988:	0c3a0600 	ldceq	6, cr0, [sl], #-0
    398c:	04750000 	ldrbteq	r0, [r5], #-0
    3990:	60090000 	andvs	r0, r9, r0
    3994:	5b00000c 	blpl	39cc <__exidx_end+0x2988>
    3998:	e5000004 	str	r0, [r0, #-4]
    399c:	07000005 	streq	r0, [r0, -r5]
    39a0:	75025101 	strvc	r5, [r2, #-257]	@ 0xfffffeff
    39a4:	78090000 	stmdavc	r9, {}	@ <UNPREDICTABLE>
    39a8:	7500000c 	strvc	r0, [r0, #-12]
    39ac:	f9000004 			@ <UNDEFINED> instruction: 0xf9000004
    39b0:	07000005 	streq	r0, [r0, -r5]
    39b4:	74025001 	strvc	r5, [r2], #-1
    39b8:	7c060000 	stcvc	0, cr0, [r6], {-0}
    39bc:	8600000c 	strhi	r0, [r0], -ip
    39c0:	09000004 	stmdbeq	r0, {r2}
    39c4:	00000c8c 	andeq	r0, r0, ip, lsl #25
    39c8:	00000475 	andeq	r0, r0, r5, ror r4
    39cc:	00000616 	andeq	r0, r0, r6, lsl r6
    39d0:	02500107 	subseq	r0, r0, #-1073741823	@ 0xc0000001
    39d4:	06000074 			@ <UNDEFINED> instruction: 0x06000074
    39d8:	00000c9e 	muleq	r0, lr, ip
    39dc:	00000445 	andeq	r0, r0, r5, asr #8
    39e0:	07172100 	ldreq	r2, [r7, -r0, lsl #2]
    39e4:	41020000 	mrsmi	r0, (UNDEF: 2)
    39e8:	002d0a01 	eoreq	r0, sp, r1, lsl #20
    39ec:	22030000 	andcs	r0, r3, #0
    39f0:	000007df 	ldrdeq	r0, [r0], -pc	@ <UNPREDICTABLE>
    39f4:	0e014302 	cdpeq	3, 0, cr4, cr1, cr2, {0}
    39f8:	0000002d 	andeq	r0, r0, sp, lsr #32
    39fc:	05390000 	ldreq	r0, [r9, #-0]!
    3a00:	00050000 	andeq	r0, r5, r0
    3a04:	10ed0401 	rscne	r0, sp, r1, lsl #8
    3a08:	49120000 	ldmdbmi	r2, {}	@ <UNPREDICTABLE>
    3a0c:	1d000001 	stcne	0, cr0, [r0, #-4]
    3a10:	00000be4 	andeq	r0, r0, r4, ror #23
    3a14:	00000011 	andeq	r0, r0, r1, lsl r0
    3a18:	000002a8 	andeq	r0, r0, r8, lsr #5
    3a1c:	00000000 	andeq	r0, r0, r0
    3a20:	00001ae1 	andeq	r1, r0, r1, ror #21
    3a24:	69050413 	stmdbvs	r5, {r0, r1, r4, sl}
    3a28:	0300746e 	movweq	r7, #1134	@ 0x46e
    3a2c:	00760704 	rsbseq	r0, r6, r4, lsl #14
    3a30:	2d060000 	stccs	0, cr0, [r6, #-0]
    3a34:	03000000 	movweq	r0, #0
    3a38:	008f0508 	addeq	r0, pc, r8, lsl #10
    3a3c:	08030000 	stmdaeq	r3, {}	@ <UNPREDICTABLE>
    3a40:	00022404 	andeq	r2, r2, r4, lsl #8
    3a44:	06010300 	streq	r0, [r1], -r0, lsl #6
    3a48:	0000029e 	muleq	r0, lr, r2
    3a4c:	9c080103 	stflss	f0, [r8], {3}
    3a50:	06000002 	streq	r0, [r0], -r2
    3a54:	0000004e 	andeq	r0, r0, lr, asr #32
    3a58:	b5050203 	strlt	r0, [r5, #-515]	@ 0xfffffdfd
    3a5c:	03000002 	movweq	r0, #2
    3a60:	01360702 	teqeq	r6, r2, lsl #14
    3a64:	04030000 	streq	r0, [r3], #-0
    3a68:	00009405 	andeq	r9, r0, r5, lsl #8
    3a6c:	07040300 	streq	r0, [r4, -r0, lsl #6]
    3a70:	00000071 	andeq	r0, r0, r1, ror r0
    3a74:	6c070803 	stcvs	8, cr0, [r7], {3}
    3a78:	0a000000 	beq	3a80 <__exidx_end+0x2a3c>
    3a7c:	013b1840 	teqeq	fp, r0, asr #16
    3a80:	22010000 	andcs	r0, r1, #0
    3a84:	03000006 	movweq	r0, #6
    3a88:	0034171a 	eorseq	r1, r4, sl, lsl r7
    3a8c:	01000000 	mrseq	r0, (UNDEF: 0)
    3a90:	000005e4 	andeq	r0, r0, r4, ror #11
    3a94:	34171b03 	ldrcc	r1, [r7], #-2819	@ 0xfffff4fd
    3a98:	04000000 	streq	r0, [r0], #-0
    3a9c:	00055a01 	andeq	r5, r5, r1, lsl #20
    3aa0:	171c0300 	ldrne	r0, [ip, -r0, lsl #6]
    3aa4:	00000034 	andeq	r0, r0, r4, lsr r0
    3aa8:	06170108 	ldreq	r0, [r7], -r8, lsl #2
    3aac:	1d030000 	stcne	0, cr0, [r3, #-0]
    3ab0:	00003417 	andeq	r3, r0, r7, lsl r4
    3ab4:	53050c00 	movwpl	r0, #23552	@ 0x5c00
    3ab8:	03005243 	movweq	r5, #579	@ 0x243
    3abc:	0034171e 	eorseq	r1, r4, lr, lsl r7
    3ac0:	05100000 	ldreq	r0, [r0, #-0]
    3ac4:	00524343 	subseq	r4, r2, r3, asr #6
    3ac8:	34171f03 	ldrcc	r1, [r7], #-3843	@ 0xfffff0fd
    3acc:	14000000 	strne	r0, [r0], #-0
    3ad0:	50485305 	subpl	r5, r8, r5, lsl #6
    3ad4:	1c200300 	stcne	3, cr0, [r0], #-0
    3ad8:	0000014b 	andeq	r0, r0, fp, asr #2
    3adc:	05280118 	streq	r0, [r8, #-280]!	@ 0xfffffee8
    3ae0:	21030000 	mrscs	r0, (UNDEF: 3)
    3ae4:	00003417 	andeq	r3, r0, r7, lsl r4
    3ae8:	bf012400 	svclt	0x00012400
    3aec:	03000005 	movweq	r0, #5
    3af0:	00341722 	eorseq	r1, r4, r2, lsr #14
    3af4:	01280000 			@ <UNDEFINED> instruction: 0x01280000
    3af8:	000005c4 	andeq	r0, r0, r4, asr #11
    3afc:	34172303 	ldrcc	r2, [r7], #-771	@ 0xfffffcfd
    3b00:	2c000000 	stccs	0, cr0, [r0], {-0}
    3b04:	0005df01 	andeq	sp, r5, r1, lsl #30
    3b08:	17240300 	strne	r0, [r4, -r0, lsl #6]!
    3b0c:	00000034 	andeq	r0, r0, r4, lsr r0
    3b10:	06570130 			@ <UNDEFINED> instruction: 0x06570130
    3b14:	25030000 	strcs	r0, [r3, #-0]
    3b18:	00003417 	andeq	r3, r0, r7, lsl r4
    3b1c:	1d013400 	cfstrsne	mvf3, [r1, #-0]
    3b20:	03000006 	movweq	r0, #6
    3b24:	00341726 	eorseq	r1, r4, r6, lsr #14
    3b28:	01380000 	teqeq	r8, r0
    3b2c:	000006d5 	ldrdeq	r0, [r0], -r5
    3b30:	34172703 	ldrcc	r2, [r7], #-1795	@ 0xfffff8fd
    3b34:	3c000000 	stccc	0, cr0, [r0], {-0}
    3b38:	00550b00 	subseq	r0, r5, r0, lsl #22
    3b3c:	014b0000 	mrseq	r0, (UNDEF: 75)
    3b40:	2d0c0000 	stccs	0, cr0, [ip, #-0]
    3b44:	0b000000 	bleq	3b4c <__exidx_end+0x2b08>
    3b48:	013b0600 	teqeq	fp, r0, lsl #12
    3b4c:	c9020000 	stmdbgt	r2, {}	@ <UNPREDICTABLE>
    3b50:	03000005 	movweq	r0, #5
    3b54:	007d0328 	rsbseq	r0, sp, r8, lsr #6
    3b58:	100a0000 	andne	r0, sl, r0
    3b5c:	0001982a 	andeq	r9, r1, sl, lsr #16
    3b60:	03390100 	teqeq	r9, #0, 2
    3b64:	2c030000 	stccs	0, cr0, [r3], {-0}
    3b68:	00003417 	andeq	r3, r0, r7, lsl r4
    3b6c:	18010000 	stmdane	r1, {}	@ <UNPREDICTABLE>
    3b70:	03000002 	movweq	r0, #2
    3b74:	0034172d 	eorseq	r1, r4, sp, lsr #14
    3b78:	05040000 	streq	r0, [r4, #-0]
    3b7c:	004c4156 	subeq	r4, ip, r6, asr r1
    3b80:	34172e03 	ldrcc	r2, [r7], #-3587	@ 0xfffff1fd
    3b84:	08000000 	stmdaeq	r0, {}	@ <UNPREDICTABLE>
    3b88:	00034601 	andeq	r4, r3, r1, lsl #12
    3b8c:	172f0300 	strne	r0, [pc, -r0, lsl #6]!
    3b90:	00000034 	andeq	r0, r0, r4, lsr r0
    3b94:	c402000c 	strgt	r0, [r2], #-12
    3b98:	03000001 	movweq	r0, #1
    3b9c:	015c0330 	cmpeq	ip, r0, lsr r3
    3ba0:	fb140000 	blx	503baa <__exidx_end+0x502b66>
    3ba4:	04000001 	streq	r0, [r0], #-1
    3ba8:	14020e1b 	strne	r0, [r2], #-3611	@ 0xfffff1e5
    3bac:	04000003 	streq	r0, [r0], #-3
    3bb0:	01b80e1c 			@ <UNDEFINED> instruction: 0x01b80e1c
    3bb4:	01030000 	mrseq	r0, (UNDEF: 3)
    3bb8:	0002a508 	andeq	sl, r2, r8, lsl #10
    3bbc:	4e491500 	cdpmi	5, 4, cr1, cr9, cr0, {0}
    3bc0:	1e040054 	mcrne	0, 0, r0, cr4, cr4, {2}
    3bc4:	00002610 	andeq	r2, r0, r0, lsl r6
    3bc8:	011c0200 	tsteq	ip, r0, lsl #4
    3bcc:	1f040000 	svcne	0x00040000
    3bd0:	00002d12 	andeq	r2, r0, r2, lsl sp
    3bd4:	027b0200 	rsbseq	r0, fp, #0, 4
    3bd8:	20040000 	andcs	r0, r4, r0
    3bdc:	00006f17 	andeq	r6, r0, r7, lsl pc
    3be0:	01d70600 	bicseq	r0, r7, r0, lsl #12
    3be4:	00020000 	andeq	r0, r2, r0
    3be8:	04000002 	streq	r0, [r0], #-2
    3bec:	002d1226 	eoreq	r1, sp, r6, lsr #4
    3bf0:	6b020000 	blvs	83bf8 <__exidx_end+0x82bb4>
    3bf4:	04000003 	streq	r0, [r0], #-3
    3bf8:	004e1752 	subeq	r1, lr, r2, asr r7
    3bfc:	fc020000 	stc2	0, cr0, [r2], {-0}
    3c00:	04000002 	streq	r0, [r0], #-2
    3c04:	004e1753 	subeq	r1, lr, r3, asr r7
    3c08:	9d020000 	stcls	0, cr0, [r2, #-0]
    3c0c:	04000000 	streq	r0, [r0], #-0
    3c10:	006f1754 	rsbeq	r1, pc, r4, asr r7	@ <UNPREDICTABLE>
    3c14:	a4020000 	strge	r0, [r2], #-0
    3c18:	04000003 	streq	r0, [r0], #-3
    3c1c:	01d70fcb 	bicseq	r0, r7, fp, asr #31
    3c20:	5e020000 	cdppl	0, 0, cr0, cr2, cr0, {0}
    3c24:	04000007 	streq	r0, [r0], #-7
    3c28:	023015ed 	eorseq	r1, r0, #994050048	@ 0x3b400000
    3c2c:	f7070000 			@ <UNDEFINED> instruction: 0xf7070000
    3c30:	5c000002 	stcpl	0, cr0, [r0], {2}
    3c34:	00032342 	andeq	r2, r3, r2, asr #6
    3c38:	70730500 	rsbsvc	r0, r3, r0, lsl #10
    3c3c:	0b450500 	bleq	1145044 <__exidx_end+0x1144000>
    3c40:	00000402 	andeq	r0, r0, r2, lsl #8
    3c44:	03540100 	cmpeq	r4, #0, 2
    3c48:	46050000 	strmi	r0, [r5], -r0
    3c4c:	00021815 	andeq	r1, r2, r5, lsl r8
    3c50:	5b010400 	blpl	44c58 <__exidx_end+0x43c14>
    3c54:	05000003 	streq	r0, [r0, #-3]
    3c58:	01d70c47 	bicseq	r0, r7, r7, asr #24
    3c5c:	01080000 	mrseq	r0, (UNDEF: 8)
    3c60:	000001f3 	strdeq	r0, [r0], -r3
    3c64:	bf0c4805 	svclt	0x000c4805
    3c68:	0c000001 	stceq	0, cr0, [r0], {1}
    3c6c:	0000c801 	andeq	ip, r0, r1, lsl #16
    3c70:	0c4b0500 	cfstr64eq	mvdx0, [fp], {-0}
    3c74:	000003fd 	strdeq	r0, [r0], -sp
    3c78:	02cb0110 	sbceq	r0, fp, #16, 2
    3c7c:	4c050000 	stcmi	0, cr0, [r5], {-0}
    3c80:	0004020b 	andeq	r0, r4, fp, lsl #4
    3c84:	04011400 	streq	r1, [r1], #-1024	@ 0xfffffc00
    3c88:	05000003 	streq	r0, [r0, #-3]
    3c8c:	01cb0b4d 	biceq	r0, fp, sp, asr #22
    3c90:	05180000 	ldreq	r0, [r8, #-0]
    3c94:	00646970 	rsbeq	r6, r4, r0, ror r9
    3c98:	f40d4e05 			@ <UNDEFINED> instruction: 0xf40d4e05
    3c9c:	1c000001 	stcne	0, cr0, [r0], {1}
    3ca0:	0001ea01 	andeq	lr, r1, r1, lsl #20
    3ca4:	0e4f0500 	cdpeq	5, 4, cr0, cr15, cr0, {0}
    3ca8:	00000200 	andeq	r0, r0, r0, lsl #4
    3cac:	0062011d 	rsbeq	r0, r2, sp, lsl r1
    3cb0:	54050000 	strpl	r0, [r5], #-0
    3cb4:	0001e80b 	andeq	lr, r1, fp, lsl #16
    3cb8:	e9012000 	stmdb	r1, {sp}
    3cbc:	05000000 	streq	r0, [r0, #-0]
    3cc0:	020c0e5f 	andeq	r0, ip, #1520	@ 0x5f0
    3cc4:	01240000 			@ <UNDEFINED> instruction: 0x01240000
    3cc8:	00000251 	andeq	r0, r0, r1, asr r2
    3ccc:	0c0e6105 	stfeqs	f6, [lr], {5}
    3cd0:	28000002 	stmdacs	r0, {r1}
    3cd4:	00000601 	andeq	r0, r0, r1, lsl #12
    3cd8:	0b630500 	bleq	18c50e0 <__exidx_end+0x18c409c>
    3cdc:	000001e8 	andeq	r0, r0, r8, ror #3
    3ce0:	01e2012c 	mvneq	r0, ip, lsr #2
    3ce4:	64050000 	strvs	r0, [r5], #-0
    3ce8:	0001e80b 	andeq	lr, r1, fp, lsl #16
    3cec:	3e013000 	cdpcc	0, 0, cr3, cr1, cr0, {0}
    3cf0:	05000000 	streq	r0, [r0, #-0]
    3cf4:	01cb0b66 	biceq	r0, fp, r6, ror #22
    3cf8:	01340000 	teqeq	r4, r0
    3cfc:	000002bf 			@ <UNDEFINED> instruction: 0x000002bf
    3d00:	f40d6705 	vst1.8	{d6}, [sp], r5
    3d04:	38000001 	stmdacc	r0, {r0}
    3d08:	00020509 	andeq	r0, r2, r9, lsl #10
    3d0c:	941a6800 	ldrls	r6, [sl], #-2048	@ 0xfffff800
    3d10:	3c000003 	stccc	0, cr0, [r0], {3}
    3d14:	00012909 	andeq	r2, r1, r9, lsl #18
    3d18:	6e176900 	vnmlsvs.f16	s12, s14, s0	@ <UNPREDICTABLE>
    3d1c:	54000003 	strpl	r0, [r0], #-3
    3d20:	00a50200 	adceq	r0, r5, r0, lsl #4
    3d24:	ef040000 	svc	0x00040000
    3d28:	00032f16 	andeq	r2, r3, r6, lsl pc
    3d2c:	02d80700 	sbcseq	r0, r8, #0, 14
    3d30:	3a140000 	bcc	503d38 <__exidx_end+0x502cf4>
    3d34:	0000036e 	andeq	r0, r0, lr, ror #6
    3d38:	0000f609 	andeq	pc, r0, r9, lsl #12
    3d3c:	6e173c00 	cdpvs	12, 1, cr3, cr7, cr0, {0}
    3d40:	00000003 	andeq	r0, r0, r3
    3d44:	0001d901 	andeq	sp, r1, r1, lsl #18
    3d48:	0c3d0500 	cfldr32eq	mvfx0, [sp], #-0
    3d4c:	000003fd 	strdeq	r0, [r0], -sp
    3d50:	01310108 	teqeq	r1, r8, lsl #2
    3d54:	3e050000 	cdpcc	0, 0, cr0, cr5, cr0, {0}
    3d58:	0001d70c 	andeq	sp, r1, ip, lsl #14
    3d5c:	5d010c00 	stcpl	12, cr0, [r1, #-0]
    3d60:	05000000 	streq	r0, [r0, #-0]
    3d64:	01e80b3f 	mvneq	r0, pc, lsr fp
    3d68:	00100000 	andseq	r0, r0, r0
    3d6c:	00010007 	andeq	r0, r1, r7
    3d70:	94340800 	ldrtls	r0, [r4], #-2048	@ 0xfffff800
    3d74:	01000003 	tsteq	r0, r3
    3d78:	000000c0 	andeq	r0, r0, r0, asr #1
    3d7c:	f8183605 			@ <UNDEFINED> instruction: 0xf8183605
    3d80:	00000003 	andeq	r0, r0, r3
    3d84:	00034c01 	andeq	r4, r3, r1, lsl #24
    3d88:	18370500 	ldmdane	r7!, {r8, sl}
    3d8c:	000003f8 	strdeq	r0, [r0], -r8
    3d90:	d1070004 	tstle	r7, r4
    3d94:	18000000 	stmdane	r0, {}	@ <UNPREDICTABLE>
    3d98:	0003ee1f 	andeq	lr, r3, pc, lsl lr
    3d9c:	00c00100 	sbceq	r0, r0, r0, lsl #2
    3da0:	21050000 	mrscs	r0, (UNDEF: 5)
    3da4:	0003ee1b 	andeq	lr, r3, fp, lsl lr
    3da8:	4c010000 	stcmi	0, cr0, [r1], {-0}
    3dac:	05000003 	streq	r0, [r0, #-3]
    3db0:	03ee1b22 	mvneq	r1, #34816	@ 0x8800
    3db4:	01040000 	mrseq	r0, (UNDEF: 4)
    3db8:	0000025e 	andeq	r0, r0, lr, asr r2
    3dbc:	cb0b2305 	blgt	2cc9d8 <__exidx_end+0x2cb994>
    3dc0:	08000001 	stmdaeq	r0, {r0}
    3dc4:	00012101 	andeq	r2, r1, r1, lsl #2
    3dc8:	0e240500 	cfsh64eq	mvdx0, mvdx4, #0
    3dcc:	0000020c 	andeq	r0, r0, ip, lsl #4
    3dd0:	030e010c 	movweq	r0, #57612	@ 0xe10c
    3dd4:	25050000 	strcs	r0, [r5, #-0]
    3dd8:	00020c0e 	andeq	r0, r2, lr, lsl #24
    3ddc:	30011000 	andcc	r1, r1, r0
    3de0:	05000002 	streq	r0, [r0, #-2]
    3de4:	03f30f26 	mvnseq	r0, #38, 30	@ 0x98
    3de8:	00140000 	andseq	r0, r4, r0
    3dec:	00039404 	andeq	r9, r3, r4, lsl #8
    3df0:	03230400 			@ <UNDEFINED> instruction: 0x03230400
    3df4:	6e040000 	cdpvs	0, 0, cr0, cr4, cr0, {0}
    3df8:	04000003 	streq	r0, [r0], #-3
    3dfc:	000001ac 	andeq	r0, r0, ip, lsr #3
    3e00:	0001bf04 	andeq	fp, r1, r4, lsl #30
    3e04:	072a0800 	streq	r0, [sl, -r0, lsl #16]!
    3e08:	10120000 	andsne	r0, r2, r0
    3e0c:	00000412 	andeq	r0, r0, r2, lsl r4
    3e10:	00022404 	andeq	r2, r2, r4, lsl #8
    3e14:	01bf0b00 			@ <UNDEFINED> instruction: 0x01bf0b00
    3e18:	04270000 	strteq	r0, [r7], #-0
    3e1c:	2d0c0000 	stccs	0, cr0, [ip, #-0]
    3e20:	3f000000 	svccc	0x00000000
    3e24:	09a20800 	stmibeq	r2!, {fp}
    3e28:	0c150000 	ldceq	0, cr0, [r5], {-0}
    3e2c:	00000417 	andeq	r0, r0, r7, lsl r4
    3e30:	000b1708 	andeq	r1, fp, r8, lsl #14
    3e34:	170c1600 	strne	r1, [ip, -r0, lsl #12]
    3e38:	08000004 	stmdaeq	r0, {r2}
    3e3c:	00000bf4 	strdeq	r0, [r0], -r4
    3e40:	01e3171a 	mvneq	r1, sl, lsl r7
    3e44:	270d0000 	strcs	r0, [sp, -r0]
    3e48:	16000004 	strne	r0, [r0], -r4
    3e4c:	0f6c0305 	svceq	0x006c0305
    3e50:	320d2000 	andcc	r2, sp, #0
    3e54:	17000004 	strne	r0, [r0, -r4]
    3e58:	0e6c0305 	cdpeq	3, 6, cr0, cr12, cr5, {0}
    3e5c:	3d162000 	ldccc	0, cr2, [r6, #-0]
    3e60:	01000004 	tsteq	r0, r4
    3e64:	68030510 	stmdavs	r3, {r4, r8, sl}
    3e68:	1720000e 	strne	r0, [r0, -lr]!
    3e6c:	0000078e 	andeq	r0, r0, lr, lsl #15
    3e70:	7f061e06 	svcvc	0x00061e06
    3e74:	18000004 	stmdane	r0, {r2}
    3e78:	000001cb 	andeq	r0, r0, fp, asr #3
    3e7c:	070e1900 	streq	r1, [lr, -r0, lsl #18]
    3e80:	1d060000 	stcne	0, cr0, [r6, #-0]
    3e84:	0001cb06 	andeq	ip, r1, r6, lsl #22
    3e88:	0b3a0e00 	bleq	e87690 <__exidx_end+0xe8664c>
    3e8c:	c02b0000 	eorgt	r0, fp, r0
    3e90:	3c00000c 	stccc	0, cr0, [r0], {12}
    3e94:	01000000 	mrseq	r0, (UNDEF: 0)
    3e98:	0004e09c 	muleq	r4, ip, r0
    3e9c:	03841a00 	orreq	r1, r4, #0, 20
    3ea0:	2b010000 	blcs	43ea8 <__exidx_end+0x42e64>
    3ea4:	0004e01e 	andeq	lr, r4, lr, lsl r0
    3ea8:	000e4300 	andeq	r4, lr, r0, lsl #6
    3eac:	000e3f00 	andeq	r3, lr, r0, lsl #30
    3eb0:	029c1b00 	addseq	r1, ip, #0, 22
    3eb4:	181c0000 	ldmdane	ip, {}	@ <UNPREDICTABLE>
    3eb8:	01000008 	tsteq	r0, r8
    3ebc:	01cb0934 	biceq	r0, fp, r4, lsr r9
    3ec0:	0e580000 	cdpeq	0, 5, cr0, cr8, cr0, {0}
    3ec4:	0e560000 	cdpeq	0, 5, cr0, cr6, cr0, {0}
    3ec8:	d80f0000 	stmdale	pc, {}	@ <UNPREDICTABLE>
    3ecc:	7f00000c 	svcvc	0x0000000c
    3ed0:	0f000004 	svceq	0x00000004
    3ed4:	00000cf0 	strdeq	r0, [r0], -r0	@ <UNPREDICTABLE>
    3ed8:	0000046d 	andeq	r0, r0, sp, ror #8
    3edc:	a4040000 	strge	r0, [r4], #-0
    3ee0:	0e000001 	cdpeq	0, 0, cr0, cr0, cr1, {0}
    3ee4:	000008d8 	ldrdeq	r0, [r0], -r8
    3ee8:	000ca81c 	andeq	sl, ip, ip, lsl r8
    3eec:	00001800 	andeq	r1, r0, r0, lsl #16
    3ef0:	2e9c0100 	fmlcse	f0, f4, f0
    3ef4:	1d000005 	stcne	0, cr0, [r0, #-20]	@ 0xffffffec
    3ef8:	00000384 	andeq	r0, r0, r4, lsl #7
    3efc:	e0161c01 	ands	r1, r6, r1, lsl #24
    3f00:	01000004 	tsteq	r0, r4
    3f04:	052e1050 	streq	r1, [lr, #-80]!	@ 0xffffffb0
    3f08:	0caa0000 	stceq	0, cr0, [sl]
    3f0c:	aa030000 	bge	c3f14 <__exidx_end+0xc2ed0>
    3f10:	0400000c 	streq	r0, [r0], #-12
    3f14:	22000000 	andcs	r0, r0, #0
    3f18:	00053510 	andeq	r3, r5, r0, lsl r5
    3f1c:	000cb600 	andeq	fp, ip, r0, lsl #12
    3f20:	0cb60100 	ldfeqs	f0, [r6]
    3f24:	000a0000 	andeq	r0, sl, r0
    3f28:	00270000 	eoreq	r0, r7, r0
    3f2c:	000bfe11 	andeq	pc, fp, r1, lsl lr	@ <UNPREDICTABLE>
    3f30:	11010d00 	tstne	r1, r0, lsl #26
    3f34:	00000c04 	andeq	r0, r0, r4, lsl #24
    3f38:	0d000102 	stfeqs	f0, [r0, #-8]
    3f3c:	05000008 	streq	r0, [r0, #-8]
    3f40:	ba040100 	blt	104348 <__exidx_end+0x103304>
    3f44:	18000012 	stmdane	r0, {r1, r4}
    3f48:	00000149 	andeq	r0, r0, r9, asr #2
    3f4c:	000c611d 	andeq	r6, ip, sp, lsl r1
    3f50:	00001100 	andeq	r1, r0, r0, lsl #2
    3f54:	0002e800 	andeq	lr, r2, r0, lsl #16
    3f58:	00000000 	andeq	r0, r0, r0
    3f5c:	001c2200 	andseq	r2, ip, r0, lsl #4
    3f60:	05041900 	streq	r1, [r4, #-2304]	@ 0xfffff700
    3f64:	00746e69 	rsbseq	r6, r4, r9, ror #28
    3f68:	76070403 	strvc	r0, [r7], -r3, lsl #8
    3f6c:	0d000000 	stceq	0, cr0, [r0, #-0]
    3f70:	0000002d 	andeq	r0, r0, sp, lsr #32
    3f74:	8f050803 	svchi	0x00050803
    3f78:	03000000 	movweq	r0, #0
    3f7c:	02240408 	eoreq	r0, r4, #8, 8	@ 0x8000000
    3f80:	01030000 	mrseq	r0, (UNDEF: 3)
    3f84:	00029e06 	andeq	r9, r2, r6, lsl #28
    3f88:	08010300 	stmdaeq	r1, {r8, r9}
    3f8c:	0000029c 	muleq	r0, ip, r2
    3f90:	00004e0d 	andeq	r4, r0, sp, lsl #28
    3f94:	05020300 	streq	r0, [r2, #-768]	@ 0xfffffd00
    3f98:	000002b5 			@ <UNDEFINED> instruction: 0x000002b5
    3f9c:	36070203 	strcc	r0, [r7], -r3, lsl #4
    3fa0:	03000001 	movweq	r0, #1
    3fa4:	00940504 	addseq	r0, r4, r4, lsl #10
    3fa8:	04030000 	streq	r0, [r3], #-0
    3fac:	00007107 	andeq	r7, r0, r7, lsl #2
    3fb0:	07080300 	streq	r0, [r8, -r0, lsl #6]
    3fb4:	0000006c 	andeq	r0, r0, ip, rrx
    3fb8:	1802401a 	stmdane	r2, {r1, r3, r4, lr}
    3fbc:	00013d09 	andeq	r3, r1, r9, lsl #26
    3fc0:	06220100 	strteq	r0, [r2], -r0, lsl #2
    3fc4:	1a020000 	bne	83fcc <__exidx_end+0x82f88>
    3fc8:	00003417 	andeq	r3, r0, r7, lsl r4
    3fcc:	e4010000 	str	r0, [r1], #-0
    3fd0:	02000005 	andeq	r0, r0, #5
    3fd4:	0034171b 	eorseq	r1, r4, fp, lsl r7
    3fd8:	01040000 	mrseq	r0, (UNDEF: 4)
    3fdc:	0000055a 	andeq	r0, r0, sl, asr r5
    3fe0:	34171c02 	ldrcc	r1, [r7], #-3074	@ 0xfffff3fe
    3fe4:	08000000 	stmdaeq	r0, {}	@ <UNPREDICTABLE>
    3fe8:	00061701 	andeq	r1, r6, r1, lsl #14
    3fec:	171d0200 	ldrne	r0, [sp, -r0, lsl #4]
    3ff0:	00000034 	andeq	r0, r0, r4, lsr r0
    3ff4:	4353080c 	cmpmi	r3, #12, 16	@ 0xc0000
    3ff8:	1e020052 	mcrne	0, 0, r0, cr2, cr2, {2}
    3ffc:	00003417 	andeq	r3, r0, r7, lsl r4
    4000:	43081000 	movwmi	r1, #32768	@ 0x8000
    4004:	02005243 	andeq	r5, r0, #805306372	@ 0x30000004
    4008:	0034171f 	eorseq	r1, r4, pc, lsl r7
    400c:	08140000 	ldmdaeq	r4, {}	@ <UNPREDICTABLE>
    4010:	00504853 	subseq	r4, r0, r3, asr r8
    4014:	4d1c2002 	ldcmi	0, cr2, [ip, #-8]
    4018:	18000001 	stmdane	r0, {r0}
    401c:	00052801 	andeq	r2, r5, r1, lsl #16
    4020:	17210200 	strne	r0, [r1, -r0, lsl #4]!
    4024:	00000034 	andeq	r0, r0, r4, lsr r0
    4028:	05bf0124 	ldreq	r0, [pc, #292]!	@ 4154 <__exidx_end+0x3110>
    402c:	22020000 	andcs	r0, r2, #0
    4030:	00003417 	andeq	r3, r0, r7, lsl r4
    4034:	c4012800 	strgt	r2, [r1], #-2048	@ 0xfffff800
    4038:	02000005 	andeq	r0, r0, #5
    403c:	00341723 	eorseq	r1, r4, r3, lsr #14
    4040:	012c0000 			@ <UNDEFINED> instruction: 0x012c0000
    4044:	000005df 	ldrdeq	r0, [r0], -pc	@ <UNPREDICTABLE>
    4048:	34172402 	ldrcc	r2, [r7], #-1026	@ 0xfffffbfe
    404c:	30000000 	andcc	r0, r0, r0
    4050:	00065701 	andeq	r5, r6, r1, lsl #14
    4054:	17250200 	strne	r0, [r5, -r0, lsl #4]!
    4058:	00000034 	andeq	r0, r0, r4, lsr r0
    405c:	061d0134 			@ <UNDEFINED> instruction: 0x061d0134
    4060:	26020000 	strcs	r0, [r2], -r0
    4064:	00003417 	andeq	r3, r0, r7, lsl r4
    4068:	d5013800 	strle	r3, [r1, #-2048]	@ 0xfffff800
    406c:	02000006 	andeq	r0, r0, #6
    4070:	00341727 	eorseq	r1, r4, r7, lsr #14
    4074:	003c0000 	eorseq	r0, ip, r0
    4078:	0000551b 	andeq	r5, r0, fp, lsl r5
    407c:	00014d00 	andeq	r4, r1, r0, lsl #26
    4080:	002d1100 	eoreq	r1, sp, r0, lsl #2
    4084:	000b0000 	andeq	r0, fp, r0
    4088:	00013d0d 	andeq	r3, r1, sp, lsl #26
    408c:	05c90200 	strbeq	r0, [r9, #512]	@ 0x200
    4090:	28020000 	stmdacs	r2, {}	@ <UNPREDICTABLE>
    4094:	00007d03 	andeq	r7, r0, r3, lsl #26
    4098:	03140200 	tsteq	r4, #0, 4
    409c:	1c030000 	stcne	0, cr0, [r3], {-0}
    40a0:	00016a0e 	andeq	r6, r1, lr, lsl #20
    40a4:	08010300 	stmdaeq	r1, {r8, r9}
    40a8:	000002a5 	andeq	r0, r0, r5, lsr #5
    40ac:	544e491c 	strbpl	r4, [lr], #-2332	@ 0xfffff6e4
    40b0:	101e0300 	andsne	r0, lr, r0, lsl #6
    40b4:	00000026 	andeq	r0, r0, r6, lsr #32
    40b8:	00011c02 	andeq	r1, r1, r2, lsl #24
    40bc:	121f0300 	andsne	r0, pc, #0, 6
    40c0:	0000002d 	andeq	r0, r0, sp, lsr #32
    40c4:	00027b02 	andeq	r7, r2, r2, lsl #22
    40c8:	17200300 	strne	r0, [r0, -r0, lsl #6]!
    40cc:	0000006f 	andeq	r0, r0, pc, rrx
    40d0:	00027c02 	andeq	r7, r2, r2, lsl #24
    40d4:	0e210300 	cdpeq	3, 2, cr0, cr1, cr0, {0}
    40d8:	00000068 	andeq	r0, r0, r8, rrx
    40dc:	00020002 	andeq	r0, r2, r2
    40e0:	12260300 	eorne	r0, r6, #0, 6
    40e4:	0000002d 	andeq	r0, r0, sp, lsr #32
    40e8:	00036b02 	andeq	r6, r3, r2, lsl #22
    40ec:	17520300 	ldrbne	r0, [r2, -r0, lsl #6]
    40f0:	0000004e 	andeq	r0, r0, lr, asr #32
    40f4:	0002fc02 	andeq	pc, r2, r2, lsl #24
    40f8:	17530300 	ldrbne	r0, [r3, -r0, lsl #6]
    40fc:	0000004e 	andeq	r0, r0, lr, asr #32
    4100:	00009d02 	andeq	r9, r0, r2, lsl #26
    4104:	17540300 	ldrbne	r0, [r4, -r0, lsl #6]
    4108:	0000006f 	andeq	r0, r0, pc, rrx
    410c:	0001c509 	andeq	ip, r1, r9, lsl #10
    4110:	00830200 	addeq	r0, r3, r0, lsl #4
    4114:	8a030000 	bhi	c411c <__exidx_end+0xc30d8>
    4118:	0001950e 	andeq	r9, r1, lr, lsl #10
    411c:	03a40200 			@ <UNDEFINED> instruction: 0x03a40200
    4120:	cb030000 	blgt	c4128 <__exidx_end+0xc30e4>
    4124:	0001890f 	andeq	r8, r1, pc, lsl #18
    4128:	075e0200 	ldrbeq	r0, [lr, -r0, lsl #4]
    412c:	ed030000 	stc	0, cr0, [r3, #-0]
    4130:	0001fa15 	andeq	pc, r1, r5, lsl sl	@ <UNPREDICTABLE>
    4134:	02f70a00 	rscseq	r0, r7, #0, 20
    4138:	425c0000 	subsmi	r0, ip, #0
    413c:	000002ed 	andeq	r0, r0, sp, ror #5
    4140:	00707308 	rsbseq	r7, r0, r8, lsl #6
    4144:	ee0b4504 	cfsh32	mvfx4, mvfx11, #4
    4148:	00000003 	andeq	r0, r0, r3
    414c:	00035401 	andeq	r5, r3, r1, lsl #8
    4150:	15460400 	strbne	r0, [r6, #-1024]	@ 0xfffffc00
    4154:	000001e2 	andeq	r0, r0, r2, ror #3
    4158:	035b0104 	cmpeq	fp, #4, 2
    415c:	47040000 	strmi	r0, [r4, -r0]
    4160:	0001890c 	andeq	r8, r1, ip, lsl #18
    4164:	f3010800 	vsub.i8	d0, d1, d0
    4168:	04000001 	streq	r0, [r0], #-1
    416c:	01710c48 	cmneq	r1, r8, asr #24
    4170:	010c0000 	mrseq	r0, (UNDEF: 12)
    4174:	000000c8 	andeq	r0, r0, r8, asr #1
    4178:	e90c4b04 	stmdb	ip, {r2, r8, r9, fp, lr}
    417c:	10000003 	andne	r0, r0, r3
    4180:	0002cb01 	andeq	ip, r2, r1, lsl #22
    4184:	0b4c0400 	bleq	130518c <__exidx_end+0x1304148>
    4188:	000003ee 	andeq	r0, r0, lr, ror #7
    418c:	03040114 	movweq	r0, #16660	@ 0x4114
    4190:	4d040000 	stcmi	0, cr0, [r4, #-0]
    4194:	00017d0b 	andeq	r7, r1, fp, lsl #26
    4198:	70081800 	andvc	r1, r8, r0, lsl #16
    419c:	04006469 	streq	r6, [r0], #-1129	@ 0xfffffb97
    41a0:	01ad0d4e 			@ <UNDEFINED> instruction: 0x01ad0d4e
    41a4:	011c0000 	tsteq	ip, r0
    41a8:	000001ea 	andeq	r0, r0, sl, ror #3
    41ac:	b90e4f04 	stmdblt	lr, {r2, r8, r9, sl, fp, lr}
    41b0:	1d000001 	stcne	0, cr0, [r0, #-4]
    41b4:	00006201 	andeq	r6, r0, r1, lsl #4
    41b8:	0b540400 	bleq	15051c0 <__exidx_end+0x150417c>
    41bc:	000001a1 	andeq	r0, r0, r1, lsr #3
    41c0:	00e90120 	rsceq	r0, r9, r0, lsr #2
    41c4:	5f040000 	svcpl	0x00040000
    41c8:	0001c50e 	andeq	ip, r1, lr, lsl #10
    41cc:	51012400 	tstpl	r1, r0, lsl #8
    41d0:	04000002 	streq	r0, [r0], #-2
    41d4:	01c50e61 	biceq	r0, r5, r1, ror #28
    41d8:	01280000 			@ <UNDEFINED> instruction: 0x01280000
    41dc:	00000006 	andeq	r0, r0, r6
    41e0:	a10b6304 	tstge	fp, r4, lsl #6
    41e4:	2c000001 	stccs	0, cr0, [r0], {1}
    41e8:	0001e201 	andeq	lr, r1, r1, lsl #4
    41ec:	0b640400 	bleq	19051f4 <__exidx_end+0x19041b0>
    41f0:	000001a1 	andeq	r0, r0, r1, lsr #3
    41f4:	003e0130 	eorseq	r0, lr, r0, lsr r1
    41f8:	66040000 	strvs	r0, [r4], -r0
    41fc:	00017d0b 	andeq	r7, r1, fp, lsl #26
    4200:	bf013400 	svclt	0x00013400
    4204:	04000002 	streq	r0, [r0], #-2
    4208:	01ad0d67 			@ <UNDEFINED> instruction: 0x01ad0d67
    420c:	10380000 	eorsne	r0, r8, r0
    4210:	00000205 	andeq	r0, r0, r5, lsl #4
    4214:	037b1a68 	cmneq	fp, #104, 20	@ 0x68000
    4218:	103c0000 	eorsne	r0, ip, r0
    421c:	00000129 	andeq	r0, r0, r9, lsr #2
    4220:	03381769 	teqeq	r8, #27525120	@ 0x1a40000
    4224:	00540000 	subseq	r0, r4, r0
    4228:	0000a502 	andeq	sl, r0, r2, lsl #10
    422c:	16ef0300 	strbtne	r0, [pc], r0, lsl #6
    4230:	000002f9 	strdeq	r0, [r0], -r9
    4234:	0002d80a 	andeq	sp, r2, sl, lsl #16
    4238:	383a1400 	ldmdacc	sl!, {sl, ip}
    423c:	10000003 	andne	r0, r0, r3
    4240:	000000f6 	strdeq	r0, [r0], -r6
    4244:	0338173c 	teqeq	r8, #60, 14	@ 0xf00000
    4248:	01000000 	mrseq	r0, (UNDEF: 0)
    424c:	000001d9 	ldrdeq	r0, [r0], -r9
    4250:	e90c3d04 	stmdb	ip, {r2, r8, sl, fp, ip, sp}
    4254:	08000003 	stmdaeq	r0, {r0, r1}
    4258:	00013101 	andeq	r3, r1, r1, lsl #2
    425c:	0c3e0400 	cfldrseq	mvf0, [lr], #-0
    4260:	00000189 	andeq	r0, r0, r9, lsl #3
    4264:	005d010c 	subseq	r0, sp, ip, lsl #2
    4268:	3f040000 	svccc	0x00040000
    426c:	0001a10b 	andeq	sl, r1, fp, lsl #2
    4270:	0a001000 	beq	8278 <__exidx_end+0x7234>
    4274:	00000100 	andeq	r0, r0, r0, lsl #2
    4278:	035e3408 	cmpeq	lr, #8, 8	@ 0x8000000
    427c:	c0010000 	andgt	r0, r1, r0
    4280:	04000000 	streq	r0, [r0], #-0
    4284:	03e41836 	mvneq	r1, #3538944	@ 0x360000
    4288:	01000000 	mrseq	r0, (UNDEF: 0)
    428c:	0000034c 	andeq	r0, r0, ip, asr #6
    4290:	e4183704 	ldr	r3, [r8], #-1796	@ 0xfffff8fc
    4294:	04000003 	streq	r0, [r0], #-3
    4298:	06fb0200 	ldrbteq	r0, [fp], r0, lsl #4
    429c:	f1030000 			@ <UNDEFINED> instruction: 0xf1030000
    42a0:	0002ed11 	andeq	lr, r2, r1, lsl sp
    42a4:	07a10200 	streq	r0, [r1, r0, lsl #4]!
    42a8:	f3030000 	vhadd.u8	d0, d3, d0
    42ac:	00037b1d 	andeq	r7, r3, sp, lsl fp
    42b0:	036a0d00 	cmneq	sl, #0, 26
    42b4:	d10a0000 	mrsle	r0, (UNDEF: 10)
    42b8:	18000000 	stmdane	r0, {}	@ <UNPREDICTABLE>
    42bc:	0003d51f 	andeq	sp, r3, pc, lsl r5
    42c0:	00c00100 	sbceq	r0, r0, r0, lsl #2
    42c4:	21040000 	mrscs	r0, (UNDEF: 4)
    42c8:	0003d51b 	andeq	sp, r3, fp, lsl r5
    42cc:	4c010000 	stcmi	0, cr0, [r1], {-0}
    42d0:	04000003 	streq	r0, [r0], #-3
    42d4:	03d51b22 	bicseq	r1, r5, #34816	@ 0x8800
    42d8:	01040000 	mrseq	r0, (UNDEF: 4)
    42dc:	0000025e 	andeq	r0, r0, lr, asr r2
    42e0:	7d0b2304 	stcvc	3, cr2, [fp, #-16]
    42e4:	08000001 	stmdaeq	r0, {r0}
    42e8:	00012101 	andeq	r2, r1, r1, lsl #2
    42ec:	0e240400 	cdpeq	4, 2, cr0, cr4, cr0, {0}
    42f0:	000001c5 	andeq	r0, r0, r5, asr #3
    42f4:	030e010c 	movweq	r0, #57612	@ 0xe10c
    42f8:	25040000 	strcs	r0, [r4, #-0]
    42fc:	0001c50e 	andeq	ip, r1, lr, lsl #10
    4300:	30011000 	andcc	r1, r1, r0
    4304:	04000002 	streq	r0, [r0], #-2
    4308:	03da0f26 	bicseq	r0, sl, #38, 30	@ 0x98
    430c:	00140000 	andseq	r0, r4, r0
    4310:	00037b04 	andeq	r7, r3, r4, lsl #22
    4314:	02ed0400 	rsceq	r0, sp, #0, 8
    4318:	da090000 	ble	244320 <__exidx_end+0x2432dc>
    431c:	04000003 	streq	r0, [r0], #-3
    4320:	00000338 	andeq	r0, r0, r8, lsr r3
    4324:	00015e04 	andeq	r5, r1, r4, lsl #28
    4328:	01710400 	cmneq	r1, r0, lsl #8
    432c:	910a0000 	mrsls	r0, (UNDEF: 10)
    4330:	0800000b 	stmdaeq	r0, {r0, r1, r3}
    4334:	0004196c 	andeq	r1, r4, ip, ror #18
    4338:	0ba00100 	bleq	fe804740 <SCB_ICSR+0x1e7f5a3c>
    433c:	6e040000 	cdpvs	0, 0, cr0, cr4, cr0, {0}
    4340:	0001c50e 	andeq	ip, r1, lr, lsl #10
    4344:	88010000 	stmdahi	r1, {}	@ <UNPREDICTABLE>
    4348:	04000009 	streq	r0, [r0], #-9
    434c:	017d0b6f 	cmneq	sp, pc, ror #22
    4350:	00040000 	andeq	r0, r4, r0
    4354:	000a4a0b 	andeq	r4, sl, fp, lsl #20
    4358:	19720400 	ldmdbne	r2!, {sl}^
    435c:	000003f3 	strdeq	r0, [r0], -r3
    4360:	00072a0b 	andeq	r2, r7, fp, lsl #20
    4364:	10120500 	andsne	r0, r2, r0, lsl #10
    4368:	00000431 	andeq	r0, r0, r1, lsr r4
    436c:	0001ee04 	andeq	lr, r1, r4, lsl #28
    4370:	04310900 	ldrteq	r0, [r1], #-2304	@ 0xfffff700
    4374:	5e1d0000 	cdppl	0, 1, cr0, cr13, cr0, {0}
    4378:	04000003 	streq	r0, [r0], #-3
    437c:	0000044c 	andeq	r0, r0, ip, asr #8
    4380:	00002d11 	andeq	r2, r0, r1, lsl sp
    4384:	0b000200 	bleq	4b8c <__exidx_end+0x3b48>
    4388:	00000703 	andeq	r0, r0, r3, lsl #14
    438c:	3b101705 	blcc	409fa8 <__exidx_end+0x408f64>
    4390:	0b000004 	bleq	43a8 <__exidx_end+0x3364>
    4394:	00000a2f 	andeq	r0, r0, pc, lsr #20
    4398:	64222106 	strtvs	r2, [r2], #-262	@ 0xfffffefa
    439c:	04000004 	streq	r0, [r0], #-4
    43a0:	00000376 	andeq	r0, r0, r6, ror r3
    43a4:	0009f70b 	andeq	pc, r9, fp, lsl #14
    43a8:	22220600 	eorcs	r0, r2, #0, 12
    43ac:	00000464 	andeq	r0, r0, r4, ror #8
    43b0:	000c5712 	andeq	r5, ip, r2, lsl r7
    43b4:	23013600 	movwcs	r3, #5632	@ 0x1600
    43b8:	00000464 	andeq	r0, r0, r4, ror #8
    43bc:	106c0305 	rsbne	r0, ip, r5, lsl #6
    43c0:	43132000 	tstmi	r3, #0
    43c4:	24000007 	strcs	r0, [r0], #-7
    43c8:	000001d6 	ldrdeq	r0, [r0], -r6
    43cc:	000004a0 	andeq	r0, r0, r0, lsr #9
    43d0:	0003df0c 	andeq	sp, r3, ip, lsl #30
    43d4:	04360c00 	ldrteq	r0, [r6], #-3072	@ 0xfffff400
    43d8:	13000000 	movwne	r0, #0
    43dc:	00000b0e 	andeq	r0, r0, lr, lsl #22
    43e0:	0001d626 	andeq	sp, r1, r6, lsr #12
    43e4:	0004b900 	andeq	fp, r4, r0, lsl #18
    43e8:	04be0c00 	ldrteq	r0, [lr], #3072	@ 0xc00
    43ec:	c80c0000 	stmdagt	ip, {}	@ <UNPREDICTABLE>
    43f0:	00000004 	andeq	r0, r0, r4
    43f4:	00035e04 	andeq	r5, r3, r4, lsl #28
    43f8:	04b90900 	ldrteq	r0, [r9], #2304	@ 0x900
    43fc:	31040000 	mrscc	r0, (UNDEF: 4)
    4400:	09000004 	stmdbeq	r0, {r2}
    4404:	000004c3 	andeq	r0, r0, r3, asr #9
    4408:	00078e1e 	andeq	r8, r7, lr, lsl lr
    440c:	061e0500 	ldreq	r0, [lr], -r0, lsl #10
    4410:	000004df 	ldrdeq	r0, [r0], -pc	@ <UNPREDICTABLE>
    4414:	00017d0c 	andeq	r7, r1, ip, lsl #26
    4418:	0e1f0000 	cdpeq	0, 1, cr0, cr15, cr0, {0}
    441c:	05000007 	streq	r0, [r0, #-7]
    4420:	017d061d 	cmneq	sp, sp, lsl r6
    4424:	72200000 	eorvc	r0, r0, #0
    4428:	01000007 	tsteq	r0, r7
    442c:	e407014e 	str	r0, [r7], #-334	@ 0xfffffeb2
    4430:	2c00000e 	stccs	0, cr0, [r0], {14}
    4434:	01000000 	mrseq	r0, (UNDEF: 0)
    4438:	0005129c 	muleq	r5, ip, r2
    443c:	0c572100 	ldfeqe	f2, [r7], {-0}
    4440:	4e010000 	cdpmi	0, 0, cr0, cr1, cr0, {0}
    4444:	05122c01 	ldreq	r2, [r2, #-3073]	@ 0xfffff3ff
    4448:	50010000 	andpl	r0, r1, r0
    444c:	036a0400 	cmneq	sl, #0, 8
    4450:	a1140000 	tstge	r4, r0
    4454:	37000008 	strcc	r0, [r0, -r8]
    4458:	01a10701 			@ <UNDEFINED> instruction: 0x01a10701
    445c:	0f100000 	svceq	0x00100000
    4460:	00400000 	subeq	r0, r0, r0
    4464:	9c010000 	stcls	0, cr0, [r1], {-0}
    4468:	00000563 	andeq	r0, r0, r3, ror #10
    446c:	72726515 	rsbsvc	r6, r2, #88080384	@ 0x5400000
    4470:	0d013900 	vstreq.16	s6, [r1, #-0]	@ <UNPREDICTABLE>
    4474:	000001d6 	ldrdeq	r0, [r0], -r6
    4478:	00000e71 	andeq	r0, r0, r1, ror lr
    447c:	00000e6d 	andeq	r0, r0, sp, ror #28
    4480:	000f400e 	andeq	r4, pc, lr
    4484:	0004eb00 	andeq	lr, r4, r0, lsl #22
    4488:	00055900 	andeq	r5, r5, r0, lsl #18
    448c:	50010600 	andpl	r0, r1, r0, lsl #12
    4490:	00007002 	andeq	r7, r0, r2
    4494:	000f4407 	andeq	r4, pc, r7, lsl #8
    4498:	00056300 	andeq	r6, r5, r0, lsl #6
    449c:	6e140000 	cdpvs	0, 1, cr0, cr4, cr0, {0}
    44a0:	0900000c 	stmdbeq	r0, {r2, r3}
    44a4:	01d60901 	bicseq	r0, r6, r1, lsl #18
    44a8:	0e580000 	cdpeq	0, 5, cr0, cr8, cr0, {0}
    44ac:	008c0000 	addeq	r0, ip, r0
    44b0:	9c010000 	stcls	0, cr0, [r1], {-0}
    44b4:	000005f3 	strdeq	r0, [r0], -r3
    44b8:	000c5722 	andeq	r5, ip, r2, lsr #14
    44bc:	01090100 	mrseq	r0, (UNDEF: 25)
    44c0:	00046436 	andeq	r6, r4, r6, lsr r4
    44c4:	000e8900 	andeq	r8, lr, r0, lsl #18
    44c8:	000e8300 	andeq	r8, lr, r0, lsl #6
    44cc:	0c0a1200 	sfmeq	f1, 4, [sl], {-0}
    44d0:	010b0000 	mrseq	r0, (UNDEF: 11)
    44d4:	0004310e 	andeq	r3, r4, lr, lsl #2
    44d8:	74910200 	ldrvc	r0, [r1], #512	@ 0x200
    44dc:	000e6623 	andeq	r6, lr, r3, lsr #12
    44e0:	00002800 	andeq	r2, r0, r0, lsl #16
    44e4:	0005e000 	andeq	lr, r5, r0
    44e8:	72651500 	rsbvc	r1, r5, #0, 10
    44ec:	010f0072 	tsteq	pc, r2, ror r0	@ <UNPREDICTABLE>
    44f0:	0001d611 	andeq	sp, r1, r1, lsl r6
    44f4:	000ea600 	andeq	sl, lr, r0, lsl #12
    44f8:	000ea400 	andeq	sl, lr, r0, lsl #8
    44fc:	0e6e0e00 	cdpeq	14, 6, cr0, cr14, cr0, {0}
    4500:	04a00000 	strteq	r0, [r0], #0
    4504:	05d60000 	ldrbeq	r0, [r6]
    4508:	01060000 	mrseq	r0, (UNDEF: 6)
    450c:	74910251 	ldrvc	r0, [r1], #593	@ 0x251
    4510:	0e800700 	cdpeq	7, 8, cr0, cr0, cr0, {0}
    4514:	04870000 	streq	r0, [r7], #0
    4518:	07000000 	streq	r0, [r0, -r0]
    451c:	00000ea8 	andeq	r0, r0, r8, lsr #29
    4520:	00000487 	andeq	r0, r0, r7, lsl #9
    4524:	000ed207 	andeq	sp, lr, r7, lsl #4
    4528:	00048700 	andeq	r8, r4, r0, lsl #14
    452c:	31160000 	tstcc	r6, r0
    4530:	b0000007 	andlt	r0, r0, r7
    4534:	000001d6 	ldrdeq	r0, [r0], -r6
    4538:	00000cfc 	strdeq	r0, [r0], -ip
    453c:	0000008c 	andeq	r0, r0, ip, lsl #1
    4540:	068e9c01 	streq	r9, [lr], r1, lsl #24
    4544:	210f0000 	mrscs	r0, CPSR
    4548:	b000000c 	andlt	r0, r0, ip
    454c:	00051224 	andeq	r1, r5, r4, lsr #4
    4550:	000ebb00 	andeq	fp, lr, r0, lsl #22
    4554:	000eaf00 	andeq	sl, lr, r0, lsl #30
    4558:	01210f00 			@ <UNDEFINED> instruction: 0x01210f00
    455c:	39b00000 	ldmibcc	r0!, {}	@ <UNPREDICTABLE>
    4560:	000001c5 	andeq	r0, r0, r5, asr #3
    4564:	00000ef9 	strdeq	r0, [r0], -r9
    4568:	00000ee9 	andeq	r0, r0, r9, ror #29
    456c:	0002c124 	andeq	ip, r2, r4, lsr #2
    4570:	00066100 	andeq	r6, r6, r0, lsl #2
    4574:	0c190500 	cfldr32eq	mvfx0, [r9], {-0}
    4578:	1bc30000 	blne	ff0c4580 <SCB_ICSR+0x1f0b587c>
    457c:	00000512 	andeq	r0, r0, r2, lsl r5
    4580:	00000f37 	andeq	r0, r0, r7, lsr pc
    4584:	00000f31 	andeq	r0, r0, r1, lsr pc
    4588:	00034c05 	andeq	r4, r3, r5, lsl #24
    458c:	121bc400 	andsne	ip, fp, #0, 8
    4590:	51000005 	tstpl	r0, r5
    4594:	4d00000f 	stcmi	0, cr0, [r0, #-60]	@ 0xffffffc4
    4598:	0000000f 	andeq	r0, r0, pc
    459c:	0002cd25 	andeq	ip, r2, r5, lsr #26
    45a0:	0c190500 	cfldr32eq	mvfx0, [r9], {-0}
    45a4:	1be50000 	blne	ff9445ac <SCB_ICSR+0x1f9358a8>
    45a8:	00000512 	andeq	r0, r0, r2, lsl r5
    45ac:	00000f68 	andeq	r0, r0, r8, ror #30
    45b0:	00000f62 	andeq	r0, r0, r2, ror #30
    45b4:	00034c05 	andeq	r4, r3, r5, lsl #24
    45b8:	121be600 	andsne	lr, fp, #0, 12
    45bc:	84000005 	strhi	r0, [r0], #-5
    45c0:	7e00000f 	cdpvc	0, 0, cr0, cr0, cr15, {0}
    45c4:	0000000f 	andeq	r0, r0, pc
    45c8:	010a1600 	tsteq	sl, r0, lsl #12
    45cc:	d67e0000 	ldrbtle	r0, [lr], -r0
    45d0:	d0000001 	andle	r0, r0, r1
    45d4:	8800000d 	stmdahi	r0, {r0, r2, r3}
    45d8:	01000000 	mrseq	r0, (UNDEF: 0)
    45dc:	00076a9c 	muleq	r7, ip, sl
    45e0:	0c120f00 	ldceq	15, cr0, [r2], {-0}
    45e4:	247e0000 	ldrbtcs	r0, [lr], #-0
    45e8:	000001d1 	ldrdeq	r0, [r0], -r1
    45ec:	00000fa8 	andeq	r0, r0, r8, lsr #31
    45f0:	00000f9a 	muleq	r0, sl, pc	@ <UNPREDICTABLE>
    45f4:	00081805 	andeq	r1, r8, r5, lsl #16
    45f8:	7d068000 	stcvc	0, cr8, [r6, #-0]
    45fc:	e5000001 	str	r0, [r0, #-1]
    4600:	db00000f 	blle	4644 <__exidx_end+0x3600>
    4604:	2600000f 	strcs	r0, [r0], -pc
    4608:	00727265 	rsbseq	r7, r2, r5, ror #4
    460c:	d60d8201 	strle	r8, [sp], -r1, lsl #4
    4610:	0c000001 	stceq	0, cr0, [r0], {1}
    4614:	04000010 	streq	r0, [r0], #-16
    4618:	27000010 	smladcs	r0, r0, r0, r0
    461c:	00000c5c 	andeq	r0, r0, ip, asr ip
    4620:	3006a601 	andcc	sl, r6, r1, lsl #12
    4624:	0500000e 	streq	r0, [r0, #-14]
    4628:	00000c4b 	andeq	r0, r0, fp, asr #24
    462c:	01c50e89 	biceq	r0, r5, r9, lsl #29
    4630:	102c0000 	eorne	r0, ip, r0
    4634:	10280000 	eorne	r0, r8, r0
    4638:	2d050000 	stccs	0, cr0, [r5, #-0]
    463c:	8a00000c 	bhi	4674 <__exidx_end+0x3630>
    4640:	0001c50e 	andeq	ip, r1, lr, lsl #10
    4644:	00103e00 	andseq	r3, r0, r0, lsl #28
    4648:	00103c00 	andseq	r3, r0, r0, lsl #24
    464c:	0c450500 	cfstr64eq	mvdx0, [r5], {-0}
    4650:	0e920000 	cdpeq	0, 9, cr0, cr2, cr0, {0}
    4654:	000001c5 	andeq	r0, r0, r5, asr #3
    4658:	0000104b 	andeq	r1, r0, fp, asr #32
    465c:	00001047 	andeq	r1, r0, r7, asr #32
    4660:	0007f428 	andeq	pc, r7, r8, lsr #8
    4664:	000dde00 	andeq	sp, sp, r0, lsl #28
    4668:	02d90200 	sbcseq	r0, r9, #0, 4
    466c:	89010000 	stmdbhi	r1, {}	@ <UNPREDICTABLE>
    4670:	0dda071c 	ldcleq	7, cr0, [sl, #112]	@ 0x70
    4674:	04df0000 	ldrbeq	r0, [pc], #0	@ 467c <__exidx_end+0x3638>
    4678:	0a0e0000 	beq	384680 <__exidx_end+0x38363c>
    467c:	f300000e 	vhadd.u8	d0, d0, d14
    4680:	59000005 	stmdbpl	r0, {r0, r2}
    4684:	06000007 	streq	r0, [r0], -r7
    4688:	76025001 	strvc	r5, [r2], -r1
    468c:	5101063c 	tstpl	r1, ip, lsr r6
    4690:	00007402 	andeq	r7, r0, r2, lsl #8
    4694:	000e3a29 	andeq	r3, lr, r9, lsr #20
    4698:	0004cd00 	andeq	ip, r4, r0, lsl #26
    469c:	50010600 	andpl	r0, r1, r0, lsl #12
    46a0:	00007702 	andeq	r7, r0, r2, lsl #14
    46a4:	02951700 	addseq	r1, r5, #0, 14
    46a8:	886b0000 	stmdahi	fp!, {}^	@ <UNPREDICTABLE>
    46ac:	4800000d 	stmdami	r0, {r0, r2, r3}
    46b0:	01000000 	mrseq	r0, (UNDEF: 0)
    46b4:	0007d19c 	muleq	r7, ip, r1
    46b8:	05540f00 	ldrbeq	r0, [r4, #-3840]	@ 0xfffff100
    46bc:	176b0000 	strbne	r0, [fp, -r0]!
    46c0:	000001c5 	andeq	r0, r0, r5, asr #3
    46c4:	0000106b 	andeq	r1, r0, fp, rrx
    46c8:	00001065 	andeq	r1, r0, r5, rrx
    46cc:	00081805 	andeq	r1, r8, r5, lsl #16
    46d0:	7d066d00 	stcvc	13, cr6, [r6, #-0]
    46d4:	89000001 	stmdbhi	r0, {r0}
    46d8:	83000010 	movwhi	r0, #16
    46dc:	07000010 	smladeq	r0, r0, r0, r0
    46e0:	00000d90 	muleq	r0, r0, sp
    46e4:	000004df 	ldrdeq	r0, [r0], -pc	@ <UNPREDICTABLE>
    46e8:	000da80e 	andeq	sl, sp, lr, lsl #16
    46ec:	0005f300 	andeq	pc, r5, r0, lsl #6
    46f0:	0007c700 	andeq	ip, r7, r0, lsl #14
    46f4:	50010600 	andpl	r0, r1, r0, lsl #12
    46f8:	063c7402 	ldrteq	r7, [ip], -r2, lsl #8
    46fc:	76025101 	strvc	r5, [r2], -r1, lsl #2
    4700:	c62a0000 	strtgt	r0, [sl], -r0
    4704:	cd00000d 	stcgt	0, cr0, [r0, #-52]	@ 0xffffffcc
    4708:	00000004 	andeq	r0, r0, r4
    470c:	000c3a17 	andeq	r3, ip, r7, lsl sl
    4710:	00002300 	andeq	r2, r0, r0, lsl #6
    4714:	00180000 	andseq	r0, r8, r0
    4718:	9c010000 	stcls	0, cr0, [r1], {-0}
    471c:	000007f4 	strdeq	r0, [r0], -r4
    4720:	000c452b 	andeq	r4, ip, fp, lsr #10
    4724:	1b230100 	blne	8c4b2c <__exidx_end+0x8c3ae8>
    4728:	000001c5 	andeq	r0, r0, r5, asr #3
    472c:	2c005001 	stccs	0, cr5, [r0], {1}
    4730:	00000c80 	andeq	r0, r0, r0, lsl #25
    4734:	c50a1b01 	strgt	r1, [sl, #-2817]	@ 0xfffff4ff
    4738:	01000001 	tsteq	r0, r1
    473c:	0007f42d 	andeq	pc, r7, sp, lsr #8
    4740:	00000000 	andeq	r0, r0, r0
    4744:	00000c00 	andeq	r0, r0, r0, lsl #24
    4748:	009c0100 	addseq	r0, ip, r0, lsl #2
    474c:	000000ca 	andeq	r0, r0, sl, asr #1
    4750:	04010005 	streq	r0, [r1], #-5
    4754:	00001597 	muleq	r0, r7, r5
    4758:	00014903 	andeq	r4, r1, r3, lsl #18
    475c:	0c991d00 	ldceq	13, cr1, [r9], {0}
    4760:	00110000 	andseq	r0, r1, r0
    4764:	03280000 			@ <UNDEFINED> instruction: 0x03280000
    4768:	00000000 	andeq	r0, r0, r0
    476c:	20ef0000 	rsccs	r0, pc, r0
    4770:	3b040000 	blcc	104778 <__exidx_end+0x103734>
    4774:	03000008 	movweq	r0, #8
    4778:	55082102 	strpl	r2, [r8, #-258]	@ 0xfffffefe
    477c:	01000000 	mrseq	r0, (UNDEF: 0)
    4780:	00000b9a 	muleq	r0, sl, fp
    4784:	00006623 	andeq	r6, r0, r3, lsr #12
    4788:	db010000 	blle	44790 <__exidx_end+0x4374c>
    478c:	24000009 	strcs	r0, [r0], #-9
    4790:	00000066 	andeq	r0, r0, r6, rrx
    4794:	0ac20101 	beq	ff084ba0 <SCB_ICSR+0x1f075e9c>
    4798:	66250000 	strtvs	r0, [r5], -r0
    479c:	02000000 	andeq	r0, r0, #0
    47a0:	00260500 	eoreq	r0, r6, r0, lsl #10
    47a4:	75060000 	strvc	r0, [r6, #-0]
    47a8:	02000008 	andeq	r0, r0, #8
    47ac:	00551e14 	subseq	r1, r5, r4, lsl lr
    47b0:	01020000 	mrseq	r0, (UNDEF: 2)
    47b4:	00029c08 	andeq	r9, r2, r8, lsl #24
    47b8:	005a0700 	subseq	r0, sl, r0, lsl #14
    47bc:	16010000 	strne	r0, [r1], -r0
    47c0:	37030517 	smladcc	r3, r7, r5, r0
    47c4:	08000010 	stmdaeq	r0, {r4}
    47c8:	00000c89 	andeq	r0, r0, r9, lsl #25
    47cc:	910e2001 	tstls	lr, r1
    47d0:	00000000 	andeq	r0, r0, r0
    47d4:	04000000 	streq	r0, [r0], #-0
    47d8:	01000000 	mrseq	r0, (UNDEF: 0)
    47dc:	0704029c 			@ <UNDEFINED> instruction: 0x0704029c
    47e0:	00000076 	andeq	r0, r0, r6, ror r0
    47e4:	000a1309 	andeq	r1, sl, r9, lsl #6
    47e8:	0e190100 	mufeqe	f0, f1, f0
    47ec:	00000091 	muleq	r0, r1, r0
    47f0:	0000b601 	andeq	fp, r0, r1, lsl #12
    47f4:	083c0a00 	ldmdaeq	ip!, {r9, fp}
    47f8:	1b010000 	blne	44800 <__exidx_end+0x437bc>
    47fc:	0000910f 	andeq	r9, r0, pc, lsl #2
    4800:	980b0000 	stmdals	fp, {}	@ <UNPREDICTABLE>
    4804:	50000000 	andpl	r0, r0, r0
    4808:	0600000f 	streq	r0, [r0], -pc
    480c:	01000000 	mrseq	r0, (UNDEF: 0)
    4810:	00a90c9c 	umlaleq	r0, r9, ip, ip
    4814:	04000000 	streq	r0, [r0], #-0
    4818:	00cb0000 	sbceq	r0, fp, r0
    481c:	00050000 	andeq	r0, r5, r0
    4820:	165c0401 	ldrbne	r0, [ip], -r1, lsl #8
    4824:	49030000 	stmdbmi	r3, {}	@ <UNPREDICTABLE>
    4828:	1d000001 	stcne	0, cr0, [r0, #-4]
    482c:	00000ca8 	andeq	r0, r0, r8, lsr #25
    4830:	00000011 	andeq	r0, r0, r1, lsl r0
    4834:	00000341 	andeq	r0, r0, r1, asr #6
    4838:	00000000 	andeq	r0, r0, r0
    483c:	00002161 	andeq	r2, r0, r1, ror #2
    4840:	69050404 	stmdbvs	r5, {r2, sl}
    4844:	0100746e 	tsteq	r0, lr, ror #8
    4848:	00760704 	rsbseq	r0, r6, r4, lsl #14
    484c:	08010000 	stmdaeq	r1, {}	@ <UNPREDICTABLE>
    4850:	00008f05 	andeq	r8, r0, r5, lsl #30
    4854:	04080100 	streq	r0, [r8], #-256	@ 0xffffff00
    4858:	00000224 	andeq	r0, r0, r4, lsr #4
    485c:	9e060101 	adflss	f0, f6, f1
    4860:	01000002 	tsteq	r0, r2
    4864:	029c0801 	addseq	r0, ip, #65536	@ 0x10000
    4868:	02010000 	andeq	r0, r1, #0
    486c:	0002b505 	andeq	fp, r2, r5, lsl #10
    4870:	07020100 	streq	r0, [r2, -r0, lsl #2]
    4874:	00000136 	andeq	r0, r0, r6, lsr r1
    4878:	94050401 	strls	r0, [r5], #-1025	@ 0xfffffbff
    487c:	01000000 	mrseq	r0, (UNDEF: 0)
    4880:	00710704 	rsbseq	r0, r1, r4, lsl #14
    4884:	08010000 	stmdaeq	r1, {}	@ <UNPREDICTABLE>
    4888:	00006c07 	andeq	r6, r0, r7, lsl #24
    488c:	08010100 	stmdaeq	r1, {r8}
    4890:	000002a5 	andeq	r0, r0, r5, lsr #5
    4894:	00027c02 	andeq	r7, r2, r2, lsl #24
    4898:	005e2100 	subseq	r2, lr, r0, lsl #2
    489c:	55020000 	strpl	r0, [r2, #-0]
    48a0:	bc000007 	stclt	0, cr0, [r0], {7}
    48a4:	0000007a 	andeq	r0, r0, sl, ror r0
    48a8:	00008405 	andeq	r8, r0, r5, lsl #8
    48ac:	0cb90600 	ldceq	6, cr0, [r9]
    48b0:	11030000 	mrsne	r0, (UNDEF: 3)
    48b4:	00008e1a 	andeq	r8, r0, sl, lsl lr
    48b8:	00930700 	addseq	r0, r3, r0, lsl #14
    48bc:	30010000 	andcc	r0, r1, r0
    48c0:	70030513 	andvc	r0, r3, r3, lsl r5
    48c4:	08200010 	stmdaeq	r0!, {r4}
    48c8:	0000082f 	andeq	r0, r0, pc, lsr #16
    48cc:	58063301 	stmdapl	r6, {r0, r8, r9, ip, sp}
    48d0:	0c00000f 	stceq	0, cr0, [r0], {15}
    48d4:	01000000 	mrseq	r0, (UNDEF: 0)
    48d8:	0cb3099c 			@ <UNDEFINED> instruction: 0x0cb3099c
    48dc:	33010000 	movwcc	r0, #4096	@ 0x1000
    48e0:	0000841c 	andeq	r8, r0, ip, lsl r4
    48e4:	00500100 	subseq	r0, r0, r0, lsl #2
	...

Disassembly of section .debug_abbrev:

00000000 <.debug_abbrev>:
       0:	03000d01 	movweq	r0, #3329	@ 0xd01
       4:	3b0b3a0e 	blcc	2ce844 <__exidx_end+0x2cd800>
       8:	490b390b 	stmdbmi	fp, {r0, r1, r3, r8, fp, ip, sp}
       c:	000b3813 	andeq	r3, fp, r3, lsl r8
      10:	00490200 	subeq	r0, r9, r0, lsl #4
      14:	187e1802 	ldmdane	lr!, {r1, fp, ip}^
      18:	16030000 	strne	r0, [r3], -r0
      1c:	3a0e0300 	bcc	380c24 <__exidx_end+0x37fbe0>
      20:	390b3b0b 	stmdbcc	fp, {r0, r1, r3, r8, r9, fp, ip, sp}
      24:	0013490b 	andseq	r4, r3, fp, lsl #18
      28:	000f0400 	andeq	r0, pc, r0, lsl #8
      2c:	4904210b 	stmdbmi	r4, {r0, r1, r3, r8, sp}
      30:	05000013 	streq	r0, [r0, #-19]	@ 0xffffffed
      34:	0b0b0024 	bleq	2c00cc <__exidx_end+0x2bf088>
      38:	0e030b3e 	vmoveq.16	d3[0], r0
      3c:	05060000 	streq	r0, [r6, #-0]
      40:	00134900 	andseq	r4, r3, r0, lsl #18
      44:	01480700 	cmpeq	r8, r0, lsl #14
      48:	137f017d 	cmnne	pc, #1073741855	@ 0x4000001f
      4c:	00001301 	andeq	r1, r0, r1, lsl #6
      50:	03003408 	movweq	r3, #1032	@ 0x408
      54:	05213a0e 	streq	r3, [r1, #-2574]!	@ 0xfffff5f2
      58:	0b390b3b 	bleq	e42d4c <__exidx_end+0xe41d08>
      5c:	193f1349 	ldmdbne	pc!, {r0, r3, r6, r8, r9, ip}	@ <UNPREDICTABLE>
      60:	0000193c 	andeq	r1, r0, ip, lsr r9
      64:	47003409 	strmi	r3, [r0, -r9, lsl #8]
      68:	01213a13 			@ <UNDEFINED> instruction: 0x01213a13
      6c:	0b390b3b 	bleq	e42d60 <__exidx_end+0xe41d1c>
      70:	00001802 	andeq	r1, r0, r2, lsl #16
      74:	4900260a 	stmdbmi	r0, {r1, r3, r9, sl, sp}
      78:	0b000013 	bleq	cc <SysTick_Handler>
      7c:	0e030113 	mcreq	1, 0, r0, cr3, cr3, {0}
      80:	01880b0b 	orreq	r0, r8, fp, lsl #22
      84:	213a0421 	teqcs	sl, r1, lsr #8
      88:	390b3b04 	stmdbcc	fp, {r2, r8, r9, fp, ip, sp}
      8c:	13010921 	movwne	r0, #6433	@ 0x1921
      90:	2e0c0000 	cdpcs	0, 0, cr0, cr12, cr0, {0}
      94:	03193f01 	tsteq	r9, #1, 30
      98:	01213a0e 			@ <UNDEFINED> instruction: 0x01213a0e
      9c:	21390b3b 	teqcs	r9, fp, lsr fp
      a0:	11192706 	tstne	r9, r6, lsl #14
      a4:	40061201 	andmi	r1, r6, r1, lsl #4
      a8:	01197a18 	tsteq	r9, r8, lsl sl
      ac:	0d000013 	stceq	0, cr0, [r0, #-76]	@ 0xffffffb4
      b0:	0e03000d 	cdpeq	0, 0, cr0, cr3, cr13, {0}
      b4:	3b04213a 	blcc	1085a4 <__exidx_end+0x107560>
      b8:	490b390b 	stmdbmi	fp, {r0, r1, r3, r8, fp, ip, sp}
      bc:	21018813 	tstcs	r1, r3, lsl r8
      c0:	000b3804 	andeq	r3, fp, r4, lsl #16
      c4:	000d0e00 	andeq	r0, sp, r0, lsl #28
      c8:	0b3a0803 	bleq	e820dc <__exidx_end+0xe81098>
      cc:	0b390b3b 	bleq	e42dc0 <__exidx_end+0xe41d7c>
      d0:	0b381349 	bleq	e04dfc <__exidx_end+0xe03db8>
      d4:	340f0000 	strcc	r0, [pc], #-0	@ dc <SysTick_Handler+0x10>
      d8:	3a0e0300 	bcc	380ce0 <__exidx_end+0x37fc9c>
      dc:	0b3b0121 	bleq	ec0568 <__exidx_end+0xebf524>
      e0:	13490b39 	movtne	r0, #39737	@ 0x9b39
      e4:	1802193f 	stmdane	r2, {r0, r1, r2, r3, r4, r5, r8, fp, ip}
      e8:	2e100000 	cdpcs	0, 1, cr0, cr0, cr0, {0}
      ec:	03193f01 	tsteq	r9, #1, 30
      f0:	06213a0e 	strteq	r3, [r1], -lr, lsl #20
      f4:	21390b3b 	teqcs	r9, fp, lsr fp
      f8:	49192708 	ldmdbmi	r9, {r3, r8, r9, sl, sp}
      fc:	01193c13 	tsteq	r9, r3, lsl ip
     100:	11000013 	tstne	r0, r3, lsl r0
     104:	0e030005 	cdpeq	0, 0, cr0, cr3, cr5, {0}
     108:	3b01213a 	blcc	485f8 <__exidx_end+0x475b4>
     10c:	1221390b 	eorne	r3, r1, #180224	@ 0x2c000
     110:	17021349 	strne	r1, [r2, -r9, asr #6]
     114:	001742b7 			@ <UNDEFINED> instruction: 0x001742b7
     118:	01481200 	mrseq	r1, (UNDEF: 104)
     11c:	137f017d 	cmnne	pc, #1073741855	@ 0x4000001f
     120:	2e130000 	cdpcs	0, 1, cr0, cr3, cr0, {0}
     124:	03193f01 	tsteq	r9, #1, 30
     128:	06213a0e 	strteq	r3, [r1], -lr, lsl #20
     12c:	2139053b 	teqcs	r9, fp, lsr r5
     130:	49192708 	ldmdbmi	r9, {r3, r8, r9, sl, sp}
     134:	01193c13 	tsteq	r9, r3, lsl ip
     138:	14000013 	strne	r0, [r0], #-19	@ 0xffffffed
     13c:	1755010b 	ldrbne	r0, [r5, -fp, lsl #2]
     140:	34150000 	ldrcc	r0, [r5], #-0
     144:	3a0e0300 	bcc	380d4c <__exidx_end+0x37fd08>
     148:	0b3b0121 	bleq	ec05d4 <__exidx_end+0xebf590>
     14c:	13490b39 	movtne	r0, #39737	@ 0x9b39
     150:	00001802 	andeq	r1, r0, r2, lsl #16
     154:	25011116 	strcs	r1, [r1, #-278]	@ 0xfffffeea
     158:	030b130e 	movweq	r1, #45838	@ 0xb30e
     15c:	550e1b0e 	strpl	r1, [lr, #-2830]	@ 0xfffff4f2
     160:	10011117 	andne	r1, r1, r7, lsl r1
     164:	17000017 	smladne	r0, r7, r0, r0
     168:	0b0b0024 	bleq	2c0200 <__exidx_end+0x2bf1bc>
     16c:	08030b3e 	stmdaeq	r3, {r1, r2, r3, r4, r5, r8, r9, fp}
     170:	35180000 	ldrcc	r0, [r8, #-0]
     174:	00134900 	andseq	r4, r3, r0, lsl #18
     178:	01131900 	tsteq	r3, r0, lsl #18
     17c:	0b3a0b0b 	bleq	e82db0 <__exidx_end+0xe81d6c>
     180:	0b390b3b 	bleq	e42e74 <__exidx_end+0xe41e30>
     184:	00001301 	andeq	r1, r0, r1, lsl #6
     188:	0300161a 	movweq	r1, #1562	@ 0x61a
     18c:	3b0b3a0e 	blcc	2ce9cc <__exidx_end+0x2cd988>
     190:	000b390b 	andeq	r3, fp, fp, lsl #18
     194:	00161b00 	andseq	r1, r6, r0, lsl #22
     198:	0b3a0803 	bleq	e821ac <__exidx_end+0xe81168>
     19c:	0b390b3b 	bleq	e42e90 <__exidx_end+0xe41e4c>
     1a0:	00001349 	andeq	r1, r0, r9, asr #6
     1a4:	0b000f1c 	bleq	3e1c <__exidx_end+0x2dd8>
     1a8:	1d00000b 	stcne	0, cr0, [r0, #-44]	@ 0xffffffd4
     1ac:	0e030016 	mcreq	0, 0, r0, cr3, cr6, {0}
     1b0:	053b0b3a 	ldreq	r0, [fp, #-2874]!	@ 0xfffff4c6
     1b4:	13490b39 	movtne	r0, #39737	@ 0x9b39
     1b8:	011e0000 	tsteq	lr, r0
     1bc:	01134901 	tsteq	r3, r1, lsl #18
     1c0:	1f000013 	svcne	0x00000013
     1c4:	13490021 	movtne	r0, #36897	@ 0x9021
     1c8:	00000b2f 	andeq	r0, r0, pc, lsr #22
     1cc:	3f012e20 	svccc	0x00012e20
     1d0:	3a0e0319 	bcc	380e3c <__exidx_end+0x37fdf8>
     1d4:	39053b0b 	stmdbcc	r5, {r0, r1, r3, r8, r9, fp, ip, sp}
     1d8:	3c19270b 	ldccc	7, cr2, [r9], {11}
     1dc:	00130119 	andseq	r0, r3, r9, lsl r1
     1e0:	00342100 	eorseq	r2, r4, r0, lsl #2
     1e4:	0b3a0803 	bleq	e821f8 <__exidx_end+0xe811b4>
     1e8:	0b390b3b 	bleq	e42edc <__exidx_end+0xe41e98>
     1ec:	17021349 	strne	r1, [r2, -r9, asr #6]
     1f0:	001742b7 			@ <UNDEFINED> instruction: 0x001742b7
     1f4:	00342200 	eorseq	r2, r4, r0, lsl #4
     1f8:	0b3a0e03 	bleq	e83a0c <__exidx_end+0xe829c8>
     1fc:	0b390b3b 	bleq	e42ef0 <__exidx_end+0xe41eac>
     200:	17021349 	strne	r1, [r2, -r9, asr #6]
     204:	001742b7 			@ <UNDEFINED> instruction: 0x001742b7
     208:	01482300 	mrseq	r2, (UNDEF: 120)
     20c:	0182017d 	orreq	r0, r2, sp, ror r1
     210:	00137f19 	andseq	r7, r3, r9, lsl pc
     214:	00052400 	andeq	r2, r5, r0, lsl #8
     218:	0b3a0803 	bleq	e8222c <__exidx_end+0xe811e8>
     21c:	0b390b3b 	bleq	e42f10 <__exidx_end+0xe41ecc>
     220:	17021349 	strne	r1, [r2, -r9, asr #6]
     224:	001742b7 			@ <UNDEFINED> instruction: 0x001742b7
     228:	011d2500 	tsteq	sp, r0, lsl #10
     22c:	01521331 	cmpeq	r2, r1, lsr r3
     230:	550b42b8 	strpl	r4, [fp, #-696]	@ 0xfffffd48
     234:	590b5817 	stmdbpl	fp, {r0, r1, r2, r4, fp, ip, lr}
     238:	000b570b 	andeq	r5, fp, fp, lsl #14
     23c:	00052600 	andeq	r2, r5, r0, lsl #12
     240:	17021331 	smladxne	r2, r1, r3, r1
     244:	001742b7 			@ <UNDEFINED> instruction: 0x001742b7
     248:	012e2700 			@ <UNDEFINED> instruction: 0x012e2700
     24c:	0e03193f 			@ <UNDEFINED> instruction: 0x0e03193f
     250:	0b3b0b3a 	bleq	ec2f40 <__exidx_end+0xec1efc>
     254:	19270b39 	stmdbne	r7!, {r0, r3, r4, r5, r8, r9, fp}
     258:	13010b20 	movwne	r0, #6944	@ 0x1b20
     25c:	05280000 	streq	r0, [r8, #-0]!
     260:	3a080300 	bcc	200e68 <__exidx_end+0x1ffe24>
     264:	390b3b0b 	stmdbcc	fp, {r0, r1, r3, r8, r9, fp, ip, sp}
     268:	0013490b 	andseq	r4, r3, fp, lsl #18
     26c:	012e2900 			@ <UNDEFINED> instruction: 0x012e2900
     270:	01111331 	tsteq	r1, r1, lsr r3
     274:	18400612 	stmdane	r0, {r1, r4, r9, sl}^
     278:	0000197a 	andeq	r1, r0, sl, ror r9
     27c:	3100052a 	tstcc	r0, sl, lsr #10
     280:	00180213 	andseq	r0, r8, r3, lsl r2
     284:	0d010000 	stceq	0, cr0, [r1, #-0]
     288:	3a0e0300 	bcc	380e90 <__exidx_end+0x37fe4c>
     28c:	390b3b0b 	stmdbcc	fp, {r0, r1, r3, r8, r9, fp, ip, sp}
     290:	3813490b 	ldmdacc	r3, {r0, r1, r3, r8, fp, lr}
     294:	0200000b 	andeq	r0, r0, #11
     298:	18020049 	stmdane	r2, {r0, r3, r6}
     29c:	0000187e 	andeq	r1, r0, lr, ror r8
     2a0:	49000503 	stmdbmi	r0, {r0, r1, r8, sl}
     2a4:	04000013 	streq	r0, [r0], #-19	@ 0xffffffed
     2a8:	0e030016 	mcreq	0, 0, r0, cr3, cr6, {0}
     2ac:	0b3b0b3a 	bleq	ec2f9c <__exidx_end+0xec1f58>
     2b0:	13490b39 	movtne	r0, #39737	@ 0x9b39
     2b4:	24050000 	strcs	r0, [r5], #-0
     2b8:	3e0b0b00 	vmlacc.f64	d0, d11, d0
     2bc:	000e030b 	andeq	r0, lr, fp, lsl #6
     2c0:	000f0600 	andeq	r0, pc, r0, lsl #12
     2c4:	4904210b 	stmdbmi	r4, {r0, r1, r3, r8, sp}
     2c8:	07000013 	smladeq	r0, r3, r0, r0
     2cc:	017d0148 	cmneq	sp, r8, asr #2
     2d0:	1301137f 	movwne	r1, #4991	@ 0x137f
     2d4:	26080000 	strcs	r0, [r8], -r0
     2d8:	00134900 	andseq	r4, r3, r0, lsl #18
     2dc:	00340900 	eorseq	r0, r4, r0, lsl #18
     2e0:	213a0e03 	teqcs	sl, r3, lsl #28
     2e4:	390b3b05 	stmdbcc	fp, {r0, r2, r8, r9, fp, ip, sp}
     2e8:	3f13490b 	svccc	0x0013490b
     2ec:	00193c19 	andseq	r3, r9, r9, lsl ip
     2f0:	01130a00 	tsteq	r3, r0, lsl #20
     2f4:	0b0b0e03 	bleq	2c3b08 <__exidx_end+0x2c2ac4>
     2f8:	04210188 	strteq	r0, [r1], #-392	@ 0xfffffe78
     2fc:	3b04213a 	blcc	1087ec <__exidx_end+0x1077a8>
     300:	0921390b 	stmdbeq	r1!, {r0, r1, r3, r8, fp, ip, sp}
     304:	00001301 	andeq	r1, r0, r1, lsl #6
     308:	3f012e0b 	svccc	0x00012e0b
     30c:	3a0e0319 	bcc	380f78 <__exidx_end+0x37ff34>
     310:	390b3b0b 	stmdbcc	fp, {r0, r1, r3, r8, r9, fp, ip, sp}
     314:	19270621 	stmdbne	r7!, {r0, r5, r9, sl}
     318:	1301193c 	movwne	r1, #6460	@ 0x193c
     31c:	0d0c0000 	stceq	0, cr0, [ip, #-0]
     320:	3a080300 	bcc	200f28 <__exidx_end+0x1ffee4>
     324:	390b3b0b 	stmdbcc	fp, {r0, r1, r3, r8, r9, fp, ip, sp}
     328:	3813490b 	ldmdacc	r3, {r0, r1, r3, r8, fp, lr}
     32c:	0d00000b 	stceq	0, cr0, [r0, #-44]	@ 0xffffffd4
     330:	0e03000d 	cdpeq	0, 0, cr0, cr3, cr13, {0}
     334:	3b04213a 	blcc	108824 <__exidx_end+0x1077e0>
     338:	490b390b 	stmdbmi	fp, {r0, r1, r3, r8, fp, ip, sp}
     33c:	21018813 	tstcs	r1, r3, lsl r8
     340:	000b3804 	andeq	r3, fp, r4, lsl #16
     344:	012e0e00 			@ <UNDEFINED> instruction: 0x012e0e00
     348:	0e03193f 			@ <UNDEFINED> instruction: 0x0e03193f
     34c:	0b3b0b3a 	bleq	ec303c <__exidx_end+0xec1ff8>
     350:	19270b39 	stmdbne	r7!, {r0, r3, r4, r5, r8, r9, fp}
     354:	193c1349 	ldmdbne	ip!, {r0, r3, r6, r8, r9, ip}
     358:	00001301 	andeq	r1, r0, r1, lsl #6
     35c:	2501110f 	strcs	r1, [r1, #-271]	@ 0xfffffef1
     360:	030b130e 	movweq	r1, #45838	@ 0xb30e
     364:	550e1b0e 	strpl	r1, [lr, #-2830]	@ 0xfffff4f2
     368:	10011117 	andne	r1, r1, r7, lsl r1
     36c:	10000017 	andne	r0, r0, r7, lsl r0
     370:	0b0b0024 	bleq	2c0408 <__exidx_end+0x2bf3c4>
     374:	08030b3e 	stmdaeq	r3, {r1, r2, r3, r4, r5, r8, r9, fp}
     378:	35110000 	ldrcc	r0, [r1, #-0]
     37c:	00134900 	andseq	r4, r3, r0, lsl #18
     380:	01131200 	tsteq	r3, r0, lsl #4
     384:	0b3a0b0b 	bleq	e82fb8 <__exidx_end+0xe81f74>
     388:	0b390b3b 	bleq	e4307c <__exidx_end+0xe42038>
     38c:	00001301 	andeq	r1, r0, r1, lsl #6
     390:	03001613 	movweq	r1, #1555	@ 0x613
     394:	3b0b3a0e 	blcc	2cebd4 <__exidx_end+0x2cdb90>
     398:	000b390b 	andeq	r3, fp, fp, lsl #18
     39c:	00161400 	andseq	r1, r6, r0, lsl #8
     3a0:	0b3a0803 	bleq	e823b4 <__exidx_end+0xe81370>
     3a4:	0b390b3b 	bleq	e43098 <__exidx_end+0xe42054>
     3a8:	00001349 	andeq	r1, r0, r9, asr #6
     3ac:	0b000f15 	bleq	4008 <__exidx_end+0x2fc4>
     3b0:	1600000b 	strne	r0, [r0], -fp
     3b4:	19270115 	stmdbne	r7!, {r0, r2, r4, r8}
     3b8:	00001301 	andeq	r1, r0, r1, lsl #6
     3bc:	49010117 	stmdbmi	r1, {r0, r1, r2, r4, r8}
     3c0:	00130113 	andseq	r0, r3, r3, lsl r1
     3c4:	00211800 	eoreq	r1, r1, r0, lsl #16
     3c8:	0b2f1349 	bleq	bc50f4 <__exidx_end+0xbc40b0>
     3cc:	2e190000 	cdpcs	0, 1, cr0, cr9, cr0, {0}
     3d0:	03193f00 	tsteq	r9, #0, 30
     3d4:	3b0b3a0e 	blcc	2cec14 <__exidx_end+0x2cdbd0>
     3d8:	270b390b 	strcs	r3, [fp, -fp, lsl #18]
     3dc:	00193c19 	andseq	r3, r9, r9, lsl ip
     3e0:	012e1a00 			@ <UNDEFINED> instruction: 0x012e1a00
     3e4:	0e03193f 			@ <UNDEFINED> instruction: 0x0e03193f
     3e8:	0b3b0b3a 	bleq	ec30d8 <__exidx_end+0xec2094>
     3ec:	19270b39 	stmdbne	r7!, {r0, r3, r4, r5, r8, r9, fp}
     3f0:	01111349 	tsteq	r1, r9, asr #6
     3f4:	18400612 	stmdane	r0, {r1, r4, r9, sl}^
     3f8:	0000197a 	andeq	r1, r0, sl, ror r9
     3fc:	7d00481b 	stcvc	8, cr4, [r0, #-108]	@ 0xffffff94
     400:	00137f01 	andseq	r7, r3, r1, lsl #30
     404:	24010000 	strcs	r0, [r1], #-0
     408:	3e0b0b00 	vmlacc.f64	d0, d11, d0
     40c:	000e030b 	andeq	r0, lr, fp, lsl #6
     410:	00340200 	eorseq	r0, r4, r0, lsl #4
     414:	213a0e03 	teqcs	sl, r3, lsl #28
     418:	390b3b01 	stmdbcc	fp, {r0, r8, r9, fp, ip, sp}
     41c:	13491121 	movtne	r1, #37153	@ 0x9121
     420:	193c193f 	ldmdbne	ip!, {r0, r1, r2, r3, r4, r5, r8, fp, ip}
     424:	2e030000 	cdpcs	0, 0, cr0, cr3, cr0, {0}
     428:	03193f00 	tsteq	r9, #0, 30
     42c:	01213a0e 			@ <UNDEFINED> instruction: 0x01213a0e
     430:	21390b3b 	teqcs	r9, fp, lsr fp
     434:	3c192706 	ldccc	7, cr2, [r9], {6}
     438:	04000019 	streq	r0, [r0], #-25	@ 0xffffffe7
     43c:	0e030016 	mcreq	0, 0, r0, cr3, cr6, {0}
     440:	0b3b0b3a 	bleq	ec3130 <__exidx_end+0xec20ec>
     444:	13490b39 	movtne	r0, #39737	@ 0x9b39
     448:	26050000 	strcs	r0, [r5], -r0
     44c:	00134900 	andseq	r4, r3, r0, lsl #18
     450:	000f0600 	andeq	r0, pc, r0, lsl #12
     454:	4904210b 	stmdbmi	r4, {r0, r1, r3, r8, sp}
     458:	07000013 	smladeq	r0, r3, r0, r0
     45c:	0e030034 	mcreq	0, 0, r0, cr3, cr4, {1}
     460:	3b01213a 	blcc	48950 <__exidx_end+0x4790c>
     464:	490b390b 	stmdbmi	fp, {r0, r1, r3, r8, fp, ip, sp}
     468:	08000013 	stmdaeq	r0, {r0, r1, r4}
     46c:	017d0048 	cmneq	sp, r8, asr #32
     470:	0000137f 	andeq	r1, r0, pc, ror r3
     474:	3f002e09 	svccc	0x00002e09
     478:	6e193c19 	mrcvs	12, 0, r3, cr9, cr9, {0}
     47c:	3a0e030e 	bcc	3810bc <__exidx_end+0x380078>
     480:	213b0421 	teqcs	fp, r1, lsr #8
     484:	0a000000 	beq	48c <kMboxPost+0xc8>
     488:	0e250111 	mcreq	1, 1, r0, cr5, cr1, {0}
     48c:	0e030b13 	vmoveq.32	d3[0], r0
     490:	17550e1b 	smmlane	r5, fp, lr, r0
     494:	17100111 			@ <UNDEFINED> instruction: 0x17100111
     498:	240b0000 	strcs	r0, [fp], #-0
     49c:	3e0b0b00 	vmlacc.f64	d0, d11, d0
     4a0:	0008030b 	andeq	r0, r8, fp, lsl #6
     4a4:	01010c00 	tsteq	r1, r0, lsl #24
     4a8:	13011349 	movwne	r1, #4937	@ 0x1349
     4ac:	210d0000 	mrscs	r0, (UNDEF: 13)
     4b0:	2f134900 	svccs	0x00134900
     4b4:	0e00000b 	cdpeq	0, 0, cr0, cr0, cr11, {0}
     4b8:	19270015 	stmdbne	r7!, {r0, r2, r4}
     4bc:	340f0000 	strcc	r0, [pc], #-0	@ 4c4 <kMboxPost+0x100>
     4c0:	3a0e0300 	bcc	3810c8 <__exidx_end+0x380084>
     4c4:	390b3b0b 	stmdbcc	fp, {r0, r1, r3, r8, r9, fp, ip, sp}
     4c8:	3f13490b 	svccc	0x0013490b
     4cc:	00180219 	andseq	r0, r8, r9, lsl r2
     4d0:	002e1000 	eoreq	r1, lr, r0
     4d4:	0e03193f 			@ <UNDEFINED> instruction: 0x0e03193f
     4d8:	0b3b0b3a 	bleq	ec31c8 <__exidx_end+0xec2184>
     4dc:	19270b39 	stmdbne	r7!, {r0, r3, r4, r5, r8, r9, fp}
     4e0:	193c1349 	ldmdbne	ip!, {r0, r3, r6, r8, r9, ip}
     4e4:	2e110000 	cdpcs	0, 1, cr0, cr1, cr0, {0}
     4e8:	03193f00 	tsteq	r9, #0, 30
     4ec:	3b0b3a0e 	blcc	2ced2c <__exidx_end+0x2cdce8>
     4f0:	270b390b 	strcs	r3, [fp, -fp, lsl #18]
     4f4:	12011119 	andne	r1, r1, #1073741830	@ 0x40000006
     4f8:	7a184006 	bvc	610518 <__exidx_end+0x60f4d4>
     4fc:	12000019 	andne	r0, r0, #25
     500:	193f012e 	ldmdbne	pc!, {r1, r2, r3, r5, r8}	@ <UNPREDICTABLE>
     504:	0b3a0e03 	bleq	e83d18 <__exidx_end+0xe82cd4>
     508:	0b390b3b 	bleq	e431fc <__exidx_end+0xe421b8>
     50c:	01111927 	tsteq	r1, r7, lsr #18
     510:	18400612 	stmdane	r0, {r1, r4, r9, sl}^
     514:	1301197a 	movwne	r1, #6522	@ 0x197a
     518:	48130000 	ldmdami	r3, {}	@ <UNPREDICTABLE>
     51c:	7f017d01 	svcvc	0x00017d01
     520:	00130113 	andseq	r0, r3, r3, lsl r1
     524:	00491400 	subeq	r1, r9, r0, lsl #8
     528:	187e1802 	ldmdane	lr!, {r1, fp, ip}^
     52c:	2e150000 	cdpcs	0, 1, cr0, cr5, cr0, {0}
     530:	03193f00 	tsteq	r9, #0, 30
     534:	3b0b3a0e 	blcc	2ced74 <__exidx_end+0x2cdd30>
     538:	270b390b 	strcs	r3, [fp, -fp, lsl #18]
     53c:	000b2019 	andeq	r2, fp, r9, lsl r0
     540:	002e1600 	eoreq	r1, lr, r0, lsl #12
     544:	01111331 	tsteq	r1, r1, lsr r3
     548:	18400612 	stmdane	r0, {r1, r4, r9, sl}^
     54c:	0000197a 	andeq	r1, r0, sl, ror r9
     550:	000d0100 	andeq	r0, sp, r0, lsl #2
     554:	213a0e03 	teqcs	sl, r3, lsl #28
     558:	390b3b02 	stmdbcc	fp, {r1, r8, r9, fp, ip, sp}
     55c:	3813490b 	ldmdacc	r3, {r0, r1, r3, r8, fp, lr}
     560:	0200000b 	andeq	r0, r0, #11
     564:	0e030005 	cdpeq	0, 0, cr0, cr3, cr5, {0}
     568:	3b01213a 	blcc	48a58 <__exidx_end+0x47a14>
     56c:	490b390b 	stmdbmi	fp, {r0, r1, r3, r8, fp, ip, sp}
     570:	b7170213 			@ <UNDEFINED> instruction: 0xb7170213
     574:	00001742 	andeq	r1, r0, r2, asr #14
     578:	03000d03 	movweq	r0, #3331	@ 0xd03
     57c:	02213a0e 	eoreq	r3, r1, #57344	@ 0xe000
     580:	0b390b3b 	bleq	e43274 <__exidx_end+0xe42230>
     584:	05381349 	ldreq	r1, [r8, #-841]!	@ 0xfffffcb7
     588:	01040000 	mrseq	r0, (UNDEF: 4)
     58c:	01134901 	tsteq	r3, r1, lsl #18
     590:	05000013 	streq	r0, [r0, #-19]	@ 0xffffffed
     594:	13490035 	movtne	r0, #36917	@ 0x9035
     598:	21060000 	mrscs	r0, (UNDEF: 6)
     59c:	2f134900 	svccs	0x00134900
     5a0:	0700000b 	streq	r0, [r0, -fp]
     5a4:	193f012e 	ldmdbne	pc!, {r1, r2, r3, r5, r8}	@ <UNPREDICTABLE>
     5a8:	213a0e03 	teqcs	sl, r3, lsl #28
     5ac:	390b3b01 	stmdbcc	fp, {r0, r8, r9, fp, ip, sp}
     5b0:	19270621 	stmdbne	r7!, {r0, r5, r9, sl}
     5b4:	06120111 			@ <UNDEFINED> instruction: 0x06120111
     5b8:	197a1840 	ldmdbne	sl!, {r6, fp, ip}^
     5bc:	00001301 	andeq	r1, r0, r1, lsl #6
     5c0:	03000d08 	movweq	r0, #3336	@ 0xd08
     5c4:	02213a08 	eoreq	r3, r1, #8, 20	@ 0x8000
     5c8:	0b390b3b 	bleq	e432bc <__exidx_end+0xe42278>
     5cc:	0b381349 	bleq	e052f8 <__exidx_end+0xe042b4>
     5d0:	16090000 	strne	r0, [r9], -r0
     5d4:	3a0e0300 	bcc	3811dc <__exidx_end+0x380198>
     5d8:	0b3b0221 	bleq	ec0e64 <__exidx_end+0xebfe20>
     5dc:	49032139 	stmdbmi	r3, {r0, r3, r4, r5, r8, sp}
     5e0:	0a000013 	beq	634 <kInitTcb_>
     5e4:	193f002e 	ldmdbne	pc!, {r1, r2, r3, r5}	@ <UNPREDICTABLE>
     5e8:	213a0e03 	teqcs	sl, r3, lsl #28
     5ec:	390b3b01 	stmdbcc	fp, {r0, r8, r9, fp, ip, sp}
     5f0:	19270621 	stmdbne	r7!, {r0, r5, r9, sl}
     5f4:	06120111 			@ <UNDEFINED> instruction: 0x06120111
     5f8:	197a1840 	ldmdbne	sl!, {r6, fp, ip}^
     5fc:	2e0b0000 	cdpcs	0, 0, cr0, cr11, cr0, {0}
     600:	03193f01 	tsteq	r9, #1, 30
     604:	01213a0e 			@ <UNDEFINED> instruction: 0x01213a0e
     608:	21390b3b 	teqcs	r9, fp, lsr fp
     60c:	4919270a 	ldmdbmi	r9, {r1, r3, r8, r9, sl, sp}
     610:	12011113 	andne	r1, r1, #-1073741820	@ 0xc0000004
     614:	7a184006 	bvc	610634 <__exidx_end+0x60f5f0>
     618:	00130119 	andseq	r0, r3, r9, lsl r1
     61c:	01130c00 	tsteq	r3, r0, lsl #24
     620:	213a0b0b 	teqcs	sl, fp, lsl #22
     624:	390b3b02 	stmdbcc	fp, {r1, r8, r9, fp, ip, sp}
     628:	13010921 	movwne	r0, #6433	@ 0x1921
     62c:	240d0000 	strcs	r0, [sp], #-0
     630:	3e0b0b00 	vmlacc.f64	d0, d11, d0
     634:	000e030b 	andeq	r0, lr, fp, lsl #6
     638:	002e0e00 	eoreq	r0, lr, r0, lsl #28
     63c:	0e03193f 			@ <UNDEFINED> instruction: 0x0e03193f
     640:	3b01213a 	blcc	48b30 <__exidx_end+0x47aec>
     644:	0a21390b 	beq	84ea78 <__exidx_end+0x84da34>
     648:	13491927 	movtne	r1, #39207	@ 0x9927
     64c:	06120111 			@ <UNDEFINED> instruction: 0x06120111
     650:	197a1840 	ldmdbne	sl!, {r6, fp, ip}^
     654:	340f0000 	strcc	r0, [pc], #-0	@ 65c <kInitTcb_+0x28>
     658:	3a0e0300 	bcc	381260 <__exidx_end+0x38021c>
     65c:	0b3b0121 	bleq	ec0ae8 <__exidx_end+0xebfaa4>
     660:	490e2139 	stmdbmi	lr, {r0, r3, r4, r5, r8, sp}
     664:	b7170213 			@ <UNDEFINED> instruction: 0xb7170213
     668:	00001742 	andeq	r1, r0, r2, asr #14
     66c:	25011110 	strcs	r1, [r1, #-272]	@ 0xfffffef0
     670:	030b130e 	movweq	r1, #45838	@ 0xb30e
     674:	550e1b0e 	strpl	r1, [lr, #-2830]	@ 0xfffff4f2
     678:	10011117 	andne	r1, r1, r7, lsl r1
     67c:	11000017 	tstne	r0, r7, lsl r0
     680:	050b0113 	streq	r0, [fp, #-275]	@ 0xfffffeed
     684:	0b3b0b3a 	bleq	ec3374 <__exidx_end+0xec2330>
     688:	13010b39 	movwne	r0, #6969	@ 0x1b39
     68c:	0d120000 	ldceq	0, cr0, [r2, #-0]
     690:	3a080300 	bcc	201298 <__exidx_end+0x200254>
     694:	390b3b0b 	stmdbcc	fp, {r0, r1, r3, r8, r9, fp, ip, sp}
     698:	3813490b 	ldmdacc	r3, {r0, r1, r3, r8, fp, lr}
     69c:	13000005 	movwne	r0, #5
     6a0:	13490021 	movtne	r0, #36897	@ 0x9021
     6a4:	0000052f 	andeq	r0, r0, pc, lsr #10
     6a8:	0b002414 	bleq	9700 <__exidx_end+0x86bc>
     6ac:	030b3e0b 	movweq	r3, #48651	@ 0xbe0b
     6b0:	15000008 	strne	r0, [r0, #-8]
     6b4:	193f012e 	ldmdbne	pc!, {r1, r2, r3, r5, r8}	@ <UNPREDICTABLE>
     6b8:	0b3a0e03 	bleq	e83ecc <__exidx_end+0xe82e88>
     6bc:	0b390b3b 	bleq	e433b0 <__exidx_end+0xe4236c>
     6c0:	13491927 	movtne	r1, #39207	@ 0x9927
     6c4:	06120111 			@ <UNDEFINED> instruction: 0x06120111
     6c8:	197a1840 	ldmdbne	sl!, {r6, fp, ip}^
     6cc:	01000000 	mrseq	r0, (UNDEF: 0)
     6d0:	0e03000d 	cdpeq	0, 0, cr0, cr3, cr13, {0}
     6d4:	0b3b0b3a 	bleq	ec33c4 <__exidx_end+0xec2380>
     6d8:	13490b39 	movtne	r0, #39737	@ 0x9b39
     6dc:	00000b38 	andeq	r0, r0, r8, lsr fp
     6e0:	02004902 	andeq	r4, r0, #32768	@ 0x8000
     6e4:	00187e18 	andseq	r7, r8, r8, lsl lr
     6e8:	01480300 	mrseq	r0, (UNDEF: 120)
     6ec:	137f017d 	cmnne	pc, #1073741855	@ 0x4000001f
     6f0:	00001301 	andeq	r1, r0, r1, lsl #6
     6f4:	03001604 	movweq	r1, #1540	@ 0x604
     6f8:	3b0b3a0e 	blcc	2cef38 <__exidx_end+0x2cdef4>
     6fc:	490b390b 	stmdbmi	fp, {r0, r1, r3, r8, fp, ip, sp}
     700:	05000013 	streq	r0, [r0, #-19]	@ 0xffffffed
     704:	017d0048 	cmneq	sp, r8, asr #32
     708:	0000137f 	andeq	r1, r0, pc, ror r3
     70c:	0b000f06 	bleq	432c <__exidx_end+0x32e8>
     710:	13490421 	movtne	r0, #37921	@ 0x9421
     714:	05070000 	streq	r0, [r7, #-0]
     718:	3a0e0300 	bcc	381320 <__exidx_end+0x3802dc>
     71c:	0b3b0121 	bleq	ec0ba8 <__exidx_end+0xebfb64>
     720:	13490b39 	movtne	r0, #39737	@ 0x9b39
     724:	42b71702 	adcsmi	r1, r7, #524288	@ 0x80000
     728:	08000017 	stmdaeq	r0, {r0, r1, r2, r4}
     72c:	0b0b0024 	bleq	2c07c4 <__exidx_end+0x2bf780>
     730:	0e030b3e 	vmoveq.16	d3[0], r0
     734:	05090000 	streq	r0, [r9, #-0]
     738:	00134900 	andseq	r4, r3, r0, lsl #18
     73c:	00260a00 	eoreq	r0, r6, r0, lsl #20
     740:	00001349 	andeq	r1, r0, r9, asr #6
     744:	03000d0b 	movweq	r0, #3339	@ 0xd0b
     748:	3b0b3a08 	blcc	2cef70 <__exidx_end+0x2cdf2c>
     74c:	490b390b 	stmdbmi	fp, {r0, r1, r3, r8, fp, ip, sp}
     750:	000b3813 	andeq	r3, fp, r3, lsl r8
     754:	01130c00 	tsteq	r3, r0, lsl #24
     758:	0b0b0e03 	bleq	2c3f6c <__exidx_end+0x2c2f28>
     75c:	04210188 	strteq	r0, [r1], #-392	@ 0xfffffe78
     760:	3b05213a 	blcc	148c50 <__exidx_end+0x147c0c>
     764:	0921390b 	stmdbeq	r1!, {r0, r1, r3, r8, fp, ip, sp}
     768:	00001301 	andeq	r1, r0, r1, lsl #6
     76c:	3f012e0d 	svccc	0x00012e0d
     770:	3a0e0319 	bcc	3813dc <__exidx_end+0x380398>
     774:	0b3b0121 	bleq	ec0c00 <__exidx_end+0xebfbbc>
     778:	27082139 	smladxcs	r8, r9, r1, r2
     77c:	11134919 	tstne	r3, r9, lsl r9
     780:	40061201 	andmi	r1, r6, r1, lsl #4
     784:	01197a18 	tsteq	r9, r8, lsl sl
     788:	0e000013 	mcreq	0, 0, r0, cr0, cr3, {0}
     78c:	0e030034 	mcreq	0, 0, r0, cr3, cr4, {1}
     790:	3b01213a 	blcc	48c80 <__exidx_end+0x47c3c>
     794:	0521390b 	streq	r3, [r1, #-2315]!	@ 0xfffff6f5
     798:	17021349 	strne	r1, [r2, -r9, asr #6]
     79c:	001742b7 			@ <UNDEFINED> instruction: 0x001742b7
     7a0:	000d0f00 	andeq	r0, sp, r0, lsl #30
     7a4:	213a0e03 	teqcs	sl, r3, lsl #28
     7a8:	390b3b05 	stmdbcc	fp, {r0, r2, r8, r9, fp, ip, sp}
     7ac:	8813490b 	ldmdahi	r3, {r0, r1, r3, r8, fp, lr}
     7b0:	38042101 	stmdacc	r4, {r0, r8, sp}
     7b4:	1000000b 	andne	r0, r0, fp
     7b8:	193f012e 	ldmdbne	pc!, {r1, r2, r3, r5, r8}	@ <UNPREDICTABLE>
     7bc:	0b3a0e03 	bleq	e83fd0 <__exidx_end+0xe82f8c>
     7c0:	0b390b3b 	bleq	e434b4 <__exidx_end+0xe42470>
     7c4:	13491927 	movtne	r1, #39207	@ 0x9927
     7c8:	1301193c 	movwne	r1, #6460	@ 0x193c
     7cc:	35110000 	ldrcc	r0, [r1, #-0]
     7d0:	00134900 	andseq	r4, r3, r0, lsl #18
     7d4:	012e1200 			@ <UNDEFINED> instruction: 0x012e1200
     7d8:	0e03193f 			@ <UNDEFINED> instruction: 0x0e03193f
     7dc:	0b3b0b3a 	bleq	ec34cc <__exidx_end+0xec2488>
     7e0:	27062139 	smladxcs	r6, r9, r1, r2
     7e4:	01193c19 	tsteq	r9, r9, lsl ip
     7e8:	13000013 	movwne	r0, #19
     7ec:	0e030005 	cdpeq	0, 0, cr0, cr3, cr5, {0}
     7f0:	3b01213a 	blcc	48ce0 <__exidx_end+0x47c9c>
     7f4:	490b3905 	stmdbmi	fp, {r0, r2, r8, fp, ip, sp}
     7f8:	b7170213 			@ <UNDEFINED> instruction: 0xb7170213
     7fc:	00001742 	andeq	r1, r0, r2, asr #14
     800:	31011d14 	tstcc	r1, r4, lsl sp
     804:	b8015213 	stmdalt	r1, {r0, r1, r4, r9, ip, lr}
     808:	17550b42 	ldrbne	r0, [r5, -r2, asr #22]
     80c:	59012158 	stmdbpl	r1, {r3, r4, r6, r8, sp}
     810:	010b570b 	tsteq	fp, fp, lsl #14
     814:	15000013 	strne	r0, [r0, #-19]	@ 0xffffffed
     818:	017d0148 	cmneq	sp, r8, asr #2
     81c:	0000137f 	andeq	r1, r0, pc, ror r3
     820:	49002116 	stmdbmi	r0, {r1, r2, r4, r8, sp}
     824:	000b2f13 	andeq	r2, fp, r3, lsl pc
     828:	00341700 	eorseq	r1, r4, r0, lsl #14
     82c:	213a0e03 	teqcs	sl, r3, lsl #28
     830:	390b3b02 	stmdbcc	fp, {r1, r8, r9, fp, ip, sp}
     834:	13491021 	movtne	r1, #36897	@ 0x9021
     838:	193c193f 	ldmdbne	ip!, {r0, r1, r2, r3, r4, r5, r8, fp, ip}
     83c:	2e180000 	cdpcs	0, 1, cr0, cr8, cr0, {0}
     840:	03193f01 	tsteq	r9, #1, 30
     844:	01213a0e 			@ <UNDEFINED> instruction: 0x01213a0e
     848:	0b39053b 	bleq	e41d3c <__exidx_end+0xe40cf8>
     84c:	13491927 	movtne	r1, #39207	@ 0x9927
     850:	06120111 			@ <UNDEFINED> instruction: 0x06120111
     854:	197a1840 	ldmdbne	sl!, {r6, fp, ip}^
     858:	00001301 	andeq	r1, r0, r1, lsl #6
     85c:	11010b19 	tstne	r1, r9, lsl fp
     860:	01061201 	tsteq	r6, r1, lsl #4
     864:	1a000013 	bne	8b8 <kCreateTask+0x4c>
     868:	1755010b 	ldrbne	r0, [r5, -fp, lsl #2]
     86c:	341b0000 	ldrcc	r0, [fp], #-0
     870:	00133100 	andseq	r3, r3, r0, lsl #2
     874:	00051c00 	andeq	r1, r5, r0, lsl #24
     878:	17021331 	smladxne	r2, r1, r3, r1
     87c:	001742b7 			@ <UNDEFINED> instruction: 0x001742b7
     880:	00051d00 	andeq	r1, r5, r0, lsl #26
     884:	213a0e03 	teqcs	sl, r3, lsl #28
     888:	390b3b02 	stmdbcc	fp, {r1, r8, r9, fp, ip, sp}
     88c:	0013490b 	andseq	r4, r3, fp, lsl #18
     890:	01111e00 	tsteq	r1, r0, lsl #28
     894:	0b130e25 	bleq	4c4130 <__exidx_end+0x4c30ec>
     898:	0e1b0e03 	cdpeq	14, 1, cr0, cr11, cr3, {0}
     89c:	01111755 	tsteq	r1, r5, asr r7
     8a0:	00001710 	andeq	r1, r0, r0, lsl r7
     8a4:	0b00241f 	bleq	9928 <__exidx_end+0x88e4>
     8a8:	030b3e0b 	movweq	r3, #48651	@ 0xbe0b
     8ac:	20000008 	andcs	r0, r0, r8
     8b0:	0b0b0113 	bleq	2c0d04 <__exidx_end+0x2bfcc0>
     8b4:	0b3b0b3a 	bleq	ec35a4 <__exidx_end+0xec2560>
     8b8:	13010b39 	movwne	r0, #6969	@ 0x1b39
     8bc:	01210000 			@ <UNDEFINED> instruction: 0x01210000
     8c0:	01134901 	tsteq	r3, r1, lsl #18
     8c4:	22000013 	andcs	r0, r0, #19
     8c8:	08030016 	stmdaeq	r3, {r1, r2, r4}
     8cc:	0b3b0b3a 	bleq	ec35bc <__exidx_end+0xec2578>
     8d0:	13490b39 	movtne	r0, #39737	@ 0x9b39
     8d4:	0f230000 	svceq	0x00230000
     8d8:	000b0b00 	andeq	r0, fp, r0, lsl #22
     8dc:	00162400 	andseq	r2, r6, r0, lsl #8
     8e0:	0b3a0e03 	bleq	e840f4 <__exidx_end+0xe830b0>
     8e4:	0b39053b 	bleq	e41dd8 <__exidx_end+0xe40d94>
     8e8:	00001349 	andeq	r1, r0, r9, asr #6
     8ec:	49010125 	stmdbmi	r1, {r0, r2, r5, r8}
     8f0:	0b018813 	bleq	62944 <__exidx_end+0x61900>
     8f4:	00001301 	andeq	r1, r0, r1, lsl #6
     8f8:	3f002e26 	svccc	0x00002e26
     8fc:	3a0e0319 	bcc	381568 <__exidx_end+0x380524>
     900:	390b3b0b 	stmdbcc	fp, {r0, r1, r3, r8, r9, fp, ip, sp}
     904:	4919270b 	ldmdbmi	r9, {r0, r1, r3, r8, r9, sl, sp}
     908:	00193c13 	andseq	r3, r9, r3, lsl ip
     90c:	00342700 	eorseq	r2, r4, r0, lsl #14
     910:	0b3a0e03 	bleq	e84124 <__exidx_end+0xe830e0>
     914:	0b39053b 	bleq	e41e08 <__exidx_end+0xe40dc4>
     918:	17021349 	strne	r1, [r2, -r9, asr #6]
     91c:	001742b7 			@ <UNDEFINED> instruction: 0x001742b7
     920:	00342800 	eorseq	r2, r4, r0, lsl #16
     924:	0b3a0e03 	bleq	e84138 <__exidx_end+0xe830f4>
     928:	0b39053b 	bleq	e41e1c <__exidx_end+0xe40dd8>
     92c:	18021349 	stmdane	r2, {r0, r3, r6, r8, r9, ip}
     930:	0b290000 	bleq	a40938 <__exidx_end+0xa3f8f4>
     934:	00130101 	andseq	r0, r3, r1, lsl #2
     938:	00342a00 	eorseq	r2, r4, r0, lsl #20
     93c:	0b3a0e03 	bleq	e84150 <__exidx_end+0xe8310c>
     940:	0b390b3b 	bleq	e43634 <__exidx_end+0xe425f0>
     944:	00001349 	andeq	r1, r0, r9, asr #6
     948:	0300342b 	movweq	r3, #1067	@ 0x42b
     94c:	3b0b3a0e 	blcc	2cf18c <__exidx_end+0x2ce148>
     950:	490b390b 	stmdbmi	fp, {r0, r1, r3, r8, fp, ip, sp}
     954:	00180213 	andseq	r0, r8, r3, lsl r2
     958:	00342c00 	eorseq	r2, r4, r0, lsl #24
     95c:	0b3a0e03 	bleq	e84170 <__exidx_end+0xe8312c>
     960:	0b390b3b 	bleq	e43654 <__exidx_end+0xe42610>
     964:	0b1c1349 	bleq	705690 <__exidx_end+0x70464c>
     968:	2e2d0000 	cdpcs	0, 2, cr0, cr13, cr0, {0}
     96c:	3a0e0301 	bcc	381578 <__exidx_end+0x380534>
     970:	390b3b0b 	stmdbcc	fp, {r0, r1, r3, r8, r9, fp, ip, sp}
     974:	4919270b 	ldmdbmi	r9, {r0, r1, r3, r8, r9, sl, sp}
     978:	010b2013 	tsteq	fp, r3, lsl r0
     97c:	2e000013 	mcrcs	0, 0, r0, cr0, cr3, {0}
     980:	0e03012e 	adfeqsp	f0, f3, #0.5
     984:	053b0b3a 	ldreq	r0, [fp, #-2874]!	@ 0xfffff4c6
     988:	19270b39 	stmdbne	r7!, {r0, r3, r4, r5, r8, r9, fp}
     98c:	0b201349 	bleq	8056b8 <__exidx_end+0x804674>
     990:	342f0000 	strtcc	r0, [pc], #-0	@ 998 <kTCBQEnq+0x10>
     994:	3a0e0300 	bcc	38159c <__exidx_end+0x380558>
     998:	39053b0b 	stmdbcc	r5, {r0, r1, r3, r8, r9, fp, ip, sp}
     99c:	0013490b 	andseq	r4, r3, fp, lsl #18
     9a0:	0d010000 	stceq	0, cr0, [r1, #-0]
     9a4:	3a0e0300 	bcc	3815ac <__exidx_end+0x380568>
     9a8:	390b3b0b 	stmdbcc	fp, {r0, r1, r3, r8, r9, fp, ip, sp}
     9ac:	3813490b 	ldmdacc	r3, {r0, r1, r3, r8, fp, lr}
     9b0:	0200000b 	andeq	r0, r0, #11
     9b4:	18020049 	stmdane	r2, {r0, r3, r6}
     9b8:	0000187e 	andeq	r1, r0, lr, ror r8
     9bc:	03001603 	movweq	r1, #1539	@ 0x603
     9c0:	3b0b3a0e 	blcc	2cf200 <__exidx_end+0x2ce1bc>
     9c4:	490b390b 	stmdbmi	fp, {r0, r1, r3, r8, fp, ip, sp}
     9c8:	04000013 	streq	r0, [r0], #-19	@ 0xffffffed
     9cc:	13310005 	teqne	r1, #5
     9d0:	42b71702 	adcsmi	r1, r7, #524288	@ 0x80000
     9d4:	05000017 	streq	r0, [r0, #-23]	@ 0xffffffe9
     9d8:	017d0148 	cmneq	sp, r8, asr #2
     9dc:	1301137f 	movwne	r1, #4991	@ 0x137f
     9e0:	0f060000 	svceq	0x00060000
     9e4:	04210b00 	strteq	r0, [r1], #-2816	@ 0xfffff500
     9e8:	00001349 	andeq	r1, r0, r9, asr #6
     9ec:	7d004807 	stcvc	8, cr4, [r0, #-28]	@ 0xffffffe4
     9f0:	00137f01 	andseq	r7, r3, r1, lsl #30
     9f4:	00050800 	andeq	r0, r5, r0, lsl #16
     9f8:	0b3a0e03 	bleq	e8420c <__exidx_end+0xe831c8>
     9fc:	0b390b3b 	bleq	e436f0 <__exidx_end+0xe426ac>
     a00:	00001349 	andeq	r1, r0, r9, asr #6
     a04:	03000509 	movweq	r0, #1289	@ 0x509
     a08:	01213a0e 			@ <UNDEFINED> instruction: 0x01213a0e
     a0c:	0b390b3b 	bleq	e43700 <__exidx_end+0xe426bc>
     a10:	17021349 	strne	r1, [r2, -r9, asr #6]
     a14:	001742b7 			@ <UNDEFINED> instruction: 0x001742b7
     a18:	00260a00 	eoreq	r0, r6, r0, lsl #20
     a1c:	00001349 	andeq	r1, r0, r9, asr #6
     a20:	7d01480b 	stcvc	8, cr4, [r1, #-44]	@ 0xffffffd4
     a24:	00137f01 	andseq	r7, r3, r1, lsl #30
     a28:	00340c00 	eorseq	r0, r4, r0, lsl #24
     a2c:	0b3a0e03 	bleq	e84240 <__exidx_end+0xe831fc>
     a30:	0b390b3b 	bleq	e43724 <__exidx_end+0xe426e0>
     a34:	193f1349 	ldmdbne	pc!, {r0, r3, r6, r8, r9, ip}	@ <UNPREDICTABLE>
     a38:	0000193c 	andeq	r1, r0, ip, lsr r9
     a3c:	0300340d 	movweq	r3, #1037	@ 0x40d
     a40:	01213a0e 			@ <UNDEFINED> instruction: 0x01213a0e
     a44:	0b390b3b 	bleq	e43738 <__exidx_end+0xe426f4>
     a48:	17021349 	strne	r1, [r2, -r9, asr #6]
     a4c:	001742b7 			@ <UNDEFINED> instruction: 0x001742b7
     a50:	00240e00 	eoreq	r0, r4, r0, lsl #28
     a54:	0b3e0b0b 	bleq	f83688 <__exidx_end+0xf82644>
     a58:	00000e03 	andeq	r0, r0, r3, lsl #28
     a5c:	0300050f 	movweq	r0, #1295	@ 0x50f
     a60:	01213a0e 			@ <UNDEFINED> instruction: 0x01213a0e
     a64:	0b39053b 	bleq	e41f58 <__exidx_end+0xe40f14>
     a68:	17021349 	strne	r1, [r2, -r9, asr #6]
     a6c:	001742b7 			@ <UNDEFINED> instruction: 0x001742b7
     a70:	012e1000 			@ <UNDEFINED> instruction: 0x012e1000
     a74:	0e03193f 			@ <UNDEFINED> instruction: 0x0e03193f
     a78:	3b01213a 	blcc	48f68 <__exidx_end+0x47f24>
     a7c:	270b390b 	strcs	r3, [fp, -fp, lsl #18]
     a80:	11134919 	tstne	r3, r9, lsl r9
     a84:	40061201 	andmi	r1, r6, r1, lsl #4
     a88:	01197a18 	tsteq	r9, r8, lsl sl
     a8c:	11000013 	tstne	r0, r3, lsl r0
     a90:	13310034 	teqne	r1, #52	@ 0x34
     a94:	42b71702 	adcsmi	r1, r7, #524288	@ 0x80000
     a98:	12000017 	andne	r0, r0, #23
     a9c:	13490035 	movtne	r0, #36917	@ 0x9035
     aa0:	34130000 	ldrcc	r0, [r3], #-0
     aa4:	3a134700 	bcc	4d26ac <__exidx_end+0x4d1668>
     aa8:	0b3b0121 	bleq	ec0f34 <__exidx_end+0xebfef0>
     aac:	18020b39 	stmdane	r2, {r0, r3, r4, r5, r8, r9, fp}
     ab0:	34140000 	ldrcc	r0, [r4], #-0
     ab4:	3a0e0300 	bcc	3816bc <__exidx_end+0x380678>
     ab8:	0b3b0121 	bleq	ec0f44 <__exidx_end+0xebff00>
     abc:	13490b39 	movtne	r0, #39737	@ 0x9b39
     ac0:	00001802 	andeq	r1, r0, r2, lsl #16
     ac4:	03012e15 	movweq	r2, #7701	@ 0x1e15
     ac8:	3b0b3a0e 	blcc	2cf308 <__exidx_end+0x2ce2c4>
     acc:	270b390b 	strcs	r3, [fp, -fp, lsl #18]
     ad0:	20134919 	andscs	r4, r3, r9, lsl r9
     ad4:	0013010b 	andseq	r0, r3, fp, lsl #2
     ad8:	000d1600 	andeq	r1, sp, r0, lsl #12
     adc:	0b3a0803 	bleq	e82af0 <__exidx_end+0xe81aac>
     ae0:	0b390b3b 	bleq	e437d4 <__exidx_end+0xe42790>
     ae4:	0b381349 	bleq	e05810 <__exidx_end+0xe047cc>
     ae8:	05170000 	ldreq	r0, [r7, #-0]
     aec:	00134900 	andseq	r4, r3, r0, lsl #18
     af0:	01131800 	tsteq	r3, r0, lsl #16
     af4:	0b0b0e03 	bleq	2c4308 <__exidx_end+0x2c32c4>
     af8:	04210188 	strteq	r0, [r1], #-392	@ 0xfffffe78
     afc:	3b08213a 	blcc	208fec <__exidx_end+0x207fa8>
     b00:	0921390b 	stmdbeq	r1!, {r0, r1, r3, r8, fp, ip, sp}
     b04:	00001301 	andeq	r1, r0, r1, lsl #6
     b08:	03003419 	movweq	r3, #1049	@ 0x419
     b0c:	01213a08 			@ <UNDEFINED> instruction: 0x01213a08
     b10:	21390b3b 	teqcs	r9, fp, lsr fp
     b14:	0213490d 	andseq	r4, r3, #212992	@ 0x34000
     b18:	1742b717 	smlaldne	fp, r2, r7, r7
     b1c:	211a0000 	tstcs	sl, r0
     b20:	2f134900 	svccs	0x00134900
     b24:	1b00000b 	blne	b58 <kSchSwtch+0x38>
     b28:	0e030034 	mcreq	0, 0, r0, cr3, cr4, {1}
     b2c:	3b01213a 	blcc	4901c <__exidx_end+0x47fd8>
     b30:	490b3905 	stmdbmi	fp, {r0, r2, r8, fp, ip, sp}
     b34:	b7170213 			@ <UNDEFINED> instruction: 0xb7170213
     b38:	00001742 	andeq	r1, r0, r2, asr #14
     b3c:	0300341c 	movweq	r3, #1052	@ 0x41c
     b40:	3b0b3a0e 	blcc	2cf380 <__exidx_end+0x2ce33c>
     b44:	490b3905 	stmdbmi	fp, {r0, r2, r8, fp, ip, sp}
     b48:	1d000013 	stcne	0, cr0, [r0, #-76]	@ 0xffffffb4
     b4c:	1331011d 	teqne	r1, #1073741831	@ 0x40000007
     b50:	42b80152 	adcsmi	r0, r8, #-2147483628	@ 0x80000014
     b54:	5817550b 	ldmdapl	r7, {r0, r1, r3, r8, sl, ip, lr}
     b58:	0b590121 	bleq	1640fe4 <__exidx_end+0x163ffa0>
     b5c:	13010b57 	movwne	r0, #6999	@ 0x1b57
     b60:	0d1e0000 	ldceq	0, cr0, [lr, #-0]
     b64:	3a0e0300 	bcc	38176c <__exidx_end+0x380728>
     b68:	0b3b0821 	bleq	ec2bf4 <__exidx_end+0xec1bb0>
     b6c:	13490b39 	movtne	r0, #39737	@ 0x9b39
     b70:	04210188 	strteq	r0, [r1], #-392	@ 0xfffffe78
     b74:	00000b38 	andeq	r0, r0, r8, lsr fp
     b78:	4700341f 	smladmi	r0, pc, r4, r3	@ <UNPREDICTABLE>
     b7c:	01213a13 			@ <UNDEFINED> instruction: 0x01213a13
     b80:	2139053b 	teqcs	r9, fp, lsr r5
     b84:	0018021c 	andseq	r0, r8, ip, lsl r2
     b88:	012e2000 			@ <UNDEFINED> instruction: 0x012e2000
     b8c:	0e03193f 			@ <UNDEFINED> instruction: 0x0e03193f
     b90:	0b3b0b3a 	bleq	ec3880 <__exidx_end+0xec283c>
     b94:	27062139 	smladxcs	r6, r9, r1, r2
     b98:	01193c19 	tsteq	r9, r9, lsl ip
     b9c:	21000013 	tstcs	r0, r3, lsl r0
     ba0:	08030034 	stmdaeq	r3, {r2, r4, r5}
     ba4:	3b01213a 	blcc	49094 <__exidx_end+0x48050>
     ba8:	490b3905 	stmdbmi	fp, {r0, r2, r8, fp, ip, sp}
     bac:	b7170213 			@ <UNDEFINED> instruction: 0xb7170213
     bb0:	00001742 	andeq	r1, r0, r2, asr #14
     bb4:	03002e22 	movweq	r2, #3618	@ 0xe22
     bb8:	3b0b3a0e 	blcc	2cf3f8 <__exidx_end+0x2ce3b4>
     bbc:	270b3905 	strcs	r3, [fp, -r5, lsl #18]
     bc0:	000b2019 	andeq	r2, fp, r9, lsl r0
     bc4:	012e2300 			@ <UNDEFINED> instruction: 0x012e2300
     bc8:	0e03193f 			@ <UNDEFINED> instruction: 0x0e03193f
     bcc:	3b01213a 	blcc	490bc <__exidx_end+0x48078>
     bd0:	07213905 	streq	r3, [r1, -r5, lsl #18]!
     bd4:	01111927 	tsteq	r1, r7, lsr #18
     bd8:	18400612 	stmdane	r0, {r1, r4, r9, sl}^
     bdc:	1301197a 	movwne	r1, #6522	@ 0x197a
     be0:	1d240000 	stcne	0, cr0, [r4, #-0]
     be4:	52133101 	andspl	r3, r3, #1073741824	@ 0x40000000
     be8:	0b42b801 	bleq	10aebf4 <__exidx_end+0x10adbb0>
     bec:	06120111 			@ <UNDEFINED> instruction: 0x06120111
     bf0:	59012158 	stmdbpl	r1, {r3, r4, r6, r8, sp}
     bf4:	000b5705 	andeq	r5, fp, r5, lsl #14
     bf8:	01012500 	tsteq	r1, r0, lsl #10
     bfc:	13011349 	movwne	r1, #4937	@ 0x1349
     c00:	01260000 			@ <UNDEFINED> instruction: 0x01260000
     c04:	88134901 	ldmdahi	r3, {r0, r8, fp, lr}
     c08:	01042101 	tsteq	r4, r1, lsl #2
     c0c:	27000013 	smladcs	r0, r3, r0, r0
     c10:	0e030034 	mcreq	0, 0, r0, cr3, cr4, {1}
     c14:	0b3b0b3a 	bleq	ec3904 <__exidx_end+0xec28c0>
     c18:	13490b39 	movtne	r0, #39737	@ 0x9b39
     c1c:	2e280000 	cdpcs	0, 2, cr0, cr8, cr0, {0}
     c20:	03193f00 	tsteq	r9, #0, 30
     c24:	3b0b3a0e 	blcc	2cf464 <__exidx_end+0x2ce420>
     c28:	270b390b 	strcs	r3, [fp, -fp, lsl #18]
     c2c:	3c134919 			@ <UNDEFINED> instruction: 0x3c134919
     c30:	29000019 	stmdbcs	r0, {r0, r3, r4}
     c34:	193f012e 	ldmdbne	pc!, {r1, r2, r3, r5, r8}	@ <UNPREDICTABLE>
     c38:	213a0e03 	teqcs	sl, r3, lsl #28
     c3c:	39053b01 	stmdbcc	r5, {r0, r8, r9, fp, ip, sp}
     c40:	4919270b 	ldmdbmi	r9, {r0, r1, r3, r8, r9, sl, sp}
     c44:	12011113 	andne	r1, r1, #-1073741820	@ 0xc0000004
     c48:	7a184006 	bvc	610c68 <__exidx_end+0x60fc24>
     c4c:	00130119 	andseq	r0, r3, r9, lsl r1
     c50:	010b2a00 	tsteq	fp, r0, lsl #20
     c54:	06120111 			@ <UNDEFINED> instruction: 0x06120111
     c58:	00001301 	andeq	r1, r0, r1, lsl #6
     c5c:	55010b2b 	strpl	r0, [r1, #-2859]	@ 0xfffff4d5
     c60:	2c000017 	stccs	0, cr0, [r0], {23}
     c64:	1331001d 	teqne	r1, #29
     c68:	42b80152 	adcsmi	r0, r8, #-2147483628	@ 0x80000014
     c6c:	1201110b 	andne	r1, r1, #-1073741822	@ 0xc0000002
     c70:	01215806 			@ <UNDEFINED> instruction: 0x01215806
     c74:	0b570559 	bleq	15c21e0 <__exidx_end+0x15c119c>
     c78:	2e2d0000 	cdpcs	0, 2, cr0, cr13, cr0, {0}
     c7c:	3a0e0301 	bcc	381888 <__exidx_end+0x380844>
     c80:	39053b0b 	stmdbcc	r5, {r0, r1, r3, r8, r9, fp, ip, sp}
     c84:	4919270b 	ldmdbmi	r9, {r0, r1, r3, r8, r9, sl, sp}
     c88:	010b2013 	tsteq	fp, r3, lsl r0
     c8c:	2e000013 	mcrcs	0, 0, r0, cr0, cr3, {0}
     c90:	08030034 	stmdaeq	r3, {r2, r4, r5}
     c94:	3b01213a 	blcc	49184 <__exidx_end+0x48140>
     c98:	490b3905 	stmdbmi	fp, {r0, r2, r8, fp, ip, sp}
     c9c:	2f000013 	svccs	0x00000013
     ca0:	0000010b 	andeq	r0, r0, fp, lsl #2
     ca4:	03000530 	movweq	r0, #1328	@ 0x530
     ca8:	01213a0e 			@ <UNDEFINED> instruction: 0x01213a0e
     cac:	2139053b 	teqcs	r9, fp, lsr r5
     cb0:	02134915 	andseq	r4, r3, #344064	@ 0x54000
     cb4:	31000018 	tstcc	r0, r8, lsl r0
     cb8:	1331012e 	teqne	r1, #-2147483637	@ 0x8000000b
     cbc:	06120111 			@ <UNDEFINED> instruction: 0x06120111
     cc0:	197a1840 	ldmdbne	sl!, {r6, fp, ip}^
     cc4:	00001301 	andeq	r1, r0, r1, lsl #6
     cc8:	31003432 	tstcc	r0, r2, lsr r4
     ccc:	33000013 	movwcc	r0, #19
     cd0:	0e250111 	mcreq	1, 1, r0, cr5, cr1, {0}
     cd4:	0e030b13 	vmoveq.32	d3[0], r0
     cd8:	17550e1b 	smmlane	r5, fp, lr, r0
     cdc:	17100111 			@ <UNDEFINED> instruction: 0x17100111
     ce0:	24340000 	ldrtcs	r0, [r4], #-0
     ce4:	3e0b0b00 	vmlacc.f64	d0, d11, d0
     ce8:	0008030b 	andeq	r0, r8, fp, lsl #6
     cec:	01133500 	tsteq	r3, r0, lsl #10
     cf0:	0b3a0b0b 	bleq	e83924 <__exidx_end+0xe828e0>
     cf4:	0b390b3b 	bleq	e439e8 <__exidx_end+0xe429a4>
     cf8:	00001301 	andeq	r1, r0, r1, lsl #6
     cfc:	03001636 	movweq	r1, #1590	@ 0x636
     d00:	3b0b3a0e 	blcc	2cf540 <__exidx_end+0x2ce4fc>
     d04:	000b390b 	andeq	r3, fp, fp, lsl #18
     d08:	00163700 	andseq	r3, r6, r0, lsl #14
     d0c:	0b3a0803 	bleq	e82d20 <__exidx_end+0xe81cdc>
     d10:	0b390b3b 	bleq	e43a04 <__exidx_end+0xe429c0>
     d14:	00001349 	andeq	r1, r0, r9, asr #6
     d18:	0b000f38 	bleq	4a00 <__exidx_end+0x39bc>
     d1c:	3900000b 	stmdbcc	r0, {r0, r1, r3}
     d20:	19270115 	stmdbne	r7!, {r0, r2, r4, r8}
     d24:	00001301 	andeq	r1, r0, r1, lsl #6
     d28:	0300133a 	movweq	r1, #826	@ 0x33a
     d2c:	00193c0e 	andseq	r3, r9, lr, lsl #24
     d30:	01133b00 	tsteq	r3, r0, lsl #22
     d34:	0b0b0e03 	bleq	2c4548 <__exidx_end+0x2c3504>
     d38:	0b3b0b3a 	bleq	ec3a28 <__exidx_end+0xec29e4>
     d3c:	13010b39 	movwne	r0, #6969	@ 0x1b39
     d40:	343c0000 	ldrtcc	r0, [ip], #-0
     d44:	3a0e0300 	bcc	38194c <__exidx_end+0x380908>
     d48:	390b3b0b 	stmdbcc	fp, {r0, r1, r3, r8, r9, fp, ip, sp}
     d4c:	1c13490b 			@ <UNDEFINED> instruction: 0x1c13490b
     d50:	3d00000b 	stccc	0, cr0, [r0, #-44]	@ 0xffffffd4
     d54:	0e030034 	mcreq	0, 0, r0, cr3, cr4, {1}
     d58:	053b0b3a 	ldreq	r0, [fp, #-2874]!	@ 0xfffff4c6
     d5c:	13490b39 	movtne	r0, #39737	@ 0x9b39
     d60:	1802193f 	stmdane	r2, {r0, r1, r2, r3, r4, r5, r8, fp, ip}
     d64:	2e3e0000 	cdpcs	0, 3, cr0, cr14, cr0, {0}
     d68:	03193f01 	tsteq	r9, #1, 30
     d6c:	3b0b3a0e 	blcc	2cf5ac <__exidx_end+0x2ce568>
     d70:	270b390b 	strcs	r3, [fp, -fp, lsl #18]
     d74:	3c134919 			@ <UNDEFINED> instruction: 0x3c134919
     d78:	00130119 	andseq	r0, r3, r9, lsl r1
     d7c:	002e3f00 	eoreq	r3, lr, r0, lsl #30
     d80:	0e03193f 			@ <UNDEFINED> instruction: 0x0e03193f
     d84:	0b3b0b3a 	bleq	ec3a74 <__exidx_end+0xec2a30>
     d88:	19270b39 	stmdbne	r7!, {r0, r3, r4, r5, r8, r9, fp}
     d8c:	0000193c 	andeq	r1, r0, ip, lsr r9
     d90:	03003440 	movweq	r3, #1088	@ 0x440
     d94:	3b0b3a0e 	blcc	2cf5d4 <__exidx_end+0x2ce590>
     d98:	490b3905 	stmdbmi	fp, {r0, r2, r8, fp, ip, sp}
     d9c:	00180213 	andseq	r0, r8, r3, lsl r2
     da0:	012e4100 			@ <UNDEFINED> instruction: 0x012e4100
     da4:	0b3a0e03 	bleq	e845b8 <__exidx_end+0xe83574>
     da8:	0b39053b 	bleq	e4229c <__exidx_end+0xe41258>
     dac:	0b201349 	bleq	805ad8 <__exidx_end+0x804a94>
     db0:	00001301 	andeq	r1, r0, r1, lsl #6
     db4:	55010b42 	strpl	r0, [r1, #-2882]	@ 0xfffff4be
     db8:	00130117 	andseq	r0, r3, r7, lsl r1
     dbc:	011d4300 	tsteq	sp, r0, lsl #6
     dc0:	17551331 	smmlarne	r5, r1, r3, r1
     dc4:	05590b58 	ldrbeq	r0, [r9, #-2904]	@ 0xfffff4a8
     dc8:	13010b57 	movwne	r0, #6999	@ 0x1b57
     dcc:	0b440000 	bleq	1100dd4 <__exidx_end+0x10ffd90>
     dd0:	55133101 	ldrpl	r3, [r3, #-257]	@ 0xfffffeff
     dd4:	00130117 	andseq	r0, r3, r7, lsl r1
     dd8:	001d4500 	andseq	r4, sp, r0, lsl #10
     ddc:	01521331 	cmpeq	r2, r1, lsr r3
     de0:	550b42b8 	strpl	r4, [fp, #-696]	@ 0xfffffd48
     de4:	590b5817 	stmdbpl	fp, {r0, r1, r2, r4, fp, ip, lr}
     de8:	000b5705 	andeq	r5, fp, r5, lsl #14
     dec:	012e4600 			@ <UNDEFINED> instruction: 0x012e4600
     df0:	0e03193f 			@ <UNDEFINED> instruction: 0x0e03193f
     df4:	053b0b3a 	ldreq	r0, [fp, #-2874]!	@ 0xfffff4c6
     df8:	19270b39 	stmdbne	r7!, {r0, r3, r4, r5, r8, r9, fp}
     dfc:	0b201349 	bleq	805b28 <__exidx_end+0x804ae4>
     e00:	00001301 	andeq	r1, r0, r1, lsl #6
     e04:	03012e47 	movweq	r2, #7751	@ 0x1e47
     e08:	3b0b3a0e 	blcc	2cf648 <__exidx_end+0x2ce604>
     e0c:	270b3905 	strcs	r3, [fp, -r5, lsl #18]
     e10:	11134919 	tstne	r3, r9, lsl r9
     e14:	40061201 	andmi	r1, r6, r1, lsl #4
     e18:	01197a18 	tsteq	r9, r8, lsl sl
     e1c:	48000013 	stmdami	r0, {r0, r1, r4}
     e20:	1331011d 	teqne	r1, #1073741831	@ 0x40000007
     e24:	42b80152 	adcsmi	r0, r8, #-2147483628	@ 0x80000014
     e28:	5817550b 	ldmdapl	r7, {r0, r1, r3, r8, sl, ip, lr}
     e2c:	5705590b 	strpl	r5, [r5, -fp, lsl #18]
     e30:	4900000b 	stmdbmi	r0, {r0, r1, r3}
     e34:	1331010b 	teqne	r1, #-1073741822	@ 0xc0000002
     e38:	00001755 	andeq	r1, r0, r5, asr r7
     e3c:	7d01484a 	stcvc	8, cr4, [r1, #-296]	@ 0xfffffed8
     e40:	19018201 	stmdbne	r1, {r0, r9, pc}
     e44:	1301137f 	movwne	r1, #4991	@ 0x137f
     e48:	1d4b0000 	stclne	0, cr0, [fp, #-0]
     e4c:	52133101 	andspl	r3, r3, #1073741824	@ 0x40000000
     e50:	0b42b801 	bleq	10aee5c <__exidx_end+0x10ade18>
     e54:	0b581755 	bleq	1606bb0 <__exidx_end+0x1605b6c>
     e58:	0b570b59 	bleq	15c3bc4 <__exidx_end+0x15c2b80>
     e5c:	1d4c0000 	stclne	0, cr0, [ip, #-0]
     e60:	52133101 	andspl	r3, r3, #1073741824	@ 0x40000000
     e64:	0b42b801 	bleq	10aee70 <__exidx_end+0x10ade2c>
     e68:	06120111 			@ <UNDEFINED> instruction: 0x06120111
     e6c:	0b590b58 	bleq	1643bd4 <__exidx_end+0x1642b90>
     e70:	13010b57 	movwne	r0, #6999	@ 0x1b57
     e74:	2e4d0000 	cdpcs	0, 4, cr0, cr13, cr0, {0}
     e78:	03193f01 	tsteq	r9, #1, 30
     e7c:	3b0b3a0e 	blcc	2cf6bc <__exidx_end+0x2ce678>
     e80:	270b390b 	strcs	r3, [fp, -fp, lsl #18]
     e84:	12011119 	andne	r1, r1, #1073741830	@ 0x40000006
     e88:	7a184006 	bvc	610ea8 <__exidx_end+0x60fe64>
     e8c:	00130119 	andseq	r0, r3, r9, lsl r1
     e90:	01484e00 	cmpeq	r8, r0, lsl #28
     e94:	0182017d 	orreq	r0, r2, sp, ror r1
     e98:	00137f19 	andseq	r7, r3, r9, lsl pc
     e9c:	012e4f00 			@ <UNDEFINED> instruction: 0x012e4f00
     ea0:	0b3a0e03 	bleq	e846b4 <__exidx_end+0xe83670>
     ea4:	0b39053b 	bleq	e42398 <__exidx_end+0xe41354>
     ea8:	0b201927 	bleq	80734c <__exidx_end+0x806308>
     eac:	00001301 	andeq	r1, r0, r1, lsl #6
     eb0:	03000550 	movweq	r0, #1360	@ 0x550
     eb4:	3b0b3a0e 	blcc	2cf6f4 <__exidx_end+0x2ce6b0>
     eb8:	490b3905 	stmdbmi	fp, {r0, r2, r8, fp, ip, sp}
     ebc:	51000013 	tstpl	r0, r3, lsl r0
     ec0:	1331011d 	teqne	r1, #1073741831	@ 0x40000007
     ec4:	42b80152 	adcsmi	r0, r8, #-2147483628	@ 0x80000014
     ec8:	1201110b 	andne	r1, r1, #-1073741822	@ 0xc0000002
     ecc:	590b5806 	stmdbpl	fp, {r1, r2, fp, ip, lr}
     ed0:	010b5705 	tsteq	fp, r5, lsl #14
     ed4:	52000013 	andpl	r0, r0, #19
     ed8:	1331012e 	teqne	r1, #-2147483637	@ 0x8000000b
     edc:	06120111 			@ <UNDEFINED> instruction: 0x06120111
     ee0:	197a1840 	ldmdbne	sl!, {r6, fp, ip}^
     ee4:	01000000 	mrseq	r0, (UNDEF: 0)
     ee8:	0e03000d 	cdpeq	0, 0, cr0, cr3, cr13, {0}
     eec:	0b3b0b3a 	bleq	ec3bdc <__exidx_end+0xec2b98>
     ef0:	13490b39 	movtne	r0, #39737	@ 0x9b39
     ef4:	00000b38 	andeq	r0, r0, r8, lsr fp
     ef8:	03001602 	movweq	r1, #1538	@ 0x602
     efc:	3b0b3a0e 	blcc	2cf73c <__exidx_end+0x2ce6f8>
     f00:	490b390b 	stmdbmi	fp, {r0, r1, r3, r8, fp, ip, sp}
     f04:	03000013 	movweq	r0, #19
     f08:	0b0b0024 	bleq	2c0fa0 <__exidx_end+0x2bff5c>
     f0c:	0e030b3e 	vmoveq.16	d3[0], r0
     f10:	0f040000 	svceq	0x00040000
     f14:	04210b00 	strteq	r0, [r1], #-2816	@ 0xfffff500
     f18:	00001349 	andeq	r1, r0, r9, asr #6
     f1c:	49000505 	stmdbmi	r0, {r0, r2, r8, sl}
     f20:	06000013 			@ <UNDEFINED> instruction: 0x06000013
     f24:	017d0048 	cmneq	sp, r8, asr #32
     f28:	0000137f 	andeq	r1, r0, pc, ror r3
     f2c:	02004907 	andeq	r4, r0, #114688	@ 0x1c000
     f30:	00187e18 	andseq	r7, r8, r8, lsl lr
     f34:	000d0800 	andeq	r0, sp, r0, lsl #16
     f38:	0b3a0803 	bleq	e82f4c <__exidx_end+0xe81f08>
     f3c:	0b390b3b 	bleq	e43c30 <__exidx_end+0xe42bec>
     f40:	0b381349 	bleq	e05c6c <__exidx_end+0xe04c28>
     f44:	48090000 	stmdami	r9, {}	@ <UNPREDICTABLE>
     f48:	7f017d01 	svcvc	0x00017d01
     f4c:	00130113 	andseq	r0, r3, r3, lsl r1
     f50:	01130a00 	tsteq	r3, r0, lsl #20
     f54:	0b0b0e03 	bleq	2c4768 <__exidx_end+0x2c3724>
     f58:	04210188 	strteq	r0, [r1], #-392	@ 0xfffffe78
     f5c:	3b04213a 	blcc	10944c <__exidx_end+0x108408>
     f60:	0921390b 	stmdbeq	r1!, {r0, r1, r3, r8, fp, ip, sp}
     f64:	00001301 	andeq	r1, r0, r1, lsl #6
     f68:	4900350b 	stmdbmi	r0, {r0, r1, r3, r8, sl, ip, sp}
     f6c:	0c000013 	stceq	0, cr0, [r0], {19}
     f70:	13490026 	movtne	r0, #36902	@ 0x9026
     f74:	0d0d0000 	stceq	0, cr0, [sp, #-0]
     f78:	3a0e0300 	bcc	381b80 <__exidx_end+0x380b3c>
     f7c:	0b3b0421 	bleq	ec2008 <__exidx_end+0xec0fc4>
     f80:	13490b39 	movtne	r0, #39737	@ 0x9b39
     f84:	04210188 	strteq	r0, [r1], #-392	@ 0xfffffe78
     f88:	00000b38 	andeq	r0, r0, r8, lsr fp
     f8c:	3f012e0e 	svccc	0x00012e0e
     f90:	3a0e0319 	bcc	381bfc <__exidx_end+0x380bb8>
     f94:	390b3b0b 	stmdbcc	fp, {r0, r1, r3, r8, r9, fp, ip, sp}
     f98:	19270621 	stmdbne	r7!, {r0, r5, r9, sl}
     f9c:	1301193c 	movwne	r1, #6460	@ 0x193c
     fa0:	340f0000 	strcc	r0, [pc], #-0	@ fa8 <memcpy+0x34>
     fa4:	3a080300 	bcc	201bac <__exidx_end+0x200b68>
     fa8:	0b3b0121 	bleq	ec1434 <__exidx_end+0xec03f0>
     fac:	490d2139 	stmdbmi	sp, {r0, r3, r4, r5, r8, sp}
     fb0:	b7170213 			@ <UNDEFINED> instruction: 0xb7170213
     fb4:	00001742 	andeq	r1, r0, r2, asr #14
     fb8:	49002110 	stmdbmi	r0, {r4, r8, sp}
     fbc:	000b2f13 	andeq	r2, fp, r3, lsl pc
     fc0:	00341100 	eorseq	r1, r4, r0, lsl #2
     fc4:	213a0e03 	teqcs	sl, r3, lsl #28
     fc8:	390b3b05 	stmdbcc	fp, {r0, r2, r8, r9, fp, ip, sp}
     fcc:	3f13490b 	svccc	0x0013490b
     fd0:	00193c19 	andseq	r3, r9, r9, lsl ip
     fd4:	012e1200 			@ <UNDEFINED> instruction: 0x012e1200
     fd8:	0e03193f 			@ <UNDEFINED> instruction: 0x0e03193f
     fdc:	0b3b0b3a 	bleq	ec3ccc <__exidx_end+0xec2c88>
     fe0:	27082139 	smladxcs	r8, r9, r1, r2
     fe4:	3c134919 			@ <UNDEFINED> instruction: 0x3c134919
     fe8:	00130119 	andseq	r0, r3, r9, lsl r1
     fec:	012e1300 			@ <UNDEFINED> instruction: 0x012e1300
     ff0:	0e03193f 			@ <UNDEFINED> instruction: 0x0e03193f
     ff4:	3b01213a 	blcc	494e4 <__exidx_end+0x484a0>
     ff8:	0921390b 	stmdbeq	r1!, {r0, r1, r3, r8, fp, ip, sp}
     ffc:	13491927 	movtne	r1, #39207	@ 0x9927
    1000:	06120111 			@ <UNDEFINED> instruction: 0x06120111
    1004:	197a1840 	ldmdbne	sl!, {r6, fp, ip}^
    1008:	00001301 	andeq	r1, r0, r1, lsl #6
    100c:	03000514 	movweq	r0, #1300	@ 0x514
    1010:	01213a0e 			@ <UNDEFINED> instruction: 0x01213a0e
    1014:	0b390b3b 	bleq	e43d08 <__exidx_end+0xe42cc4>
    1018:	17021349 	strne	r1, [r2, -r9, asr #6]
    101c:	001742b7 			@ <UNDEFINED> instruction: 0x001742b7
    1020:	00341500 	eorseq	r1, r4, r0, lsl #10
    1024:	213a0e03 	teqcs	sl, r3, lsl #28
    1028:	390b3b01 	stmdbcc	fp, {r0, r8, r9, fp, ip, sp}
    102c:	13490621 	movtne	r0, #38433	@ 0x9621
    1030:	42b71702 	adcsmi	r1, r7, #524288	@ 0x80000
    1034:	16000017 			@ <UNDEFINED> instruction: 0x16000017
    1038:	0e250111 	mcreq	1, 1, r0, cr5, cr1, {0}
    103c:	0e030b13 	vmoveq.32	d3[0], r0
    1040:	17550e1b 	smmlane	r5, fp, lr, r0
    1044:	17100111 			@ <UNDEFINED> instruction: 0x17100111
    1048:	24170000 	ldrcs	r0, [r7], #-0
    104c:	3e0b0b00 	vmlacc.f64	d0, d11, d0
    1050:	0008030b 	andeq	r0, r8, fp, lsl #6
    1054:	01131800 	tsteq	r3, r0, lsl #16
    1058:	0b3a0b0b 	bleq	e83c8c <__exidx_end+0xe82c48>
    105c:	0b390b3b 	bleq	e43d50 <__exidx_end+0xe42d0c>
    1060:	00001301 	andeq	r1, r0, r1, lsl #6
    1064:	49010119 	stmdbmi	r1, {r0, r3, r4, r8}
    1068:	00130113 	andseq	r0, r3, r3, lsl r1
    106c:	00161a00 	andseq	r1, r6, r0, lsl #20
    1070:	0b3a0803 	bleq	e83084 <__exidx_end+0xe82040>
    1074:	0b390b3b 	bleq	e43d68 <__exidx_end+0xe42d24>
    1078:	00001349 	andeq	r1, r0, r9, asr #6
    107c:	4901011b 	stmdbmi	r1, {r0, r1, r3, r4, r8}
    1080:	0b018813 	bleq	630d4 <__exidx_end+0x62090>
    1084:	00001301 	andeq	r1, r0, r1, lsl #6
    1088:	3f002e1c 	svccc	0x00002e1c
    108c:	3a0e0319 	bcc	381cf8 <__exidx_end+0x380cb4>
    1090:	390b3b0b 	stmdbcc	fp, {r0, r1, r3, r8, r9, fp, ip, sp}
    1094:	4919270b 	ldmdbmi	r9, {r0, r1, r3, r8, r9, sl, sp}
    1098:	00193c13 	andseq	r3, r9, r3, lsl ip
    109c:	01481d00 	cmpeq	r8, r0, lsl #26
    10a0:	137f017d 	cmnne	pc, #1073741855	@ 0x4000001f
    10a4:	1d1e0000 	ldcne	0, cr0, [lr, #-0]
    10a8:	52133101 	andspl	r3, r3, #1073741824	@ 0x40000000
    10ac:	0b42b801 	bleq	10af0b8 <__exidx_end+0x10ae074>
    10b0:	0b581755 	bleq	1606e0c <__exidx_end+0x1605dc8>
    10b4:	0b570b59 	bleq	15c3e20 <__exidx_end+0x15c2ddc>
    10b8:	00001301 	andeq	r1, r0, r1, lsl #6
    10bc:	55010b1f 	strpl	r0, [r1, #-2847]	@ 0xfffff4e1
    10c0:	20000017 	andcs	r0, r0, r7, lsl r0
    10c4:	13310034 	teqne	r1, #52	@ 0x34
    10c8:	2e210000 	cdpcs	0, 2, cr0, cr1, cr0, {0}
    10cc:	3a0e0301 	bcc	381cd8 <__exidx_end+0x380c94>
    10d0:	39053b0b 	stmdbcc	r5, {r0, r1, r3, r8, r9, fp, ip, sp}
    10d4:	4919270b 	ldmdbmi	r9, {r0, r1, r3, r8, r9, sl, sp}
    10d8:	000b2013 	andeq	r2, fp, r3, lsl r0
    10dc:	00342200 	eorseq	r2, r4, r0, lsl #4
    10e0:	0b3a0e03 	bleq	e848f4 <__exidx_end+0xe838b0>
    10e4:	0b39053b 	bleq	e425d8 <__exidx_end+0xe41594>
    10e8:	00001349 	andeq	r1, r0, r9, asr #6
    10ec:	000d0100 	andeq	r0, sp, r0, lsl #2
    10f0:	0b3a0e03 	bleq	e84904 <__exidx_end+0xe838c0>
    10f4:	0b390b3b 	bleq	e43de8 <__exidx_end+0xe42da4>
    10f8:	0b381349 	bleq	e05e24 <__exidx_end+0xe04de0>
    10fc:	16020000 	strne	r0, [r2], -r0
    1100:	3a0e0300 	bcc	381d08 <__exidx_end+0x380cc4>
    1104:	390b3b0b 	stmdbcc	fp, {r0, r1, r3, r8, r9, fp, ip, sp}
    1108:	0013490b 	andseq	r4, r3, fp, lsl #18
    110c:	00240300 	eoreq	r0, r4, r0, lsl #6
    1110:	0b3e0b0b 	bleq	f83d44 <__exidx_end+0xf82d00>
    1114:	00000e03 	andeq	r0, r0, r3, lsl #28
    1118:	0b000f04 	bleq	4d30 <__exidx_end+0x3cec>
    111c:	13490421 	movtne	r0, #37921	@ 0x9421
    1120:	0d050000 	stceq	0, cr0, [r5, #-0]
    1124:	3a080300 	bcc	201d2c <__exidx_end+0x200ce8>
    1128:	390b3b0b 	stmdbcc	fp, {r0, r1, r3, r8, r9, fp, ip, sp}
    112c:	3813490b 	ldmdacc	r3, {r0, r1, r3, r8, fp, lr}
    1130:	0600000b 	streq	r0, [r0], -fp
    1134:	13490035 	movtne	r0, #36917	@ 0x9035
    1138:	13070000 	movwne	r0, #28672	@ 0x7000
    113c:	0b0e0301 	bleq	381d48 <__exidx_end+0x380d04>
    1140:	2101880b 	tstcs	r1, fp, lsl #16
    1144:	05213a04 	streq	r3, [r1, #-2564]!	@ 0xfffff5fc
    1148:	21390b3b 	teqcs	r9, fp, lsr fp
    114c:	00130109 	andseq	r0, r3, r9, lsl #2
    1150:	00340800 	eorseq	r0, r4, r0, lsl #16
    1154:	213a0e03 	teqcs	sl, r3, lsl #28
    1158:	390b3b06 	stmdbcc	fp, {r1, r2, r8, r9, fp, ip, sp}
    115c:	3f13490b 	svccc	0x0013490b
    1160:	00193c19 	andseq	r3, r9, r9, lsl ip
    1164:	000d0900 	andeq	r0, sp, r0, lsl #18
    1168:	213a0e03 	teqcs	sl, r3, lsl #28
    116c:	390b3b05 	stmdbcc	fp, {r0, r2, r8, r9, fp, ip, sp}
    1170:	8813490b 	ldmdahi	r3, {r0, r1, r3, r8, fp, lr}
    1174:	38042101 	stmdacc	r4, {r0, r8, sp}
    1178:	0a00000b 	beq	11ac <__exidx_end+0x168>
    117c:	0b0b0113 	bleq	2c15d0 <__exidx_end+0x2c058c>
    1180:	3b03213a 	blcc	c9670 <__exidx_end+0xc862c>
    1184:	0921390b 	stmdbeq	r1!, {r0, r1, r3, r8, fp, ip, sp}
    1188:	00001301 	andeq	r1, r0, r1, lsl #6
    118c:	4901010b 	stmdbmi	r1, {r0, r1, r3, r8}
    1190:	00130113 	andseq	r0, r3, r3, lsl r1
    1194:	00210c00 	eoreq	r0, r1, r0, lsl #24
    1198:	0b2f1349 	bleq	bc5ec4 <__exidx_end+0xbc4e80>
    119c:	340d0000 	strcc	r0, [sp], #-0
    11a0:	3a134700 	bcc	4d2da8 <__exidx_end+0x4d1d64>
    11a4:	0b3b0121 	bleq	ec1630 <__exidx_end+0xec05ec>
    11a8:	02052139 	andeq	r2, r5, #1073741838	@ 0x4000000e
    11ac:	0e000018 	mcreq	0, 0, r0, cr0, cr8, {0}
    11b0:	193f012e 	ldmdbne	pc!, {r1, r2, r3, r5, r8}	@ <UNPREDICTABLE>
    11b4:	213a0e03 	teqcs	sl, r3, lsl #28
    11b8:	390b3b01 	stmdbcc	fp, {r0, r8, r9, fp, ip, sp}
    11bc:	19270621 	stmdbne	r7!, {r0, r5, r9, sl}
    11c0:	06120111 			@ <UNDEFINED> instruction: 0x06120111
    11c4:	197a1840 	ldmdbne	sl!, {r6, fp, ip}^
    11c8:	00001301 	andeq	r1, r0, r1, lsl #6
    11cc:	7d00480f 	stcvc	8, cr4, [r0, #-60]	@ 0xffffffc4
    11d0:	00137f01 	andseq	r7, r3, r1, lsl #30
    11d4:	001d1000 	andseq	r1, sp, r0
    11d8:	01521331 	cmpeq	r2, r1, lsr r3
    11dc:	110b42b8 			@ <UNDEFINED> instruction: 0x110b42b8
    11e0:	58061201 	stmdapl	r6, {r0, r9, ip}
    11e4:	0b590121 	bleq	1641670 <__exidx_end+0x164062c>
    11e8:	00092157 	andeq	r2, r9, r7, asr r1
    11ec:	002e1100 	eoreq	r1, lr, r0, lsl #2
    11f0:	213a0e03 	teqcs	sl, r3, lsl #28
    11f4:	39053b02 	stmdbcc	r5, {r1, r8, r9, fp, ip, sp}
    11f8:	19271b21 	stmdbne	r7!, {r0, r5, r8, r9, fp, ip}
    11fc:	00032120 	andeq	r2, r3, r0, lsr #2
    1200:	01111200 	tsteq	r1, r0, lsl #4
    1204:	0b130e25 	bleq	4c4aa0 <__exidx_end+0x4c3a5c>
    1208:	0e1b0e03 	cdpeq	14, 1, cr0, cr11, cr3, {0}
    120c:	01111755 	tsteq	r1, r5, asr r7
    1210:	00001710 	andeq	r1, r0, r0, lsl r7
    1214:	0b002413 	bleq	a268 <__exidx_end+0x9224>
    1218:	030b3e0b 	movweq	r3, #48651	@ 0xbe0b
    121c:	14000008 	strne	r0, [r0], #-8
    1220:	0e030016 	mcreq	0, 0, r0, cr3, cr6, {0}
    1224:	0b3b0b3a 	bleq	ec3f14 <__exidx_end+0xec2ed0>
    1228:	00000b39 	andeq	r0, r0, r9, lsr fp
    122c:	03001615 	movweq	r1, #1557	@ 0x615
    1230:	3b0b3a08 	blcc	2cfa58 <__exidx_end+0x2cea14>
    1234:	490b390b 	stmdbmi	fp, {r0, r1, r3, r8, fp, ip, sp}
    1238:	16000013 			@ <UNDEFINED> instruction: 0x16000013
    123c:	13470034 	movtne	r0, #28724	@ 0x7034
    1240:	0b390b3a 	bleq	e43f30 <__exidx_end+0xe42eec>
    1244:	00001802 	andeq	r1, r0, r2, lsl #16
    1248:	3f012e17 	svccc	0x00012e17
    124c:	3a0e0319 	bcc	381eb8 <__exidx_end+0x380e74>
    1250:	390b3b0b 	stmdbcc	fp, {r0, r1, r3, r8, r9, fp, ip, sp}
    1254:	3c19270b 	ldccc	7, cr2, [r9], {11}
    1258:	00130119 	andseq	r0, r3, r9, lsl r1
    125c:	00051800 	andeq	r1, r5, r0, lsl #16
    1260:	00001349 	andeq	r1, r0, r9, asr #6
    1264:	3f002e19 	svccc	0x00002e19
    1268:	3a0e0319 	bcc	381ed4 <__exidx_end+0x380e90>
    126c:	390b3b0b 	stmdbcc	fp, {r0, r1, r3, r8, r9, fp, ip, sp}
    1270:	4919270b 	ldmdbmi	r9, {r0, r1, r3, r8, r9, sl, sp}
    1274:	00193c13 	andseq	r3, r9, r3, lsl ip
    1278:	00051a00 	andeq	r1, r5, r0, lsl #20
    127c:	0b3a0e03 	bleq	e84a90 <__exidx_end+0xe83a4c>
    1280:	0b390b3b 	bleq	e43f74 <__exidx_end+0xe42f30>
    1284:	17021349 	strne	r1, [r2, -r9, asr #6]
    1288:	001742b7 			@ <UNDEFINED> instruction: 0x001742b7
    128c:	010b1b00 	tsteq	fp, r0, lsl #22
    1290:	00001755 	andeq	r1, r0, r5, asr r7
    1294:	0300341c 	movweq	r3, #1052	@ 0x41c
    1298:	3b0b3a0e 	blcc	2cfad8 <__exidx_end+0x2cea94>
    129c:	490b390b 	stmdbmi	fp, {r0, r1, r3, r8, fp, ip, sp}
    12a0:	b7170213 			@ <UNDEFINED> instruction: 0xb7170213
    12a4:	00001742 	andeq	r1, r0, r2, asr #14
    12a8:	0300051d 	movweq	r0, #1309	@ 0x51d
    12ac:	3b0b3a0e 	blcc	2cfaec <__exidx_end+0x2ceaa8>
    12b0:	490b390b 	stmdbmi	fp, {r0, r1, r3, r8, fp, ip, sp}
    12b4:	00180213 	andseq	r0, r8, r3, lsl r2
    12b8:	0d010000 	stceq	0, cr0, [r1, #-0]
    12bc:	3a0e0300 	bcc	381ec4 <__exidx_end+0x380e80>
    12c0:	390b3b0b 	stmdbcc	fp, {r0, r1, r3, r8, r9, fp, ip, sp}
    12c4:	3813490b 	ldmdacc	r3, {r0, r1, r3, r8, fp, lr}
    12c8:	0200000b 	andeq	r0, r0, #11
    12cc:	0e030016 	mcreq	0, 0, r0, cr3, cr6, {0}
    12d0:	0b3b0b3a 	bleq	ec3fc0 <__exidx_end+0xec2f7c>
    12d4:	13490b39 	movtne	r0, #39737	@ 0x9b39
    12d8:	24030000 	strcs	r0, [r3], #-0
    12dc:	3e0b0b00 	vmlacc.f64	d0, d11, d0
    12e0:	000e030b 	andeq	r0, lr, fp, lsl #6
    12e4:	000f0400 	andeq	r0, pc, r0, lsl #8
    12e8:	4904210b 	stmdbmi	r4, {r0, r1, r3, r8, sp}
    12ec:	05000013 	streq	r0, [r0, #-19]	@ 0xffffffed
    12f0:	0e030034 	mcreq	0, 0, r0, cr3, cr4, {1}
    12f4:	3b01213a 	blcc	497e4 <__exidx_end+0x487a0>
    12f8:	490b390b 	stmdbmi	fp, {r0, r1, r3, r8, fp, ip, sp}
    12fc:	b7170213 			@ <UNDEFINED> instruction: 0xb7170213
    1300:	00001742 	andeq	r1, r0, r2, asr #14
    1304:	02004906 	andeq	r4, r0, #98304	@ 0x18000
    1308:	00187e18 	andseq	r7, r8, r8, lsl lr
    130c:	00480700 	subeq	r0, r8, r0, lsl #14
    1310:	137f017d 	cmnne	pc, #1073741855	@ 0x4000001f
    1314:	0d080000 	stceq	0, cr0, [r8, #-0]
    1318:	3a080300 	bcc	201f20 <__exidx_end+0x200edc>
    131c:	390b3b0b 	stmdbcc	fp, {r0, r1, r3, r8, r9, fp, ip, sp}
    1320:	3813490b 	ldmdacc	r3, {r0, r1, r3, r8, fp, lr}
    1324:	0900000b 	stmdbeq	r0, {r0, r1, r3}
    1328:	13490026 	movtne	r0, #36902	@ 0x9026
    132c:	130a0000 	movwne	r0, #40960	@ 0xa000
    1330:	0b0e0301 	bleq	381f3c <__exidx_end+0x380ef8>
    1334:	2101880b 	tstcs	r1, fp, lsl #16
    1338:	04213a04 	strteq	r3, [r1], #-2564	@ 0xfffff5fc
    133c:	21390b3b 	teqcs	r9, fp, lsr fp
    1340:	00130109 	andseq	r0, r3, r9, lsl #2
    1344:	00340b00 	eorseq	r0, r4, r0, lsl #22
    1348:	0b3a0e03 	bleq	e84b5c <__exidx_end+0xe83b18>
    134c:	0b390b3b 	bleq	e44040 <__exidx_end+0xe42ffc>
    1350:	193f1349 	ldmdbne	pc!, {r0, r3, r6, r8, r9, ip}	@ <UNPREDICTABLE>
    1354:	0000193c 	andeq	r1, r0, ip, lsr r9
    1358:	4900050c 	stmdbmi	r0, {r2, r3, r8, sl}
    135c:	0d000013 	stceq	0, cr0, [r0, #-76]	@ 0xffffffb4
    1360:	13490035 	movtne	r0, #36917	@ 0x9035
    1364:	480e0000 	stmdami	lr, {}	@ <UNPREDICTABLE>
    1368:	7f017d01 	svcvc	0x00017d01
    136c:	00130113 	andseq	r0, r3, r3, lsl r1
    1370:	00050f00 	andeq	r0, r5, r0, lsl #30
    1374:	213a0e03 	teqcs	sl, r3, lsl #28
    1378:	390b3b01 	stmdbcc	fp, {r0, r8, r9, fp, ip, sp}
    137c:	0213490b 	andseq	r4, r3, #180224	@ 0x2c000
    1380:	1742b717 	smlaldne	fp, r2, r7, r7
    1384:	0d100000 	ldceq	0, cr0, [r0, #-0]
    1388:	3a0e0300 	bcc	381f90 <__exidx_end+0x380f4c>
    138c:	0b3b0421 	bleq	ec2418 <__exidx_end+0xec13d4>
    1390:	13490b39 	movtne	r0, #39737	@ 0x9b39
    1394:	04210188 	strteq	r0, [r1], #-392	@ 0xfffffe78
    1398:	00000b38 	andeq	r0, r0, r8, lsr fp
    139c:	49002111 	stmdbmi	r0, {r0, r4, r8, sp}
    13a0:	000b2f13 	andeq	r2, fp, r3, lsl pc
    13a4:	00341200 	eorseq	r1, r4, r0, lsl #4
    13a8:	213a0e03 	teqcs	sl, r3, lsl #28
    13ac:	39053b01 	stmdbcc	r5, {r0, r8, r9, fp, ip, sp}
    13b0:	0213490b 	andseq	r4, r3, #180224	@ 0x2c000
    13b4:	13000018 	movwne	r0, #24
    13b8:	193f012e 	ldmdbne	pc!, {r1, r2, r3, r5, r8}	@ <UNPREDICTABLE>
    13bc:	213a0e03 	teqcs	sl, r3, lsl #28
    13c0:	390b3b05 	stmdbcc	fp, {r0, r2, r8, r9, fp, ip, sp}
    13c4:	19270821 	stmdbne	r7!, {r0, r5, fp}
    13c8:	193c1349 	ldmdbne	ip!, {r0, r3, r6, r8, r9, ip}
    13cc:	00001301 	andeq	r1, r0, r1, lsl #6
    13d0:	3f012e14 	svccc	0x00012e14
    13d4:	3a0e0319 	bcc	382040 <__exidx_end+0x380ffc>
    13d8:	053b0121 	ldreq	r0, [fp, #-289]!	@ 0xfffffedf
    13dc:	19270b39 	stmdbne	r7!, {r0, r3, r4, r5, r8, r9, fp}
    13e0:	01111349 	tsteq	r1, r9, asr #6
    13e4:	18400612 	stmdane	r0, {r1, r4, r9, sl}^
    13e8:	1301197a 	movwne	r1, #6522	@ 0x197a
    13ec:	34150000 	ldrcc	r0, [r5], #-0
    13f0:	3a080300 	bcc	201ff8 <__exidx_end+0x200fb4>
    13f4:	053b0121 	ldreq	r0, [fp, #-289]!	@ 0xfffffedf
    13f8:	13490b39 	movtne	r0, #39737	@ 0x9b39
    13fc:	42b71702 	adcsmi	r1, r7, #524288	@ 0x80000
    1400:	16000017 			@ <UNDEFINED> instruction: 0x16000017
    1404:	193f012e 	ldmdbne	pc!, {r1, r2, r3, r5, r8}	@ <UNPREDICTABLE>
    1408:	213a0e03 	teqcs	sl, r3, lsl #28
    140c:	390b3b01 	stmdbcc	fp, {r0, r8, r9, fp, ip, sp}
    1410:	19270921 	stmdbne	r7!, {r0, r5, r8, fp}
    1414:	01111349 	tsteq	r1, r9, asr #6
    1418:	18400612 	stmdane	r0, {r1, r4, r9, sl}^
    141c:	1301197a 	movwne	r1, #6522	@ 0x197a
    1420:	2e170000 	cdpcs	0, 1, cr0, cr7, cr0, {0}
    1424:	03193f01 	tsteq	r9, #1, 30
    1428:	01213a0e 			@ <UNDEFINED> instruction: 0x01213a0e
    142c:	21390b3b 	teqcs	r9, fp, lsr fp
    1430:	11192707 	tstne	r9, r7, lsl #14
    1434:	40061201 	andmi	r1, r6, r1, lsl #4
    1438:	01197a18 	tsteq	r9, r8, lsl sl
    143c:	18000013 	stmdane	r0, {r0, r1, r4}
    1440:	0e250111 	mcreq	1, 1, r0, cr5, cr1, {0}
    1444:	0e030b13 	vmoveq.32	d3[0], r0
    1448:	17550e1b 	smmlane	r5, fp, lr, r0
    144c:	17100111 			@ <UNDEFINED> instruction: 0x17100111
    1450:	24190000 	ldrcs	r0, [r9], #-0
    1454:	3e0b0b00 	vmlacc.f64	d0, d11, d0
    1458:	0008030b 	andeq	r0, r8, fp, lsl #6
    145c:	01131a00 	tsteq	r3, r0, lsl #20
    1460:	0b3a0b0b 	bleq	e84094 <__exidx_end+0xe83050>
    1464:	0b390b3b 	bleq	e44158 <__exidx_end+0xe43114>
    1468:	00001301 	andeq	r1, r0, r1, lsl #6
    146c:	4901011b 	stmdbmi	r1, {r0, r1, r3, r4, r8}
    1470:	00130113 	andseq	r0, r3, r3, lsl r1
    1474:	00161c00 	andseq	r1, r6, r0, lsl #24
    1478:	0b3a0803 	bleq	e8348c <__exidx_end+0xe82448>
    147c:	0b390b3b 	bleq	e44170 <__exidx_end+0xe4312c>
    1480:	00001349 	andeq	r1, r0, r9, asr #6
    1484:	4901011d 	stmdbmi	r1, {r0, r2, r3, r4, r8}
    1488:	0b018813 	bleq	634dc <__exidx_end+0x62498>
    148c:	00001301 	andeq	r1, r0, r1, lsl #6
    1490:	3f012e1e 	svccc	0x00012e1e
    1494:	3a0e0319 	bcc	382100 <__exidx_end+0x3810bc>
    1498:	390b3b0b 	stmdbcc	fp, {r0, r1, r3, r8, r9, fp, ip, sp}
    149c:	3c19270b 	ldccc	7, cr2, [r9], {11}
    14a0:	00130119 	andseq	r0, r3, r9, lsl r1
    14a4:	002e1f00 	eoreq	r1, lr, r0, lsl #30
    14a8:	0e03193f 			@ <UNDEFINED> instruction: 0x0e03193f
    14ac:	0b3b0b3a 	bleq	ec419c <__exidx_end+0xec3158>
    14b0:	19270b39 	stmdbne	r7!, {r0, r3, r4, r5, r8, r9, fp}
    14b4:	193c1349 	ldmdbne	ip!, {r0, r3, r6, r8, r9, ip}
    14b8:	2e200000 	cdpcs	0, 2, cr0, cr0, cr0, {0}
    14bc:	03193f01 	tsteq	r9, #1, 30
    14c0:	3b0b3a0e 	blcc	2cfd00 <__exidx_end+0x2cecbc>
    14c4:	270b3905 	strcs	r3, [fp, -r5, lsl #18]
    14c8:	12011119 	andne	r1, r1, #1073741830	@ 0x40000006
    14cc:	7a184006 	bvc	6114ec <__exidx_end+0x6104a8>
    14d0:	00130119 	andseq	r0, r3, r9, lsl r1
    14d4:	00052100 	andeq	r2, r5, r0, lsl #2
    14d8:	0b3a0e03 	bleq	e84cec <__exidx_end+0xe83ca8>
    14dc:	0b39053b 	bleq	e429d0 <__exidx_end+0xe4198c>
    14e0:	18021349 	stmdane	r2, {r0, r3, r6, r8, r9, ip}
    14e4:	05220000 	streq	r0, [r2, #-0]!
    14e8:	3a0e0300 	bcc	3820f0 <__exidx_end+0x3810ac>
    14ec:	39053b0b 	stmdbcc	r5, {r0, r1, r3, r8, r9, fp, ip, sp}
    14f0:	0213490b 	andseq	r4, r3, #180224	@ 0x2c000
    14f4:	1742b717 	smlaldne	fp, r2, r7, r7
    14f8:	0b230000 	bleq	8c1500 <__exidx_end+0x8c04bc>
    14fc:	12011101 	andne	r1, r1, #1073741824	@ 0x40000000
    1500:	00130106 	andseq	r0, r3, r6, lsl #2
    1504:	010b2400 	tsteq	fp, r0, lsl #8
    1508:	13011755 	movwne	r1, #5973	@ 0x1755
    150c:	0b250000 	bleq	941514 <__exidx_end+0x9404d0>
    1510:	00175501 	andseq	r5, r7, r1, lsl #10
    1514:	00342600 	eorseq	r2, r4, r0, lsl #12
    1518:	0b3a0803 	bleq	e8352c <__exidx_end+0xe824e8>
    151c:	0b390b3b 	bleq	e44210 <__exidx_end+0xe431cc>
    1520:	17021349 	strne	r1, [r2, -r9, asr #6]
    1524:	001742b7 			@ <UNDEFINED> instruction: 0x001742b7
    1528:	000a2700 	andeq	r2, sl, r0, lsl #14
    152c:	0b3a0e03 	bleq	e84d40 <__exidx_end+0xe83cfc>
    1530:	0b390b3b 	bleq	e44224 <__exidx_end+0xe431e0>
    1534:	00000111 	andeq	r0, r0, r1, lsl r1
    1538:	31001d28 	tstcc	r0, r8, lsr #26
    153c:	b8015213 	stmdalt	r1, {r0, r1, r4, r9, ip, lr}
    1540:	17550b42 	ldrbne	r0, [r5, -r2, asr #22]
    1544:	0b590b58 	bleq	16442ac <__exidx_end+0x1643268>
    1548:	00000b57 	andeq	r0, r0, r7, asr fp
    154c:	7d014829 	stcvc	8, cr4, [r1, #-164]	@ 0xffffff5c
    1550:	00137f01 	andseq	r7, r3, r1, lsl #30
    1554:	00482a00 	subeq	r2, r8, r0, lsl #20
    1558:	0182017d 	orreq	r0, r2, sp, ror r1
    155c:	00137f19 	andseq	r7, r3, r9, lsl pc
    1560:	00052b00 	andeq	r2, r5, r0, lsl #22
    1564:	0b3a0e03 	bleq	e84d78 <__exidx_end+0xe83d34>
    1568:	0b390b3b 	bleq	e4425c <__exidx_end+0xe43218>
    156c:	18021349 	stmdane	r2, {r0, r3, r6, r8, r9, ip}
    1570:	2e2c0000 	cdpcs	0, 2, cr0, cr12, cr0, {0}
    1574:	03193f00 	tsteq	r9, #0, 30
    1578:	3b0b3a0e 	blcc	2cfdb8 <__exidx_end+0x2ced74>
    157c:	270b390b 	strcs	r3, [fp, -fp, lsl #18]
    1580:	20134919 	andscs	r4, r3, r9, lsl r9
    1584:	2d00000b 	stccs	0, cr0, [r0, #-44]	@ 0xffffffd4
    1588:	1331002e 	teqne	r1, #46	@ 0x2e
    158c:	06120111 			@ <UNDEFINED> instruction: 0x06120111
    1590:	197a1840 	ldmdbne	sl!, {r6, fp, ip}^
    1594:	01000000 	mrseq	r0, (UNDEF: 0)
    1598:	0e03000d 	cdpeq	0, 0, cr0, cr3, cr13, {0}
    159c:	3b02213a 	blcc	89a8c <__exidx_end+0x88a48>
    15a0:	1321390b 			@ <UNDEFINED> instruction: 0x1321390b
    15a4:	0b381349 	bleq	e062d0 <__exidx_end+0xe0528c>
    15a8:	24020000 	strcs	r0, [r2], #-0
    15ac:	3e0b0b00 	vmlacc.f64	d0, d11, d0
    15b0:	000e030b 	andeq	r0, lr, fp, lsl #6
    15b4:	01110300 	tsteq	r1, r0, lsl #6
    15b8:	0b130e25 	bleq	4c4e54 <__exidx_end+0x4c3e10>
    15bc:	0e1b0e03 	cdpeq	14, 1, cr0, cr11, cr3, {0}
    15c0:	01111755 	tsteq	r1, r5, asr r7
    15c4:	00001710 	andeq	r1, r0, r0, lsl r7
    15c8:	03011304 	movweq	r1, #4868	@ 0x1304
    15cc:	3a0b0b0e 	bcc	2c420c <__exidx_end+0x2c31c8>
    15d0:	390b3b0b 	stmdbcc	fp, {r0, r1, r3, r8, r9, fp, ip, sp}
    15d4:	0013010b 	andseq	r0, r3, fp, lsl #2
    15d8:	00260500 	eoreq	r0, r6, r0, lsl #10
    15dc:	00001349 	andeq	r1, r0, r9, asr #6
    15e0:	03003406 	movweq	r3, #1030	@ 0x406
    15e4:	3b0b3a0e 	blcc	2cfe24 <__exidx_end+0x2cede0>
    15e8:	490b390b 	stmdbmi	fp, {r0, r1, r3, r8, fp, ip, sp}
    15ec:	3c193f13 	ldccc	15, cr3, [r9], {19}
    15f0:	07000019 	smladeq	r0, r9, r0, r0
    15f4:	13470034 	movtne	r0, #28724	@ 0x7034
    15f8:	0b3b0b3a 	bleq	ec42e8 <__exidx_end+0xec32a4>
    15fc:	18020b39 	stmdane	r2, {r0, r3, r4, r5, r8, r9, fp}
    1600:	2e080000 	cdpcs	0, 0, cr0, cr8, cr0, {0}
    1604:	03193f00 	tsteq	r9, #0, 30
    1608:	3b0b3a0e 	blcc	2cfe48 <__exidx_end+0x2cee04>
    160c:	270b390b 	strcs	r3, [fp, -fp, lsl #18]
    1610:	11134919 	tstne	r3, r9, lsl r9
    1614:	40061201 	andmi	r1, r6, r1, lsl #4
    1618:	00197a18 	andseq	r7, r9, r8, lsl sl
    161c:	012e0900 			@ <UNDEFINED> instruction: 0x012e0900
    1620:	0e03193f 			@ <UNDEFINED> instruction: 0x0e03193f
    1624:	0b3b0b3a 	bleq	ec4314 <__exidx_end+0xec32d0>
    1628:	19270b39 	stmdbne	r7!, {r0, r3, r4, r5, r8, r9, fp}
    162c:	0b201349 	bleq	806358 <__exidx_end+0x805314>
    1630:	00001301 	andeq	r1, r0, r1, lsl #6
    1634:	0300340a 	movweq	r3, #1034	@ 0x40a
    1638:	3b0b3a0e 	blcc	2cfe78 <__exidx_end+0x2cee34>
    163c:	490b390b 	stmdbmi	fp, {r0, r1, r3, r8, fp, ip, sp}
    1640:	0b000013 	bleq	1694 <__exidx_end+0x650>
    1644:	1331012e 	teqne	r1, #-2147483637	@ 0x8000000b
    1648:	06120111 			@ <UNDEFINED> instruction: 0x06120111
    164c:	197a1840 	ldmdbne	sl!, {r6, fp, ip}^
    1650:	340c0000 	strcc	r0, [ip], #-0
    1654:	1c133100 	ldfnes	f3, [r3], {-0}
    1658:	00000005 	andeq	r0, r0, r5
    165c:	0b002401 	bleq	a668 <__exidx_end+0x9624>
    1660:	030b3e0b 	movweq	r3, #48651	@ 0xbe0b
    1664:	0200000e 	andeq	r0, r0, #14
    1668:	0e030016 	mcreq	0, 0, r0, cr3, cr6, {0}
    166c:	3b02213a 	blcc	89b5c <__exidx_end+0x88b18>
    1670:	0e21390b 	vmuleq.f16	s6, s2, s22	@ <UNPREDICTABLE>
    1674:	00001349 	andeq	r1, r0, r9, asr #6
    1678:	25011103 	strcs	r1, [r1, #-259]	@ 0xfffffefd
    167c:	030b130e 	movweq	r1, #45838	@ 0xb30e
    1680:	550e1b0e 	strpl	r1, [lr, #-2830]	@ 0xfffff4f2
    1684:	10011117 	andne	r1, r1, r7, lsl r1
    1688:	04000017 	streq	r0, [r0], #-23	@ 0xffffffe9
    168c:	0b0b0024 	bleq	2c1724 <__exidx_end+0x2c06e0>
    1690:	08030b3e 	stmdaeq	r3, {r1, r2, r3, r4, r5, r8, r9, fp}
    1694:	35050000 	strcc	r0, [r5, #-0]
    1698:	00134900 	andseq	r4, r3, r0, lsl #18
    169c:	00340600 	eorseq	r0, r4, r0, lsl #12
    16a0:	0b3a0e03 	bleq	e84eb4 <__exidx_end+0xe83e70>
    16a4:	0b390b3b 	bleq	e44398 <__exidx_end+0xe43354>
    16a8:	193f1349 	ldmdbne	pc!, {r0, r3, r6, r8, r9, ip}	@ <UNPREDICTABLE>
    16ac:	0000193c 	andeq	r1, r0, ip, lsr r9
    16b0:	47003407 	strmi	r3, [r0, -r7, lsl #8]
    16b4:	3b0b3a13 	blcc	2cff08 <__exidx_end+0x2ceec4>
    16b8:	020b390b 	andeq	r3, fp, #180224	@ 0x2c000
    16bc:	08000018 	stmdaeq	r0, {r3, r4}
    16c0:	193f012e 	ldmdbne	pc!, {r1, r2, r3, r5, r8}	@ <UNPREDICTABLE>
    16c4:	0b3a0e03 	bleq	e84ed8 <__exidx_end+0xe83e94>
    16c8:	0b390b3b 	bleq	e443bc <__exidx_end+0xe43378>
    16cc:	01111927 	tsteq	r1, r7, lsr #18
    16d0:	18400612 	stmdane	r0, {r1, r4, r9, sl}^
    16d4:	0000197a 	andeq	r1, r0, sl, ror r9
    16d8:	03000509 	movweq	r0, #1289	@ 0x509
    16dc:	3b0b3a0e 	blcc	2cff1c <__exidx_end+0x2ceed8>
    16e0:	490b390b 	stmdbmi	fp, {r0, r1, r3, r8, fp, ip, sp}
    16e4:	00180213 	andseq	r0, r8, r3, lsl r2
	...

Disassembly of section .debug_loclists:

00000000 <.debug_loclists>:
       0:	000000a2 	andeq	r0, r0, r2, lsr #1
       4:	00040005 	andeq	r0, r4, r5
	...
      10:	0001f806 	andeq	pc, r1, r6, lsl #16
      14:	06000400 	streq	r0, [r0], -r0, lsl #8
      18:	06045001 	streq	r5, [r4], -r1
      1c:	01a3042c 			@ <UNDEFINED> instruction: 0x01a3042c
      20:	00009f50 	andeq	r9, r0, r0, asr pc
      24:	06000000 	streq	r0, [r0], -r0
      28:	0000020a 	andeq	r0, r0, sl, lsl #4
      2c:	01020004 	tsteq	r2, r4
      30:	06020450 			@ <UNDEFINED> instruction: 0x06020450
      34:	9f677003 	svcls	0x00677003
      38:	00000000 	andeq	r0, r0, r0
      3c:	01cc0600 	biceq	r0, ip, r0, lsl #12
      40:	00040000 	andeq	r0, r4, r0
      44:	0450010a 	ldrbeq	r0, [r0], #-266	@ 0xfffffef6
      48:	a3042c0a 	movwge	r2, #19466	@ 0x4c0a
      4c:	009f5001 	addseq	r5, pc, r1
      50:	00000000 	andeq	r0, r0, r0
      54:	00019806 	andeq	r9, r1, r6, lsl #16
      58:	08000400 	stmdaeq	r0, {sl}
      5c:	08045001 	stmdaeq	r4, {r0, ip, lr}
      60:	01a30434 			@ <UNDEFINED> instruction: 0x01a30434
      64:	01009f50 	tsteq	r0, r0, asr pc
      68:	01b20800 			@ <UNDEFINED> instruction: 0x01b20800
      6c:	03050000 	movweq	r0, #20480	@ 0x5000
      70:	00066c91 	muleq	r6, r1, ip
      74:	00000000 	andeq	r0, r0, r0
      78:	00010100 	andeq	r0, r1, r0, lsl #2
      7c:	00016006 	andeq	r6, r1, r6
      80:	0e000400 	cfcpyseq	mvf0, mvf0
      84:	0e045001 	cdpeq	0, 0, cr5, cr4, cr1, {0}
      88:	01700312 	cmneq	r0, r2, lsl r3
      8c:	1e12049f 	cfcmpsne	r0, mvf2, mvf15
      90:	1e045001 	cdpne	0, 0, cr5, cr4, cr1, {0}
      94:	0170032c 	cmneq	r0, ip, lsr #6
      98:	0001009f 	muleq	r1, pc, r0	@ <UNPREDICTABLE>
      9c:	00017e08 	andeq	r7, r1, r8, lsl #28
      a0:	70020400 	andvc	r0, r2, r0, lsl #8
      a4:	01290000 			@ <UNDEFINED> instruction: 0x01290000
      a8:	00050000 	andeq	r0, r5, r0
      ac:	00000004 	andeq	r0, r0, r4
	...
      b8:	00035406 	andeq	r5, r3, r6, lsl #8
      bc:	02000400 	andeq	r0, r0, #0, 8
      c0:	02045001 	andeq	r5, r4, #1
      c4:	01700312 	cmneq	r0, r2, lsl r3
      c8:	1e12049f 	cfcmpsne	r0, mvf2, mvf15
      cc:	5001a304 	andpl	sl, r1, r4, lsl #6
      d0:	0000009f 	muleq	r0, pc, r0	@ <UNPREDICTABLE>
      d4:	00060000 	andeq	r0, r6, r0
      d8:	04000000 	streq	r0, [r0], #-0
      dc:	50011400 	andpl	r1, r1, r0, lsl #8
      e0:	04241404 	strteq	r1, [r4], #-1028	@ 0xfffffbfc
      e4:	9f5001a3 	svcls	0x005001a3
      e8:	00000000 	andeq	r0, r0, r0
      ec:	00000600 	andeq	r0, r0, r0, lsl #12
      f0:	00040000 	andeq	r0, r4, r0
      f4:	0450010e 	ldrbeq	r0, [r0], #-270	@ 0xfffffef2
      f8:	a3041c0e 	movwge	r1, #19470	@ 0x4c0e
      fc:	009f5001 	addseq	r5, pc, r1
     100:	00000000 	andeq	r0, r0, r0
     104:	00000006 	andeq	r0, r0, r6
     108:	0e000400 	cfcpyseq	mvf0, mvf0
     10c:	0e045001 	cdpeq	0, 0, cr5, cr4, cr1, {0}
     110:	01a3041c 			@ <UNDEFINED> instruction: 0x01a3041c
     114:	00009f50 	andeq	r9, r0, r0, asr pc
     118:	06000000 	streq	r0, [r0], -r0
     11c:	00000000 	andeq	r0, r0, r0
     120:	010e0004 	tsteq	lr, r4
     124:	1c0e0450 	cfstrsne	mvf0, [lr], {80}	@ 0x50
     128:	5001a304 	andpl	sl, r1, r4, lsl #6
     12c:	0000009f 	muleq	r0, pc, r0	@ <UNPREDICTABLE>
     130:	00060000 	andeq	r0, r6, r0
     134:	04000000 	streq	r0, [r0], #-0
     138:	50010e00 	andpl	r0, r1, r0, lsl #28
     13c:	041c0e04 	ldreq	r0, [ip], #-3588	@ 0xfffff1fc
     140:	9f5001a3 	svcls	0x005001a3
     144:	00000000 	andeq	r0, r0, r0
     148:	00000600 	andeq	r0, r0, r0, lsl #12
     14c:	00040000 	andeq	r0, r4, r0
     150:	04500108 	ldrbeq	r0, [r0], #-264	@ 0xfffffef8
     154:	a3042408 	movwge	r2, #17416	@ 0x4408
     158:	009f5001 	addseq	r5, pc, r1
     15c:	00000000 	andeq	r0, r0, r0
     160:	00032c06 	andeq	r2, r3, r6, lsl #24
     164:	08000400 	stmdaeq	r0, {sl}
     168:	08045001 	stmdaeq	r4, {r0, ip, lr}
     16c:	01a30428 			@ <UNDEFINED> instruction: 0x01a30428
     170:	00009f50 	andeq	r9, r0, r0, asr pc
     174:	06000000 	streq	r0, [r0], -r0
     178:	0000032c 	andeq	r0, r0, ip, lsr #6
     17c:	010e0004 	tsteq	lr, r4
     180:	280e0451 	stmdacs	lr, {r0, r4, r6, sl}
     184:	5101a304 	tstpl	r1, r4, lsl #6
     188:	0000009f 	muleq	r0, pc, r0	@ <UNPREDICTABLE>
     18c:	00060000 	andeq	r0, r6, r0
     190:	04000000 	streq	r0, [r0], #-0
     194:	50010200 	andpl	r0, r1, r0, lsl #4
     198:	04200204 	strteq	r0, [r0], #-516	@ 0xfffffdfc
     19c:	9f5001a3 	svcls	0x005001a3
     1a0:	00000200 	andeq	r0, r0, r0, lsl #4
     1a4:	00000600 	andeq	r0, r0, r0, lsl #12
     1a8:	00040000 	andeq	r0, r4, r0
     1ac:	04500104 	ldrbeq	r0, [r0], #-260	@ 0xfffffefc
     1b0:	73020e04 	movwvc	r0, #11780	@ 0x2e04
     1b4:	0003000c 	andeq	r0, r3, ip
     1b8:	00060000 	andeq	r0, r6, r0
     1bc:	04000000 	streq	r0, [r0], #-0
     1c0:	70050200 	andvc	r0, r5, r0, lsl #4
     1c4:	9f1a3700 	svcls	0x001a3700
     1c8:	06200204 	strteq	r0, [r0], -r4, lsl #4
     1cc:	375001a3 	ldrbcc	r0, [r0, -r3, lsr #3]
     1d0:	cd009f1a 	stcgt	15, cr9, [r0, #-104]	@ 0xffffff98
     1d4:	05000002 	streq	r0, [r0, #-2]
     1d8:	00000400 	andeq	r0, r0, r0, lsl #8
     1dc:	00000000 	andeq	r0, r0, r0
     1e0:	06000000 	streq	r0, [r0], -r0
     1e4:	00000000 	andeq	r0, r0, r0
     1e8:	01090004 	tsteq	r9, r4
     1ec:	46090450 			@ <UNDEFINED> instruction: 0x46090450
     1f0:	00005401 	andeq	r5, r0, r1, lsl #8
     1f4:	06000000 	streq	r0, [r0], -r0
     1f8:	00000000 	andeq	r0, r0, r0
     1fc:	01090004 	tsteq	r9, r4
     200:	46090451 			@ <UNDEFINED> instruction: 0x46090451
     204:	00005501 	andeq	r5, r0, r1, lsl #10
	...
     214:	06000000 	streq	r0, [r0], -r0
     218:	00000000 	andeq	r0, r0, r0
     21c:	01080004 	tsteq	r8, r4
     220:	18080450 	stmdane	r8, {r4, r6, sl}
     224:	18045601 	stmdane	r4, {r0, r9, sl, ip, lr}
     228:	04500120 	ldrbeq	r0, [r0], #-288	@ 0xfffffee0
     22c:	56012220 	strpl	r2, [r1], -r0, lsr #4
     230:	01292204 			@ <UNDEFINED> instruction: 0x01292204
     234:	30290450 	eorcc	r0, r9, r0, asr r4
     238:	30045601 	andcc	r5, r4, r1, lsl #12
     23c:	04500135 	ldrbeq	r0, [r0], #-309	@ 0xfffffecb
     240:	56013a35 			@ <UNDEFINED> instruction: 0x56013a35
     244:	00000000 	andeq	r0, r0, r0
     248:	00000600 	andeq	r0, r0, r0, lsl #12
     24c:	00040000 	andeq	r0, r4, r0
     250:	04500102 	ldrbeq	r0, [r0], #-258	@ 0xfffffefe
     254:	a3040a02 	movwge	r0, #18946	@ 0x4a02
     258:	009f5001 	addseq	r5, pc, r1
	...
     268:	0004fc06 	andeq	pc, r4, r6, lsl #24
     26c:	0d000400 	cfstrseq	mvf0, [r0, #-0]
     270:	0d045001 	stceq	0, cr5, [r4, #-4]
     274:	0454014e 	ldrbeq	r0, [r4], #-334	@ 0xfffffeb2
     278:	a304544e 	movwge	r5, #17486	@ 0x444e
     27c:	049f5001 	ldreq	r5, [pc], #1	@ 284 <main+0x60>
     280:	0101d654 	tsteq	r1, r4, asr r6
     284:	01d60454 	bicseq	r0, r6, r4, asr r4
     288:	740302a0 	strvc	r0, [r3], #-672	@ 0xfffffd60
     28c:	a0049f74 	andge	r9, r4, r4, ror pc
     290:	0402b802 	streq	fp, [r2], #-2050	@ 0xfffff7fe
     294:	9f5001a3 	svcls	0x005001a3
     298:	00000000 	andeq	r0, r0, r0
     29c:	04fc0600 	ldrbteq	r0, [ip], #1536	@ 0x600
     2a0:	00040000 	andeq	r0, r4, r0
     2a4:	0451010d 	ldrbeq	r0, [r1], #-269	@ 0xfffffef3
     2a8:	0102b80d 	tsteq	r2, sp, lsl #16
     2ac:	00000057 	andeq	r0, r0, r7, asr r0
     2b0:	fc060000 	stc2	0, cr0, [r6], {-0}
     2b4:	04000004 	streq	r0, [r0], #-4
     2b8:	52010d00 	andpl	r0, r1, #0, 26
     2bc:	02b80d04 	adcseq	r0, r8, #4, 26	@ 0x100
     2c0:	00005601 	andeq	r5, r0, r1, lsl #12
	...
     2cc:	06000000 	streq	r0, [r0], -r0
     2d0:	00000510 	andeq	r0, r0, r0, lsl r5
     2d4:	010c0004 	tsteq	ip, r4
     2d8:	940c0450 	strls	r0, [ip], #-1104	@ 0xfffffbb0
     2dc:	04550101 	ldrbeq	r0, [r5], #-257	@ 0xfffffeff
     2e0:	019f0194 			@ <UNDEFINED> instruction: 0x019f0194
     2e4:	9f045001 	svcls	0x00045001
     2e8:	0101a601 	tsteq	r1, r1, lsl #12
     2ec:	01a60455 			@ <UNDEFINED> instruction: 0x01a60455
     2f0:	500101b0 			@ <UNDEFINED> instruction: 0x500101b0
     2f4:	a401b004 	strge	fp, [r1], #-4
     2f8:	00550102 	subseq	r0, r5, r2, lsl #2
     2fc:	00000000 	andeq	r0, r0, r0
     300:	00000006 	andeq	r0, r0, r6
     304:	09000400 	stmdbeq	r0, {sl}
     308:	09045001 	stmdbeq	r4, {r0, ip, lr}
     30c:	00540130 	subseq	r0, r4, r0, lsr r1
     310:	00000000 	andeq	r0, r0, r0
     314:	00000006 	andeq	r0, r0, r6
     318:	09000400 	stmdbeq	r0, {sl}
     31c:	09045101 	stmdbeq	r4, {r0, r8, ip, lr}
     320:	00550130 	subseq	r0, r5, r0, lsr r1
     324:	00000000 	andeq	r0, r0, r0
     328:	00000006 	andeq	r0, r0, r6
     32c:	08000400 	stmdaeq	r0, {sl}
     330:	08045001 	stmdaeq	r4, {r0, ip, lr}
     334:	00560124 	subseq	r0, r6, r4, lsr #2
	...
     344:	0003c406 	andeq	ip, r3, r6, lsl #8
     348:	0d000400 	cfstrseq	mvf0, [r0, #-0]
     34c:	0d045001 	stceq	0, cr5, [r4, #-4]
     350:	0454014e 	ldrbeq	r0, [r4], #-334	@ 0xfffffeb2
     354:	a304544e 	movwge	r5, #17486	@ 0x444e
     358:	049f5001 	ldreq	r5, [pc], #1	@ 360 <kCoreSysTickConfig+0xc>
     35c:	0101d054 	qaddeq	sp, r4, r1
     360:	01d00454 	bicseq	r0, r0, r4, asr r4
     364:	740302a2 	strvc	r0, [r3], #-674	@ 0xfffffd5e
     368:	a2049f74 	andge	r9, r4, #116, 30	@ 0x1d0
     36c:	0402b802 	streq	fp, [r2], #-2050	@ 0xfffff7fe
     370:	9f5001a3 	svcls	0x005001a3
     374:	00000000 	andeq	r0, r0, r0
     378:	03c40600 	biceq	r0, r4, #0, 12
     37c:	00040000 	andeq	r0, r4, r0
     380:	0451010d 	ldrbeq	r0, [r1], #-269	@ 0xfffffef3
     384:	0102b80d 	tsteq	r2, sp, lsl #16
     388:	00000057 	andeq	r0, r0, r7, asr r0
     38c:	c4060000 	strgt	r0, [r6], #-0
     390:	04000003 	streq	r0, [r0], #-3
     394:	52010d00 	andpl	r0, r1, #0, 26
     398:	02b80d04 	adcseq	r0, r8, #4, 26	@ 0x100
     39c:	00005601 	andeq	r5, r0, r1, lsl #12
	...
     3a8:	06000000 	streq	r0, [r0], -r0
     3ac:	000003d8 	ldrdeq	r0, [r0], -r8
     3b0:	010c0004 	tsteq	ip, r4
     3b4:	940c0450 	strls	r0, [ip], #-1104	@ 0xfffffbb0
     3b8:	04550101 	ldrbeq	r0, [r5], #-257	@ 0xfffffeff
     3bc:	019f0194 			@ <UNDEFINED> instruction: 0x019f0194
     3c0:	9f045001 	svcls	0x00045001
     3c4:	0101a601 	tsteq	r1, r1, lsl #12
     3c8:	01a60455 			@ <UNDEFINED> instruction: 0x01a60455
     3cc:	500101b0 			@ <UNDEFINED> instruction: 0x500101b0
     3d0:	a401b004 	strge	fp, [r1], #-4
     3d4:	00550102 	subseq	r0, r5, r2, lsl #2
     3d8:	00000000 	andeq	r0, r0, r0
     3dc:	00000006 	andeq	r0, r0, r6
     3e0:	09000400 	stmdbeq	r0, {sl}
     3e4:	09045001 	stmdbeq	r4, {r0, ip, lr}
     3e8:	00540126 	subseq	r0, r4, r6, lsr #2
     3ec:	00000000 	andeq	r0, r0, r0
     3f0:	00000006 	andeq	r0, r0, r6
     3f4:	09000400 	stmdbeq	r0, {sl}
     3f8:	09045101 	stmdbeq	r4, {r0, r8, ip, lr}
     3fc:	00550126 	subseq	r0, r5, r6, lsr #2
     400:	00000000 	andeq	r0, r0, r0
     404:	00060000 	andeq	r0, r6, r0
     408:	04000000 	streq	r0, [r0], #-0
     40c:	50010900 	andpl	r0, r1, r0, lsl #18
     410:	01100e04 	tsteq	r0, r4, lsl #28
     414:	13100450 	tstne	r0, #80, 8	@ 0x50000000
     418:	00005301 	andeq	r5, r0, r1, lsl #6
     41c:	06000000 	streq	r0, [r0], -r0
     420:	00000374 	andeq	r0, r0, r4, ror r3
     424:	01090004 	tsteq	r9, r4
     428:	50090450 	andpl	r0, r9, r0, asr r4
     42c:	00005401 	andeq	r5, r0, r1, lsl #8
	...
     438:	06000000 	streq	r0, [r0], -r0
     43c:	00000374 	andeq	r0, r0, r4, ror r3
     440:	01090004 	tsteq	r9, r4
     444:	20090451 	andcs	r0, r9, r1, asr r4
     448:	20045501 	andcs	r5, r4, r1, lsl #10
     44c:	01a30422 			@ <UNDEFINED> instruction: 0x01a30422
     450:	22049f51 	andcs	r9, r4, #324	@ 0x144
     454:	04550132 	ldrbeq	r0, [r5], #-306	@ 0xfffffece
     458:	74024532 	strvc	r4, [r2], #-1330	@ 0xffffface
     45c:	50450408 	subpl	r0, r5, r8, lsl #8
     460:	5101a304 	tstpl	r1, r4, lsl #6
     464:	0000009f 	muleq	r0, pc, r0	@ <UNPREDICTABLE>
     468:	00000000 	andeq	r0, r0, r0
     46c:	80060000 	andhi	r0, r6, r0
     470:	04000003 	streq	r0, [r0], #-3
     474:	50010600 	andpl	r0, r1, r0, lsl #12
     478:	01160604 	tsteq	r6, r4, lsl #12
     47c:	39160456 	ldmdbcc	r6, {r1, r2, r4, r6, sl}
     480:	39045001 	stmdbcc	r4, {r0, ip, lr}
     484:	00560144 	subseq	r0, r6, r4, asr #2
     488:	a2080102 	andge	r0, r8, #-2147483648	@ 0x80000000
     48c:	0e000003 	cdpeq	0, 0, cr0, cr0, cr3, {0}
     490:	10120306 	andsne	r0, r2, r6, lsl #6
     494:	009f0000 	addseq	r0, pc, r0
     498:	a2080102 	andge	r0, r8, #-2147483648	@ 0x80000000
     49c:	0e000003 	cdpeq	0, 0, cr0, cr0, cr3, {0}
     4a0:	00107402 	andseq	r7, r0, r2, lsl #8
     4a4:	00000869 	andeq	r0, r0, r9, ror #16
     4a8:	00040005 	andeq	r0, r4, r5
     4ac:	00000000 	andeq	r0, r0, r0
     4b0:	00000002 	andeq	r0, r0, r2
     4b4:	00000000 	andeq	r0, r0, r0
     4b8:	000b8006 	andeq	r8, fp, r6
     4bc:	44000400 	strmi	r0, [r0], #-1024	@ 0xfffffc00
     4c0:	049f3002 	ldreq	r3, [pc], #2	@ 4c8 <kMboxPost+0x104>
     4c4:	55015644 	strpl	r5, [r1, #-1604]	@ 0xfffff9bc
     4c8:	025a5604 	subseq	r5, sl, #4, 12	@ 0x400000
     4cc:	70049f30 	andvc	r9, r4, r0, lsr pc
     4d0:	9f300272 	svcls	0x00300272
     4d4:	00000300 	andeq	r0, r0, r0, lsl #6
     4d8:	06000000 	streq	r0, [r0], -r0
     4dc:	00000b80 	andeq	r0, r0, r0, lsl #23
     4e0:	02300004 	eorseq	r0, r0, #4
     4e4:	30049f30 	andcc	r9, r4, r0, lsr pc
     4e8:	0454016a 	ldrbeq	r0, [r4], #-362	@ 0xfffffe96
     4ec:	01018070 	tsteq	r1, r0, ror r0
     4f0:	01040054 	qaddeq	r0, r4, r4
     4f4:	00000001 	andeq	r0, r0, r1
     4f8:	80060000 	andhi	r0, r6, r0
     4fc:	0400000b 	streq	r0, [r0], #-11
     500:	30025a00 	andcc	r5, r2, r0, lsl #20
     504:	605a049f 			@ <UNDEFINED> instruction: 0x605a049f
     508:	0e280317 	mcreq	3, 1, r0, cr8, cr7, {0}
     50c:	23062000 	movwcs	r2, #24576	@ 0x6000
     510:	29310604 	ldmdbcs	r1!, {r2, r9, sl}
     514:	741aff08 	ldrvc	pc, [sl], #-3848	@ 0xfffff0f8
     518:	00752100 	rsbseq	r2, r5, r0, lsl #2
     51c:	9f1a2731 	svcls	0x001a2731
     520:	156a6004 	strbne	r6, [sl, #-4]!
     524:	000e2803 	andeq	r2, lr, r3, lsl #16
     528:	04230620 	strteq	r0, [r3], #-1568	@ 0xfffff9e0
     52c:	08293106 	stmdaeq	r9!, {r1, r2, r8, ip, sp}
     530:	00741aff 	ldrshteq	r1, [r4], #-175	@ 0xffffff51
     534:	1a007521 	bne	1d9c0 <__exidx_end+0x1c97c>
     538:	8070049f 			@ <UNDEFINED> instruction: 0x8070049f
     53c:	9f300201 	svcls	0x00300201
     540:	08000000 	stmdaeq	r0, {}	@ <UNPREDICTABLE>
     544:	00000bc8 	andeq	r0, r0, r8, asr #23
     548:	0050010b 	subseq	r0, r0, fp, lsl #2
     54c:	2a080000 	bcs	200554 <__exidx_end+0x1ff510>
     550:	4800000b 	stmdami	r0, {r0, r1, r3}
     554:	02005501 	andeq	r5, r0, #4194304	@ 0x400000
     558:	00000303 	andeq	r0, r0, r3, lsl #6
     55c:	06000101 	streq	r0, [r0], -r1, lsl #2
     560:	00000a92 	muleq	r0, r2, sl
     564:	02000004 	andeq	r0, r0, #4
     568:	00049f30 	andeq	r9, r4, r0, lsr pc
     56c:	04510104 	ldrbeq	r0, [r1], #-260	@ 0xfffffefc
     570:	71030c04 	tstvc	r3, r4, lsl #24
     574:	0c049f7f 	stceq	15, cr9, [r4], {127}	@ 0x7f
     578:	0051011e 	subseq	r0, r1, lr, lsl r1
     57c:	01000000 	mrseq	r0, (UNDEF: 0)
     580:	b0060001 	andlt	r0, r6, r1
     584:	0400000a 	streq	r0, [r0], #-10
     588:	57010a00 	strpl	r0, [r1, -r0, lsl #20]
     58c:	030e0a04 	movweq	r0, #59908	@ 0xea04
     590:	049f7f77 	ldreq	r7, [pc], #3959	@ 598 <kMboxPend+0x9c>
     594:	5701700e 	strpl	r7, [r1, -lr]
     598:	00010000 	andeq	r0, r1, r0
     59c:	0a520601 	beq	1481da8 <__exidx_end+0x1480d64>
     5a0:	00040000 	andeq	r0, r4, r0
     5a4:	9f300200 	svcls	0x00300200
     5a8:	012a0c04 			@ <UNDEFINED> instruction: 0x012a0c04
     5ac:	01000057 	qaddeq	r0, r7, r0
     5b0:	52060000 	andpl	r0, r6, #0
     5b4:	0400000a 	streq	r0, [r0], #-10
     5b8:	30020000 	andcc	r0, r2, r0
     5bc:	160c049f 			@ <UNDEFINED> instruction: 0x160c049f
     5c0:	01005401 	tsteq	r0, r1, lsl #8
     5c4:	097c0800 	ldmdbeq	ip!, {fp}^
     5c8:	01040000 	mrseq	r0, (UNDEF: 4)
     5cc:	00000050 	andeq	r0, r0, r0, asr r0
     5d0:	6c060000 	stcvs	0, cr0, [r6], {-0}
     5d4:	04000008 	streq	r0, [r0], #-8
     5d8:	50012000 	andpl	r2, r1, r0
     5dc:	01f02004 	mvnseq	r2, r4
     5e0:	00005601 	andeq	r5, r0, r1, lsl #12
     5e4:	06000000 	streq	r0, [r0], -r0
     5e8:	0000086c 	andeq	r0, r0, ip, ror #16
     5ec:	011e0004 	tsteq	lr, r4
     5f0:	f01e0451 			@ <UNDEFINED> instruction: 0xf01e0451
     5f4:	00580101 	subseq	r0, r8, r1, lsl #2
     5f8:	00000000 	andeq	r0, r0, r0
     5fc:	00086c06 	andeq	r6, r8, r6, lsl #24
     600:	1c000400 	cfstrsne	mvf0, [r0], {-0}
     604:	1c045201 	sfmne	f5, 4, [r4], {1}
     608:	570101f0 			@ <UNDEFINED> instruction: 0x570101f0
	...
     614:	06000000 	streq	r0, [r0], -r0
     618:	0000086c 	andeq	r0, r0, ip, ror #16
     61c:	011a0004 	tsteq	sl, r4
     620:	8e1a0453 	cfmvrshi	r0, mvf10
     624:	04590101 	ldrbeq	r0, [r9], #-257	@ 0xfffffeff
     628:	019b018e 	orrseq	r0, fp, lr, lsl #3
     62c:	9b045201 	blls	114e38 <__exidx_end+0x113df4>
     630:	0101c201 	tsteq	r1, r1, lsl #4
     634:	01c20459 	biceq	r0, r2, r9, asr r4
     638:	520101f0 	andpl	r0, r1, #240, 2	@ 0x3c
     63c:	00000000 	andeq	r0, r0, r0
     640:	086c0600 	stmdaeq	ip!, {r9, sl}^
     644:	00040000 	andeq	r0, r4, r0
     648:	910201c2 	smlabtls	r2, r2, r1, r0
     64c:	01c20400 	biceq	r0, r2, r0, lsl #8
     650:	910201f0 	strdls	r0, [r2, -r0]
     654:	00000000 	andeq	r0, r0, r0
     658:	6c060000 	stcvs	0, cr0, [r6], {-0}
     65c:	04000008 	streq	r0, [r0], #-8
     660:	0201c200 	andeq	ip, r1, #0, 4
     664:	c2040491 	andgt	r0, r4, #-1862270976	@ 0x91000000
     668:	0201f001 	andeq	pc, r1, #1
     66c:	00000491 	muleq	r0, r1, r4
     670:	06000000 	streq	r0, [r0], -r0
     674:	0000086c 	andeq	r0, r0, ip, ror #16
     678:	01c20004 	biceq	r0, r2, r4
     67c:	04089102 	streq	r9, [r8], #-258	@ 0xfffffefe
     680:	01f001c2 	mvnseq	r0, r2, asr #3
     684:	00089102 	andeq	r9, r8, r2, lsl #2
     688:	00000000 	andeq	r0, r0, r0
     68c:	00086c06 	andeq	r6, r8, r6, lsl #24
     690:	c2000400 	andgt	r0, r0, #0, 8
     694:	0c910201 	lfmeq	f0, 4, [r1], {1}
     698:	f001c204 			@ <UNDEFINED> instruction: 0xf001c204
     69c:	0c910201 	lfmeq	f0, 4, [r1], {1}
	...
     6ac:	06340600 	ldrteq	r0, [r4], -r0, lsl #12
     6b0:	00040000 	andeq	r0, r4, r0
     6b4:	0450012e 	ldrbeq	r0, [r0], #-302	@ 0xfffffed2
     6b8:	0201822e 	andeq	r8, r1, #-536870910	@ 0xe0000002
     6bc:	82047c74 	andhi	r7, r4, #116, 24	@ 0x7400
     6c0:	0d018a01 	vstreq	s16, [r1, #-4]
     6c4:	ffffff73 			@ <UNDEFINED> instruction: 0xffffff73
     6c8:	243203ff 	ldrtcs	r0, [r2], #-1023	@ 0xfffffc01
     6cc:	34220072 	strtcc	r0, [r2], #-114	@ 0xffffff8e
     6d0:	018a041c 	orreq	r0, sl, ip, lsl r4
     6d4:	a30401bc 	movwge	r0, #16828	@ 0x41bc
     6d8:	049f5001 	ldreq	r5, [pc], #1	@ 6e0 <kInitTcb_+0xac>
     6dc:	01c001bc 	strheq	r0, [r0, #28]
     6e0:	c0045001 	andgt	r5, r4, r1
     6e4:	0401d401 	streq	sp, [r1], #-1025	@ 0xfffffbff
     6e8:	9f5001a3 	svcls	0x005001a3
	...
     6f4:	06000000 	streq	r0, [r0], -r0
     6f8:	00000634 	andeq	r0, r0, r4, lsr r6
     6fc:	014a0004 	cmpeq	sl, r4
     700:	824a0451 	subhi	r0, sl, #1358954496	@ 0x51000000
     704:	64740201 	ldrbtvs	r0, [r4], #-513	@ 0xfffffdff
     708:	8a018204 	bhi	60f20 <__exidx_end+0x5fedc>
     70c:	ff730d01 			@ <UNDEFINED> instruction: 0xff730d01
     710:	03ffffff 	mvnseq	pc, #1020	@ 0x3fc
     714:	00722432 	rsbseq	r2, r2, r2, lsr r4
     718:	041c4c22 	ldreq	r4, [ip], #-3106	@ 0xfffff3de
     71c:	01bc018a 			@ <UNDEFINED> instruction: 0x01bc018a
     720:	5101a304 	tstpl	r1, r4, lsl #6
     724:	01bc049f 			@ <UNDEFINED> instruction: 0x01bc049f
     728:	510101d4 	ldrdpl	r0, [r1, -r4]
     72c:	00000000 	andeq	r0, r0, r0
     730:	00000101 	andeq	r0, r0, r1, lsl #2
     734:	06340600 	ldrteq	r0, [r4], -r0, lsl #12
     738:	00040000 	andeq	r0, r4, r0
     73c:	530101a2 	movwpl	r0, #4514	@ 0x11a2
     740:	b201a204 	andlt	sl, r1, #4, 4	@ 0x40000000
     744:	18710201 	ldmdane	r1!, {r0, r9}^
     748:	b401b204 	strlt	fp, [r1], #-516	@ 0xfffffdfc
     74c:	01a30401 			@ <UNDEFINED> instruction: 0x01a30401
     750:	b4049f53 	strlt	r9, [r4], #-3923	@ 0xfffff0ad
     754:	0101d401 	tsteq	r1, r1, lsl #8
     758:	00020053 	andeq	r0, r2, r3, asr r0
     75c:	00000000 	andeq	r0, r0, r0
     760:	00000100 	andeq	r0, r0, r0, lsl #2
     764:	34060000 	strcc	r0, [r6], #-0
     768:	04000006 	streq	r0, [r0], #-6
     76c:	51014a00 	tstpl	r1, r0, lsl #20
     770:	01824a04 	orreq	r4, r2, r4, lsl #20
     774:	04647402 	strbteq	r7, [r4], #-1026	@ 0xfffffbfe
     778:	018a0182 	orreq	r0, sl, r2, lsl #3
     77c:	ffff730d 			@ <UNDEFINED> instruction: 0xffff730d
     780:	3203ffff 	andcc	pc, r3, #1020	@ 0x3fc
     784:	22007224 	andcs	r7, r0, #36, 4	@ 0x40000002
     788:	8a041c4c 	bhi	1078c0 <__exidx_end+0x10687c>
     78c:	04019601 	streq	r9, [r1], #-1537	@ 0xfffff9ff
     790:	9f5101a3 	svcls	0x005101a3
     794:	bc01b404 	cfstrslt	mvf11, [r1], {4}
     798:	01a30401 			@ <UNDEFINED> instruction: 0x01a30401
     79c:	bc049f51 	stclt	15, cr9, [r4], {81}	@ 0x51
     7a0:	0101c001 	tsteq	r1, r1
     7a4:	00020051 	andeq	r0, r2, r1, asr r0
     7a8:	00000000 	andeq	r0, r0, r0
     7ac:	00000100 	andeq	r0, r0, r0, lsl #2
     7b0:	34060000 	strcc	r0, [r6], #-0
     7b4:	04000006 	streq	r0, [r0], #-6
     7b8:	50012e00 	andpl	r2, r1, r0, lsl #28
     7bc:	01822e04 	orreq	r2, r2, r4, lsl #28
     7c0:	047c7402 	ldrbteq	r7, [ip], #-1026	@ 0xfffffbfe
     7c4:	018a0182 	orreq	r0, sl, r2, lsl #3
     7c8:	ffff730d 			@ <UNDEFINED> instruction: 0xffff730d
     7cc:	3203ffff 	andcc	pc, r3, #1020	@ 0x3fc
     7d0:	22007224 	andcs	r7, r0, #36, 4	@ 0x40000002
     7d4:	8a041c34 	bhi	1078ac <__exidx_end+0x106868>
     7d8:	04019601 	streq	r9, [r1], #-1537	@ 0xfffff9ff
     7dc:	9f5001a3 	svcls	0x005001a3
     7e0:	bc01b404 	cfstrslt	mvf11, [r1], {4}
     7e4:	01a30401 			@ <UNDEFINED> instruction: 0x01a30401
     7e8:	bc049f50 	stclt	15, cr9, [r4], {80}	@ 0x50
     7ec:	0101c001 	tsteq	r1, r1
     7f0:	01020050 	qaddeq	r0, r0, r2
     7f4:	34060000 	strcc	r0, [r6], #-0
     7f8:	04000006 	streq	r0, [r0], #-6
     7fc:	01019600 	tsteq	r1, r0, lsl #12
     800:	01b40453 			@ <UNDEFINED> instruction: 0x01b40453
     804:	530101c0 	movwpl	r0, #4544	@ 0x11c0
     808:	00010200 	andeq	r0, r1, r0, lsl #4
     80c:	06340600 	ldrteq	r0, [r4], -r0, lsl #12
     810:	00040000 	andeq	r0, r4, r0
     814:	52010196 	andpl	r0, r1, #-2147483611	@ 0x80000025
     818:	c001b404 	andgt	fp, r1, r4, lsl #8
     81c:	00520101 	subseq	r0, r2, r1, lsl #2
     820:	00000002 	andeq	r0, r0, r2
     824:	b0060000 	andlt	r0, r6, r0
     828:	04000006 	streq	r0, [r0], #-6
     82c:	41020e00 	tstmi	r2, r0, lsl #28
     830:	140e049f 	strne	r0, [lr], #-1183	@ 0xfffffb61
     834:	38045001 	stmdacc	r4, {r0, ip, lr}
     838:	00500140 	subseq	r0, r0, r0, asr #2
     83c:	00000000 	andeq	r0, r0, r0
     840:	48060000 	stmdami	r6, {}	@ <UNPREDICTABLE>
     844:	04000008 	streq	r0, [r0], #-8
     848:	50010600 	andpl	r0, r1, r0, lsl #12
     84c:	01110604 	tsteq	r1, r4, lsl #12
     850:	24110451 	ldrcs	r0, [r1], #-1105	@ 0xfffffbaf
     854:	5001a304 	andpl	sl, r1, r4, lsl #6
     858:	0000009f 	muleq	r0, pc, r0	@ <UNPREDICTABLE>
     85c:	48060000 	stmdami	r6, {}	@ <UNPREDICTABLE>
     860:	04000008 	streq	r0, [r0], #-8
     864:	51010400 	tstpl	r1, r0, lsl #8
     868:	04240404 	strteq	r0, [r4], #-1028	@ 0xfffffbfc
     86c:	9f5101a3 	svcls	0x005101a3
     870:	00000000 	andeq	r0, r0, r0
     874:	06000000 	streq	r0, [r0], -r0
     878:	0000085a 	andeq	r0, r0, sl, asr r8
     87c:	01060004 	tsteq	r6, r4
     880:	0e060450 	cfmvsreq	mvf6, r0
     884:	0e045401 	cdpeq	4, 0, cr5, cr4, cr1, {0}
     888:	00500112 	subseq	r0, r0, r2, lsl r1
	...
     894:	00060000 	andeq	r0, r6, r0
     898:	04000000 	streq	r0, [r0], #-0
     89c:	50010900 	andpl	r0, r1, r0, lsl #18
     8a0:	01200904 			@ <UNDEFINED> instruction: 0x01200904
     8a4:	24200454 	strtcs	r0, [r0], #-1108	@ 0xfffffbac
     8a8:	5001a304 	andpl	sl, r1, r4, lsl #6
     8ac:	4a24049f 	bmi	901b30 <__exidx_end+0x900aec>
     8b0:	4a045401 	bmi	1158bc <__exidx_end+0x114878>
     8b4:	a3040190 	movwge	r0, #16784	@ 0x4190
     8b8:	009f5001 	addseq	r5, pc, r1
	...
     8c4:	00000006 	andeq	r0, r0, r6
     8c8:	06000400 	streq	r0, [r0], -r0, lsl #8
     8cc:	06045001 	streq	r5, [r4], -r1
     8d0:	04550118 	ldrbeq	r0, [r5], #-280	@ 0xfffffee8
     8d4:	50011e18 	andpl	r1, r1, r8, lsl lr
     8d8:	01841e04 	orreq	r1, r4, r4, lsl #28
     8dc:	00005501 	andeq	r5, r0, r1, lsl #10
	...
     8e8:	00000600 	andeq	r0, r0, r0, lsl #12
     8ec:	00040000 	andeq	r0, r4, r0
     8f0:	0450010e 	ldrbeq	r0, [r0], #-270	@ 0xfffffef2
     8f4:	54011e0e 	strpl	r1, [r1], #-3598	@ 0xfffff1f2
     8f8:	01211e04 			@ <UNDEFINED> instruction: 0x01211e04
     8fc:	22210450 	eorcs	r0, r1, #80, 8	@ 0x50000000
     900:	5001a304 	andpl	sl, r1, r4, lsl #6
     904:	6222049f 	eorvs	r0, r2, #-1627389952	@ 0x9f000000
     908:	00005401 	andeq	r5, r0, r1, lsl #8
	...
     914:	00000600 	andeq	r0, r0, r0, lsl #12
     918:	00040000 	andeq	r0, r4, r0
     91c:	04510111 	ldrbeq	r0, [r1], #-273	@ 0xfffffeef
     920:	55011e11 	strpl	r1, [r1, #-3601]	@ 0xfffff1ef
     924:	01211e04 			@ <UNDEFINED> instruction: 0x01211e04
     928:	22210451 	eorcs	r0, r1, #1358954496	@ 0x51000000
     92c:	5101a304 	tstpl	r1, r4, lsl #6
     930:	6222049f 	eorvs	r0, r2, #-1627389952	@ 0x9f000000
     934:	01005501 	tsteq	r0, r1, lsl #10
     938:	06000000 	streq	r0, [r0], -r0
     93c:	00000000 	andeq	r0, r0, r0
     940:	02020004 	andeq	r0, r2, #4
     944:	10049f30 	andne	r9, r4, r0, lsr pc
     948:	fe09031a 	mcr2	3, 0, r0, cr9, cr10, {0}
     94c:	0000009f 	muleq	r0, pc, r0	@ <UNPREDICTABLE>
     950:	00060000 	andeq	r0, r6, r0
     954:	04000000 	streq	r0, [r0], #-0
     958:	50012600 	andpl	r2, r1, r0, lsl #12
     95c:	01372804 	teqeq	r7, r4, lsl #16
     960:	00000050 	andeq	r0, r0, r0, asr r0
     964:	00060000 	andeq	r0, r6, r0
     968:	04000000 	streq	r0, [r0], #-0
     96c:	52010200 	andpl	r0, r1, #0, 4
     970:	012e2c04 			@ <UNDEFINED> instruction: 0x012e2c04
     974:	01000052 	qaddeq	r0, r2, r0
     978:	00000008 	andeq	r0, r0, r8
     97c:	52011400 	andpl	r1, r1, #0, 8
     980:	08010000 	stmdaeq	r1, {}	@ <UNPREDICTABLE>
     984:	00000000 	andeq	r0, r0, r0
     988:	00500114 	subseq	r0, r0, r4, lsl r1
     98c:	00080100 	andeq	r0, r8, r0, lsl #2
     990:	14000000 	strne	r0, [r0], #-0
     994:	00005401 	andeq	r5, r0, r1, lsl #8
     998:	06000000 	streq	r0, [r0], -r0
     99c:	00000834 	andeq	r0, r0, r4, lsr r8
     9a0:	010a0004 	tsteq	sl, r4
     9a4:	140a0450 	strne	r0, [sl], #-1104	@ 0xfffffbb0
     9a8:	01005401 	tsteq	r0, r1, lsl #8
     9ac:	08420800 	stmdaeq	r2, {fp}^
     9b0:	02060000 	andeq	r0, r6, #0
     9b4:	00000074 	andeq	r0, r0, r4, ror r0
     9b8:	00000303 	andeq	r0, r0, r3, lsl #6
     9bc:	06000000 	streq	r0, [r0], -r0
     9c0:	000007c4 	andeq	r0, r0, r4, asr #15
     9c4:	010c0004 	tsteq	ip, r4
     9c8:	3e0c0450 	cfmvsrcc	mvf12, r0
     9cc:	3e045401 	cdpcc	4, 0, cr5, cr4, cr1, {0}
     9d0:	04500142 	ldrbeq	r0, [r0], #-322	@ 0xfffffebe
     9d4:	54017042 	strpl	r7, [r1], #-66	@ 0xffffffbe
     9d8:	03030000 	movweq	r0, #12288	@ 0x3000
     9dc:	00000000 	andeq	r0, r0, r0
     9e0:	07c40600 	strbeq	r0, [r4, r0, lsl #12]
     9e4:	00040000 	andeq	r0, r4, r0
     9e8:	0451010c 	ldrbeq	r0, [r1], #-268	@ 0xfffffef4
     9ec:	55013e0c 	strpl	r3, [r1, #-3596]	@ 0xfffff1f4
     9f0:	01453e04 	cmpeq	r5, r4, lsl #28
     9f4:	70450451 	subvc	r0, r5, r1, asr r4
     9f8:	00005501 	andeq	r5, r0, r1, lsl #10
     9fc:	06000003 	streq	r0, [r0], -r3
     a00:	000007d0 	ldrdeq	r0, [r0], -r0	@ <UNPREDICTABLE>
     a04:	04000004 	streq	r0, [r0], #-4
     a08:	9f00d473 	svcls	0x0000d473
     a0c:	04463c04 	strbeq	r3, [r6], #-3076	@ 0xfffff3fc
     a10:	9f00d473 	svcls	0x0000d473
     a14:	00000100 	andeq	r0, r0, r0, lsl #2
     a18:	07ea0600 	strbeq	r0, [sl, r0, lsl #12]!
     a1c:	00040000 	andeq	r0, r4, r0
     a20:	9f300216 	svcls	0x00300216
     a24:	023c2c04 	eorseq	r2, ip, #4, 24	@ 0x400
     a28:	02009f30 	andeq	r9, r0, #48, 30	@ 0xc0
     a2c:	00000000 	andeq	r0, r0, r0
     a30:	07ee0600 	strbeq	r0, [lr, r0, lsl #12]!
     a34:	00040000 	andeq	r0, r4, r0
     a38:	04530104 	ldrbeq	r0, [r3], #-260	@ 0xfffffefc
     a3c:	75021204 	strvc	r1, [r2, #-516]	@ 0xfffffdfc
     a40:	38280400 	stmdacc	r8!, {sl}
     a44:	00007502 	andeq	r7, r0, r2, lsl #10
     a48:	00000000 	andeq	r0, r0, r0
     a4c:	0007f006 	andeq	pc, r7, r6
     a50:	10000400 	andne	r0, r0, r0, lsl #8
     a54:	26045001 	strcs	r5, [r4], -r1
     a58:	00500136 	subseq	r0, r0, r6, lsr r1
     a5c:	00010301 	andeq	r0, r1, r1, lsl #6
     a60:	0007d006 	andeq	sp, r7, r6
     a64:	00000400 	andeq	r0, r0, r0, lsl #8
     a68:	00d47304 	sbcseq	r7, r4, r4, lsl #6
     a6c:	463c049f 			@ <UNDEFINED> instruction: 0x463c049f
     a70:	00d47304 	sbcseq	r7, r4, r4, lsl #6
     a74:	0301009f 	movweq	r0, #4255	@ 0x109f
     a78:	00010103 	andeq	r0, r1, r3, lsl #2
     a7c:	d0060000 	andle	r0, r6, r0
     a80:	04000007 	streq	r0, [r0], #-7
     a84:	50010000 	andpl	r0, r1, r0
     a88:	011a0004 	tsteq	sl, r4
     a8c:	463c0454 			@ <UNDEFINED> instruction: 0x463c0454
     a90:	56045401 	strpl	r5, [r4], -r1, lsl #8
     a94:	0054015a 	subseq	r0, r4, sl, asr r1
     a98:	00000000 	andeq	r0, r0, r0
     a9c:	00075c06 	andeq	r5, r7, r6, lsl #24
     aa0:	0c000400 	cfstrseq	mvf0, [r0], {-0}
     aa4:	0c045001 	stceq	0, cr5, [r4], {1}
     aa8:	00540168 	subseq	r0, r4, r8, ror #2
     aac:	00000000 	andeq	r0, r0, r0
     ab0:	00075c06 	andeq	r5, r7, r6, lsl #24
     ab4:	0f000400 	svceq	0x00000400
     ab8:	0f045101 	svceq	0x00045101
     abc:	00550168 	subseq	r0, r5, r8, ror #2
     ac0:	00010101 	andeq	r0, r1, r1, lsl #2
	...
     acc:	6c060000 	stcvs	0, cr0, [r6], {-0}
     ad0:	04000007 	streq	r0, [r0], #-7
     ad4:	30020600 	andcc	r0, r2, r0, lsl #12
     ad8:	2a06049f 	bcs	181d5c <__exidx_end+0x180d18>
     adc:	2a045301 	bcs	1156e8 <__exidx_end+0x1146a4>
     ae0:	d4710436 	ldrbtle	r0, [r1], #-1078	@ 0xfffffbca
     ae4:	36049f00 	strcc	r9, [r4], -r0, lsl #30
     ae8:	00750638 	rsbseq	r0, r5, r8, lsr r6
     aec:	9f542306 	svcls	0x00542306
     af0:	043e3a04 	ldrteq	r3, [lr], #-2564	@ 0xfffff5fc
     af4:	9f00d471 	svcls	0x0000d471
     af8:	064a3e04 	strbeq	r3, [sl], -r4, lsl #28
     afc:	23060075 	movwcs	r0, #24693	@ 0x6075
     b00:	4a049f54 	bmi	128858 <__exidx_end+0x127814>
     b04:	9f30024e 	svcls	0x0030024e
     b08:	00000100 	andeq	r0, r0, r0, lsl #2
     b0c:	078c0600 	streq	r0, [ip, r0, lsl #12]
     b10:	00040000 	andeq	r0, r4, r0
     b14:	9f300218 	svcls	0x00300218
     b18:	022a1a04 	eoreq	r1, sl, #4, 20	@ 0x4000
     b1c:	02009f30 	andeq	r9, r0, #48, 30	@ 0xc0
     b20:	00000000 	andeq	r0, r0, r0
     b24:	06000000 	streq	r0, [r0], -r0
     b28:	00000790 	muleq	r0, r0, r7
     b2c:	01120004 	tsteq	r2, r4
     b30:	14120451 	ldrne	r0, [r2], #-1105	@ 0xfffffbaf
     b34:	04007502 	streq	r7, [r0], #-1282	@ 0xfffffafe
     b38:	51011a16 	tstpl	r1, r6, lsl sl
     b3c:	02261a04 	eoreq	r1, r6, #4, 20	@ 0x4000
     b40:	00000075 	andeq	r0, r0, r5, ror r0
     b44:	06000000 	streq	r0, [r0], -r0
     b48:	00000794 	muleq	r0, r4, r7
     b4c:	01100004 	tsteq	r0, r4
     b50:	22120450 	andscs	r0, r2, #80, 8	@ 0x50000000
     b54:	02005001 	andeq	r5, r0, #1
     b58:	06000001 	streq	r0, [r0], -r1
     b5c:	0000076c 	andeq	r0, r0, ip, ror #14
     b60:	06200004 	strteq	r0, [r0], -r4
     b64:	002f38a0 	eoreq	r3, pc, r0, lsr #17
     b68:	4a040000 	bmi	100b70 <__exidx_end+0xffb2c>
     b6c:	38a0064e 	stmiacc	r0!, {r1, r2, r3, r6, r9, sl}
     b70:	0000002f 	andeq	r0, r0, pc, lsr #32
     b74:	00010200 	andeq	r0, r1, r0, lsl #4
     b78:	076c0600 	strbeq	r0, [ip, -r0, lsl #12]!
     b7c:	00040000 	andeq	r0, r4, r0
     b80:	04540120 	ldrbeq	r0, [r4], #-288	@ 0xfffffee0
     b84:	54014e4a 	strpl	r4, [r1], #-3658	@ 0xfffff1b6
     b88:	08010000 	stmdaeq	r1, {}	@ <UNPREDICTABLE>
     b8c:	00000772 	andeq	r0, r0, r2, ror r7
     b90:	0053011a 	subseq	r0, r3, sl, lsl r1
     b94:	00000000 	andeq	r0, r0, r0
     b98:	00098806 	andeq	r8, r9, r6, lsl #16
     b9c:	07000400 	streq	r0, [r0, -r0, lsl #8]
     ba0:	07045001 	streq	r5, [r4, -r1]
     ba4:	0054016c 	subseq	r0, r4, ip, ror #2
	...
     bb0:	00098806 	andeq	r8, r9, r6, lsl #16
     bb4:	14000400 	strne	r0, [r0], #-1024	@ 0xfffffc00
     bb8:	14045101 	strne	r5, [r4], #-257	@ 0xfffffeff
     bbc:	04550152 	ldrbeq	r0, [r5], #-338	@ 0xfffffeae
     bc0:	51015952 	tstpl	r1, r2, asr r9
     bc4:	016c5904 	cmneq	ip, r4, lsl #18
     bc8:	00000055 	andeq	r0, r0, r5, asr r0
     bcc:	00000000 	andeq	r0, r0, r0
     bd0:	94060000 	strls	r0, [r6], #-0
     bd4:	04000009 	streq	r0, [r0], #-9
     bd8:	50010800 	andpl	r0, r1, r0, lsl #16
     bdc:	01460804 	cmpeq	r6, r4, lsl #16
     be0:	4a460456 	bmi	1181d40 <__exidx_end+0x1180cfc>
     be4:	4a045001 	bmi	114bf0 <__exidx_end+0x113bac>
     be8:	00560160 	subseq	r0, r6, r0, ror #2
     bec:	b4080001 	strlt	r0, [r8], #-1
     bf0:	1c000009 	stcne	0, cr0, [r0], {9}
     bf4:	009f3002 	addseq	r3, pc, r2
     bf8:	00000101 	andeq	r0, r0, r1, lsl #2
     bfc:	00099c06 	andeq	r9, r9, r6, lsl #24
     c00:	18000400 	stmdane	r0, {sl}
     c04:	00d47504 	sbcseq	r7, r4, r4, lsl #10
     c08:	5848049f 	stmdapl	r8, {r0, r1, r2, r3, r4, r7, sl}^
     c0c:	00d47504 	sbcseq	r7, r4, r4, lsl #10
     c10:	0101009f 	swpeq	r0, pc, [r1]	@ <UNPREDICTABLE>
     c14:	9c060000 	stcls	0, cr0, [r6], {-0}
     c18:	04000009 	streq	r0, [r0], #-9
     c1c:	54011800 	strpl	r1, [r1], #-2048	@ 0xfffff800
     c20:	01584804 	cmpeq	r8, r4, lsl #16
     c24:	01000054 	qaddeq	r0, r4, r0
     c28:	9e060000 	cdpls	0, 0, cr0, cr6, cr0, {0}
     c2c:	04000009 	streq	r0, [r0], #-9
     c30:	75041600 	strvc	r1, [r4, #-1536]	@ 0xfffffa00
     c34:	049f00d4 	ldreq	r0, [pc], #212	@ c3c <kPend+0x3c>
     c38:	75045646 	strvc	r5, [r4, #-1606]	@ 0xfffff9ba
     c3c:	009f00d4 	ldrsbeq	r0, [pc], r4
     c40:	01000000 	mrseq	r0, (UNDEF: 0)
     c44:	00000000 	andeq	r0, r0, r0
     c48:	00099e06 	andeq	r9, r9, r6, lsl #28
     c4c:	0e000400 	cfcpyseq	mvf0, mvf0
     c50:	0e045301 	cdpeq	3, 0, cr5, cr4, cr1, {0}
     c54:	d8750316 	ldmdale	r5!, {r1, r2, r4, r8, r9}^
     c58:	4a460400 	bmi	1181c60 <__exidx_end+0x1180c1c>
     c5c:	4a045301 	bmi	115868 <__exidx_end+0x114824>
     c60:	04740256 	ldrbteq	r0, [r4], #-598	@ 0xfffffdaa
     c64:	00010000 	andeq	r0, r1, r0
     c68:	099e0600 	ldmibeq	lr, {r9, sl}
     c6c:	00040000 	andeq	r0, r4, r0
     c70:	04540116 	ldrbeq	r0, [r4], #-278	@ 0xfffffeea
     c74:	54015646 	strpl	r5, [r1], #-1606	@ 0xfffff9ba
	...
     c80:	07340600 	ldreq	r0, [r4, -r0, lsl #12]!
     c84:	00040000 	andeq	r0, r4, r0
     c88:	04500108 	ldrbeq	r0, [r0], #-264	@ 0xfffffef8
     c8c:	a3041208 	movwge	r1, #16904	@ 0x4208
     c90:	049f5001 	ldreq	r5, [pc], #1	@ c98 <kPend+0x98>
     c94:	50012612 	andpl	r2, r1, r2, lsl r6
     c98:	04282604 	strteq	r2, [r8], #-1540	@ 0xfffff9fc
     c9c:	9f5001a3 	svcls	0x005001a3
     ca0:	00000000 	andeq	r0, r0, r0
     ca4:	06000000 	streq	r0, [r0], -r0
     ca8:	00000734 	andeq	r0, r0, r4, lsr r7
     cac:	010b0004 	tsteq	fp, r4
     cb0:	120b0451 	andne	r0, fp, #1358954496	@ 0x51000000
     cb4:	5101a304 	tstpl	r1, r4, lsl #6
     cb8:	2812049f 	ldmdacs	r2, {r0, r1, r2, r3, r4, r7, sl}
     cbc:	01005101 	tsteq	r0, r1, lsl #2
     cc0:	07460801 	strbeq	r0, [r6, -r1, lsl #16]
     cc4:	01120000 	tsteq	r2, r0
     cc8:	01010051 	qaddeq	r0, r1, r1
     ccc:	00074608 	andeq	r4, r7, r8, lsl #12
     cd0:	50011200 	andpl	r1, r1, r0, lsl #4
     cd4:	00000000 	andeq	r0, r0, r0
     cd8:	06000000 	streq	r0, [r0], -r0
     cdc:	00000000 	andeq	r0, r0, r0
     ce0:	01030004 	tsteq	r3, r4
     ce4:	1c030450 	cfstrsne	mvf0, [r3], {80}	@ 0x50
     ce8:	1c045401 	cfstrsne	mvf5, [r4], {1}
     cec:	00500124 	subseq	r0, r0, r4, lsr #2
     cf0:	24080100 	strcs	r0, [r8], #-256	@ 0xffffff00
     cf4:	00000007 	andeq	r0, r0, r7
     cf8:	01005001 	tsteq	r0, r1
     cfc:	09640800 	stmdbeq	r4!, {fp}^
     d00:	01140000 	tsteq	r4, r0
     d04:	01000050 	qaddeq	r0, r0, r0
     d08:	00096408 	andeq	r6, r9, r8, lsl #8
     d0c:	50010000 	andpl	r0, r1, r0
     d10:	00011e00 	andeq	r1, r1, r0, lsl #28
     d14:	04000500 	streq	r0, [r0], #-1280	@ 0xfffffb00
	...
     d28:	00000600 	andeq	r0, r0, r0, lsl #12
     d2c:	00040000 	andeq	r0, r4, r0
     d30:	04500117 	ldrbeq	r0, [r0], #-279	@ 0xfffffee9
     d34:	54013217 	strpl	r3, [r1], #-535	@ 0xfffffde9
     d38:	043c3204 	ldrteq	r3, [ip], #-516	@ 0xfffffdfc
     d3c:	9f5001a3 	svcls	0x005001a3
     d40:	01423c04 	cmpeq	r2, r4, lsl #24
     d44:	44420454 	strbmi	r0, [r2], #-1108	@ 0xfffffbac
     d48:	5001a304 	andpl	sl, r1, r4, lsl #6
     d4c:	5444049f 	strbpl	r0, [r4], #-1183	@ 0xfffffb61
     d50:	02005001 	andeq	r5, r0, #1
     d54:	00010000 	andeq	r0, r1, r0
     d58:	00000101 	andeq	r0, r0, r1, lsl #2
     d5c:	00000600 	andeq	r0, r0, r0, lsl #12
     d60:	00040000 	andeq	r0, r4, r0
     d64:	ff090332 			@ <UNDEFINED> instruction: 0xff090332
     d68:	3832049f 	ldmdacc	r2!, {r0, r1, r2, r3, r4, r7, sl}
     d6c:	3c045401 	cfstrscc	mvf5, [r4], {1}
     d70:	ff090340 			@ <UNDEFINED> instruction: 0xff090340
     d74:	4440049f 	strbmi	r0, [r0], #-1183	@ 0xfffffb61
     d78:	049f3002 	ldreq	r3, [pc], #2	@ d80 <kTimeOut+0x84>
     d7c:	09035444 	stmdbeq	r3, {r2, r6, sl, ip, lr}
     d80:	00009fff 	strdeq	r9, [r0], -pc	@ <UNPREDICTABLE>
     d84:	00010000 	andeq	r0, r1, r0
     d88:	00000600 	andeq	r0, r0, r0, lsl #12
     d8c:	00040000 	andeq	r0, r4, r0
     d90:	04500104 	ldrbeq	r0, [r0], #-260	@ 0xfffffefc
     d94:	55011c04 	strpl	r1, [r1, #-3076]	@ 0xfffff3fc
     d98:	01282004 			@ <UNDEFINED> instruction: 0x01282004
     d9c:	00000055 	andeq	r0, r0, r5, asr r0
     da0:	00000000 	andeq	r0, r0, r0
     da4:	00000006 	andeq	r0, r0, r6
     da8:	0f000400 	svceq	0x00000400
     dac:	041c7402 	ldreq	r7, [ip], #-1026	@ 0xfffffbfe
     db0:	7402241e 	strvc	r2, [r2], #-1054	@ 0xfffffbe2
     db4:	2624041c 			@ <UNDEFINED> instruction: 0x2624041c
     db8:	00005201 	andeq	r5, r0, r1, lsl #4
     dbc:	06000000 	streq	r0, [r0], -r0
     dc0:	00000c00 	andeq	r0, r0, r0, lsl #24
     dc4:	01120004 	tsteq	r2, r4
     dc8:	a8120450 	ldmdage	r2, {r4, r6, sl}
     dcc:	00550101 	subseq	r0, r5, r1, lsl #2
     dd0:	00010001 	andeq	r0, r1, r1
     dd4:	000c2a06 	andeq	r2, ip, r6, lsl #20
     dd8:	0a000400 	beq	1de0 <__exidx_end+0xd9c>
     ddc:	049f3002 	ldreq	r3, [pc], #2	@ de4 <kSleepUntil+0x14>
     de0:	30027e20 	andcc	r7, r2, r0, lsr #28
     de4:	0100009f 	swpeq	r0, pc, [r0]	@ <UNPREDICTABLE>
     de8:	00000001 	andeq	r0, r0, r1
	...
     df8:	1e060000 	cdpne	0, 0, cr0, cr6, cr0, {0}
     dfc:	0400000c 	streq	r0, [r0], #-12
     e00:	50010c00 	andpl	r0, r1, r0, lsl #24
     e04:	01160c04 	tsteq	r6, r4, lsl #24
     e08:	1b160454 	blne	581f60 <__exidx_end+0x580f1c>
     e0c:	1b045001 	blne	114e18 <__exidx_end+0x113dd4>
     e10:	04540122 	ldrbeq	r0, [r4], #-290	@ 0xfffffede
     e14:	50012a22 	andpl	r2, r1, r2, lsr #20
     e18:	01622a04 	cmneq	r2, r4, lsl #20
     e1c:	6d620454 	cfstrdvs	mvd0, [r2, #-336]!	@ 0xfffffeb0
     e20:	6d045001 	stcvs	0, cr5, [r4, #-4]
     e24:	04540174 	ldrbeq	r0, [r4], #-372	@ 0xfffffe8c
     e28:	50017c74 	andpl	r7, r1, r4, ror ip
     e2c:	018a7c04 	orreq	r7, sl, r4, lsl #24
     e30:	2a005401 	bcs	15e3c <__exidx_end+0x14df8>
     e34:	05000000 	streq	r0, [r0, #-0]
     e38:	00000400 	andeq	r0, r0, r0, lsl #8
     e3c:	00000000 	andeq	r0, r0, r0
     e40:	06000000 	streq	r0, [r0], -r0
     e44:	00000cc0 	andeq	r0, r0, r0, asr #25
     e48:	01140004 	tsteq	r4, r4
     e4c:	3c140450 	cfldrscc	mvf0, [r4], {80}	@ 0x50
     e50:	5001a304 	andpl	sl, r1, r4, lsl #6
     e54:	0000009f 	muleq	r0, pc, r0	@ <UNPREDICTABLE>
     e58:	000cd808 	andeq	sp, ip, r8, lsl #16
     e5c:	50011700 	andpl	r1, r1, r0, lsl #14
     e60:	00023900 	andeq	r3, r2, r0, lsl #18
     e64:	04000500 	streq	r0, [r0], #-1280	@ 0xfffffb00
     e68:	00000000 	andeq	r0, r0, r0
     e6c:	00000200 	andeq	r0, r0, r0, lsl #4
     e70:	0f100600 	svceq	0x00100600
     e74:	00040000 	andeq	r0, r4, r0
     e78:	ff090316 			@ <UNDEFINED> instruction: 0xff090316
     e7c:	4036049f 	mlasmi	r6, pc, r4, r0	@ <UNPREDICTABLE>
     e80:	00005001 	andeq	r5, r0, r1
     e84:	00000000 	andeq	r0, r0, r0
     e88:	0e580600 	cdpeq	6, 5, cr0, cr8, cr0, {0}
     e8c:	00040000 	andeq	r0, r4, r0
     e90:	04500110 	ldrbeq	r0, [r0], #-272	@ 0xfffffef0
     e94:	73031510 	movwvc	r1, #13584	@ 0x3510
     e98:	15049f3c 	strne	r9, [r4, #-3900]	@ 0xfffff0c4
     e9c:	a304018c 	movwge	r0, #16780	@ 0x418c
     ea0:	009f5001 	addseq	r5, pc, r1
     ea4:	6e080000 	cdpvs	0, 0, cr0, cr8, cr0, {0}
     ea8:	0400000e 	streq	r0, [r0], #-14
     eac:	00005001 	andeq	r5, r0, r1
	...
     eb8:	06000000 	streq	r0, [r0], -r0
     ebc:	00000cfc 	strdeq	r0, [r0], -ip
     ec0:	01540004 	cmpeq	r4, r4
     ec4:	56540450 			@ <UNDEFINED> instruction: 0x56540450
     ec8:	5001a304 	andpl	sl, r1, r4, lsl #6
     ecc:	7856049f 	ldmdavc	r6, {r0, r1, r2, r3, r4, r7, sl}^
     ed0:	78045001 	stmdavc	r4, {r0, ip, lr}
     ed4:	01a3047a 			@ <UNDEFINED> instruction: 0x01a3047a
     ed8:	7a049f50 	bvc	128c20 <__exidx_end+0x127bdc>
     edc:	0450017e 	ldrbeq	r0, [r0], #-382	@ 0xfffffe82
     ee0:	04018c7e 	streq	r8, [r1], #-3198	@ 0xfffff382
     ee4:	9f5001a3 	svcls	0x005001a3
     ee8:	02020000 	andeq	r0, r2, #0
	...
     ef4:	00000202 	andeq	r0, r0, r2, lsl #4
     ef8:	0cfc0600 	ldcleq	6, cr0, [ip]
     efc:	00040000 	andeq	r0, r4, r0
     f00:	04510124 	ldrbeq	r0, [r1], #-292	@ 0xfffffedc
     f04:	70023a24 	andvc	r3, r2, r4, lsr #20
     f08:	463a040c 	ldrtmi	r0, [sl], -ip, lsl #8
     f0c:	5101a304 	tstpl	r1, r4, lsl #6
     f10:	5046049f 	umaalpl	r0, r6, pc, r4	@ <UNPREDICTABLE>
     f14:	040c7002 	streq	r7, [ip], #-2
     f18:	a3045650 	movwge	r5, #18000	@ 0x4650
     f1c:	049f5101 	ldreq	r5, [pc], #257	@ f24 <kHandleTimeoutList+0x14>
     f20:	51015a56 	tstpl	r1, r6, asr sl
     f24:	02745a04 	rsbseq	r5, r4, #4, 20	@ 0x4000
     f28:	74040c70 	strvc	r0, [r4], #-3184	@ 0xfffff390
     f2c:	5101018c 	smlabbpl	r1, ip, r1, r0
     f30:	00000000 	andeq	r0, r0, r0
     f34:	06000202 	streq	r0, [r0], -r2, lsl #4
     f38:	00000d20 	andeq	r0, r0, r0, lsr #26
     f3c:	010a0004 	tsteq	sl, r4
     f40:	28220452 	stmdacs	r2!, {r1, r4, r6, sl}
     f44:	28045201 	stmdacs	r4, {r0, r9, ip, lr}
     f48:	0073022c 	rsbseq	r0, r3, ip, lsr #4
     f4c:	01020100 	mrseq	r0, (UNDEF: 18)
     f50:	0d200600 	stceq	6, cr0, [r0, #-0]
     f54:	00040000 	andeq	r0, r4, r0
     f58:	9f300200 	svcls	0x00300200
     f5c:	012c2804 			@ <UNDEFINED> instruction: 0x012c2804
     f60:	02000053 	andeq	r0, r0, #83	@ 0x53
     f64:	00000002 	andeq	r0, r0, r2
     f68:	000d5606 	andeq	r5, sp, r6, lsl #12
     f6c:	12000400 	andne	r0, r0, #0, 8
     f70:	12045201 	andne	r5, r4, #268435456	@ 0x10000000
     f74:	00720214 	rsbseq	r0, r2, r4, lsl r2
     f78:	01161404 	tsteq	r6, r4, lsl #8
     f7c:	02010052 	andeq	r0, r1, #82	@ 0x52
     f80:	00000001 	andeq	r0, r0, r1
     f84:	000d5606 	andeq	r5, sp, r6, lsl #12
     f88:	00000400 	andeq	r0, r0, r0, lsl #8
     f8c:	049f3002 	ldreq	r3, [pc], #2	@ f94 <memcpy+0x20>
     f90:	52011412 	andpl	r1, r1, #301989888	@ 0x12000000
     f94:	01161404 	tsteq	r6, r4, lsl #8
     f98:	00000053 	andeq	r0, r0, r3, asr r0
	...
     fa8:	000dd006 	andeq	sp, sp, r6
     fac:	09000400 	stmdbeq	r0, {sl}
     fb0:	09045001 	stmdbeq	r4, {r0, ip, lr}
     fb4:	0454013c 	ldrbeq	r0, [r4], #-316	@ 0xfffffec4
     fb8:	a304563c 	movwge	r5, #17980	@ 0x463c
     fbc:	049f5001 	ldreq	r5, [pc], #1	@ fc4 <memcpy+0x50>
     fc0:	54015856 	strpl	r5, [r1], #-2134	@ 0xfffff7aa
     fc4:	04745804 	ldrbteq	r5, [r4], #-2052	@ 0xfffff7fc
     fc8:	9f5001a3 	svcls	0x005001a3
     fcc:	01787404 	cmneq	r8, r4, lsl #8
     fd0:	88780454 	ldmdahi	r8!, {r2, r4, r6, sl}^
     fd4:	01a30401 			@ <UNDEFINED> instruction: 0x01a30401
     fd8:	00009f50 	andeq	r9, r0, r0, asr pc
	...
     fe4:	0ddc0600 	ldcleq	6, cr0, [ip]
     fe8:	00040000 	andeq	r0, r4, r0
     fec:	0450012a 	ldrbeq	r0, [r0], #-298	@ 0xfffffed6
     ff0:	57014a2a 	strpl	r4, [r1, -sl, lsr #20]
     ff4:	014c4a04 	cmpeq	ip, r4, lsl #20
     ff8:	684c0450 	stmdavs	ip, {r4, r6, sl}^
     ffc:	68045701 	stmdavs	r4, {r0, r8, r9, sl, ip, lr}
    1000:	0050017c 	subseq	r0, r0, ip, ror r1
    1004:	00000001 	andeq	r0, r0, r1
    1008:	00000000 	andeq	r0, r0, r0
    100c:	000dde06 	andeq	sp, sp, r6, lsl #28
    1010:	2c000400 	cfstrscs	mvf0, [r0], {-0}
    1014:	049f3002 	ldreq	r3, [pc], #2	@ 101c <memcpy+0xa8>
    1018:	5001482c 	andpl	r4, r1, ip, lsr #16
    101c:	02524804 	subseq	r4, r2, #4, 16	@ 0x40000
    1020:	52049f30 	andpl	r9, r4, #48, 30	@ 0xc0
    1024:	00540166 	subseq	r0, r4, r6, ror #2
    1028:	00000000 	andeq	r0, r0, r0
    102c:	000dea06 	andeq	lr, sp, r6, lsl #20
    1030:	0c000400 	cfstrseq	mvf0, [r0], {-0}
    1034:	3c045301 	stccc	3, cr5, [r4], {1}
    1038:	0053013e 	subseq	r0, r3, lr, lsr r1
    103c:	ee080000 	cdp	0, 0, cr0, cr8, cr0, {0}
    1040:	4200000d 	andmi	r0, r0, #13
    1044:	01005501 	tsteq	r0, r1, lsl #10
    1048:	06000102 	streq	r0, [r0], -r2, lsl #2
    104c:	00000df4 	strdeq	r0, [r0], -r4
    1050:	06000004 	streq	r0, [r0], -r4
    1054:	00730075 	rsbseq	r0, r3, r5, ror r0
    1058:	32049f1c 	andcc	r9, r4, #28, 30	@ 0x70
    105c:	00750634 	rsbseq	r0, r5, r4, lsr r6
    1060:	9f1c0073 	svcls	0x001c0073
    1064:	00000000 	andeq	r0, r0, r0
    1068:	06000000 	streq	r0, [r0], -r0
    106c:	00000d88 	andeq	r0, r0, r8, lsl #27
    1070:	01070004 	tsteq	r7, r4
    1074:	3a070450 	bcc	1c21bc <__exidx_end+0x1c1178>
    1078:	3a045601 	bcc	116884 <__exidx_end+0x115840>
    107c:	01a30448 			@ <UNDEFINED> instruction: 0x01a30448
    1080:	00009f50 	andeq	r9, r0, r0, asr pc
    1084:	00000000 	andeq	r0, r0, r0
    1088:	0d9a0600 	ldceq	6, cr0, [sl]
    108c:	00040000 	andeq	r0, r4, r0
    1090:	0450010a 	ldrbeq	r0, [r0], #-266	@ 0xfffffef6
    1094:	5501280a 	strpl	r2, [r1, #-2058]	@ 0xfffff7f6
    1098:	012b2804 			@ <UNDEFINED> instruction: 0x012b2804
    109c:	Address 0x109c is out of bounds.


Disassembly of section .debug_aranges:

00000000 <.debug_aranges>:
   0:	00000044 	andeq	r0, r0, r4, asr #32
   4:	00000002 	andeq	r0, r0, r2
   8:	00040000 	andeq	r0, r4, r0
	...
  14:	0000000c 	andeq	r0, r0, ip
  18:	00000160 	andeq	r0, r0, r0, ror #2
  1c:	0000002c 	andeq	r0, r0, ip, lsr #32
  20:	0000018c 	andeq	r0, r0, ip, lsl #3
  24:	0000000c 	andeq	r0, r0, ip
  28:	00000198 	muleq	r0, r8, r1
  2c:	00000034 	andeq	r0, r0, r4, lsr r0
  30:	000001cc 	andeq	r0, r0, ip, asr #3
  34:	0000002c 	andeq	r0, r0, ip, lsr #32
  38:	000001f8 	strdeq	r0, [r0], -r8
  3c:	0000002c 	andeq	r0, r0, ip, lsr #32
	...
  48:	0000001c 	andeq	r0, r0, ip, lsl r0
  4c:	079c0002 	ldreq	r0, [ip, r2]
  50:	00040000 	andeq	r0, r4, r0
  54:	00000000 	andeq	r0, r0, r0
  58:	00000224 	andeq	r0, r0, r4, lsr #4
  5c:	000000b4 	strheq	r0, [r0], -r4
	...
  68:	0000002c 	andeq	r0, r0, ip, lsr #32
  6c:	0d2d0002 	stceq	0, cr0, [sp, #-8]!
  70:	00040000 	andeq	r0, r4, r0
  74:	00000000 	andeq	r0, r0, r0
  78:	000002d8 	ldrdeq	r0, [r0], -r8
  7c:	00000002 	andeq	r0, r0, r2
  80:	000002dc 	ldrdeq	r0, [r0], -ip
  84:	00000050 	andeq	r0, r0, r0, asr r0
  88:	00000000 	andeq	r0, r0, r0
  8c:	00000002 	andeq	r0, r0, r2
	...
  98:	00000084 	andeq	r0, r0, r4, lsl #1
  9c:	0ec70002 	cdpeq	0, 12, cr0, cr7, cr2, {0}
  a0:	00040000 	andeq	r0, r4, r0
	...
  ac:	00000020 	andeq	r0, r0, r0, lsr #32
  b0:	00000000 	andeq	r0, r0, r0
  b4:	00000010 	andeq	r0, r0, r0, lsl r0
  b8:	00000000 	andeq	r0, r0, r0
  bc:	00000010 	andeq	r0, r0, r0, lsl r0
  c0:	0000032c 	andeq	r0, r0, ip, lsr #6
  c4:	00000028 	andeq	r0, r0, r8, lsr #32
  c8:	00000000 	andeq	r0, r0, r0
  cc:	00000024 	andeq	r0, r0, r4, lsr #32
  d0:	00000000 	andeq	r0, r0, r0
  d4:	0000001c 	andeq	r0, r0, ip, lsl r0
  d8:	00000000 	andeq	r0, r0, r0
  dc:	0000001c 	andeq	r0, r0, ip, lsl r0
  e0:	00000000 	andeq	r0, r0, r0
  e4:	0000001c 	andeq	r0, r0, ip, lsl r0
  e8:	00000000 	andeq	r0, r0, r0
  ec:	0000001c 	andeq	r0, r0, ip, lsl r0
  f0:	00000000 	andeq	r0, r0, r0
  f4:	00000024 	andeq	r0, r0, r4, lsr #32
  f8:	00000354 	andeq	r0, r0, r4, asr r3
  fc:	0000001e 	andeq	r0, r0, lr, lsl r0
 100:	00000000 	andeq	r0, r0, r0
 104:	00000008 	andeq	r0, r0, r8
 108:	00000000 	andeq	r0, r0, r0
 10c:	0000000e 	andeq	r0, r0, lr
 110:	00000000 	andeq	r0, r0, r0
 114:	0000000e 	andeq	r0, r0, lr
	...
 120:	0000004c 	andeq	r0, r0, ip, asr #32
 124:	13380002 	teqne	r8, #2
 128:	00040000 	andeq	r0, r4, r0
 12c:	00000000 	andeq	r0, r0, r0
 130:	00000374 	andeq	r0, r0, r4, ror r3
 134:	00000050 	andeq	r0, r0, r0, asr r0
 138:	00000000 	andeq	r0, r0, r0
 13c:	00000026 	andeq	r0, r0, r6, lsr #32
 140:	000003c4 	andeq	r0, r0, r4, asr #7
 144:	00000138 	andeq	r0, r0, r8, lsr r1
 148:	00000000 	andeq	r0, r0, r0
 14c:	00000030 	andeq	r0, r0, r0, lsr r0
 150:	000004fc 	strdeq	r0, [r0], -ip
 154:	00000138 	andeq	r0, r0, r8, lsr r1
 158:	00000000 	andeq	r0, r0, r0
 15c:	0000000a 	andeq	r0, r0, sl
 160:	00000000 	andeq	r0, r0, r0
 164:	00000046 	andeq	r0, r0, r6, asr #32
	...
 170:	000000a4 	andeq	r0, r0, r4, lsr #1
 174:	1ee80002 	cdpne	0, 14, cr0, cr8, cr2, {0}
 178:	00040000 	andeq	r0, r4, r0
 17c:	00000000 	andeq	r0, r0, r0
 180:	00000634 	andeq	r0, r0, r4, lsr r6
 184:	000000d4 	ldrdeq	r0, [r0], -r4
 188:	00000708 	andeq	r0, r0, r8, lsl #14
 18c:	0000002c 	andeq	r0, r0, ip, lsr #32
 190:	00000734 	andeq	r0, r0, r4, lsr r7
 194:	00000028 	andeq	r0, r0, r8, lsr #32
 198:	0000075c 	andeq	r0, r0, ip, asr r7
 19c:	00000068 	andeq	r0, r0, r8, rrx
 1a0:	000007c4 	andeq	r0, r0, r4, asr #15
 1a4:	00000070 	andeq	r0, r0, r0, ror r0
 1a8:	00000834 	andeq	r0, r0, r4, lsr r8
 1ac:	00000014 	andeq	r0, r0, r4, lsl r0
 1b0:	00000848 	andeq	r0, r0, r8, asr #16
 1b4:	00000024 	andeq	r0, r0, r4, lsr #32
 1b8:	0000086c 	andeq	r0, r0, ip, ror #16
 1bc:	000000f0 	strdeq	r0, [r0], -r0	@ <UNPREDICTABLE>
 1c0:	0000095c 	andeq	r0, r0, ip, asr r9
 1c4:	0000001c 	andeq	r0, r0, ip, lsl r0
 1c8:	00000978 	andeq	r0, r0, r8, ror r9
 1cc:	0000000e 	andeq	r0, r0, lr
 1d0:	00000988 	andeq	r0, r0, r8, lsl #19
 1d4:	0000006c 	andeq	r0, r0, ip, rrx
 1d8:	000009f4 	strdeq	r0, [r0], -r4
 1dc:	00000034 	andeq	r0, r0, r4, lsr r0
 1e0:	00000000 	andeq	r0, r0, r0
 1e4:	00000062 	andeq	r0, r0, r2, rrx
 1e8:	00000000 	andeq	r0, r0, r0
 1ec:	0000002c 	andeq	r0, r0, ip, lsr #32
 1f0:	00000000 	andeq	r0, r0, r0
 1f4:	00000090 	muleq	r0, r0, r0
 1f8:	00000a28 	andeq	r0, r0, r8, lsr #20
 1fc:	000000f8 	strdeq	r0, [r0], -r8
 200:	00000b20 	andeq	r0, r0, r0, lsr #22
 204:	00000060 	andeq	r0, r0, r0, rrx
 208:	00000b80 	andeq	r0, r0, r0, lsl #23
 20c:	00000080 	andeq	r0, r0, r0, lsl #1
	...
 218:	00000024 	andeq	r0, r0, r4, lsr #32
 21c:	33c10002 	biccc	r0, r1, #2
 220:	00040000 	andeq	r0, r4, r0
 224:	00000000 	andeq	r0, r0, r0
 228:	00000c00 	andeq	r0, r0, r0, lsl #24
 22c:	000000a8 	andeq	r0, r0, r8, lsr #1
 230:	00000000 	andeq	r0, r0, r0
 234:	00000054 	andeq	r0, r0, r4, asr r0
	...
 240:	00000024 	andeq	r0, r0, r4, lsr #32
 244:	39fe0002 	ldmibcc	lr!, {r1}^
 248:	00040000 	andeq	r0, r4, r0
 24c:	00000000 	andeq	r0, r0, r0
 250:	00000ca8 	andeq	r0, r0, r8, lsr #25
 254:	00000018 	andeq	r0, r0, r8, lsl r0
 258:	00000cc0 	andeq	r0, r0, r0, asr #25
 25c:	0000003c 	andeq	r0, r0, ip, lsr r0
	...
 268:	00000054 	andeq	r0, r0, r4, asr r0
 26c:	3f3b0002 	svccc	0x003b0002
 270:	00040000 	andeq	r0, r4, r0
	...
 27c:	0000000c 	andeq	r0, r0, ip
 280:	00000000 	andeq	r0, r0, r0
 284:	00000018 	andeq	r0, r0, r8, lsl r0
 288:	00000cfc 	strdeq	r0, [r0], -ip
 28c:	0000008c 	andeq	r0, r0, ip, lsl #1
 290:	00000d88 	andeq	r0, r0, r8, lsl #27
 294:	00000048 	andeq	r0, r0, r8, asr #32
 298:	00000dd0 	ldrdeq	r0, [r0], -r0	@ <UNPREDICTABLE>
 29c:	00000088 	andeq	r0, r0, r8, lsl #1
 2a0:	00000e58 	andeq	r0, r0, r8, asr lr
 2a4:	0000008c 	andeq	r0, r0, ip, lsl #1
 2a8:	00000ee4 	andeq	r0, r0, r4, ror #29
 2ac:	0000002c 	andeq	r0, r0, ip, lsr #32
 2b0:	00000f10 	andeq	r0, r0, r0, lsl pc
 2b4:	00000040 	andeq	r0, r0, r0, asr #32
	...
 2c0:	00000024 	andeq	r0, r0, r4, lsr #32
 2c4:	474c0002 	strbmi	r0, [ip, -r2]
 2c8:	00040000 	andeq	r0, r4, r0
 2cc:	00000000 	andeq	r0, r0, r0
 2d0:	00000f50 	andeq	r0, r0, r0, asr pc
 2d4:	00000006 	andeq	r0, r0, r6
 2d8:	00000000 	andeq	r0, r0, r0
 2dc:	00000004 	andeq	r0, r0, r4
	...
 2e8:	0000001c 	andeq	r0, r0, ip, lsl r0
 2ec:	481a0002 	ldmdami	sl, {r1}
 2f0:	00040000 	andeq	r0, r4, r0
 2f4:	00000000 	andeq	r0, r0, r0
 2f8:	00000f58 	andeq	r0, r0, r8, asr pc
 2fc:	0000000c 	andeq	r0, r0, ip
	...

Disassembly of section .debug_rnglists:

00000000 <.debug_rnglists>:
   0:	00000051 	andeq	r0, r0, r1, asr r0
   4:	00040005 	andeq	r0, r4, r5
   8:	00000000 	andeq	r0, r0, r0
   c:	00016a05 	andeq	r6, r1, r5, lsl #20
  10:	04000400 	streq	r0, [r0], #-1024	@ 0xfffffc00
  14:	00181404 	andseq	r1, r8, r4, lsl #8
  18:	00019a05 	andeq	r9, r1, r5, lsl #20
  1c:	06000400 	streq	r0, [r0], -r0, lsl #8
  20:	00240604 	eoreq	r0, r4, r4, lsl #12
  24:	0001fa05 	andeq	pc, r1, r5, lsl #20
  28:	04000400 	streq	r0, [r0], #-1024	@ 0xfffffc00
  2c:	00200404 	eoreq	r0, r0, r4, lsl #8
  30:	00000007 	andeq	r0, r0, r7
  34:	60070c00 	andvs	r0, r7, r0, lsl #24
  38:	2c000001 	stccs	0, cr0, [r0], {1}
  3c:	00018c07 	andeq	r8, r1, r7, lsl #24
  40:	98070c00 	stmdals	r7, {sl, fp}
  44:	34000001 	strcc	r0, [r0], #-1
  48:	0001cc07 	andeq	ip, r1, r7, lsl #24
  4c:	f8072c00 			@ <UNDEFINED> instruction: 0xf8072c00
  50:	2c000001 	stccs	0, cr0, [r0], {1}
  54:	00001000 	andeq	r1, r0, r0
  58:	04000500 	streq	r0, [r0], #-1280	@ 0xfffffb00
  5c:	00000000 	andeq	r0, r0, r0
  60:	02240700 	eoreq	r0, r4, #0, 14
  64:	01b40000 			@ <UNDEFINED> instruction: 0x01b40000
  68:	00001b00 	andeq	r1, r0, r0, lsl #22
  6c:	04000500 	streq	r0, [r0], #-1280	@ 0xfffffb00
  70:	00000000 	andeq	r0, r0, r0
  74:	02d80700 	sbcseq	r0, r8, #0, 14
  78:	07020000 	streq	r0, [r2, -r0]
  7c:	000002dc 	ldrdeq	r0, [r0], -ip
  80:	00000750 	andeq	r0, r0, r0, asr r7
  84:	00020000 	andeq	r0, r2, r0
  88:	0000005d 	andeq	r0, r0, sp, asr r0
  8c:	00040005 	andeq	r0, r4, r5
  90:	00000000 	andeq	r0, r0, r0
  94:	00000007 	andeq	r0, r0, r7
  98:	00072000 	andeq	r2, r7, r0
  9c:	10000000 	andne	r0, r0, r0
  a0:	00000007 	andeq	r0, r0, r7
  a4:	2c071000 	stccs	0, cr1, [r7], {-0}
  a8:	28000003 	stmdacs	r0, {r0, r1}
  ac:	00000007 	andeq	r0, r0, r7
  b0:	00072400 	andeq	r2, r7, r0, lsl #8
  b4:	1c000000 	stcne	0, cr0, [r0], {-0}
  b8:	00000007 	andeq	r0, r0, r7
  bc:	00071c00 	andeq	r1, r7, r0, lsl #24
  c0:	1c000000 	stcne	0, cr0, [r0], {-0}
  c4:	00000007 	andeq	r0, r0, r7
  c8:	00071c00 	andeq	r1, r7, r0, lsl #24
  cc:	24000000 	strcs	r0, [r0], #-0
  d0:	00035407 	andeq	r5, r3, r7, lsl #8
  d4:	00071e00 	andeq	r1, r7, r0, lsl #28
  d8:	08000000 	stmdaeq	r0, {}	@ <UNPREDICTABLE>
  dc:	00000007 	andeq	r0, r0, r7
  e0:	00070e00 	andeq	r0, r7, r0, lsl #28
  e4:	0e000000 	cdpeq	0, 0, cr0, cr0, cr0, {0}
  e8:	00005900 	andeq	r5, r0, r0, lsl #18
  ec:	04000500 	streq	r0, [r0], #-1280	@ 0xfffffb00
  f0:	00000000 	andeq	r0, r0, r0
  f4:	03960500 	orrseq	r0, r6, #0, 10
  f8:	00040000 	andeq	r0, r4, r0
  fc:	1a0c040a 	bne	30112c <__exidx_end+0x3000e8>
 100:	03d20500 	bicseq	r0, r2, #0, 10
 104:	00040000 	andeq	r0, r4, r0
 108:	0a060404 	beq	181120 <__exidx_end+0x1800dc>
 10c:	050a0500 	streq	r0, [sl, #-1280]	@ 0xfffffb00
 110:	00040000 	andeq	r0, r4, r0
 114:	0a060404 	beq	18112c <__exidx_end+0x1800e8>
 118:	03740700 	cmneq	r4, #0, 14
 11c:	07500000 	ldrbeq	r0, [r0, -r0]
 120:	00000000 	andeq	r0, r0, r0
 124:	03c40726 	biceq	r0, r4, #9961472	@ 0x980000
 128:	02b80000 	adcseq	r0, r8, #0
 12c:	00000007 	andeq	r0, r0, r7
 130:	fc073000 	stc2	0, cr3, [r7], {-0}
 134:	b8000004 	stmdalt	r0, {r2}
 138:	00000702 	andeq	r0, r0, r2, lsl #14
 13c:	070a0000 	streq	r0, [sl, -r0]
 140:	00000000 	andeq	r0, r0, r0
 144:	011d0046 	tsteq	sp, r6, asr #32
 148:	00050000 	andeq	r0, r5, r0
 14c:	00000004 	andeq	r0, r0, r4
 150:	34050000 	strcc	r0, [r5], #-0
 154:	04000006 	streq	r0, [r0], #-6
 158:	02040000 	andeq	r0, r4, #0
 15c:	9004018e 	andls	r0, r4, lr, lsl #3
 160:	04019201 	streq	r9, [r1], #-513	@ 0xfffffdff
 164:	01960194 			@ <UNDEFINED> instruction: 0x01960194
 168:	bc01b404 	cfstrslt	mvf11, [r1], {4}
 16c:	b0050001 	andlt	r0, r5, r1
 170:	04000006 	streq	r0, [r0], #-6
 174:	04040200 	streq	r0, [r4], #-512	@ 0xfffffe00
 178:	40380412 	eorsmi	r0, r8, r2, lsl r4
 17c:	076c0500 	strbeq	r0, [ip, -r0, lsl #10]!
 180:	00040000 	andeq	r0, r4, r0
 184:	584a0420 	stmdapl	sl, {r5, sl}^
 188:	07d00500 	ldrbeq	r0, [r0, r0, lsl #10]
 18c:	00040000 	andeq	r0, r4, r0
 190:	463c041a 			@ <UNDEFINED> instruction: 0x463c041a
 194:	00645604 	rsbeq	r5, r4, r4, lsl #12
 198:	00099c05 	andeq	r9, r9, r5, lsl #24
 19c:	18000400 	stmdane	r0, {sl}
 1a0:	04343204 	ldrteq	r3, [r4], #-516	@ 0xfffffdfc
 1a4:	05005848 	streq	r5, [r0, #-2120]	@ 0xfffff7b8
 1a8:	0000099e 	muleq	r0, lr, r9
 1ac:	04160004 	ldreq	r0, [r6], #-4
 1b0:	46043230 			@ <UNDEFINED> instruction: 0x46043230
 1b4:	00050056 	andeq	r0, r5, r6, asr r0
 1b8:	04000000 	streq	r0, [r0], #-0
 1bc:	14041400 	strne	r1, [r4], #-1024	@ 0xfffffc00
 1c0:	52050016 	andpl	r0, r5, #22
 1c4:	0400000a 	streq	r0, [r0], #-10
 1c8:	08040000 	stmdaeq	r4, {}	@ <UNPREDICTABLE>
 1cc:	5205002a 	andpl	r0, r5, #42	@ 0x2a
 1d0:	0400000a 	streq	r0, [r0], #-10
 1d4:	08040000 	stmdaeq	r4, {}	@ <UNPREDICTABLE>
 1d8:	7c050022 	stcvc	0, cr0, [r5], {34}	@ 0x22
 1dc:	0400000a 	streq	r0, [r0], #-10
 1e0:	0a040200 	beq	1009e8 <__exidx_end+0xff9a4>
 1e4:	120e040c 	andne	r0, lr, #12, 8	@ 0xc000000
 1e8:	0a800500 	beq	fe0015f0 <SCB_ICSR+0x1dff28ec>
 1ec:	00040000 	andeq	r0, r4, r0
 1f0:	2a120402 	bcs	481200 <__exidx_end+0x4801bc>
 1f4:	06340700 	ldrteq	r0, [r4], -r0, lsl #14
 1f8:	01d40000 	bicseq	r0, r4, r0
 1fc:	00070807 	andeq	r0, r7, r7, lsl #16
 200:	34072c00 	strcc	r2, [r7], #-3072	@ 0xfffff400
 204:	28000007 	stmdacs	r0, {r0, r1, r2}
 208:	00075c07 	andeq	r5, r7, r7, lsl #24
 20c:	c4076800 	strgt	r6, [r7], #-2048	@ 0xfffff800
 210:	70000007 	andvc	r0, r0, r7
 214:	00083407 	andeq	r3, r8, r7, lsl #8
 218:	48071400 	stmdami	r7, {sl, ip}
 21c:	24000008 	strcs	r0, [r0], #-8
 220:	00086c07 	andeq	r6, r8, r7, lsl #24
 224:	0701f000 	streq	pc, [r1, -r0]
 228:	0000095c 	andeq	r0, r0, ip, asr r9
 22c:	0978071c 	ldmdbeq	r8!, {r2, r3, r4, r8, r9, sl}^
 230:	070e0000 	streq	r0, [lr, -r0]
 234:	00000988 	andeq	r0, r0, r8, lsl #19
 238:	09f4076c 	ldmibeq	r4!, {r2, r3, r5, r6, r8, r9, sl}^
 23c:	07340000 	ldreq	r0, [r4, -r0]!
 240:	00000000 	andeq	r0, r0, r0
 244:	00000762 	andeq	r0, r0, r2, ror #14
 248:	072c0000 	streq	r0, [ip, -r0]!
 24c:	00000000 	andeq	r0, r0, r0
 250:	28070190 	stmdacs	r7, {r4, r7, r8}
 254:	f800000a 			@ <UNDEFINED> instruction: 0xf800000a
 258:	0b200701 	bleq	801e64 <__exidx_end+0x800e20>
 25c:	07600000 	strbeq	r0, [r0, -r0]!
 260:	00000b80 	andeq	r0, r0, r0, lsl #23
 264:	25000180 	strcs	r0, [r0, #-384]	@ 0xfffffe80
 268:	05000000 	streq	r0, [r0, #-0]
 26c:	00000400 	andeq	r0, r0, r0, lsl #8
 270:	05000000 	streq	r0, [r0, #-0]
 274:	00000c00 	andeq	r0, r0, r0, lsl #24
 278:	04000004 	streq	r0, [r0], #-4
 27c:	08040602 	stmdaeq	r4, {r1, r9, sl}
 280:	0007000c 	andeq	r0, r7, ip
 284:	a800000c 	stmdage	r0, {r2, r3}
 288:	00000701 	andeq	r0, r0, r1, lsl #14
 28c:	00540000 	subseq	r0, r4, r0
 290:	00000021 	andeq	r0, r0, r1, lsr #32
 294:	00040005 	andeq	r0, r4, r5
 298:	00000000 	andeq	r0, r0, r0
 29c:	000ccc05 	andeq	ip, ip, r5, lsl #24
 2a0:	06000400 	streq	r0, [r0], -r0, lsl #8
 2a4:	00240804 	eoreq	r0, r4, r4, lsl #16
 2a8:	000ca807 	andeq	sl, ip, r7, lsl #16
 2ac:	c0071800 	andgt	r1, r7, r0, lsl #16
 2b0:	3c00000c 	stccc	0, cr0, [r0], {12}
 2b4:	00006300 	andeq	r6, r0, r0, lsl #6
 2b8:	04000500 	streq	r0, [r0], #-1280	@ 0xfffffb00
 2bc:	00000000 	andeq	r0, r0, r0
 2c0:	0d1c0500 	cfldr32eq	mvfx0, [ip, #-0]
 2c4:	00040000 	andeq	r0, r4, r0
 2c8:	3226040e 	eorcc	r0, r6, #234881024	@ 0xe000000
 2cc:	0d2a0500 	cfstr32eq	mvfx0, [sl, #-0]
 2d0:	00040000 	andeq	r0, r4, r0
 2d4:	46280418 			@ <UNDEFINED> instruction: 0x46280418
 2d8:	0dde0500 	cfldr64eq	mvdx0, [lr]
 2dc:	00040000 	andeq	r0, r4, r0
 2e0:	06040400 	streq	r0, [r4], -r0, lsl #8
 2e4:	000c0a04 	andeq	r0, ip, r4, lsl #20
 2e8:	00000007 	andeq	r0, r0, r7
 2ec:	00070c00 	andeq	r0, r7, r0, lsl #24
 2f0:	18000000 	stmdane	r0, {}	@ <UNPREDICTABLE>
 2f4:	000cfc07 	andeq	pc, ip, r7, lsl #24
 2f8:	07018c00 	streq	r8, [r1, -r0, lsl #24]
 2fc:	00000d88 	andeq	r0, r0, r8, lsl #27
 300:	0dd00748 	ldcleq	7, cr0, [r0, #288]	@ 0x120
 304:	01880000 	orreq	r0, r8, r0
 308:	000e5807 	andeq	r5, lr, r7, lsl #16
 30c:	07018c00 	streq	r8, [r1, -r0, lsl #24]
 310:	00000ee4 	andeq	r0, r0, r4, ror #29
 314:	0f10072c 	svceq	0x0010072c
 318:	00400000 	subeq	r0, r0, r0
 31c:	00000015 	andeq	r0, r0, r5, lsl r0
 320:	00040005 	andeq	r0, r4, r5
 324:	00000000 	andeq	r0, r0, r0
 328:	000f5007 	andeq	r5, pc, r7
 32c:	00070600 	andeq	r0, r7, r0, lsl #12
 330:	04000000 	streq	r0, [r0], #-0
 334:	00000f00 	andeq	r0, r0, r0, lsl #30
 338:	04000500 	streq	r0, [r0], #-1280	@ 0xfffffb00
 33c:	00000000 	andeq	r0, r0, r0
 340:	0f580700 	svceq	0x00580700
 344:	000c0000 	andeq	r0, ip, r0

Disassembly of section .debug_line:

00000000 <.debug_line>:
       0:	000001da 	ldrdeq	r0, [r0], -sl
       4:	00730003 	rsbseq	r0, r3, r3
       8:	01020000 	mrseq	r0, (UNDEF: 2)
       c:	000d0efb 	strdeq	r0, [sp], -fp
      10:	01010101 	tsteq	r1, r1, lsl #2
      14:	01000000 	mrseq	r0, (UNDEF: 0)
      18:	61010000 	mrsvs	r0, (UNDEF: 1)
      1c:	532f7070 			@ <UNDEFINED> instruction: 0x532f7070
      20:	49006372 	stmdbmi	r0, {r1, r4, r5, r6, r8, r9, sp, lr}
      24:	6100636e 	tstvs	r0, lr, ror #6
      28:	492f7070 	stmdbmi	pc!, {r4, r5, r6, ip, sp, lr}	@ <UNPREDICTABLE>
      2c:	0000636e 	andeq	r6, r0, lr, ror #6
      30:	6c707061 	ldclvs	0, cr7, [r0], #-388	@ 0xfffffe7c
      34:	74616369 	strbtvc	r6, [r1], #-873	@ 0xfffffc97
      38:	2e6e6f69 	cdpcs	15, 6, cr6, cr14, cr9, {3}
      3c:	00010063 	andeq	r0, r1, r3, rrx
      40:	61686b00 	cmnvs	r8, r0, lsl #22
      44:	00682e6c 	rsbeq	r2, r8, ip, ror #28
      48:	6b000002 	blvs	58 <STICK_ON+0x49>
      4c:	73666564 	cmnvc	r6, #100, 10	@ 0x19000000
      50:	0200682e 	andeq	r6, r0, #3014656	@ 0x2e0000
      54:	6f6b0000 	svcvs	0x006b0000
      58:	2e736a62 	vsubcs.f32	s13, s6, s5
      5c:	00020068 	andeq	r0, r2, r8, rrx
      60:	70706100 	rsbsvc	r6, r0, r0, lsl #2
      64:	6163696c 	cmnvs	r3, ip, ror #18
      68:	6e6f6974 			@ <UNDEFINED> instruction: 0x6e6f6974
      6c:	0300682e 	movweq	r6, #2094	@ 0x82e
      70:	616b0000 	cmnvs	fp, r0
      74:	682e6970 	stmdavs	lr!, {r4, r5, r6, r8, fp, sp, lr}
      78:	00000200 	andeq	r0, r0, r0, lsl #4
      7c:	00010500 	andeq	r0, r1, r0, lsl #10
      80:	00000205 	andeq	r0, r0, r5, lsl #4
      84:	15030000 	strne	r0, [r3, #-0]
      88:	13050501 	movwne	r0, #21761	@ 0x5501
      8c:	01060f05 	tsteq	r6, r5, lsl #30
      90:	022f0105 	eoreq	r0, pc, #1073741825	@ 0x40000001
      94:	01010004 	tsteq	r1, r4
      98:	05000105 	streq	r0, [r0, #-261]	@ 0xfffffefb
      9c:	00016002 	andeq	r6, r1, r2
      a0:	011a0300 	tsteq	sl, r0, lsl #6
      a4:	05130505 	ldreq	r0, [r3, #-1285]	@ 0xfffffafb
      a8:	05110601 	ldreq	r0, [r1, #-1537]	@ 0xfffff9ff
      ac:	05322309 	ldreq	r2, [r2, #-777]!	@ 0xfffffcf7
      b0:	2e75030f 	cdpcs	3, 7, cr0, cr5, cr15, {0}
      b4:	060b052e 	streq	r0, [fp], -lr, lsr #10
      b8:	052e0617 	streq	r0, [lr, #-1559]!	@ 0xfffff9e9
      bc:	09052801 	stmdbeq	r5, {r0, fp, sp}
      c0:	207a0306 	rsbscs	r0, sl, r6, lsl #6
      c4:	0306054c 	movweq	r0, #25932	@ 0x654c
      c8:	05050175 	streq	r0, [r5, #-373]	@ 0xfffffe8b
      cc:	060f0514 			@ <UNDEFINED> instruction: 0x060f0514
      d0:	09052e01 	stmdbeq	r5, {r0, r9, sl, fp, sp}
      d4:	010b0306 	tsteq	fp, r6, lsl #6
      d8:	01000502 	tsteq	r0, r2, lsl #10
      dc:	00010501 	andeq	r0, r1, r1, lsl #10
      e0:	018c0205 	orreq	r0, ip, r5, lsl #4
      e4:	26030000 	strcs	r0, [r3], -r0
      e8:	13030501 	movwne	r0, #13569	@ 0x3501
      ec:	01000602 	tsteq	r0, r2, lsl #12
      f0:	00010501 	andeq	r0, r1, r1, lsl #10
      f4:	01980205 	orrseq	r0, r8, r5, lsl #4
      f8:	2c030000 	stccs	0, cr0, [r3], {-0}
      fc:	05010601 	streq	r0, [r1, #-1537]	@ 0xfffff9ff
     100:	23212509 			@ <UNDEFINED> instruction: 0x23212509
     104:	00050520 	andeq	r0, r5, r0, lsr #10
     108:	06010402 	streq	r0, [r1], -r2, lsl #8
     10c:	05017803 	streq	r7, [r1, #-2051]	@ 0xfffff7fd
     110:	04020002 	streq	r0, [r2], #-2
     114:	05051301 	streq	r1, [r5, #-769]	@ 0xfffffcff
     118:	01040200 	mrseq	r0, R12_usr
     11c:	00090513 	andeq	r0, r9, r3, lsl r5
     120:	14010402 	strne	r0, [r1], #-1026	@ 0xfffffbfe
     124:	01040200 	mrseq	r0, R12_usr
     128:	0402003d 	streq	r0, [r2], #-61	@ 0xffffffc3
     12c:	02006701 	andeq	r6, r0, #262144	@ 0x40000
     130:	00130104 	andseq	r0, r3, r4, lsl #2
     134:	13010402 	movwne	r0, #5122	@ 0x1402
     138:	01040200 	mrseq	r0, R12_usr
     13c:	000a053d 	andeq	r0, sl, sp, lsr r5
     140:	03010402 	movweq	r0, #5122	@ 0x1402
     144:	07023c79 	smlsdxeq	r2, r9, ip, r3
     148:	05010100 	streq	r0, [r1, #-256]	@ 0xffffff00
     14c:	02050001 	andeq	r0, r5, #1
     150:	000001cc 	andeq	r0, r0, ip, asr #3
     154:	05013d03 	streq	r3, [r1, #-3331]	@ 0xfffff2fd
     158:	07051302 	streq	r1, [r5, -r2, lsl #6]
     15c:	01050106 	tsteq	r5, r6, lsl #2
     160:	2509051f 	strcs	r0, [r9, #-1311]	@ 0xfffffae1
     164:	05210305 	streq	r0, [r1, #-773]!	@ 0xfffffcfb
     168:	05051b07 	streq	r1, [r5, #-2823]	@ 0xfffff4f9
     16c:	01040200 	mrseq	r0, R12_usr
     170:	02002106 	andeq	r2, r0, #-2147483647	@ 0x80000001
     174:	05130104 	ldreq	r0, [r3, #-260]	@ 0xfffffefc
     178:	04020009 	streq	r0, [r2], #-9
     17c:	03051401 	movweq	r1, #21505	@ 0x5401
     180:	01040200 	mrseq	r0, R12_usr
     184:	0402003d 	streq	r0, [r2], #-61	@ 0xffffffc3
     188:	0a056701 	beq	159d94 <__exidx_end+0x158d50>
     18c:	01040200 	mrseq	r0, R12_usr
     190:	00050238 	andeq	r0, r5, r8, lsr r2
     194:	01050101 	tsteq	r5, r1, lsl #2
     198:	f8020500 			@ <UNDEFINED> instruction: 0xf8020500
     19c:	03000001 	movweq	r0, #1
     1a0:	060100c9 	streq	r0, [r1], -r9, asr #1
     1a4:	24030501 	strcs	r0, [r3], #-1281	@ 0xfffffaff
     1a8:	20230705 	eorcs	r0, r3, r5, lsl #14
     1ac:	03060505 	movweq	r0, #25861	@ 0x6505
     1b0:	0513017a 	ldreq	r0, [r3, #-378]	@ 0xfffffe86
     1b4:	06051403 	streq	r1, [r5], -r3, lsl #8
     1b8:	0613053d 			@ <UNDEFINED> instruction: 0x0613053d
     1bc:	06060501 	streq	r0, [r6], -r1, lsl #10
     1c0:	0609053d 			@ <UNDEFINED> instruction: 0x0609053d
     1c4:	07052001 	streq	r2, [r5, -r1]
     1c8:	20062106 	andcs	r2, r6, r6, lsl #2
     1cc:	2f060505 	svccs	0x00060505
     1d0:	7a030a05 	bvc	c29ec <__exidx_end+0xc19a8>
     1d4:	0605053c 			@ <UNDEFINED> instruction: 0x0605053c
     1d8:	00050213 	andeq	r0, r5, r3, lsl r2
     1dc:	00a70101 	adceq	r0, r7, r1, lsl #2
     1e0:	00030000 	andeq	r0, r3, r0
     1e4:	00000064 	andeq	r0, r0, r4, rrx
     1e8:	0efb0102 	cdpeq	1, 15, cr0, cr11, cr2, {0}
     1ec:	0101000d 	tsteq	r1, sp
     1f0:	00000101 	andeq	r0, r0, r1, lsl #2
     1f4:	00000100 	andeq	r0, r0, r0, lsl #2
     1f8:	636e4901 	cmnvs	lr, #16384	@ 0x4000
     1fc:	70706100 	rsbsvc	r6, r0, r0, lsl #2
     200:	636e492f 	cmnvs	lr, #770048	@ 0xbc000
     204:	616d0000 	cmnvs	sp, r0
     208:	632e6e69 			@ <UNDEFINED> instruction: 0x632e6e69
     20c:	00000000 	andeq	r0, r0, r0
     210:	6c61686b 	stclvs	8, cr6, [r1], #-428	@ 0xfffffe54
     214:	0100682e 	tsteq	r0, lr, lsr #16
     218:	646b0000 	strbtvs	r0, [fp], #-0
     21c:	2e736665 	cdpcs	6, 7, cr6, cr3, cr5, {3}
     220:	00010068 	andeq	r0, r1, r8, rrx
     224:	626f6b00 	rsbvs	r6, pc, #0, 22
     228:	682e736a 	stmdavs	lr!, {r1, r3, r5, r6, r8, r9, ip, sp, lr}
     22c:	00000100 	andeq	r0, r0, r0, lsl #2
     230:	6c707061 	ldclvs	0, cr7, [r0], #-388	@ 0xfffffe7c
     234:	74616369 	strbtvc	r6, [r1], #-873	@ 0xfffffc97
     238:	2e6e6f69 	cdpcs	15, 6, cr6, cr14, cr9, {3}
     23c:	00020068 	andeq	r0, r2, r8, rrx
     240:	70616b00 	rsbvc	r6, r1, r0, lsl #22
     244:	00682e69 	rsbeq	r2, r8, r9, ror #28
     248:	00000001 	andeq	r0, r0, r1
     24c:	05000105 	streq	r0, [r0, #-261]	@ 0xfffffefb
     250:	00022402 	andeq	r2, r2, r2, lsl #8
     254:	05051500 	streq	r1, [r5, #-1280]	@ 0xfffffb00
     258:	01050115 	tsteq	r5, r5, lsl r1
     25c:	05050f06 	streq	r0, [r5, #-3846]	@ 0xfffff0fa
     260:	063c0623 	ldrteq	r0, [ip], -r3, lsr #12
     264:	4a7a0334 	bmi	1e80f3c <__exidx_end+0x1e7fef8>
     268:	584a5806 	stmdapl	sl, {r1, r2, fp, ip, lr}^
     26c:	9f9f1858 	svcls	0x009f1858
     270:	0402009f 	streq	r0, [r2], #-159	@ 0xffffff61
     274:	09052f01 	stmdbeq	r5, {r0, r8, r9, sl, fp, sp}
     278:	01040200 	mrseq	r0, R12_usr
     27c:	000a0514 	andeq	r0, sl, r4, lsl r5
     280:	1e010402 	cdpne	4, 0, cr0, cr1, cr2, {0}
     284:	01001c02 	tsteq	r0, r2, lsl #24
     288:	00023b01 	andeq	r3, r2, r1, lsl #22
     28c:	cb000300 	blgt	e94 <kTimeOutReadyTask+0x3c>
     290:	02000001 	andeq	r0, r0, #1
     294:	0d0efb01 	vstreq	d15, [lr, #-4]
     298:	01010100 	mrseq	r0, (UNDEF: 17)
     29c:	00000001 	andeq	r0, r0, r1
     2a0:	01000001 	tsteq	r0, r1
     2a4:	7070412f 	rsbsvc	r4, r0, pc, lsr #2
     2a8:	6163696c 	cmnvs	r3, ip, ror #18
     2ac:	6e6f6974 			@ <UNDEFINED> instruction: 0x6e6f6974
     2b0:	54532f73 	ldrbpl	r2, [r3], #-3955	@ 0xfffff08d
     2b4:	4332334d 	teqmi	r2, #872415233	@ 0x34000001
     2b8:	49656275 	stmdbmi	r5!, {r0, r2, r4, r5, r6, r9, sp, lr}^
     2bc:	612e4544 			@ <UNDEFINED> instruction: 0x612e4544
     2c0:	432f7070 			@ <UNDEFINED> instruction: 0x432f7070
     2c4:	65746e6f 	ldrbvs	r6, [r4, #-3695]!	@ 0xfffff191
     2c8:	2f73746e 	svccs	0x0073746e
     2cc:	696c6345 	stmdbvs	ip!, {r0, r2, r6, r8, r9, sp, lr}^
     2d0:	2f657370 	svccs	0x00657370
     2d4:	67756c70 			@ <UNDEFINED> instruction: 0x67756c70
     2d8:	2f736e69 	svccs	0x00736e69
     2dc:	2e6d6f63 	cdpcs	15, 6, cr6, cr13, cr3, {3}
     2e0:	732e7473 			@ <UNDEFINED> instruction: 0x732e7473
     2e4:	32336d74 	eorscc	r6, r3, #116, 26	@ 0x1d00
     2e8:	65627563 	strbvs	r7, [r2, #-1379]!	@ 0xfffffa9d
     2ec:	6564692e 	strbvs	r6, [r4, #-2350]!	@ 0xfffff6d2
     2f0:	75636d2e 	strbvc	r6, [r3, #-3374]!	@ 0xfffff2d2
     2f4:	7478652e 	ldrbtvc	r6, [r8], #-1326	@ 0xfffffad2
     2f8:	616e7265 	cmnvs	lr, r5, ror #4
     2fc:	6f6f746c 	svcvs	0x006f746c
     300:	672e736c 	strvs	r7, [lr, -ip, ror #6]!
     304:	742d756e 	strtvc	r7, [sp], #-1390	@ 0xfffffa92
     308:	736c6f6f 	cmnvc	ip, #444	@ 0x1bc
     30c:	726f662d 	rsbvc	r6, pc, #47185920	@ 0x2d00000
     310:	6d74732d 	ldclvs	3, cr7, [r4, #-180]!	@ 0xffffff4c
     314:	312e3233 			@ <UNDEFINED> instruction: 0x312e3233
     318:	2e332e32 	mrccs	14, 1, r2, cr3, cr2, {1}
     31c:	316c6572 	smccc	50770	@ 0xc652
     320:	63616d2e 	cmnvs	r1, #2944	@ 0xb80
     324:	3436736f 	ldrtcc	r7, [r6], #-879	@ 0xfffffc91
     328:	312e315f 			@ <UNDEFINED> instruction: 0x312e315f
     32c:	322e302e 	eorcc	r3, lr, #46	@ 0x2e
     330:	31343230 	teqcc	r4, r0, lsr r2
     334:	31303330 	teqcc	r0, r0, lsr r3
     338:	2f313032 	svccs	0x00313032
     33c:	6c6f6f74 	stclvs	15, cr6, [pc], #-464	@ 174 <kPuts+0x14>
     340:	72612f73 	rsbvc	r2, r1, #460	@ 0x1cc
     344:	6f6e2d6d 	svcvs	0x006e2d6d
     348:	652d656e 	strvs	r6, [sp, #-1390]!	@ 0xfffffa92
     34c:	2f696261 	svccs	0x00696261
     350:	6c636e69 	stclvs	14, cr6, [r3], #-420	@ 0xfffffe5c
     354:	2f656475 	svccs	0x00656475
     358:	6863616d 	stmdavs	r3!, {r0, r2, r3, r5, r6, r8, sp, lr}^
     35c:	00656e69 	rsbeq	r6, r5, r9, ror #28
     360:	7070412f 	rsbsvc	r4, r0, pc, lsr #2
     364:	6163696c 	cmnvs	r3, ip, ror #18
     368:	6e6f6974 			@ <UNDEFINED> instruction: 0x6e6f6974
     36c:	54532f73 	ldrbpl	r2, [r3], #-3955	@ 0xfffff08d
     370:	4332334d 	teqmi	r2, #872415233	@ 0x34000001
     374:	49656275 	stmdbmi	r5!, {r0, r2, r4, r5, r6, r9, sp, lr}^
     378:	612e4544 			@ <UNDEFINED> instruction: 0x612e4544
     37c:	432f7070 			@ <UNDEFINED> instruction: 0x432f7070
     380:	65746e6f 	ldrbvs	r6, [r4, #-3695]!	@ 0xfffff191
     384:	2f73746e 	svccs	0x0073746e
     388:	696c6345 	stmdbvs	ip!, {r0, r2, r6, r8, r9, sp, lr}^
     38c:	2f657370 	svccs	0x00657370
     390:	67756c70 			@ <UNDEFINED> instruction: 0x67756c70
     394:	2f736e69 	svccs	0x00736e69
     398:	2e6d6f63 	cdpcs	15, 6, cr6, cr13, cr3, {3}
     39c:	732e7473 			@ <UNDEFINED> instruction: 0x732e7473
     3a0:	32336d74 	eorscc	r6, r3, #116, 26	@ 0x1d00
     3a4:	65627563 	strbvs	r7, [r2, #-1379]!	@ 0xfffffa9d
     3a8:	6564692e 	strbvs	r6, [r4, #-2350]!	@ 0xfffff6d2
     3ac:	75636d2e 	strbvc	r6, [r3, #-3374]!	@ 0xfffff2d2
     3b0:	7478652e 	ldrbtvc	r6, [r8], #-1326	@ 0xfffffad2
     3b4:	616e7265 	cmnvs	lr, r5, ror #4
     3b8:	6f6f746c 	svcvs	0x006f746c
     3bc:	672e736c 	strvs	r7, [lr, -ip, ror #6]!
     3c0:	742d756e 	strtvc	r7, [sp], #-1390	@ 0xfffffa92
     3c4:	736c6f6f 	cmnvc	ip, #444	@ 0x1bc
     3c8:	726f662d 	rsbvc	r6, pc, #47185920	@ 0x2d00000
     3cc:	6d74732d 	ldclvs	3, cr7, [r4, #-180]!	@ 0xffffff4c
     3d0:	312e3233 			@ <UNDEFINED> instruction: 0x312e3233
     3d4:	2e332e32 	mrccs	14, 1, r2, cr3, cr2, {1}
     3d8:	316c6572 	smccc	50770	@ 0xc652
     3dc:	63616d2e 	cmnvs	r1, #2944	@ 0xb80
     3e0:	3436736f 	ldrtcc	r7, [r6], #-879	@ 0xfffffc91
     3e4:	312e315f 			@ <UNDEFINED> instruction: 0x312e315f
     3e8:	322e302e 	eorcc	r3, lr, #46	@ 0x2e
     3ec:	31343230 	teqcc	r4, r0, lsr r2
     3f0:	31303330 	teqcc	r0, r0, lsr r3
     3f4:	2f313032 	svccs	0x00313032
     3f8:	6c6f6f74 	stclvs	15, cr6, [pc], #-464	@ 230 <main+0xc>
     3fc:	72612f73 	rsbvc	r2, r1, #460	@ 0x1cc
     400:	6f6e2d6d 	svcvs	0x006e2d6d
     404:	652d656e 	strvs	r6, [sp, #-1390]!	@ 0xfffffa92
     408:	2f696261 	svccs	0x00696261
     40c:	6c636e69 	stclvs	14, cr6, [r3], #-420	@ 0xfffffe5c
     410:	2f656475 	svccs	0x00656475
     414:	00737973 	rsbseq	r7, r3, r3, ror r9
     418:	61747300 	cmnvs	r4, r0, lsl #6
     41c:	70757472 	rsbsvc	r7, r5, r2, ror r4
     420:	726f635f 	rsbvc	r6, pc, #2080374785	@ 0x7c000001
     424:	6d786574 	cfldr64vs	mvdx6, [r8, #-464]!	@ 0xfffffe30
     428:	0000632e 	andeq	r6, r0, lr, lsr #6
     42c:	645f0000 	ldrbvs	r0, [pc], #-0	@ 434 <kMboxPost+0x70>
     430:	75616665 	strbvc	r6, [r1, #-1637]!	@ 0xfffff99b
     434:	745f746c 	ldrbvc	r7, [pc], #-1132	@ 43c <kMboxPost+0x78>
     438:	73657079 	cmnvc	r5, #121	@ 0x79
     43c:	0100682e 	tsteq	r0, lr, lsr #16
     440:	735f0000 	cmpvc	pc, #0
     444:	6e696474 	mcrvs	4, 3, r6, cr9, cr4, {3}
     448:	00682e74 	rsbeq	r2, r8, r4, ror lr
     44c:	3c000002 	stccc	0, cr0, [r0], {2}
     450:	6c697562 	cfstr64vs	mvdx7, [r9], #-392	@ 0xfffffe78
     454:	6e692d74 	mcrvs	13, 3, r2, cr9, cr4, {3}
     458:	0000003e 	andeq	r0, r0, lr, lsr r0
     45c:	1c050000 	stcne	0, cr0, [r5], {-0}
     460:	d8020500 	stmdale	r2, {r8, sl}
     464:	03000002 	movweq	r0, #2
     468:	050100e8 	streq	r0, [r1, #-232]	@ 0xffffff18
     46c:	04020005 	streq	r0, [r2], #-5
     470:	0b051401 	bleq	14547c <__exidx_end+0x144438>
     474:	01040200 	mrseq	r0, R12_usr
     478:	00010201 	andeq	r0, r1, r1, lsl #4
     47c:	1a050101 	bne	140888 <__exidx_end+0x13f844>
     480:	dc020500 	cfstr32le	mvfx0, [r2], {-0}
     484:	03000002 	movweq	r0, #2
     488:	050100ca 	streq	r0, [r1, #-202]	@ 0xffffff36
     48c:	13151305 	tstne	r5, #335544320	@ 0x14000000
     490:	061a0514 			@ <UNDEFINED> instruction: 0x061a0514
     494:	05017903 	streq	r7, [r1, #-2307]	@ 0xfffff6fd
     498:	10052812 	andne	r2, r5, r2, lsl r8
     49c:	060505cd 	streq	r0, [r5], -sp, asr #11
     4a0:	020015cc 	andeq	r1, r0, #204, 10	@ 0x33000000
     4a4:	05310104 	ldreq	r0, [r1, #-260]!	@ 0xfffffefc
     4a8:	0402000b 	streq	r0, [r2], #-11
     4ac:	0b020101 	bleq	808b8 <__exidx_end+0x7f874>
     4b0:	05010100 	streq	r0, [r1, #-256]	@ 0xffffff00
     4b4:	02050017 	andeq	r0, r5, #23
     4b8:	00000000 	andeq	r0, r0, r0
     4bc:	0100c303 	tsteq	r0, r3, lsl #6
     4c0:	02140105 	andseq	r0, r4, #1073741825	@ 0x40000001
     4c4:	01010001 	tsteq	r1, r1
     4c8:	000002be 			@ <UNDEFINED> instruction: 0x000002be
     4cc:	002f0003 	eoreq	r0, pc, r3
     4d0:	01020000 	mrseq	r0, (UNDEF: 2)
     4d4:	000d0efb 	strdeq	r0, [sp], -fp
     4d8:	01010101 	tsteq	r1, r1, lsl #2
     4dc:	01000000 	mrseq	r0, (UNDEF: 0)
     4e0:	53010000 	movwpl	r0, #4096	@ 0x1000
     4e4:	49006372 	stmdbmi	r0, {r1, r4, r5, r6, r8, r9, sp, lr}
     4e8:	0000636e 	andeq	r6, r0, lr, ror #6
     4ec:	6c61686b 	stclvs	8, cr6, [r1], #-428	@ 0xfffffe54
     4f0:	0100632e 	tsteq	r0, lr, lsr #6
     4f4:	686b0000 	stmdavs	fp!, {}^	@ <UNPREDICTABLE>
     4f8:	682e6c61 	stmdavs	lr!, {r0, r5, r6, sl, fp, sp, lr}
     4fc:	00000200 	andeq	r0, r0, r0, lsl #4
     500:	00010500 	andeq	r0, r1, r0, lsl #10
     504:	00000205 	andeq	r0, r0, r5, lsl #4
     508:	21030000 	mrscs	r0, (UNDEF: 3)
     50c:	13050501 	movwne	r0, #21761	@ 0x5501
     510:	36051413 			@ <UNDEFINED> instruction: 0x36051413
     514:	05201406 	streq	r1, [r0, #-1030]!	@ 0xfffffbfa
     518:	48222c0f 	stmdami	r2!, {r0, r1, r2, r3, sl, fp, sp}
     51c:	21060505 	tstcs	r6, r5, lsl #10
     520:	18051313 	stmdane	r5, {r0, r1, r4, r8, r9, ip}
     524:	05050106 	streq	r0, [r5, #-262]	@ 0xfffffefa
     528:	18052206 	stmdane	r5, {r1, r2, r9, sp}
     52c:	01050106 	tsteq	r5, r6, lsl #2
     530:	00050221 	andeq	r0, r5, r1, lsr #4
     534:	01050101 	tsteq	r5, r1, lsl #2
     538:	00020500 	andeq	r0, r2, r0, lsl #10
     53c:	03000000 	movweq	r0, #0
     540:	0505012e 	streq	r0, [r5, #-302]	@ 0xfffffed2
     544:	06190513 			@ <UNDEFINED> instruction: 0x06190513
     548:	2f010501 	svccs	0x00010501
     54c:	01000602 	tsteq	r0, r2, lsl #12
     550:	00010501 	andeq	r0, r1, r1, lsl #10
     554:	00000205 	andeq	r0, r0, r5, lsl #4
     558:	33030000 	movwcc	r0, #12288	@ 0x3000
     55c:	13050501 	movwne	r0, #21761	@ 0x5501
     560:	01061005 	tsteq	r6, r5
     564:	052e1805 	streq	r1, [lr, #-2053]!	@ 0xfffff7fb
     568:	03023d01 	movweq	r3, #11521	@ 0x2d01
     56c:	05010100 	streq	r0, [r1, #-256]	@ 0xffffff00
     570:	02050001 	andeq	r0, r5, #1
     574:	0000032c 	andeq	r0, r0, ip, lsr #6
     578:	05013803 	streq	r3, [r1, #-2051]	@ 0xfffff7fd
     57c:	08051305 	stmdaeq	r5, {r0, r2, r8, r9, ip}
     580:	09050106 	stmdbeq	r5, {r1, r2, r8}
     584:	20052306 	andcs	r2, r5, r6, lsl #6
     588:	3a051806 	bcc	1465a8 <__exidx_end+0x145564>
     58c:	053c7a03 	ldreq	r7, [ip, #-2563]!	@ 0xfffff5fd
     590:	052e2111 	streq	r2, [lr, #-273]!	@ 0xfffffeef
     594:	20051f2e 	andcs	r1, r5, lr, lsr #30
     598:	033a0542 	teqeq	sl, #276824064	@ 0x10800000
     59c:	09052e7a 	stmdbeq	r5, {r1, r3, r4, r5, r6, r9, sl, fp, sp}
     5a0:	20052606 	andcs	r2, r5, r6, lsl #12
     5a4:	01050106 	tsteq	r5, r6, lsl #2
     5a8:	00040230 	andeq	r0, r4, r0, lsr r2
     5ac:	01050101 	tsteq	r5, r1, lsl #2
     5b0:	00020500 	andeq	r0, r2, r0, lsl #10
     5b4:	03000000 	movweq	r0, #0
     5b8:	050100c7 	streq	r0, [r1, #-199]	@ 0xffffff39
     5bc:	08051305 	stmdaeq	r5, {r0, r2, r8, r9, ip}
     5c0:	09050106 	stmdbeq	r5, {r1, r2, r8}
     5c4:	21052306 	tstcs	r5, r6, lsl #6
     5c8:	05371706 	ldreq	r1, [r7, #-1798]!	@ 0xfffff8fa
     5cc:	21052036 	tstcs	r5, r6, lsr r0
     5d0:	09052933 	stmdbeq	r5, {r0, r1, r4, r5, r8, fp, sp}
     5d4:	21053306 	tstcs	r5, r6, lsl #6
     5d8:	28050106 	stmdacs	r5, {r1, r2, r8}
     5dc:	2201052e 	andcs	r0, r1, #192937984	@ 0xb800000
     5e0:	01000402 	tsteq	r0, r2, lsl #8
     5e4:	00010501 	andeq	r0, r1, r1, lsl #10
     5e8:	00000205 	andeq	r0, r0, r5, lsl #4
     5ec:	d5030000 	strle	r0, [r3, #-0]
     5f0:	05050100 	streq	r0, [r5, #-256]	@ 0xffffff00
     5f4:	06080513 			@ <UNDEFINED> instruction: 0x06080513
     5f8:	09052001 	stmdbeq	r5, {r0, sp}
     5fc:	2e052206 	cdpcs	2, 0, cr2, cr5, cr6, {0}
     600:	21050106 	tstcs	r5, r6, lsl #2
     604:	20270520 	eorcs	r0, r7, r0, lsr #10
     608:	05203705 	streq	r3, [r0, #-1797]!	@ 0xfffff8fb
     60c:	27052e2e 	strcs	r2, [r5, -lr, lsr #28]
     610:	30010520 	andcc	r0, r1, r0, lsr #10
     614:	01000402 	tsteq	r0, r2, lsl #8
     618:	00010501 	andeq	r0, r1, r1, lsl #10
     61c:	00000205 	andeq	r0, r0, r5, lsl #4
     620:	dd030000 	stcle	0, cr0, [r3, #-0]
     624:	05050100 	streq	r0, [r5, #-256]	@ 0xffffff00
     628:	06080513 			@ <UNDEFINED> instruction: 0x06080513
     62c:	09052001 	stmdbeq	r5, {r0, sp}
     630:	2e052206 	cdpcs	2, 0, cr2, cr5, cr6, {0}
     634:	21050106 	tstcs	r5, r6, lsl #2
     638:	20270520 	eorcs	r0, r7, r0, lsr #10
     63c:	05203705 	streq	r3, [r0, #-1797]!	@ 0xfffff8fb
     640:	27052e2e 	strcs	r2, [r5, -lr, lsr #28]
     644:	3e010520 	cfsh32cc	mvfx0, mvfx1, #16
     648:	01000302 	tsteq	r0, r2, lsl #6
     64c:	00010501 	andeq	r0, r1, r1, lsl #10
     650:	00000205 	andeq	r0, r0, r5, lsl #4
     654:	e5030000 	str	r0, [r3, #-0]
     658:	05050100 	streq	r0, [r5, #-256]	@ 0xffffff00
     65c:	06080513 			@ <UNDEFINED> instruction: 0x06080513
     660:	09052001 	stmdbeq	r5, {r0, sp}
     664:	2e052206 	cdpcs	2, 0, cr2, cr5, cr6, {0}
     668:	21050106 	tstcs	r5, r6, lsl #2
     66c:	20270520 	eorcs	r0, r7, r0, lsr #10
     670:	05203705 	streq	r3, [r0, #-1797]!	@ 0xfffff8fb
     674:	27052e2e 	strcs	r2, [r5, -lr, lsr #28]
     678:	3e010520 	cfsh32cc	mvfx0, mvfx1, #16
     67c:	01000302 	tsteq	r0, r2, lsl #6
     680:	00010501 	andeq	r0, r1, r1, lsl #10
     684:	00000205 	andeq	r0, r0, r5, lsl #4
     688:	ed030000 	stc	0, cr0, [r3, #-0]
     68c:	05050100 	streq	r0, [r5, #-256]	@ 0xffffff00
     690:	06080513 			@ <UNDEFINED> instruction: 0x06080513
     694:	09052001 	stmdbeq	r5, {r0, sp}
     698:	2e052206 	cdpcs	2, 0, cr2, cr5, cr6, {0}
     69c:	21050106 	tstcs	r5, r6, lsl #2
     6a0:	20270520 	eorcs	r0, r7, r0, lsr #10
     6a4:	05203705 	streq	r3, [r0, #-1797]!	@ 0xfffff8fb
     6a8:	27052e2e 	strcs	r2, [r5, -lr, lsr #28]
     6ac:	3e010520 	cfsh32cc	mvfx0, mvfx1, #16
     6b0:	01000302 	tsteq	r0, r2, lsl #6
     6b4:	00010501 	andeq	r0, r1, r1, lsl #10
     6b8:	00000205 	andeq	r0, r0, r5, lsl #4
     6bc:	f5030000 			@ <UNDEFINED> instruction: 0xf5030000
     6c0:	05050100 	streq	r0, [r5, #-256]	@ 0xffffff00
     6c4:	06080513 			@ <UNDEFINED> instruction: 0x06080513
     6c8:	06090501 	streq	r0, [r9], -r1, lsl #10
     6cc:	062b0522 	strteq	r0, [fp], -r2, lsr #10
     6d0:	2e250501 	cfsh64cs	mvdx0, mvdx5, #1
     6d4:	054a4105 	strbeq	r4, [sl, #-261]	@ 0xfffffefb
     6d8:	14053c4b 	strne	r3, [r5], #-3147	@ 0xfffff3b5
     6dc:	3210052f 	andscc	r0, r0, #197132288	@ 0xbc00000
     6e0:	02220105 	eoreq	r0, r2, #1073741825	@ 0x40000001
     6e4:	01010003 	tsteq	r1, r3
     6e8:	05000105 	streq	r0, [r0, #-261]	@ 0xfffffefb
     6ec:	00035402 	andeq	r5, r3, r2, lsl #8
     6f0:	01860300 	orreq	r0, r6, r0, lsl #6
     6f4:	14050501 	strne	r0, [r5], #-1281	@ 0xfffffaff
     6f8:	01061005 	tsteq	r6, r5
     6fc:	05200805 	streq	r0, [r0, #-2053]!	@ 0xfffff7fb
     700:	05340605 	ldreq	r0, [r4, #-1541]!	@ 0xfffff9fb
     704:	4201061b 	andmi	r0, r1, #28311552	@ 0x1b00000
     708:	05207a03 	streq	r7, [r0, #-2563]!	@ 0xfffff5fd
     70c:	05230605 	streq	r0, [r3, #-1541]!	@ 0xfffff9fb
     710:	2001061a 	andcs	r0, r1, sl, lsl r6
     714:	31060505 	tstcc	r6, r5, lsl #10
     718:	03061005 	movweq	r1, #24581	@ 0x6005
     71c:	1b050176 	blne	140cfc <__exidx_end+0x13fcb8>
     720:	052e0a03 	streq	r0, [lr, #-2563]!	@ 0xfffff5fd
     724:	05220605 	streq	r0, [r2, #-1541]!	@ 0xfffff9fb
     728:	02130601 	andseq	r0, r3, #1048576	@ 0x100000
     72c:	01010001 	tsteq	r1, r1
     730:	05000105 	streq	r0, [r0, #-261]	@ 0xfffffefb
     734:	00000002 	andeq	r0, r0, r2
     738:	019a0300 	orrseq	r0, sl, r0, lsl #6
     73c:	13050501 	movwne	r0, #21761	@ 0x5501
     740:	01061c05 	tsteq	r6, r5, lsl #24
     744:	023d0105 	eorseq	r0, sp, #1073741825	@ 0x40000001
     748:	01010001 	tsteq	r1, r1
     74c:	05000105 	streq	r0, [r0, #-261]	@ 0xfffffefb
     750:	00000002 	andeq	r0, r0, r2
     754:	019f0300 	orrseq	r0, pc, r0, lsl #6
     758:	13050501 	movwne	r0, #21761	@ 0x5501
     75c:	01061405 	tsteq	r6, r5, lsl #8
     760:	053c1b05 	ldreq	r1, [ip, #-2821]!	@ 0xfffff4fb
     764:	01023d01 	tsteq	r2, r1, lsl #26
     768:	05010100 	streq	r0, [r1, #-256]	@ 0xffffff00
     76c:	02050001 	andeq	r0, r5, #1
     770:	00000000 	andeq	r0, r0, r0
     774:	0101a403 	tsteq	r1, r3, lsl #8
     778:	05130505 	ldreq	r0, [r3, #-1285]	@ 0xfffffafb
     77c:	05010614 	streq	r0, [r1, #-1556]	@ 0xfffff9ec
     780:	01053c1b 	tsteq	r5, fp, lsl ip
     784:	0001023d 	andeq	r0, r1, sp, lsr r2
     788:	04d60101 	ldrbeq	r0, [r6], #257	@ 0x101
     78c:	00030000 	andeq	r0, r3, r0
     790:	00000066 	andeq	r0, r0, r6, rrx
     794:	0efb0102 	cdpeq	1, 15, cr0, cr11, cr2, {0}
     798:	0101000d 	tsteq	r1, sp
     79c:	00000101 	andeq	r0, r0, r1, lsl #2
     7a0:	00000100 	andeq	r0, r0, r0, lsl #2
     7a4:	63725301 	cmnvs	r2, #67108864	@ 0x4000000
     7a8:	636e4900 	cmnvs	lr, #0, 18
     7ac:	6d6b0000 	stclvs	0, cr0, [fp, #-0]
     7b0:	2e677365 	cdpcs	3, 6, cr7, cr7, cr5, {3}
     7b4:	00010063 	andeq	r0, r1, r3, rrx
     7b8:	63736b00 	cmnvs	r3, #0, 22
     7bc:	00682e68 	rsbeq	r2, r8, r8, ror #28
     7c0:	6b000002 	blvs	7d0 <kTCBQRem+0xc>
     7c4:	73666564 	cmnvc	r6, #100, 10	@ 0x19000000
     7c8:	0200682e 	andeq	r6, r0, #3014656	@ 0x2e0000
     7cc:	686b0000 	stmdavs	fp!, {}^	@ <UNPREDICTABLE>
     7d0:	682e6c61 	stmdavs	lr!, {r0, r5, r6, sl, fp, sp, lr}
     7d4:	00000200 	andeq	r0, r0, r0, lsl #4
     7d8:	6a626f6b 	bvs	189c58c <__exidx_end+0x189b548>
     7dc:	00682e73 	rsbeq	r2, r8, r3, ror lr
     7e0:	6b000002 	blvs	7f0 <kTCBQRem+0x2c>
     7e4:	656d6974 	strbvs	r6, [sp, #-2420]!	@ 0xfffff68c
     7e8:	00682e72 	rsbeq	r2, r8, r2, ror lr
     7ec:	6b000002 	blvs	7fc <kTCBQRem+0x38>
     7f0:	2e727265 	cdpcs	2, 7, cr7, cr2, cr5, {3}
     7f4:	00020068 	andeq	r0, r2, r8, rrx
     7f8:	01050000 	mrseq	r0, (UNDEF: 5)
     7fc:	74020500 	strvc	r0, [r2], #-1280	@ 0xfffffb00
     800:	03000003 	movweq	r0, #3
     804:	0505012c 	streq	r0, [r5, #-300]	@ 0xfffffed4
     808:	01051313 	tsteq	r5, r3, lsl r3
     80c:	05201006 	streq	r1, [r0, #-6]!
     810:	062e3005 	strteq	r3, [lr], -r5
     814:	06080521 	streq	r0, [r8], -r1, lsr #10
     818:	06090501 	streq	r0, [r9], -r1, lsl #10
     81c:	062e0622 	strteq	r0, [lr], -r2, lsr #12
     820:	10053d2f 	andne	r3, r5, pc, lsr #26
     824:	01050106 	tsteq	r5, r6, lsl #2
     828:	052e0b03 	streq	r0, [lr, #-2819]!	@ 0xfffff4fd
     82c:	77030605 	strvc	r0, [r3, -r5, lsl #12]
     830:	05020420 	streq	r0, [r2, #-1056]	@ 0xfffffbe0
     834:	0d03061f 	stceq	6, cr0, [r3, #-124]	@ 0xffffff84
     838:	2f1d0501 	svccs	0x001d0501
     83c:	042f1405 	strteq	r1, [pc], #-1029	@ 844 <kTCBQPeek+0x10>
     840:	03130501 	tsteq	r3, #4194304	@ 0x400000
     844:	05052071 	streq	r2, [r5, #-113]	@ 0xffffff8f
     848:	04132106 	ldreq	r2, [r3], #-262	@ 0xfffffefa
     84c:	16350502 	ldrtne	r0, [r5], -r2, lsl #10
     850:	16150505 	ldrne	r0, [r5], -r5, lsl #10
     854:	06140514 			@ <UNDEFINED> instruction: 0x06140514
     858:	06050501 	streq	r0, [r5], -r1, lsl #10
     85c:	060f0521 	streq	r0, [pc], -r1, lsr #10
     860:	05052013 	streq	r2, [r5, #-19]	@ 0xffffffed
     864:	062f3d06 	strteq	r3, [pc], -r6, lsl #26
     868:	06010401 	streq	r0, [r1], -r1, lsl #8
     86c:	14017003 	strne	r7, [r1], #-3
     870:	01061005 	tsteq	r6, r5
     874:	21060505 	tstcs	r6, r5, lsl #10
     878:	01061105 	tsteq	r6, r5, lsl #2
     87c:	2f060505 	svccs	0x00060505
     880:	060c052f 	streq	r0, [ip], -pc, lsr #10
     884:	00050201 	andeq	r0, r5, r1, lsl #4
     888:	01050101 	tsteq	r5, r1, lsl #2
     88c:	00020500 	andeq	r0, r2, r0, lsl #10
     890:	03000000 	movweq	r0, #0
     894:	050100c1 	streq	r0, [r1, #-193]	@ 0xffffff3f
     898:	05131305 	ldreq	r1, [r3, #-773]	@ 0xfffffcfb
     89c:	20100601 	andscs	r0, r0, r1, lsl #12
     8a0:	2e300505 	cdpcs	5, 3, cr0, cr0, cr5, {0}
     8a4:	08052106 	stmdaeq	r5, {r1, r2, r8, sp}
     8a8:	0e050106 	adfeqs	f0, f5, f6
     8ac:	01040200 	mrseq	r0, R12_usr
     8b0:	06090520 	streq	r0, [r9], -r0, lsr #10
     8b4:	06190522 	ldreq	r0, [r9], -r2, lsr #10
     8b8:	06090501 	streq	r0, [r9], -r1, lsl #10
     8bc:	10052f21 	andne	r2, r5, r1, lsr #30
     8c0:	01050106 	tsteq	r5, r6, lsl #2
     8c4:	06050524 	streq	r0, [r5], -r4, lsr #10
     8c8:	0620061e 			@ <UNDEFINED> instruction: 0x0620061e
     8cc:	060c052f 	streq	r0, [ip], -pc, lsr #10
     8d0:	00030201 	andeq	r0, r3, r1, lsl #4
     8d4:	01050101 	tsteq	r5, r1, lsl #2
     8d8:	c4020500 	strgt	r0, [r2], #-1280	@ 0xfffffb00
     8dc:	03000003 	movweq	r0, #3
     8e0:	050100d0 	streq	r0, [r1, #-208]	@ 0xffffff30
     8e4:	05131405 	ldreq	r1, [r3, #-1029]	@ 0xfffffbfb
     8e8:	2e0f0601 	cfmadd32cs	mvax0, mvfx0, mvfx15, mvfx1
     8ec:	043f0505 	ldrteq	r0, [pc], #-1285	@ 8f4 <kCreateTask+0x88>
     8f0:	01f00303 	mvnseq	r0, r3, lsl #6
     8f4:	0301042e 	movweq	r0, #5166	@ 0x142e
     8f8:	062e7e90 			@ <UNDEFINED> instruction: 0x062e7e90
     8fc:	05030421 	streq	r0, [r3, #-1057]	@ 0xfffffbdf
     900:	01ec030a 	mvneq	r0, sl, lsl #6
     904:	14050501 	strne	r0, [r5], #-1281	@ 0xfffffaff
     908:	042f1313 	strteq	r1, [pc], #-787	@ 910 <kCreateTask+0xa4>
     90c:	06080501 	streq	r0, [r8], -r1, lsl #10
     910:	017e8f03 	cmneq	lr, r3, lsl #30
     914:	02000905 	andeq	r0, r0, #81920	@ 0x14000
     918:	06200104 	strteq	r0, [r0], -r4, lsl #2
     91c:	052e0622 	streq	r0, [lr, #-1570]!	@ 0xfffff9de
     920:	05300605 	ldreq	r0, [r0, #-1541]!	@ 0xfffff9fb
     924:	05010608 	streq	r0, [r1, #-1544]	@ 0xfffff9f8
     928:	04020018 	streq	r0, [r2], #-24	@ 0xffffffe8
     92c:	09052001 	stmdbeq	r5, {r0, sp}
     930:	05052206 	streq	r2, [r5, #-518]	@ 0xfffffdfa
     934:	0608054c 	streq	r0, [r8], -ip, asr #10
     938:	06090501 	streq	r0, [r9], -r1, lsl #10
     93c:	4e050530 	cfmv64hrmi	mvdx5, r0
     940:	01060805 	tsteq	r6, r5, lsl #16
     944:	3f060905 	svccc	0x00060905
     948:	01060c05 	tsteq	r6, r5, lsl #24
     94c:	22060d05 	andcs	r0, r6, #320	@ 0x140
     950:	0614053d 			@ <UNDEFINED> instruction: 0x0614053d
     954:	03010501 	movweq	r0, #5377	@ 0x1501
     958:	09052e34 	stmdbeq	r5, {r2, r4, r5, r9, sl, fp, sp}
     95c:	3c500306 	mrrccc	3, 0, r0, r0, cr6	@ <UNPREDICTABLE>
     960:	2e061305 	cdpcs	3, 0, cr1, cr6, cr5, {0}
     964:	062e0905 	strteq	r0, [lr], -r5, lsl #18
     968:	0618055d 			@ <UNDEFINED> instruction: 0x0618055d
     96c:	200f0501 	andcs	r0, pc, r1, lsl #10
     970:	05301b05 	ldreq	r1, [r0, #-2821]!	@ 0xfffff4fb
     974:	09052c18 	stmdbeq	r5, {r3, r4, sl, fp, sp}
     978:	0c052206 	sfmeq	f2, 4, [r5], {6}
     97c:	0d050106 	stfeqs	f0, [r5, #-24]	@ 0xffffffe8
     980:	144a3006 	strbne	r3, [sl], #-6
     984:	584d0905 	stmdapl	sp, {r0, r2, r8, fp}^
     988:	053d2f2e 	ldreq	r2, [sp, #-3886]!	@ 0xfffff0d2
     98c:	052f0613 	streq	r0, [pc, #-1555]!	@ 381 <kMboxInit+0xd>
     990:	21062d09 	tstcs	r6, r9, lsl #26
     994:	01060c05 	tsteq	r6, r5, lsl #24
     998:	31060d05 	tstcc	r6, r5, lsl #26
     99c:	01061d05 	tsteq	r6, r5, lsl #26
     9a0:	2f060d05 	svccs	0x00060d05
     9a4:	0614052f 	ldreq	r0, [r4], -pc, lsr #10
     9a8:	06090501 	streq	r0, [r9], -r1, lsl #10
     9ac:	060c053f 			@ <UNDEFINED> instruction: 0x060c053f
     9b0:	060d0501 	streq	r0, [sp], -r1, lsl #10
     9b4:	052e063d 	streq	r0, [lr, #-1597]!	@ 0xfffff9c3
     9b8:	05310605 	ldreq	r0, [r1, #-1541]!	@ 0xfffff9fb
     9bc:	05150608 	ldreq	r0, [r5, #-1544]	@ 0xfffff9f8
     9c0:	05051d13 	streq	r1, [r5, #-3347]	@ 0xfffff2ed
     9c4:	08052306 	stmdaeq	r5, {r1, r2, r8, r9, sp}
     9c8:	09050106 	stmdbeq	r5, {r1, r2, r8}
     9cc:	05132206 	ldreq	r2, [r3, #-518]	@ 0xfffffdfa
     9d0:	05010622 	streq	r0, [r1, #-1570]	@ 0xfffff9de
     9d4:	0c052017 	stceq	0, cr2, [r5], {23}
     9d8:	1f15053d 	svcne	0x0015053d
     9dc:	21060905 	tstcs	r6, r5, lsl #18
     9e0:	01060c05 	tsteq	r6, r5, lsl #24
     9e4:	30060d05 	andcc	r0, r6, r5, lsl #26
     9e8:	0402004b 	streq	r0, [r2], #-75	@ 0xffffffb5
     9ec:	062e0601 	strteq	r0, [lr], -r1, lsl #12
     9f0:	062e052f 	strteq	r0, [lr], -pc, lsr #10
     9f4:	200d0520 	andcs	r0, sp, r0, lsr #10
     9f8:	05201705 	streq	r1, [r0, #-1797]!	@ 0xfffff8fb
     9fc:	4b06200d 	blmi	188a38 <__exidx_end+0x1879f4>
     a00:	01062105 	tsteq	r6, r5, lsl #2
     a04:	05201805 	streq	r1, [r0, #-2053]!	@ 0xfffff7fb
     a08:	0d052021 	stceq	0, cr2, [r5, #-132]	@ 0xffffff7c
     a0c:	2f052106 	svccs	0x00052106
     a10:	10050106 	andne	r0, r5, r6, lsl #2
     a14:	0611052e 	ldreq	r0, [r1], -lr, lsr #10
     a18:	062e663d 			@ <UNDEFINED> instruction: 0x062e663d
     a1c:	0605052e 	streq	r0, [r5], -lr, lsr #10
     a20:	0c053d15 	stceq	13, cr3, [r5], {21}
     a24:	08020106 	stmdaeq	r2, {r1, r2, r8}
     a28:	05010100 	streq	r0, [r1, #-256]	@ 0xffffff00
     a2c:	02050001 	andeq	r0, r5, #1
     a30:	00000000 	andeq	r0, r0, r0
     a34:	0101a003 	tsteq	r1, r3
     a38:	13130505 	tstne	r3, #20971520	@ 0x1400000
     a3c:	10060105 	andne	r0, r6, r5, lsl #2
     a40:	30050520 	andcc	r0, r5, r0, lsr #10
     a44:	0522062e 	streq	r0, [r2, #-1582]!	@ 0xfffff9d2
     a48:	05010608 	streq	r0, [r1, #-1544]	@ 0xfffff9f8
     a4c:	04020018 	streq	r0, [r2], #-24	@ 0xffffffe8
     a50:	09052001 	stmdbeq	r5, {r0, sp}
     a54:	2e062206 	cdpcs	2, 0, cr2, cr6, cr6, {0}
     a58:	30060505 	andcc	r0, r6, r5, lsl #10
     a5c:	01060805 	tsteq	r6, r5, lsl #16
     a60:	30060905 	andcc	r0, r6, r5, lsl #18
     a64:	054c0505 	strbeq	r0, [ip, #-1285]	@ 0xfffffafb
     a68:	01150309 	tsteq	r5, r9, lsl #6
     a6c:	15060505 	strne	r0, [r6, #-1285]	@ 0xfffffafb
     a70:	051d1705 	ldreq	r1, [sp, #-1797]	@ 0xfffff8fb
     a74:	2f230605 	svccs	0x00230605
     a78:	13060105 	movwne	r0, #24837	@ 0x6105
     a7c:	0101002e 	tsteq	r1, lr, lsr #32
     a80:	05000105 	streq	r0, [r0, #-261]	@ 0xfffffefb
     a84:	0004fc02 	andeq	pc, r4, r2, lsl #24
     a88:	01ca0300 	biceq	r0, sl, r0, lsl #6
     a8c:	14050501 	strne	r0, [r5], #-1281	@ 0xfffffaff
     a90:	06010513 			@ <UNDEFINED> instruction: 0x06010513
     a94:	05052e0f 	streq	r2, [r5, #-3599]	@ 0xfffff1f1
     a98:	0303043f 	movweq	r0, #13375	@ 0x343f
     a9c:	042e00f6 	strteq	r0, [lr], #-246	@ 0xffffff0a
     aa0:	7f8a0301 	svcvc	0x008a0301
     aa4:	0421062e 	strteq	r0, [r1], #-1582	@ 0xfffff9d2
     aa8:	030a0503 	movweq	r0, #42243	@ 0xa503
     aac:	050100f2 	streq	r0, [r1, #-242]	@ 0xffffff0e
     ab0:	13131405 	tstne	r3, #83886080	@ 0x5000000
     ab4:	0501042f 	streq	r0, [r1, #-1071]	@ 0xfffffbd1
     ab8:	89030608 	stmdbhi	r3, {r3, r9, sl}
     abc:	0905017f 	stmdbeq	r5, {r0, r1, r2, r3, r4, r5, r6, r8}
     ac0:	01040200 	mrseq	r0, R12_usr
     ac4:	06220620 	strteq	r0, [r2], -r0, lsr #12
     ac8:	0605052e 	streq	r0, [r5], -lr, lsr #10
     acc:	06080530 			@ <UNDEFINED> instruction: 0x06080530
     ad0:	00180501 	andseq	r0, r8, r1, lsl #10
     ad4:	20010402 	andcs	r0, r1, r2, lsl #8
     ad8:	22060905 	andcs	r0, r6, #81920	@ 0x14000
     adc:	054c0505 	strbeq	r0, [ip, #-1285]	@ 0xfffffafb
     ae0:	05010608 	streq	r0, [r1, #-1544]	@ 0xfffff9f8
     ae4:	05300609 	ldreq	r0, [r0, #-1545]!	@ 0xfffff9f7
     ae8:	08054d05 	stmdaeq	r5, {r0, r2, r8, sl, fp, lr}
     aec:	09050106 	stmdbeq	r5, {r1, r2, r8}
     af0:	0c053e06 	stceq	14, cr3, [r5], {6}
     af4:	0d050106 	stfeqs	f0, [r5, #-24]	@ 0xffffffe8
     af8:	053d2206 	ldreq	r2, [sp, #-518]!	@ 0xfffffdfa
     afc:	05010614 	streq	r0, [r1, #-1556]	@ 0xfffff9ec
     b00:	2e320301 	cdpcs	3, 3, cr0, cr2, cr1, {0}
     b04:	03060905 	movweq	r0, #26885	@ 0x6905
     b08:	18053c50 	stmdane	r5, {r4, r6, sl, fp, ip, sp}
     b0c:	0f050106 	svceq	0x00050106
     b10:	2f1b0520 	svccs	0x001b0520
     b14:	052d0f05 	streq	r0, [sp, #-3845]!	@ 0xfffff0fb
     b18:	1805310d 	stmdane	r5, {r0, r2, r3, r8, ip, sp}
     b1c:	0609052b 	streq	r0, [r9], -fp, lsr #10
     b20:	060c0521 	streq	r0, [ip], -r1, lsr #10
     b24:	060d0501 	streq	r0, [sp], -r1, lsl #10
     b28:	05144a30 	ldreq	r4, [r4, #-2608]	@ 0xfffff5d0
     b2c:	585c4e09 	ldmdapl	ip, {r0, r3, r9, sl, fp, lr}^
     b30:	053d2f2e 	ldreq	r2, [sp, #-3886]!	@ 0xfffff0d2
     b34:	052f0613 	streq	r0, [pc, #-1555]!	@ 529 <kMboxPend+0x2d>
     b38:	21062d09 	tstcs	r6, r9, lsl #26
     b3c:	01060c05 	tsteq	r6, r5, lsl #24
     b40:	30060d05 	andcc	r0, r6, r5, lsl #26
     b44:	01061d05 	tsteq	r6, r5, lsl #26
     b48:	2f060d05 	svccs	0x00060d05
     b4c:	0614052f 	ldreq	r0, [r4], -pc, lsr #10
     b50:	06090501 	streq	r0, [r9], -r1, lsl #10
     b54:	060c053e 			@ <UNDEFINED> instruction: 0x060c053e
     b58:	060d0501 	streq	r0, [sp], -r1, lsl #10
     b5c:	052e063d 	streq	r0, [lr, #-1597]!	@ 0xfffff9c3
     b60:	05310605 	ldreq	r0, [r1, #-1541]!	@ 0xfffff9fb
     b64:	05010615 	streq	r0, [r1, #-1557]	@ 0xfffff9eb
     b68:	0505200f 	streq	r2, [r5, #-15]
     b6c:	13052106 	movwne	r2, #20742	@ 0x5106
     b70:	05050106 	streq	r0, [r5, #-262]	@ 0xfffffefa
     b74:	08053106 	stmdaeq	r5, {r1, r2, r8, ip, sp}
     b78:	09050106 	stmdbeq	r5, {r1, r2, r8}
     b7c:	05133006 	ldreq	r3, [r3, #-6]
     b80:	05010624 	streq	r0, [r1, #-1572]	@ 0xfffff9dc
     b84:	0c052019 	stceq	0, cr2, [r5], {25}
     b88:	1f17053d 	svcne	0x0017053d
     b8c:	21060905 	tstcs	r6, r5, lsl #18
     b90:	01060c05 	tsteq	r6, r5, lsl #24
     b94:	30060d05 	andcc	r0, r6, r5, lsl #26
     b98:	0630054b 	ldrteq	r0, [r0], -fp, asr #10
     b9c:	200d0520 	andcs	r0, sp, r0, lsr #10
     ba0:	05201705 	streq	r1, [r0, #-1797]!	@ 0xfffff8fb
     ba4:	4b06200d 	blmi	188be0 <__exidx_end+0x187b9c>
     ba8:	01062305 	tsteq	r6, r5, lsl #6
     bac:	05201a05 	streq	r1, [r0, #-2565]!	@ 0xfffff5fb
     bb0:	0d052023 	stceq	0, cr2, [r5, #-140]	@ 0xffffff74
     bb4:	32052106 	andcc	r2, r5, #-2147483647	@ 0x80000001
     bb8:	10050106 	andne	r0, r5, r6, lsl #2
     bbc:	0611052e 	ldreq	r0, [r1], -lr, lsr #10
     bc0:	062e584c 	strteq	r5, [lr], -ip, asr #16
     bc4:	0605052e 	streq	r0, [r5], -lr, lsr #10
     bc8:	0c053d17 	stceq	13, cr3, [r5], {23}
     bcc:	09020106 	stmdbeq	r2, {r1, r2, r8}
     bd0:	05010100 	streq	r0, [r1, #-256]	@ 0xffffff00
     bd4:	02050001 	andeq	r0, r5, #1
     bd8:	00000000 	andeq	r0, r0, r0
     bdc:	01029503 	tsteq	r2, r3, lsl #10
     be0:	05130505 	ldreq	r0, [r3, #-1285]	@ 0xfffffafb
     be4:	0501062d 	streq	r0, [r1, #-1581]	@ 0xfffff9d3
     be8:	04022101 	streq	r2, [r2], #-257	@ 0xfffffeff
     bec:	05010100 	streq	r0, [r1, #-256]	@ 0xffffff00
     bf0:	02050001 	andeq	r0, r5, #1
     bf4:	00000000 	andeq	r0, r0, r0
     bf8:	01029c03 	tsteq	r2, r3, lsl #24
     bfc:	13130505 	tstne	r3, #20971520	@ 0x1400000
     c00:	10060105 	andne	r0, r6, r5, lsl #2
     c04:	30050520 	andcc	r0, r5, r0, lsr #10
     c08:	0521062e 	streq	r0, [r1, #-1582]!	@ 0xfffff9d2
     c0c:	05010608 	streq	r0, [r1, #-1544]	@ 0xfffff9f8
     c10:	04020016 	streq	r0, [r2], #-22	@ 0xffffffea
     c14:	09052001 	stmdbeq	r5, {r0, sp}
     c18:	34062206 	strcc	r2, [r6], #-518	@ 0xfffffdfa
     c1c:	053d2f06 	ldreq	r2, [sp, #-3846]!	@ 0xfffff0fa
     c20:	7a030610 	bvc	c2468 <__exidx_end+0xc1424>
     c24:	03010501 	movweq	r0, #5377	@ 0x1501
     c28:	05052e10 	streq	r2, [r5, #-3600]	@ 0xfffff1f0
     c2c:	20720306 	rsbscs	r0, r2, r6, lsl #6
     c30:	01060805 	tsteq	r6, r5, lsl #16
     c34:	30060905 	andcc	r0, r6, r5, lsl #18
     c38:	05052e06 	streq	r2, [r5, #-3590]	@ 0xfffff1fa
     c3c:	0d052406 	cfstrseq	mvf2, [r5, #-24]	@ 0xffffffe8
     c40:	08050106 	stmdaeq	r5, {r1, r2, r8}
     c44:	06090520 	streq	r0, [r9], -r0, lsr #10
     c48:	10052f22 	andne	r2, r5, r2, lsr #30
     c4c:	05050106 	streq	r0, [r5, #-262]	@ 0xfffffefa
     c50:	0f053e06 	svceq	0x00053e06
     c54:	05050106 	streq	r0, [r5, #-262]	@ 0xfffffefa
     c58:	052f2106 	streq	r2, [pc, #-262]!	@ b5a <kSchSwtch+0x3a>
     c5c:	0201060c 	andeq	r0, r1, #12, 12	@ 0xc00000
     c60:	01010002 	tsteq	r1, r2
     c64:	00000c8d 	andeq	r0, r0, sp, lsl #25
     c68:	02260003 	eoreq	r0, r6, #3
     c6c:	01020000 	mrseq	r0, (UNDEF: 2)
     c70:	000d0efb 	strdeq	r0, [sp], -fp
     c74:	01010101 	tsteq	r1, r1, lsl #2
     c78:	01000000 	mrseq	r0, (UNDEF: 0)
     c7c:	53010000 	movwpl	r0, #4096	@ 0x1000
     c80:	49006372 	stmdbmi	r0, {r1, r4, r5, r6, r8, r9, sp, lr}
     c84:	2f00636e 	svccs	0x0000636e
     c88:	6c707041 	ldclvs	0, cr7, [r0], #-260	@ 0xfffffefc
     c8c:	74616369 	strbtvc	r6, [r1], #-873	@ 0xfffffc97
     c90:	736e6f69 	cmnvc	lr, #420	@ 0x1a4
     c94:	4d54532f 	ldclmi	3, cr5, [r4, #-188]	@ 0xffffff44
     c98:	75433233 	strbvc	r3, [r3, #-563]	@ 0xfffffdcd
     c9c:	44496562 	strbmi	r6, [r9], #-1378	@ 0xfffffa9e
     ca0:	70612e45 	rsbvc	r2, r1, r5, asr #28
     ca4:	6f432f70 	svcvs	0x00432f70
     ca8:	6e65746e 	cdpvs	4, 6, cr7, cr5, cr14, {3}
     cac:	452f7374 	strmi	r7, [pc, #-884]!	@ 940 <kCreateTask+0xd4>
     cb0:	70696c63 	rsbvc	r6, r9, r3, ror #24
     cb4:	702f6573 	eorvc	r6, pc, r3, ror r5	@ <UNPREDICTABLE>
     cb8:	6967756c 	stmdbvs	r7!, {r2, r3, r5, r6, r8, sl, ip, sp, lr}^
     cbc:	632f736e 			@ <UNDEFINED> instruction: 0x632f736e
     cc0:	732e6d6f 			@ <UNDEFINED> instruction: 0x732e6d6f
     cc4:	74732e74 	ldrbtvc	r2, [r3], #-3700	@ 0xfffff18c
     cc8:	6332336d 	teqvs	r2, #-1275068415	@ 0xb4000001
     ccc:	2e656275 	mcrcs	2, 3, r6, cr5, cr5, {3}
     cd0:	2e656469 	cdpcs	4, 6, cr6, cr5, cr9, {3}
     cd4:	2e75636d 	cdpcs	3, 7, cr6, cr5, cr13, {3}
     cd8:	65747865 	ldrbvs	r7, [r4, #-2149]!	@ 0xfffff79b
     cdc:	6c616e72 	stclvs	14, cr6, [r1], #-456	@ 0xfffffe38
     ce0:	6c6f6f74 	stclvs	15, cr6, [pc], #-464	@ b18 <kInit+0xf0>
     ce4:	6e672e73 	mcrvs	14, 3, r2, cr7, cr3, {3}
     ce8:	6f742d75 	svcvs	0x00742d75
     cec:	2d736c6f 	ldclcs	12, cr6, [r3, #-444]!	@ 0xfffffe44
     cf0:	2d726f66 	ldclcs	15, cr6, [r2, #-408]!	@ 0xfffffe68
     cf4:	336d7473 	cmncc	sp, #1929379840	@ 0x73000000
     cf8:	32312e32 	eorscc	r2, r1, #800	@ 0x320
     cfc:	722e332e 	eorvc	r3, lr, #-1207959552	@ 0xb8000000
     d00:	2e316c65 	cdpcs	12, 3, cr6, cr1, cr5, {3}
     d04:	6f63616d 	svcvs	0x0063616d
     d08:	5f343673 	svcpl	0x00343673
     d0c:	2e312e31 	mrccs	14, 1, r2, cr1, cr1, {1}
     d10:	30322e30 	eorscc	r2, r2, r0, lsr lr
     d14:	30313432 	eorscc	r3, r1, r2, lsr r4
     d18:	32313033 	eorscc	r3, r1, #51	@ 0x33
     d1c:	742f3130 	strtvc	r3, [pc], #-304	@ d24 <kTimeOut+0x28>
     d20:	736c6f6f 	cmnvc	ip, #444	@ 0x1bc
     d24:	6d72612f 	ldfvse	f6, [r2, #-188]!	@ 0xffffff44
     d28:	6e6f6e2d 	cdpvs	14, 6, cr6, cr15, cr13, {1}
     d2c:	61652d65 	cmnvs	r5, r5, ror #26
     d30:	692f6962 	stmdbvs	pc!, {r1, r5, r6, r8, fp, sp, lr}	@ <UNPREDICTABLE>
     d34:	756c636e 	strbvc	r6, [ip, #-878]!	@ 0xfffffc92
     d38:	6d2f6564 	cfstr32vs	mvfx6, [pc, #-400]!	@ bb0 <kTickHandler+0x30>
     d3c:	69686361 	stmdbvs	r8!, {r0, r5, r6, r8, r9, sp, lr}^
     d40:	2f00656e 	svccs	0x0000656e
     d44:	6c707041 	ldclvs	0, cr7, [r0], #-260	@ 0xfffffefc
     d48:	74616369 	strbtvc	r6, [r1], #-873	@ 0xfffffc97
     d4c:	736e6f69 	cmnvc	lr, #420	@ 0x1a4
     d50:	4d54532f 	ldclmi	3, cr5, [r4, #-188]	@ 0xffffff44
     d54:	75433233 	strbvc	r3, [r3, #-563]	@ 0xfffffdcd
     d58:	44496562 	strbmi	r6, [r9], #-1378	@ 0xfffffa9e
     d5c:	70612e45 	rsbvc	r2, r1, r5, asr #28
     d60:	6f432f70 	svcvs	0x00432f70
     d64:	6e65746e 	cdpvs	4, 6, cr7, cr5, cr14, {3}
     d68:	452f7374 	strmi	r7, [pc, #-884]!	@ 9fc <kReadyRunningTask_+0x8>
     d6c:	70696c63 	rsbvc	r6, r9, r3, ror #24
     d70:	702f6573 	eorvc	r6, pc, r3, ror r5	@ <UNPREDICTABLE>
     d74:	6967756c 	stmdbvs	r7!, {r2, r3, r5, r6, r8, sl, ip, sp, lr}^
     d78:	632f736e 			@ <UNDEFINED> instruction: 0x632f736e
     d7c:	732e6d6f 			@ <UNDEFINED> instruction: 0x732e6d6f
     d80:	74732e74 	ldrbtvc	r2, [r3], #-3700	@ 0xfffff18c
     d84:	6332336d 	teqvs	r2, #-1275068415	@ 0xb4000001
     d88:	2e656275 	mcrcs	2, 3, r6, cr5, cr5, {3}
     d8c:	2e656469 	cdpcs	4, 6, cr6, cr5, cr9, {3}
     d90:	2e75636d 	cdpcs	3, 7, cr6, cr5, cr13, {3}
     d94:	65747865 	ldrbvs	r7, [r4, #-2149]!	@ 0xfffff79b
     d98:	6c616e72 	stclvs	14, cr6, [r1], #-456	@ 0xfffffe38
     d9c:	6c6f6f74 	stclvs	15, cr6, [pc], #-464	@ bd4 <kTickHandler+0x54>
     da0:	6e672e73 	mcrvs	14, 3, r2, cr7, cr3, {3}
     da4:	6f742d75 	svcvs	0x00742d75
     da8:	2d736c6f 	ldclcs	12, cr6, [r3, #-444]!	@ 0xfffffe44
     dac:	2d726f66 	ldclcs	15, cr6, [r2, #-408]!	@ 0xfffffe68
     db0:	336d7473 	cmncc	sp, #1929379840	@ 0x73000000
     db4:	32312e32 	eorscc	r2, r1, #800	@ 0x320
     db8:	722e332e 	eorvc	r3, lr, #-1207959552	@ 0xb8000000
     dbc:	2e316c65 	cdpcs	12, 3, cr6, cr1, cr5, {3}
     dc0:	6f63616d 	svcvs	0x0063616d
     dc4:	5f343673 	svcpl	0x00343673
     dc8:	2e312e31 	mrccs	14, 1, r2, cr1, cr1, {1}
     dcc:	30322e30 	eorscc	r2, r2, r0, lsr lr
     dd0:	30313432 	eorscc	r3, r1, r2, lsr r4
     dd4:	32313033 	eorscc	r3, r1, #51	@ 0x33
     dd8:	742f3130 	strtvc	r3, [pc], #-304	@ de0 <kSleepUntil+0x10>
     ddc:	736c6f6f 	cmnvc	ip, #444	@ 0x1bc
     de0:	6d72612f 	ldfvse	f6, [r2, #-188]!	@ 0xffffff44
     de4:	6e6f6e2d 	cdpvs	14, 6, cr6, cr15, cr13, {1}
     de8:	61652d65 	cmnvs	r5, r5, ror #26
     dec:	692f6962 	stmdbvs	pc!, {r1, r5, r6, r8, fp, sp, lr}	@ <UNPREDICTABLE>
     df0:	756c636e 	strbvc	r6, [ip, #-878]!	@ 0xfffffc92
     df4:	732f6564 			@ <UNDEFINED> instruction: 0x732f6564
     df8:	00007379 	andeq	r7, r0, r9, ror r3
     dfc:	6863736b 	stmdavs	r3!, {r0, r1, r3, r5, r6, r8, r9, ip, sp, lr}^
     e00:	0100632e 	tsteq	r0, lr, lsr #6
     e04:	736b0000 	cmnvc	fp, #0
     e08:	682e6863 	stmdavs	lr!, {r0, r1, r5, r6, fp, sp, lr}
     e0c:	00000200 	andeq	r0, r0, r0, lsl #4
     e10:	69736d63 	ldmdbvs	r3!, {r0, r1, r5, r6, r8, sl, fp, sp, lr}^
     e14:	63675f73 	cmnvs	r7, #460	@ 0x1cc
     e18:	00682e63 	rsbeq	r2, r8, r3, ror #28
     e1c:	5f000002 	svcpl	0x00000002
     e20:	61666564 	cmnvs	r6, r4, ror #10
     e24:	5f746c75 	svcpl	0x00746c75
     e28:	65707974 	ldrbvs	r7, [r0, #-2420]!	@ 0xfffff68c
     e2c:	00682e73 	rsbeq	r2, r8, r3, ror lr
     e30:	5f000003 	svcpl	0x00000003
     e34:	69647473 	stmdbvs	r4!, {r0, r1, r4, r5, r6, sl, ip, sp, lr}^
     e38:	682e746e 	stmdavs	lr!, {r1, r2, r3, r5, r6, sl, ip, sp, lr}
     e3c:	00000400 	andeq	r0, r0, r0, lsl #8
     e40:	6c61686b 	stclvs	8, cr6, [r1], #-428	@ 0xfffffe54
     e44:	0200682e 	andeq	r6, r0, #3014656	@ 0x2e0000
     e48:	646b0000 	strbtvs	r0, [fp], #-0
     e4c:	2e736665 	cdpcs	6, 7, cr6, cr3, cr5, {3}
     e50:	00020068 	andeq	r0, r2, r8, rrx
     e54:	626f6b00 	rsbvs	r6, pc, #0, 22
     e58:	682e736a 	stmdavs	lr!, {r1, r3, r5, r6, r8, r9, ip, sp, lr}
     e5c:	00000200 	andeq	r0, r0, r0, lsl #4
     e60:	7265766b 	rsbvc	r7, r5, #112197632	@ 0x6b00000
     e64:	6e6f6973 			@ <UNDEFINED> instruction: 0x6e6f6973
     e68:	0200682e 	andeq	r6, r0, #3014656	@ 0x2e0000
     e6c:	746b0000 	strbtvc	r0, [fp], #-0
     e70:	72656d69 	rsbvc	r6, r5, #6720	@ 0x1a40
     e74:	0200682e 	andeq	r6, r0, #3014656	@ 0x2e0000
     e78:	736b0000 	cmnvc	fp, #0
     e7c:	61747379 	cmnvs	r4, r9, ror r3
     e80:	2e736b73 	vmovcs.s8	r6, d3[7]
     e84:	00020068 	andeq	r0, r2, r8, rrx
     e88:	72656b00 	rsbvc	r6, r5, #0, 22
     e8c:	00682e72 	rsbeq	r2, r8, r2, ror lr
     e90:	00000002 	andeq	r0, r0, r2
     e94:	05000205 	streq	r0, [r0, #-517]	@ 0xfffffdfb
     e98:	00063402 	andeq	r3, r6, r2, lsl #8
     e9c:	02890300 	addeq	r0, r9, #0, 6
     ea0:	13060501 	movwne	r0, #25857	@ 0x6501
     ea4:	5c031005 	stcpl	0, cr1, [r3], {5}
     ea8:	16060501 	strne	r0, [r6], -r1, lsl #10
     eac:	03060205 	movweq	r0, #25093	@ 0x6205
     eb0:	0905011f 	stmdbeq	r5, {r0, r1, r2, r3, r4, r8}
     eb4:	05206103 	streq	r6, [r0, #-259]!	@ 0xfffffefd
     eb8:	31052e1f 	tstcc	r5, pc, lsl lr
     ebc:	0606052e 	streq	r0, [r6], -lr, lsr #10
     ec0:	062b0532 			@ <UNDEFINED> instruction: 0x062b0532
     ec4:	2e120501 	cfmul32cs	mvfx0, mvfx2, mvfx1
     ec8:	053c2b05 	ldreq	r2, [ip, #-2821]!	@ 0xfffff4fb
     ecc:	052f0606 	streq	r0, [pc, #-1542]!	@ 8ce <kCreateTask+0x62>
     ed0:	05110612 	ldreq	r0, [r1, #-1554]	@ 0xfffff9ee
     ed4:	0605212a 	streq	r2, [r5], -sl, lsr #2
     ed8:	2b054b06 	blcs	153af8 <__exidx_end+0x152ab4>
     edc:	2a051306 	bcs	145afc <__exidx_end+0x144ab8>
     ee0:	2c2b054c 	cfstr32cs	mvfx0, [fp], #-304	@ 0xfffffed0
     ee4:	2f060605 	svccs	0x00060605
     ee8:	13062a05 	movwne	r2, #27141	@ 0x6a05
     eec:	4b060605 	blmi	182708 <__exidx_end+0x1816c4>
     ef0:	01062a05 	tsteq	r6, r5, lsl #20
     ef4:	0606052f 	streq	r0, [r6], -pc, lsr #10
     ef8:	062b052f 	strteq	r0, [fp], -pc, lsr #10
     efc:	2a052e13 	bcs	14c750 <__exidx_end+0x14b70c>
     f00:	2c2b0530 	cfstr32cs	mvfx0, [fp], #-192	@ 0xffffff40
     f04:	2f060605 	svccs	0x00060605
     f08:	13062a05 	movwne	r2, #27141	@ 0x6a05
     f0c:	06052c30 			@ <UNDEFINED> instruction: 0x06052c30
     f10:	2a052f06 	bcs	14cb30 <__exidx_end+0x14baec>
     f14:	06051306 	streq	r1, [r5], -r6, lsl #6
     f18:	2a054b06 	bcs	153b38 <__exidx_end+0x152af4>
     f1c:	2d2f0106 	stfcss	f0, [pc, #-24]!	@ f0c <kRemoveTimeoutNode+0x28>
     f20:	2f060605 	svccs	0x00060605
     f24:	01061205 	tsteq	r6, r5, lsl #4
     f28:	052e2a05 	streq	r2, [lr, #-2565]!	@ 0xfffff5fb
     f2c:	05220606 	streq	r0, [r2, #-1542]!	@ 0xfffff9fa
     f30:	1105010b 	tstne	r5, fp, lsl #2
     f34:	12050106 	andne	r0, r5, #-2147483647	@ 0x80000001
     f38:	2426051e 	strtcs	r0, [r6], #-1310	@ 0xfffffae2
     f3c:	061b0520 	ldreq	r0, [fp], -r0, lsr #10
     f40:	32060548 	andcc	r0, r6, #72, 10	@ 0x12000000
     f44:	03062205 	movweq	r2, #25093	@ 0x6205
     f48:	1605010a 	strne	r0, [r5], -sl, lsl #2
     f4c:	05207603 	streq	r7, [r0, #-1539]!	@ 0xfffff9fd
     f50:	200a0322 	andcs	r0, sl, r2, lsr #6
     f54:	76031605 	strvc	r1, [r3], -r5, lsl #12
     f58:	06060520 	streq	r0, [r6], -r0, lsr #10
     f5c:	05010621 	streq	r0, [r1, #-1569]	@ 0xfffff9df
     f60:	0903060a 	stmdbeq	r3, {r1, r3, r9, sl}
     f64:	06140501 	ldreq	r0, [r4], -r1, lsl #10
     f68:	2e220501 	cfsh64cs	mvdx0, mvdx2, #1
     f6c:	05301f05 	ldreq	r1, [r0, #-3845]!	@ 0xfffff0fb
     f70:	0520211c 	streq	r2, [r0, #-284]!	@ 0xfffffee4
     f74:	1805221d 	stmdane	r5, {r0, r2, r3, r4, r9, sp}
     f78:	2511052a 	ldrcs	r0, [r1, #-1322]	@ 0xfffffad6
     f7c:	7a032205 	bvc	c9798 <__exidx_end+0xc8754>
     f80:	060a0520 	streq	r0, [sl], -r0, lsr #10
     f84:	13131321 	tstne	r3, #-2080374784	@ 0x84000000
     f88:	01061905 	tsteq	r6, r5, lsl #18
     f8c:	21060a05 	tstcs	r6, r5, lsl #20
     f90:	01061d05 	tsteq	r6, r5, lsl #26
     f94:	21060a05 	tstcs	r6, r5, lsl #20
     f98:	15060205 	strne	r0, [r6, #-517]	@ 0xfffffdfb
     f9c:	03060a05 	movweq	r0, #27141	@ 0x6a05
     fa0:	2605206b 	strcs	r2, [r5], -fp, rrx
     fa4:	2a050106 	bcs	1413c4 <__exidx_end+0x140380>
     fa8:	20062c06 	andcs	r2, r6, r6, lsl #24
     fac:	030d0520 	movweq	r0, #54560	@ 0xd520
     fb0:	022e0116 	eoreq	r0, lr, #-2147483643	@ 0x80000005
     fb4:	0101000a 	tsteq	r1, sl
     fb8:	05000205 	streq	r0, [r0, #-517]	@ 0xfffffdfb
     fbc:	00070802 	andeq	r0, r7, r2, lsl #16
     fc0:	03e30300 	mvneq	r0, #0, 6
     fc4:	13060501 	movwne	r0, #25857	@ 0x6501
     fc8:	01061805 	tsteq	r6, r5, lsl #16
     fcc:	051f0205 	ldreq	r0, [pc, #-517]	@ dcf <kSleep+0x47>
     fd0:	09052118 	stmdbeq	r5, {r3, r4, r8, sp}
     fd4:	06180520 	ldreq	r0, [r8], -r0, lsr #10
     fd8:	1806051e 	stmdane	r6, {r1, r2, r3, r4, r8, sl}
     fdc:	01062805 	tsteq	r6, r5, lsl #16
     fe0:	05202605 	streq	r2, [r0, #-1541]!	@ 0xfffff9fb
     fe4:	26052028 	strcs	r2, [r5], -r8, lsr #32
     fe8:	20160520 	andscs	r0, r6, r0, lsr #10
     fec:	2f060605 	svccs	0x00060605
     ff0:	01062105 	tsteq	r6, r5, lsl #2
     ff4:	053c0e05 	ldreq	r0, [ip, #-3589]!	@ 0xfffff1fb
     ff8:	06220606 	strteq	r0, [r2], -r6, lsl #12
     ffc:	14020501 	strne	r0, [r2], #-1281	@ 0xfffffaff
    1000:	79031105 	stmdbvc	r3, {r0, r2, r8, ip}
    1004:	00070220 	andeq	r0, r7, r0, lsr #4
    1008:	02050101 	andeq	r0, r5, #1073741824	@ 0x40000000
    100c:	34020500 	strcc	r0, [r2], #-1280	@ 0xfffffb00
    1010:	03000007 	movweq	r0, #7
    1014:	050100c3 	streq	r0, [r1, #-195]	@ 0xffffff3d
    1018:	02051306 	andeq	r1, r5, #402653184	@ 0x18000000
    101c:	09051106 	stmdbeq	r5, {r1, r2, r8, ip}
    1020:	060a0521 	streq	r0, [sl], -r1, lsr #10
    1024:	062e0622 	strteq	r0, [lr], -r2, lsr #12
    1028:	0611052f 	ldreq	r0, [r1], -pc, lsr #10
    102c:	31020501 	tstcc	r2, r1, lsl #10
    1030:	1f060605 	svcne	0x00060605
    1034:	35050204 	strcc	r0, [r5, #-516]	@ 0xfffffdfc
    1038:	05017203 	streq	r7, [r1, #-515]	@ 0xfffffdfd
    103c:	05161505 	ldreq	r1, [r6, #-1285]	@ 0xfffffafb
    1040:	0516060f 	ldreq	r0, [r6, #-1551]	@ 0xfffff9f1
    1044:	05052b1d 	streq	r2, [r5, #-2845]	@ 0xfffff4e3
    1048:	0f052f06 	svceq	0x00052f06
    104c:	14051406 	strne	r1, [r5], #-1030	@ 0xfffffbfa
    1050:	0605052c 	streq	r0, [r5], -ip, lsr #10
    1054:	062f1421 	strteq	r1, [pc], -r1, lsr #8
    1058:	05010401 	streq	r0, [r1, #-1025]	@ 0xfffffbff
    105c:	0220130e 	eoreq	r1, r0, #939524096	@ 0x38000000
    1060:	01010001 	tsteq	r1, r1
    1064:	05000205 	streq	r0, [r0, #-517]	@ 0xfffffdfb
    1068:	00075c02 	andeq	r5, r7, r2, lsl #24
    106c:	00e00300 	rsceq	r0, r0, r0, lsl #6
    1070:	13060501 	movwne	r0, #25857	@ 0x6501
    1074:	11060205 	tstne	r6, r5, lsl #4
    1078:	21090520 	tstcs	r9, r0, lsr #10
    107c:	30060a05 	andcc	r0, r6, r5, lsl #20
    1080:	06052e06 	streq	r2, [r5], -r6, lsl #28
    1084:	04133006 	ldreq	r3, [r3], #-6
    1088:	18380502 	ldmdane	r8!, {r1, r8, sl}
    108c:	05160505 	ldreq	r0, [r6, #-1285]	@ 0xfffffafb
    1090:	0501060d 	streq	r0, [r1, #-1549]	@ 0xfffff9f3
    1094:	05052008 	streq	r2, [r5, #-8]
    1098:	0e052506 	cfsh32eq	mvfx2, mvfx5, #6
    109c:	05050106 	streq	r0, [r5, #-262]	@ 0xfffffefa
    10a0:	01132106 	tsteq	r3, r6, lsl #2
    10a4:	13061005 	movwne	r1, #24581	@ 0x6005
    10a8:	061f0505 	ldreq	r0, [pc], -r5, lsl #10
    10ac:	2e3c203c 	mrccs	0, 1, r2, cr12, cr12, {1}
    10b0:	06100513 			@ <UNDEFINED> instruction: 0x06100513
    10b4:	06050501 	streq	r0, [r5], -r1, lsl #10
    10b8:	01062f21 	tsteq	r6, r1, lsr #30
    10bc:	06050104 	streq	r0, [r5], -r4, lsl #2
    10c0:	016e0306 	cmneq	lr, r6, lsl #6
    10c4:	06130516 			@ <UNDEFINED> instruction: 0x06130516
    10c8:	05010903 	streq	r0, [r1, #-2307]	@ 0xfffff6fd
    10cc:	2077030f 	rsbscs	r0, r7, pc, lsl #6
    10d0:	22060605 	andcs	r0, r6, #5242880	@ 0x500000
    10d4:	0e051317 	mcreq	3, 0, r1, cr5, cr7, {0}
    10d8:	06050106 	streq	r0, [r5], -r6, lsl #2
    10dc:	13052f06 	movwne	r2, #24326	@ 0x5f06
    10e0:	05200106 	streq	r0, [r0, #-262]!	@ 0xfffffefa
    10e4:	27052e09 	strcs	r2, [r5, -r9, lsl #28]
    10e8:	01040200 	mrseq	r0, R12_usr
    10ec:	300d052e 	andcc	r0, sp, lr, lsr #10
    10f0:	05210205 	streq	r0, [r1, #-517]!	@ 0xfffffdfb
    10f4:	051e060a 	ldreq	r0, [lr, #-1546]	@ 0xfffff9f6
    10f8:	05010620 	streq	r0, [r1, #-1568]	@ 0xfffff9e0
    10fc:	20052018 	andcs	r2, r5, r8, lsl r0
    1100:	20180520 	andscs	r0, r8, r0, lsr #10
    1104:	10050204 	andne	r0, r5, r4, lsl #4
    1108:	05022e54 	streq	r2, [r2, #-3668]	@ 0xfffff1ac
    110c:	05010100 	streq	r0, [r1, #-256]	@ 0xffffff00
    1110:	02050002 	andeq	r0, r5, #2
    1114:	000007c4 	andeq	r0, r0, r4, asr #15
    1118:	0100fb03 	tsteq	r0, r3, lsl #22	@ <UNPREDICTABLE>
    111c:	05130605 	ldreq	r0, [r3, #-1541]	@ 0xfffff9fb
    1120:	20110602 	andscs	r0, r1, r2, lsl #12
    1124:	05210905 	streq	r0, [r1, #-2309]!	@ 0xfffff6fb
    1128:	04020017 	streq	r0, [r2], #-23	@ 0xffffffe9
    112c:	06052e01 	streq	r2, [r5], -r1, lsl #28
    1130:	24052406 	strcs	r2, [r5], #-1030	@ 0xfffffbfa
    1134:	06050106 	streq	r0, [r5], -r6, lsl #2
    1138:	02042106 	andeq	r2, r4, #-2147483647	@ 0x80000001
    113c:	5a033805 	bpl	cf158 <__exidx_end+0xce114>
    1140:	15050501 	strne	r0, [r5, #-1281]	@ 0xfffffaff
    1144:	060d0516 			@ <UNDEFINED> instruction: 0x060d0516
    1148:	20080501 	andcs	r0, r8, r1, lsl #10
    114c:	24060505 	strcs	r0, [r6], #-1285	@ 0xfffffafb
    1150:	05203c01 	streq	r3, [r0, #-3073]!	@ 0xfffff3ff
    1154:	05210610 	streq	r0, [r1, #-1552]!	@ 0xfffff9f0
    1158:	2e061f05 	cdpcs	15, 0, cr1, cr6, cr5, {0}
    115c:	06100513 			@ <UNDEFINED> instruction: 0x06100513
    1160:	06050501 	streq	r0, [r5], -r1, lsl #10
    1164:	01062f21 	tsteq	r6, r1, lsr #30
    1168:	06050104 	streq	r0, [r5], -r4, lsl #2
    116c:	01190306 	tsteq	r9, r6, lsl #6
    1170:	06130516 			@ <UNDEFINED> instruction: 0x06130516
    1174:	030f0519 	movweq	r0, #62745	@ 0xf519
    1178:	06052079 			@ <UNDEFINED> instruction: 0x06052079
    117c:	13162106 	tstne	r6, #-2147483647	@ 0x80000001
    1180:	01060e05 	tsteq	r6, r5, lsl #28
    1184:	21060605 	tstcs	r6, r5, lsl #12
    1188:	01061305 	tsteq	r6, r5, lsl #6
    118c:	2e090520 	cfsh32cs	mvfx0, mvfx9, #16
    1190:	02002705 	andeq	r2, r0, #1310720	@ 0x140000
    1194:	052e0104 	streq	r0, [lr, #-260]!	@ 0xfffffefc
    1198:	0205300d 	andeq	r3, r5, #13
    119c:	060a0521 	streq	r0, [sl], -r1, lsr #10
    11a0:	06206e03 	strteq	r6, [r0], -r3, lsl #28
    11a4:	0606052e 	streq	r0, [r6], -lr, lsr #10
    11a8:	06240530 			@ <UNDEFINED> instruction: 0x06240530
    11ac:	06060501 	streq	r0, [r6], -r1, lsl #10
    11b0:	05020421 	streq	r0, [r2, #-1057]	@ 0xfffffbdf
    11b4:	015a0338 	cmpeq	sl, r8, lsr r3
    11b8:	05150505 	ldreq	r0, [r5, #-1285]	@ 0xfffffafb
    11bc:	05010608 	streq	r0, [r1, #-1544]	@ 0xfffff9f8
    11c0:	043c3010 	ldrteq	r3, [ip], #-16
    11c4:	060c0501 	streq	r0, [ip], -r1, lsl #10
    11c8:	05012e03 	streq	r2, [r1, #-3587]	@ 0xfffff1fd
    11cc:	05010622 	streq	r0, [r1, #-1570]	@ 0xfffff9de
    11d0:	2205201a 	andcs	r2, r5, #26
    11d4:	201a0520 	andscs	r0, sl, r0, lsr #10
    11d8:	10050204 	andne	r0, r5, r4, lsl #4
    11dc:	2e585603 	cdpcs	6, 5, cr5, cr8, cr3, {0}
    11e0:	01000502 	tsteq	r0, r2, lsl #10
    11e4:	00020501 	andeq	r0, r2, r1, lsl #10
    11e8:	08340205 	ldmdaeq	r4!, {r0, r2, r9}
    11ec:	93030000 	movwls	r0, #12288	@ 0x3000
    11f0:	06050101 	streq	r0, [r5], -r1, lsl #2
    11f4:	06020513 			@ <UNDEFINED> instruction: 0x06020513
    11f8:	21090511 	tstcs	r9, r1, lsl r5
    11fc:	30060a05 	andcc	r0, r6, r5, lsl #20
    1200:	06052e06 	streq	r2, [r5], -r6, lsl #28
    1204:	05133006 	ldreq	r3, [r3, #-6]
    1208:	0501060e 	streq	r0, [r1, #-1550]	@ 0xfffff9f2
    120c:	002e2102 	eoreq	r2, lr, r2, lsl #2
    1210:	02050101 	andeq	r0, r5, #1073741824	@ 0x40000000
    1214:	48020500 	stmdami	r2, {r8, sl}
    1218:	03000008 	movweq	r0, #8
    121c:	050101d9 	streq	r0, [r1, #-473]	@ 0xfffffe27
    1220:	02051406 	andeq	r1, r5, #100663296	@ 0x6000000
    1224:	13051006 	movwne	r1, #20486	@ 0x5006
    1228:	05202022 	streq	r2, [r0, #-34]!	@ 0xffffffde
    122c:	13051e02 	movwne	r1, #24066	@ 0x5e02
    1230:	06060522 	streq	r0, [r6], -r2, lsr #10
    1234:	0402004b 	streq	r0, [r2], #-75	@ 0xffffffb5
    1238:	002e0601 	eoreq	r0, lr, r1, lsl #12
    123c:	20010402 	andcs	r0, r1, r2, lsl #8
    1240:	01040200 	mrseq	r0, R12_usr
    1244:	02052f06 	andeq	r2, r5, #6, 30
    1248:	022e1306 	eoreq	r1, lr, #402653184	@ 0x18000000
    124c:	01010002 	tsteq	r1, r2
    1250:	05000205 	streq	r0, [r0, #-517]	@ 0xfffffdfb
    1254:	00086c02 	andeq	r6, r8, r2, lsl #24
    1258:	02a30300 	adceq	r0, r3, #0, 6
    125c:	19060501 	stmdbne	r6, {r0, r8, sl}
    1260:	03060205 	movweq	r0, #25093	@ 0x6205
    1264:	0f050179 	svceq	0x00050179
    1268:	03020535 	movweq	r0, #9525	@ 0x2535
    126c:	09052079 	stmdbeq	r5, {r0, r3, r4, r5, r6, sp}
    1270:	03020527 	movweq	r0, #9511	@ 0x2527
    1274:	09052079 	stmdbeq	r5, {r0, r3, r4, r5, r6, sp}
    1278:	060a055f 			@ <UNDEFINED> instruction: 0x060a055f
    127c:	20200631 	eorcs	r0, r0, r1, lsr r6
    1280:	02002020 	andeq	r2, r0, #32
    1284:	063c0104 	ldrteq	r0, [ip], -r4, lsl #2
    1288:	061e0540 	ldreq	r0, [lr], -r0, asr #10
    128c:	33200501 			@ <UNDEFINED> instruction: 0x33200501
    1290:	05291405 	streq	r1, [r9, #-1029]!	@ 0xfffffbfb
    1294:	0a05201e 	beq	149314 <__exidx_end+0x1482d0>
    1298:	05200e03 	streq	r0, [r0, #-3587]!	@ 0xfffff1fd
    129c:	2072031e 	rsbscs	r0, r2, lr, lsl r3
    12a0:	40060a05 	andmi	r0, r6, r5, lsl #20
    12a4:	01061e05 	tsteq	r6, r5, lsl #28
    12a8:	05270f05 	streq	r0, [r7, #-3845]!	@ 0xfffff0fb
    12ac:	2079031e 	rsbscs	r0, r9, lr, lsl r3
    12b0:	21060a05 	tstcs	r6, r5, lsl #20
    12b4:	17061905 	strne	r1, [r6, -r5, lsl #18]
    12b8:	051b2005 	ldreq	r2, [fp, #-5]
    12bc:	0533060a 	ldreq	r0, [r3, #-1546]!	@ 0xfffff9f6
    12c0:	05010619 	streq	r0, [r1, #-1561]	@ 0xfffff9e7
    12c4:	0521060a 	streq	r0, [r1, #-1546]!	@ 0xfffff9f6
    12c8:	0501060f 	streq	r0, [r1, #-1551]	@ 0xfffff9f1
    12cc:	0023060a 	eoreq	r0, r3, sl, lsl #12
    12d0:	06010402 	streq	r0, [r1], -r2, lsl #8
    12d4:	05400666 	strbeq	r0, [r0, #-1638]	@ 0xfffff99a
    12d8:	0501061e 	streq	r0, [r1, #-1566]	@ 0xfffff9e2
    12dc:	1e052014 	mcrne	0, 0, r2, cr5, cr4, {0}
    12e0:	060a0520 	streq	r0, [sl], -r0, lsr #10
    12e4:	061e054e 	ldreq	r0, [lr], -lr, asr #10
    12e8:	270f0501 	strcs	r0, [pc, -r1, lsl #10]
    12ec:	79031e05 	stmdbvc	r3, {r0, r2, r9, sl, fp, ip}
    12f0:	060a0520 	streq	r0, [sl], -r0, lsr #10
    12f4:	06200521 	strteq	r0, [r0], -r1, lsr #10
    12f8:	060a0501 	streq	r0, [sl], -r1, lsl #10
    12fc:	06180533 			@ <UNDEFINED> instruction: 0x06180533
    1300:	210f0501 	tstcs	pc, r1, lsl #10
    1304:	051f1805 	ldreq	r1, [pc, #-2053]	@ b07 <kInit+0xdf>
    1308:	0521060a 	streq	r0, [r1, #-1546]!	@ 0xfffff9f6
    130c:	0a051606 	beq	146b2c <__exidx_end+0x145ae8>
    1310:	09050106 	stmdbeq	r5, {r1, r2, r8}
    1314:	060a0566 	streq	r0, [sl], -r6, ror #10
    1318:	060d0530 			@ <UNDEFINED> instruction: 0x060d0530
    131c:	060e0501 	streq	r0, [lr], -r1, lsl #10
    1320:	4c0a053e 	cfstr32mi	mvfx0, [sl], {62}	@ 0x3e
    1324:	01061e05 	tsteq	r6, r5, lsl #28
    1328:	05201405 	streq	r1, [r0, #-1029]!	@ 0xfffffbfb
    132c:	2205201e 	andcs	r2, r5, #30
    1330:	053c0a03 	ldreq	r0, [ip, #-2563]!	@ 0xfffff5fd
    1334:	2005311f 	andcs	r3, r5, pc, lsl r1
    1338:	230f0522 	movwcs	r0, #62754	@ 0xf522
    133c:	6e031e05 	cdpvs	14, 0, cr1, cr3, cr5, {0}
    1340:	060a0520 	streq	r0, [sl], -r0, lsr #10
    1344:	061e0532 			@ <UNDEFINED> instruction: 0x061e0532
    1348:	060a0501 	streq	r0, [sl], -r1, lsl #10
    134c:	05141526 	ldreq	r1, [r4, #-1318]	@ 0xfffffada
    1350:	05010620 	streq	r0, [r1, #-1568]	@ 0xfffff9e0
    1354:	0522060a 	streq	r0, [r2, #-1546]!	@ 0xfffff9f6
    1358:	0513060f 	ldreq	r0, [r3, #-1551]	@ 0xfffff9f1
    135c:	0a051f19 	beq	148fc8 <__exidx_end+0x147f84>
    1360:	05132106 	ldreq	r2, [r3, #-262]	@ 0xfffffefa
    1364:	05160602 	ldreq	r0, [r6, #-1538]	@ 0xfffff9fe
    1368:	17023b0d 	strne	r3, [r2, -sp, lsl #22]
    136c:	05010100 	streq	r0, [r1, #-256]	@ 0xffffff00
    1370:	02050002 	andeq	r0, r5, #2
    1374:	0000095c 	andeq	r0, r0, ip, asr r9
    1378:	0102f503 	tsteq	r2, r3, lsl #10	@ <UNPREDICTABLE>
    137c:	30130605 	andscc	r0, r3, r5, lsl #12
    1380:	05030414 	streq	r0, [r3, #-1044]	@ 0xfffffbec
    1384:	06b9031f 	ssateq	r0, #26, pc, lsl #6	@ <UNPREDICTABLE>
    1388:	14030501 	strne	r0, [r3], #-1281	@ 0xfffffaff
    138c:	01062f14 	tsteq	r6, r4, lsl pc
    1390:	06050104 	streq	r0, [r5], -r4, lsl #2
    1394:	79c30306 	stmibvc	r3, {r1, r2, r8, r9}^
    1398:	06090501 	streq	r0, [r9], -r1, lsl #10
    139c:	06070501 	streq	r0, [r7], -r1, lsl #10
    13a0:	05207903 	streq	r7, [r0, #-2307]!	@ 0xfffff6fd
    13a4:	0109030a 	tsteq	r9, sl, lsl #6
    13a8:	0530212f 	ldreq	r2, [r0, #-303]!	@ 0xfffffed1
    13ac:	052f2206 	streq	r2, [pc, #-518]!	@ 11ae <__exidx_end+0x16a>
    13b0:	02130602 	andseq	r0, r3, #2097152	@ 0x200000
    13b4:	01010001 	tsteq	r1, r1
    13b8:	05000205 	streq	r0, [r0, #-517]	@ 0xfffffdfb
    13bc:	00097802 	andeq	r7, r9, r2, lsl #16
    13c0:	03880300 	orreq	r0, r8, #0, 6
    13c4:	13060501 	movwne	r0, #25857	@ 0x6501
    13c8:	0503042f 	streq	r0, [r3, #-1071]	@ 0xfffffbd1
    13cc:	06c7031b 			@ <UNDEFINED> instruction: 0x06c7031b
    13d0:	14030501 	strne	r0, [r3], #-1281	@ 0xfffffaff
    13d4:	01042e06 	tsteq	r4, r6, lsl #28
    13d8:	03060605 	movweq	r0, #26117	@ 0x6605
    13dc:	050179b8 	streq	r7, [r1, #-2488]	@ 0xfffff648
    13e0:	02300602 	eorseq	r0, r0, #2097152	@ 0x200000
    13e4:	01010001 	tsteq	r1, r1
    13e8:	05000205 	streq	r0, [r0, #-517]	@ 0xfffffdfb
    13ec:	00098802 	andeq	r8, r9, r2, lsl #16
    13f0:	00cd0300 	sbceq	r0, sp, r0, lsl #6
    13f4:	14060501 	strne	r0, [r6], #-1281	@ 0xfffffaff
    13f8:	06020513 			@ <UNDEFINED> instruction: 0x06020513
    13fc:	0605200f 	streq	r2, [r5], -pc
    1400:	2b020523 	blcs	82894 <__exidx_end+0x81850>
    1404:	06230605 	strteq	r0, [r3], -r5, lsl #12
    1408:	06270521 	strteq	r0, [r7], -r1, lsr #10
    140c:	2a090516 	bcs	24286c <__exidx_end+0x241828>
    1410:	02001705 	andeq	r1, r0, #1310720	@ 0x140000
    1414:	05200104 	streq	r0, [r0, #-260]!	@ 0xfffffefc
    1418:	04240606 	strteq	r0, [r4], #-1542	@ 0xfffff9fa
    141c:	03380502 	teqeq	r8, #8388608	@ 0x800000
    1420:	05050127 	streq	r0, [r5, #-295]	@ 0xfffffed9
    1424:	06330515 			@ <UNDEFINED> instruction: 0x06330515
    1428:	06380501 	ldrteq	r0, [r8], -r1, lsl #10
    142c:	05204b03 	streq	r4, [r0, #-2819]!	@ 0xfffff4fd
    1430:	2c051605 	stccs	6, cr1, [r5], {5}
    1434:	05050106 	streq	r0, [r5, #-262]	@ 0xfffffefa
    1438:	25052406 	strcs	r2, [r5, #-1030]	@ 0xfffffbfa
    143c:	19050106 	stmdbne	r5, {r1, r2, r8}
    1440:	06050520 	streq	r0, [r5], -r0, lsr #10
    1444:	06220521 	strteq	r0, [r2], -r1, lsr #10
    1448:	06050501 	streq	r0, [r5], -r1, lsl #10
    144c:	06190521 	ldreq	r0, [r9], -r1, lsr #10
    1450:	06050501 	streq	r0, [r5], -r1, lsl #10
    1454:	06190521 	ldreq	r0, [r9], -r1, lsr #10
    1458:	06050501 	streq	r0, [r5], -r1, lsl #10
    145c:	06100521 	ldreq	r0, [r0], -r1, lsr #10
    1460:	05052001 	streq	r2, [r5, #-1]
    1464:	062f3006 	strteq	r3, [pc], -r6
    1468:	05010401 	streq	r0, [r1, #-1025]	@ 0xfffffbff
    146c:	050f0606 	streq	r0, [pc, #-1542]	@ e6e <kTimeOutReadyTask+0x16>
    1470:	1605140a 	strne	r1, [r5], -sl, lsl #8
    1474:	28050106 	stmdacs	r5, {r1, r2, r8}
    1478:	20160520 	andscs	r0, r6, r0, lsr #10
    147c:	053c0d05 	ldreq	r0, [ip, #-3333]!	@ 0xfffff2fb
    1480:	052f060e 	streq	r0, [pc, #-1550]!	@ e7a <kTimeOutReadyTask+0x22>
    1484:	05010621 	streq	r0, [r1, #-1569]	@ 0xfffff9df
    1488:	2105201c 	tstcs	r5, ip, lsl r0
    148c:	201c0520 	andscs	r0, ip, r0, lsr #10
    1490:	0c050204 	sfmeq	f0, 4, [r5], {4}
    1494:	0104203c 	tsteq	r4, ip, lsr r0
    1498:	14060605 	strne	r0, [r6], #-1541	@ 0xfffff9fb
    149c:	0602053d 			@ <UNDEFINED> instruction: 0x0602053d
    14a0:	060a0513 			@ <UNDEFINED> instruction: 0x060a0513
    14a4:	062e7603 	strteq	r7, [lr], -r3, lsl #12
    14a8:	02042e2e 	andeq	r2, r4, #736	@ 0x2e0
    14ac:	2e1d1005 	cdpcs	0, 1, cr1, cr13, cr5, {0}
    14b0:	01000602 	tsteq	r0, r2, lsl #12
    14b4:	00020501 	andeq	r0, r2, r1, lsl #10
    14b8:	09f40205 	ldmibeq	r4!, {r0, r2, r9}^
    14bc:	8c030000 	stchi	0, cr0, [r3], {-0}
    14c0:	06050104 	streq	r0, [r5], -r4, lsl #2
    14c4:	06020513 			@ <UNDEFINED> instruction: 0x06020513
    14c8:	21100511 	tstcs	r0, r1, lsl r5
    14cc:	052e0905 	streq	r0, [lr, #-2309]!	@ 0xfffff6fb
    14d0:	003f060a 	eorseq	r0, pc, sl, lsl #12
    14d4:	06010402 	streq	r0, [r1], -r2, lsl #8
    14d8:	06150582 	ldreq	r0, [r5], -r2, lsl #11
    14dc:	1a0a0537 	bne	2829c0 <__exidx_end+0x28197c>
    14e0:	01061905 	tsteq	r6, r5, lsl #18
    14e4:	02420205 	subeq	r0, r2, #1342177280	@ 0x50000000
    14e8:	01010006 	tsteq	r1, r6
    14ec:	05000205 	streq	r0, [r0, #-517]	@ 0xfffffdfb
    14f0:	00000002 	andeq	r0, r0, r2
    14f4:	019d0300 	orrseq	r0, sp, r0, lsl #6
    14f8:	13060501 	movwne	r0, #25857	@ 0x6501
    14fc:	06020513 			@ <UNDEFINED> instruction: 0x06020513
    1500:	09052010 	stmdbeq	r5, {r4, sp}
    1504:	00170522 	andseq	r0, r7, r2, lsr #10
    1508:	2e010402 	cdpcs	4, 0, cr0, cr1, cr2, {0}
    150c:	22060a05 	andcs	r0, r6, #20480	@ 0x5000
    1510:	06052e06 	streq	r2, [r5], -r6, lsl #28
    1514:	0e053006 	cdpeq	0, 0, cr3, cr5, cr6, {0}
    1518:	09050106 	stmdbeq	r5, {r1, r2, r8}
    151c:	060a0520 	streq	r0, [sl], -r0, lsr #10
    1520:	06100523 	ldreq	r0, [r0], -r3, lsr #10
    1524:	03020501 	movweq	r0, #9473	@ 0x2501
    1528:	10052e14 	andne	r2, r5, r4, lsl lr
    152c:	052e6c03 	streq	r6, [lr, #-3075]!	@ 0xfffff3fd
    1530:	05330606 	ldreq	r0, [r3, #-1542]!	@ 0xfffff9fa
    1534:	0501060f 	streq	r0, [r1, #-1551]	@ 0xfffff9f1
    1538:	05210606 	streq	r0, [r1, #-1542]!	@ 0xfffff9fa
    153c:	0513062b 	ldreq	r0, [r3, #-1579]	@ 0xfffff9d5
    1540:	06051f0e 	streq	r1, [r5], -lr, lsl #30
    1544:	22052f06 	andcs	r2, r5, #6, 30
    1548:	05200601 	streq	r0, [r0, #-1537]!	@ 0xfffff9ff
    154c:	0a030606 	beq	c2d6c <__exidx_end+0xc1d28>
    1550:	0631052e 	ldrteq	r0, [r1], -lr, lsr #10
    1554:	05020401 	streq	r0, [r2, #-1025]	@ 0xfffffbff
    1558:	93030638 	movwls	r0, #13880	@ 0x3638
    155c:	05052e7f 	streq	r2, [r5, #-3711]	@ 0xfffff181
    1560:	062c0516 			@ <UNDEFINED> instruction: 0x062c0516
    1564:	06050501 	streq	r0, [r5], -r1, lsl #10
    1568:	06250524 	strteq	r0, [r5], -r4, lsr #10
    156c:	24100501 	ldrcs	r0, [r0], #-1281	@ 0xfffffaff
    1570:	051c1905 	ldreq	r1, [ip, #-2309]	@ 0xfffff6fb
    1574:	05210605 	streq	r0, [r1, #-1541]!	@ 0xfffff9fb
    1578:	05010622 	streq	r0, [r1, #-1570]	@ 0xfffff9de
    157c:	05210605 	streq	r0, [r1, #-1541]!	@ 0xfffff9fb
    1580:	05010619 	streq	r0, [r1, #-1561]	@ 0xfffff9e7
    1584:	05210605 	streq	r0, [r1, #-1541]!	@ 0xfffff9fb
    1588:	05010619 	streq	r0, [r1, #-1561]	@ 0xfffff9e7
    158c:	05210605 	streq	r0, [r1, #-1541]!	@ 0xfffff9fb
    1590:	05010610 	streq	r0, [r1, #-1552]	@ 0xfffff9f0
    1594:	2f220605 	svccs	0x00220605
    1598:	01040106 	tsteq	r4, r6, lsl #2
    159c:	03060605 	movweq	r0, #26117	@ 0x6605
    15a0:	040100df 	streq	r0, [r1], #-223	@ 0xffffff21
    15a4:	060c0502 	streq	r0, [ip], -r2, lsl #10
    15a8:	017fa103 	cmneq	pc, r3, lsl #2
    15ac:	05010420 	streq	r0, [r1, #-1056]	@ 0xfffffbe0
    15b0:	00e10302 	rsceq	r0, r1, r2, lsl #6
    15b4:	060a0501 	streq	r0, [sl], -r1, lsl #10
    15b8:	05207503 	streq	r7, [r0, #-1283]!	@ 0xfffffafd
    15bc:	05010616 	streq	r0, [r1, #-1558]	@ 0xfffff9ea
    15c0:	0522060a 	streq	r0, [r2, #-1546]!	@ 0xfffff9f6
    15c4:	0501060d 	streq	r0, [r1, #-1549]	@ 0xfffff9f3
    15c8:	0532060a 	ldreq	r0, [r2, #-1546]!	@ 0xfffff9f6
    15cc:	2e010615 	mcrcs	6, 0, r0, cr1, cr5, {0}
    15d0:	23060605 	movwcs	r0, #26117	@ 0x6605
    15d4:	03022e06 	movweq	r2, #11782	@ 0x2e06
    15d8:	05010100 	streq	r0, [r1, #-256]	@ 0xffffff00
    15dc:	02050002 	andeq	r0, r5, #2
    15e0:	00000000 	andeq	r0, r0, r0
    15e4:	05013503 	streq	r3, [r1, #-1283]	@ 0xfffffafd
    15e8:	05131306 	ldreq	r1, [r3, #-774]	@ 0xfffffcfa
    15ec:	05100602 	ldreq	r0, [r0, #-1538]	@ 0xfffff9fe
    15f0:	3d062206 	sfmcc	f2, 4, [r6, #-24]	@ 0xffffffe8
    15f4:	2f2e582f 	svccs	0x002e582f
    15f8:	22060205 	andcs	r0, r6, #1342177280	@ 0x50000000
    15fc:	022c0605 	eoreq	r0, ip, #5242880	@ 0x500000
    1600:	01010004 	tsteq	r1, r4
    1604:	05000205 	streq	r0, [r0, #-517]	@ 0xfffffdfb
    1608:	00000002 	andeq	r0, r0, r2
    160c:	01bf0300 			@ <UNDEFINED> instruction: 0x01bf0300
    1610:	13060501 	movwne	r0, #25857	@ 0x6501
    1614:	06020513 			@ <UNDEFINED> instruction: 0x06020513
    1618:	06052e10 			@ <UNDEFINED> instruction: 0x06052e10
    161c:	21062e22 	tstcs	r6, r2, lsr #28
    1620:	01060905 	tsteq	r6, r5, lsl #18
    1624:	22060a05 	andcs	r0, r6, #20480	@ 0x5000
    1628:	2f062e06 	svccs	0x00062e06
    162c:	0611053d 			@ <UNDEFINED> instruction: 0x0611053d
    1630:	03020501 	movweq	r0, #9473	@ 0x2501
    1634:	06052e10 			@ <UNDEFINED> instruction: 0x06052e10
    1638:	2e720306 	cdpcs	3, 7, cr0, cr2, cr6, {0}
    163c:	01061405 	tsteq	r6, r5, lsl #8
    1640:	200a053c 	andcs	r0, sl, ip, lsr r5
    1644:	05580905 	ldrbeq	r0, [r8, #-2309]	@ 0xfffff6fb
    1648:	0530060a 	ldreq	r0, [r0, #-1546]!	@ 0xfffff9f6
    164c:	05010619 	streq	r0, [r1, #-1561]	@ 0xfffff9e7
    1650:	0530060a 	ldreq	r0, [r0, #-1546]!	@ 0xfffff9f6
    1654:	0501060d 	streq	r0, [r1, #-1549]	@ 0xfffff9f3
    1658:	065a060e 	ldrbeq	r0, [sl], -lr, lsl #12
    165c:	04020020 	streq	r0, [r2], #-32	@ 0xffffffe0
    1660:	3d067401 	cfstrscc	mvf7, [r6, #-4]
    1664:	01061d05 	tsteq	r6, r5, lsl #26
    1668:	3d060e05 	stccc	14, cr0, [r6, #-20]	@ 0xffffffec
    166c:	06052e58 			@ <UNDEFINED> instruction: 0x06052e58
    1670:	0d053d32 	stceq	13, cr3, [r5, #-200]	@ 0xffffff38
    1674:	0a020106 	beq	81a94 <__exidx_end+0x80a50>
    1678:	05010100 	streq	r0, [r1, #-256]	@ 0xffffff00
    167c:	02050002 	andeq	r0, r5, #2
    1680:	00000a28 	andeq	r0, r0, r8, lsr #20
    1684:	0103bc03 	tsteq	r3, r3, lsl #24
    1688:	05140605 	ldreq	r0, [r4, #-1541]	@ 0xfffff9fb
    168c:	05100602 	ldreq	r0, [r0, #-1538]	@ 0xfffff9fe
    1690:	0e053010 	mcreq	0, 0, r3, cr5, cr0, {0}
    1694:	2115052e 	tstcs	r5, lr, lsr #10
    1698:	051f0e05 	ldreq	r0, [pc, #-3589]	@ 89b <kCreateTask+0x2f>
    169c:	05210606 	streq	r0, [r1, #-1542]!	@ 0xfffff9fa
    16a0:	05010612 	streq	r0, [r1, #-1554]	@ 0xfffff9ee
    16a4:	09052015 	stmdbeq	r5, {r0, r2, r4, sp}
    16a8:	060a0574 			@ <UNDEFINED> instruction: 0x060a0574
    16ac:	0322052f 			@ <UNDEFINED> instruction: 0x0322052f
    16b0:	01064a73 	tsteq	r6, r3, ror sl
    16b4:	09030205 	stmdbeq	r3, {r0, r2, r9}
    16b8:	03110501 	tsteq	r1, #4194304	@ 0x400000
    16bc:	0a054a79 	beq	1540a8 <__exidx_end+0x153064>
    16c0:	11052e06 	tstne	r5, r6, lsl #28
    16c4:	22050106 	andcs	r0, r5, #-2147483647	@ 0x80000001
    16c8:	0e052048 	cdpeq	0, 0, cr2, cr5, cr8, {2}
    16cc:	06370522 	ldrteq	r0, [r7], -r2, lsr #10
    16d0:	0122052c 			@ <UNDEFINED> instruction: 0x0122052c
    16d4:	4b400605 	blmi	1002ef0 <__exidx_end+0x1001eac>
    16d8:	03060106 	movweq	r0, #24838	@ 0x6106
    16dc:	0e05010a 	adfeqs	f0, f5, #2.0
    16e0:	05016903 	streq	r6, [r1, #-2307]	@ 0xfffff6fd
    16e4:	19051406 	stmdbne	r5, {r1, r2, sl, ip}
    16e8:	1b050106 	blne	141b08 <__exidx_end+0x140ac4>
    16ec:	05201603 	streq	r1, [r0, #-1539]!	@ 0xfffff9fd
    16f0:	12052111 	andne	r2, r5, #1073741828	@ 0x40000004
    16f4:	0319051f 	tsteq	r9, #130023424	@ 0x7c00000
    16f8:	12052e6a 	andne	r2, r5, #1696	@ 0x6a0
    16fc:	05201603 	streq	r1, [r0, #-1539]!	@ 0xfffff9fd
    1700:	206b0315 	rsbcs	r0, fp, r5, lsl r3
    1704:	03060605 	movweq	r0, #26117	@ 0x6605
    1708:	1b052e15 	blne	14cf64 <__exidx_end+0x14bf20>
    170c:	12050106 	andne	r0, r5, #-2147483647	@ 0x80000001
    1710:	06060520 	streq	r0, [r6], -r0, lsr #10
    1714:	010b0521 	tsteq	fp, r1, lsr #10
    1718:	05011a05 	streq	r1, [r1, #-2565]	@ 0xfffff5fb
    171c:	1505140a 	strne	r1, [r5, #-1034]	@ 0xfffffbf6
    1720:	2b050106 	blcs	141b40 <__exidx_end+0x140afc>
    1724:	220d051e 	andcs	r0, sp, #125829120	@ 0x7800000
    1728:	05221a05 	streq	r1, [r2, #-2565]!	@ 0xfffff5fb
    172c:	0538062b 	ldreq	r0, [r8, #-1579]!	@ 0xfffff9d5
    1730:	1105011a 	tstne	r5, sl, lsl r1
    1734:	14056e06 	strne	r6, [r5], #-3590	@ 0xfffff1fa
    1738:	000a0522 	andeq	r0, sl, r2, lsr #10
    173c:	06030402 	streq	r0, [r3], -r2, lsl #8
    1740:	0014052e 	andseq	r0, r4, lr, lsr #10
    1744:	06030402 	streq	r0, [r3], -r2, lsl #8
    1748:	000a0501 	andeq	r0, sl, r1, lsl #10
    174c:	20030402 	andcs	r0, r3, r2, lsl #8
    1750:	02002b05 	andeq	r2, r0, #5120	@ 0x1400
    1754:	053a0304 	ldreq	r0, [sl, #-772]!	@ 0xfffffcfc
    1758:	0402000a 	streq	r0, [r2], #-10
    175c:	2b052203 	blcs	149f70 <__exidx_end+0x148f2c>
    1760:	03040200 	movweq	r0, #16896	@ 0x4200
    1764:	1a052c06 	bne	14c784 <__exidx_end+0x14b740>
    1768:	03040200 	movweq	r0, #16896	@ 0x4200
    176c:	4f060501 	svcmi	0x00060501
    1770:	04020059 	streq	r0, [r2], #-89	@ 0xffffffa7
    1774:	064a0601 	strbeq	r0, [sl], -r1, lsl #12
    1778:	0402003d 	streq	r0, [r2], #-61	@ 0xffffffc3
    177c:	064a0601 	strbeq	r0, [sl], -r1, lsl #12
    1780:	042f2f3d 	strteq	r2, [pc], #-3901	@ 1788 <__exidx_end+0x744>
    1784:	031b0503 	tsteq	fp, #12582912	@ 0xc00000
    1788:	050103de 	streq	r0, [r1, #-990]	@ 0xfffffc22
    178c:	01041403 	tsteq	r4, r3, lsl #8
    1790:	a1030605 	tstge	r3, r5, lsl #12
    1794:	0030207c 	eorseq	r2, r0, ip, ror r0
    1798:	21010402 	tstcs	r1, r2, lsl #8
    179c:	02000c05 	andeq	r0, r0, #1280	@ 0x500
    17a0:	02010104 	andeq	r0, r1, #4, 2
    17a4:	01010012 	tsteq	r1, r2, lsl r0
    17a8:	05000205 	streq	r0, [r0, #-517]	@ 0xfffffdfb
    17ac:	000b2002 	andeq	r2, fp, r2
    17b0:	03f00300 	mvnseq	r0, #0, 6
    17b4:	14060501 	strne	r0, [r6], #-1281	@ 0xfffffaff
    17b8:	01060e05 	tsteq	r6, r5, lsl #28
    17bc:	051e0205 	ldreq	r0, [lr, #-517]	@ 0xfffffdfb
    17c0:	051f230e 	ldreq	r2, [pc, #-782]	@ 14ba <__exidx_end+0x476>
    17c4:	05210606 	streq	r0, [r1, #-1542]!	@ 0xfffff9fa
    17c8:	0501060e 	streq	r0, [r1, #-1550]	@ 0xfffff9f2
    17cc:	05210606 	streq	r0, [r1, #-1542]!	@ 0xfffff9fa
    17d0:	05010609 	streq	r0, [r1, #-1545]	@ 0xfffff9f7
    17d4:	053f060a 	ldreq	r0, [pc, #-1546]!	@ 11d2 <__exidx_end+0x18e>
    17d8:	15053006 	strne	r3, [r5, #-6]
    17dc:	06050106 	streq	r0, [r5], -r6, lsl #2
    17e0:	1f13052f 	svcne	0x0013052f
    17e4:	05210605 	streq	r0, [r1, #-1541]!	@ 0xfffff9fb
    17e8:	06051f13 			@ <UNDEFINED> instruction: 0x06051f13
    17ec:	05592106 	ldrbeq	r2, [r9, #-262]	@ 0xfffffefa
    17f0:	05010615 	streq	r0, [r1, #-1557]	@ 0xfffff9eb
    17f4:	0a052009 	beq	149820 <__exidx_end+0x1487dc>
    17f8:	06052206 	streq	r2, [r5], -r6, lsl #4
    17fc:	0609054c 	streq	r0, [r9], -ip, asr #10
    1800:	20140513 	andscs	r0, r4, r3, lsl r5
    1804:	051f0d05 	ldreq	r0, [pc, #-3333]	@ b07 <kInit+0xdf>
    1808:	05210606 	streq	r0, [r1, #-1542]!	@ 0xfffff9fa
    180c:	05010609 	streq	r0, [r1, #-1545]	@ 0xfffff9f7
    1810:	0522060a 	streq	r0, [r2, #-1546]!	@ 0xfffff9f6
    1814:	0501061d 	streq	r0, [r1, #-1565]	@ 0xfffff9e3
    1818:	054b060a 	strbeq	r0, [fp, #-1546]	@ 0xfffff9f6
    181c:	05010622 	streq	r0, [r1, #-1570]	@ 0xfffff9de
    1820:	05300606 	ldreq	r0, [r0, #-1542]!	@ 0xfffff9fa
    1824:	2e2f0602 	cfmadda32cs	mvax0, mvax0, mvfx15, mvfx2
    1828:	01000702 	tsteq	r0, r2, lsl #14
    182c:	00020501 	andeq	r0, r2, r1, lsl #10
    1830:	0b800205 	bleq	fe00204c <SCB_ICSR+0x1dff3348>
    1834:	b2030000 	andlt	r0, r3, #0
    1838:	06050104 	streq	r0, [r5], -r4, lsl #2
    183c:	14131314 	ldrne	r1, [r3], #-788	@ 0xfffffcec
    1840:	03060205 	movweq	r0, #25093	@ 0x6205
    1844:	1005017a 	andne	r0, r5, sl, ror r1
    1848:	05200903 	streq	r0, [r0, #-2307]!	@ 0xfffff6fd
    184c:	10051d0d 	andne	r1, r5, sp, lsl #26
    1850:	1d190523 	cfldr32ne	mvfx0, [r9, #-140]	@ 0xffffff74
    1854:	05231005 	streq	r1, [r3, #-5]!
    1858:	06051d19 			@ <UNDEFINED> instruction: 0x06051d19
    185c:	09053106 	stmdbeq	r5, {r1, r2, r8, ip, sp}
    1860:	0a050106 	beq	141c80 <__exidx_end+0x140c3c>
    1864:	1f052206 	svcne	0x00052206
    1868:	06050106 	streq	r0, [r5], -r6, lsl #2
    186c:	09053106 	stmdbeq	r5, {r1, r2, r8, ip, sp}
    1870:	0a050106 	beq	141c90 <__exidx_end+0x140c4c>
    1874:	1d053006 	stcne	0, cr3, [r5, #-24]	@ 0xffffffe8
    1878:	0a050106 	beq	141c98 <__exidx_end+0x140c54>
    187c:	19052f06 	stmdbne	r5, {r1, r2, r8, r9, sl, fp, sp}
    1880:	06050106 	streq	r0, [r5], -r6, lsl #2
    1884:	1d054206 	sfmne	f4, 4, [r5, #-24]	@ 0xffffffe8
    1888:	09050106 	stmdbeq	r5, {r1, r2, r8}
    188c:	060a0520 	streq	r0, [sl], -r0, lsr #10
    1890:	06180530 			@ <UNDEFINED> instruction: 0x06180530
    1894:	06060501 	streq	r0, [r6], -r1, lsl #10
    1898:	06100540 	ldreq	r0, [r0], -r0, asr #10
    189c:	2e270501 	cfsh64cs	mvdx0, mvdx7, #1
    18a0:	05200905 	streq	r0, [r0, #-2309]!	@ 0xfffff6fb
    18a4:	0402001d 	streq	r0, [r2], #-29	@ 0xffffffe3
    18a8:	0e052001 	cdpeq	0, 0, cr2, cr5, cr1, {0}
    18ac:	0606052f 	streq	r0, [r6], -pc, lsr #10
    18b0:	054a2a03 	strbeq	r2, [sl, #-2563]	@ 0xfffff5fd
    18b4:	2505140a 	strcs	r1, [r5, #-1034]	@ 0xfffffbf6
    18b8:	0a050106 	beq	141cd8 <__exidx_end+0x140c94>
    18bc:	27052f06 	strcs	r2, [r5, -r6, lsl #30]
    18c0:	0d050106 	stfeqs	f0, [r5, #-24]	@ 0xffffffe8
    18c4:	060e0520 	streq	r0, [lr], -r0, lsr #10
    18c8:	202e063e 	eorcs	r0, lr, lr, lsr r6
    18cc:	0d060605 	stceq	6, cr0, [r6, #-20]	@ 0xffffffec
    18d0:	01060905 	tsteq	r6, r5, lsl #18
    18d4:	36060605 	strcc	r0, [r6], -r5, lsl #12
    18d8:	06250514 			@ <UNDEFINED> instruction: 0x06250514
    18dc:	200a0510 	andcs	r0, sl, r0, lsl r5
    18e0:	052e2e05 	streq	r2, [lr, #-3589]!	@ 0xfffff1fb
    18e4:	0205203b 	andeq	r2, r5, #59	@ 0x3b
    18e8:	030b054d 	movweq	r0, #46413	@ 0xb54d
    18ec:	203c7faf 	eorscs	r7, ip, pc, lsr #31
    18f0:	01000702 	tsteq	r0, r2, lsl #14
    18f4:	0001e801 	andeq	lr, r1, r1, lsl #16
    18f8:	67000300 	strvs	r0, [r0, -r0, lsl #6]
    18fc:	02000000 	andeq	r0, r0, #0
    1900:	0d0efb01 	vstreq	d15, [lr, #-4]
    1904:	01010100 	mrseq	r0, (UNDEF: 17)
    1908:	00000001 	andeq	r0, r0, r1
    190c:	01000001 	tsteq	r0, r1
    1910:	00637253 	rsbeq	r7, r3, r3, asr r2
    1914:	00636e49 	rsbeq	r6, r3, r9, asr #28
    1918:	79736b00 	ldmdbvc	r3!, {r8, r9, fp, sp, lr}^
    191c:	2e68636e 	cdpcs	3, 6, cr6, cr8, cr14, {3}
    1920:	00010063 	andeq	r0, r1, r3, rrx
    1924:	65646b00 	strbvs	r6, [r4, #-2816]!	@ 0xfffff500
    1928:	682e7366 	stmdavs	lr!, {r1, r2, r5, r6, r8, r9, ip, sp, lr}
    192c:	00000200 	andeq	r0, r0, r0, lsl #4
    1930:	6c61686b 	stclvs	8, cr6, [r1], #-428	@ 0xfffffe54
    1934:	0200682e 	andeq	r6, r0, #3014656	@ 0x2e0000
    1938:	6f6b0000 	svcvs	0x006b0000
    193c:	2e736a62 	vsubcs.f32	s13, s6, s5
    1940:	00020068 	andeq	r0, r2, r8, rrx
    1944:	63736b00 	cmnvs	r3, #0, 22
    1948:	00682e68 	rsbeq	r2, r8, r8, ror #28
    194c:	6b000002 	blvs	195c <__exidx_end+0x918>
    1950:	656d6974 	strbvs	r6, [sp, #-2420]!	@ 0xfffff68c
    1954:	00682e72 	rsbeq	r2, r8, r2, ror lr
    1958:	6b000002 	blvs	1968 <__exidx_end+0x924>
    195c:	2e727265 	cdpcs	2, 7, cr7, cr2, cr5, {3}
    1960:	00020068 	andeq	r0, r2, r8, rrx
    1964:	02050000 	andeq	r0, r5, #0
    1968:	00020500 	andeq	r0, r2, r0, lsl #10
    196c:	0300000c 	movweq	r0, #12
    1970:	06050132 			@ <UNDEFINED> instruction: 0x06050132
    1974:	02041313 	andeq	r1, r4, #1275068416	@ 0x4c000000
    1978:	8c030a05 			@ <UNDEFINED> instruction: 0x8c030a05
    197c:	05050102 	streq	r0, [r5, #-258]	@ 0xfffffefe
    1980:	01041314 	tsteq	r4, r4, lsl r3
    1984:	03060205 	movweq	r0, #25093	@ 0x6205
    1988:	04017def 	streq	r7, [r1], #-3567	@ 0xfffff211
    198c:	03050502 	movweq	r0, #21762	@ 0x5502
    1990:	06200291 			@ <UNDEFINED> instruction: 0x06200291
    1994:	0501042f 	streq	r0, [r1, #-1071]	@ 0xfffffbd1
    1998:	ee030602 	cfmadd32	mvax0, mvfx0, mvfx3, mvfx2
    199c:	0204017d 	andeq	r0, r4, #1073741855	@ 0x4000001f
    19a0:	92030505 	andls	r0, r3, #20971520	@ 0x1400000
    19a4:	2f062002 	svccs	0x00062002
    19a8:	09050104 	stmdbeq	r5, {r2, r8}
    19ac:	7def0306 	stclvc	3, cr0, [pc, #24]!	@ 19cc <__exidx_end+0x988>
    19b0:	060a0501 	streq	r0, [sl], -r1, lsl #10
    19b4:	052e0621 	streq	r0, [lr, #-1569]!	@ 0xfffff9df
    19b8:	132f0606 			@ <UNDEFINED> instruction: 0x132f0606
    19bc:	2f061005 	svccs	0x00061005
    19c0:	061f0605 	ldreq	r0, [pc], -r5, lsl #12
    19c4:	06100521 	ldreq	r0, [r0], -r1, lsr #10
    19c8:	20090501 	andcs	r0, r9, r1, lsl #10
    19cc:	3e060a05 	vmlacc.f32	s0, s12, s10
    19d0:	01061c05 	tsteq	r6, r5, lsl #24
    19d4:	2f060a05 	svccs	0x00060a05
    19d8:	1f030605 	svcne	0x00030605
    19dc:	0d053d01 	stceq	13, cr3, [r5, #-4]
    19e0:	0a050106 	beq	141e00 <__exidx_end+0x140dbc>
    19e4:	2e640306 	cdpcs	3, 6, cr0, cr4, cr6, {0}
    19e8:	01060d05 	tsteq	r6, r5, lsl #26
    19ec:	22060e05 	andcs	r0, r6, #5, 28	@ 0x50
    19f0:	0615052f 	ldreq	r0, [r5], -pc, lsr #10
    19f4:	03020501 	movweq	r0, #9473	@ 0x2501
    19f8:	0a052e1a 	beq	14d268 <__exidx_end+0x14c224>
    19fc:	20680306 	rsbcs	r0, r8, r6, lsl #6
    1a00:	01061905 	tsteq	r6, r5, lsl #18
    1a04:	2f060a05 	svccs	0x00060a05
    1a08:	01061c05 	tsteq	r6, r5, lsl #24
    1a0c:	05220d05 	streq	r0, [r2, #-3333]!	@ 0xfffff2fb
    1a10:	0a051e1c 	beq	149288 <__exidx_end+0x148244>
    1a14:	05132106 	ldreq	r2, [r3, #-262]	@ 0xfffffefa
    1a18:	0501061c 	streq	r0, [r1, #-1564]	@ 0xfffff9e4
    1a1c:	0e052e0d 	cdpeq	14, 0, cr2, cr5, cr13, {0}
    1a20:	143c2206 	ldrtne	r2, [ip], #-518	@ 0xfffffdfa
    1a24:	585a0a05 	ldmdapl	sl, {r0, r2, r9, fp}^
    1a28:	053d2f2e 	ldreq	r2, [sp, #-3886]!	@ 0xfffff0d2
    1a2c:	052f0614 	streq	r0, [pc, #-1556]!	@ 1420 <__exidx_end+0x3dc>
    1a30:	21061f0a 	tstcs	r6, sl, lsl #30
    1a34:	01060d05 	tsteq	r6, r5, lsl #26
    1a38:	30060e05 	andcc	r0, r6, r5, lsl #28
    1a3c:	01061e05 	tsteq	r6, r5, lsl #28
    1a40:	2f060e05 	svccs	0x00060e05
    1a44:	0615052f 	ldreq	r0, [r5], -pc, lsr #10
    1a48:	060a0501 	streq	r0, [sl], -r1, lsl #10
    1a4c:	060d053e 			@ <UNDEFINED> instruction: 0x060d053e
    1a50:	060e0501 	streq	r0, [lr], -r1, lsl #10
    1a54:	022e062f 	eoreq	r0, lr, #49283072	@ 0x2f00000
    1a58:	01010007 	tsteq	r1, r7
    1a5c:	05000205 	streq	r0, [r0, #-517]	@ 0xfffffdfb
    1a60:	00000002 	andeq	r0, r0, r2
    1a64:	00e30300 	rsceq	r0, r3, r0, lsl #6
    1a68:	14060501 	strne	r0, [r6], #-1281	@ 0xfffffaff
    1a6c:	06020513 			@ <UNDEFINED> instruction: 0x06020513
    1a70:	2309050f 	movwcs	r0, #38159	@ 0x950f
    1a74:	02003c05 	andeq	r3, r0, #1280	@ 0x500
    1a78:	052e0104 	streq	r0, [lr, #-260]!	@ 0xfffffefc
    1a7c:	0402002d 	streq	r0, [r2], #-45	@ 0xffffffd3
    1a80:	3c052001 	stccc	0, cr2, [r5], {1}
    1a84:	01040200 	mrseq	r0, R12_usr
    1a88:	001f0520 	andseq	r0, pc, r0, lsr #10
    1a8c:	20010402 	andcs	r0, r1, r2, lsl #8
    1a90:	053d0e05 	ldreq	r0, [sp, #-3589]!	@ 0xfffff1fb
    1a94:	13220606 			@ <UNDEFINED> instruction: 0x13220606
    1a98:	30061305 	andcc	r1, r6, r5, lsl #6
    1a9c:	061e0605 	ldreq	r0, [lr], -r5, lsl #12
    1aa0:	060d0521 	streq	r0, [sp], -r1, lsr #10
    1aa4:	06060501 	streq	r0, [r6], -r1, lsl #10
    1aa8:	06130521 	ldreq	r0, [r3], -r1, lsr #10
    1aac:	09052001 	stmdbeq	r5, {r0, sp}
    1ab0:	060a052e 	streq	r0, [sl], -lr, lsr #10
    1ab4:	060d053e 			@ <UNDEFINED> instruction: 0x060d053e
    1ab8:	052e7703 	streq	r7, [lr, #-1795]!	@ 0xfffff8fd
    1abc:	10030606 	andne	r0, r3, r6, lsl #12
    1ac0:	02053d2e 	andeq	r3, r5, #2944	@ 0xb80
    1ac4:	0a051306 	beq	1466e4 <__exidx_end+0x1456a0>
    1ac8:	20052906 	andcs	r2, r5, r6, lsl #18
    1acc:	0a050106 	beq	141eec <__exidx_end+0x140ea8>
    1ad0:	0e052f06 	cdpeq	15, 0, cr2, cr5, cr6, {0}
    1ad4:	05200106 	streq	r0, [r0, #-262]!	@ 0xfffffefa
    1ad8:	20750311 	rsbscs	r0, r5, r1, lsl r3
    1adc:	01000802 	tsteq	r0, r2, lsl #16
    1ae0:	00013d01 	andeq	r3, r1, r1, lsl #26
    1ae4:	63000300 	movwvs	r0, #768	@ 0x300
    1ae8:	02000000 	andeq	r0, r0, #0
    1aec:	0d0efb01 	vstreq	d15, [lr, #-4]
    1af0:	01010100 	mrseq	r0, (UNDEF: 17)
    1af4:	00000001 	andeq	r0, r0, r1
    1af8:	01000001 	tsteq	r0, r1
    1afc:	00637253 	rsbeq	r7, r3, r3, asr r2
    1b00:	00636e49 	rsbeq	r6, r3, r9, asr #28
    1b04:	79736b00 	ldmdbvc	r3!, {r8, r9, fp, sp, lr}^
    1b08:	73617473 	cmnvc	r1, #1929379840	@ 0x73000000
    1b0c:	632e736b 			@ <UNDEFINED> instruction: 0x632e736b
    1b10:	00000100 	andeq	r0, r0, r0, lsl #2
    1b14:	69736d63 	ldmdbvs	r3!, {r0, r1, r5, r6, r8, sl, fp, sp, lr}^
    1b18:	63675f73 	cmnvs	r7, #460	@ 0x1cc
    1b1c:	00682e63 	rsbeq	r2, r8, r3, ror #28
    1b20:	6b000002 	blvs	1b30 <__exidx_end+0xaec>
    1b24:	2e6c6168 	powcsez	f6, f4, #0.0
    1b28:	00020068 	andeq	r0, r2, r8, rrx
    1b2c:	65646b00 	strbvs	r6, [r4, #-2816]!	@ 0xfffff500
    1b30:	682e7366 	stmdavs	lr!, {r1, r2, r5, r6, r8, r9, ip, sp, lr}
    1b34:	00000200 	andeq	r0, r0, r0, lsl #4
    1b38:	6a626f6b 	bvs	189d8ec <__exidx_end+0x189c8a8>
    1b3c:	00682e73 	rsbeq	r2, r8, r3, ror lr
    1b40:	6b000002 	blvs	1b50 <__exidx_end+0xb0c>
    1b44:	2e686373 	mcrcs	3, 3, r6, cr8, cr3, {3}
    1b48:	00020068 	andeq	r0, r2, r8, rrx
    1b4c:	01050000 	mrseq	r0, (UNDEF: 5)
    1b50:	a8020500 	stmdage	r2, {r8, sl}
    1b54:	0300000c 	movweq	r0, #12
    1b58:	1305011c 	movwne	r0, #20764	@ 0x511c
    1b5c:	05051906 	streq	r1, [r5, #-2310]	@ 0xfffff6fa
    1b60:	01040200 	mrseq	r0, R12_usr
    1b64:	207a0306 	rsbscs	r0, sl, r6, lsl #6
    1b68:	01040200 	mrseq	r0, R12_usr
    1b6c:	00090514 	andeq	r0, r9, r4, lsl r5
    1b70:	14010402 	strne	r0, [r1], #-1026	@ 0xfffffbfe
    1b74:	1b050204 	blne	14238c <__exidx_end+0x141348>
    1b78:	01040200 	mrseq	r0, R12_usr
    1b7c:	0101eb03 	tsteq	r1, r3, lsl #22
    1b80:	02000305 	andeq	r0, r0, #335544320	@ 0x14000000
    1b84:	04140104 	ldreq	r0, [r4], #-260	@ 0xfffffefc
    1b88:	00090501 	andeq	r0, r9, r1, lsl #10
    1b8c:	03010402 	movweq	r0, #5122	@ 0x1402
    1b90:	052e7e95 	streq	r7, [lr, #-3733]!	@ 0xfffff16b
    1b94:	04020013 	streq	r0, [r2], #-19	@ 0xffffffed
    1b98:	05010601 	streq	r0, [r1, #-1537]	@ 0xfffff9ff
    1b9c:	04020009 	streq	r0, [r2], #-9
    1ba0:	003e0601 	eorseq	r0, lr, r1, lsl #12
    1ba4:	21010402 	tstcs	r1, r2, lsl #8
    1ba8:	1b050204 	blne	1423c0 <__exidx_end+0x14137c>
    1bac:	01040200 	mrseq	r0, R12_usr
    1bb0:	0101db03 	tsteq	r1, r3, lsl #22
    1bb4:	02000305 	andeq	r0, r0, #335544320	@ 0x14000000
    1bb8:	02140104 	andseq	r0, r4, #4, 2
    1bbc:	01010005 	tsteq	r1, r5
    1bc0:	05000105 	streq	r0, [r0, #-261]	@ 0xfffffefb
    1bc4:	000cc002 	andeq	ip, ip, r2
    1bc8:	012b0300 			@ <UNDEFINED> instruction: 0x012b0300
    1bcc:	14130505 	ldrne	r0, [r3], #-1285	@ 0xfffffafb
    1bd0:	55060105 	strpl	r0, [r6, #-261]	@ 0xfffffefb
    1bd4:	05280905 	streq	r0, [r8, #-2309]!	@ 0xfffff6fb
    1bd8:	02003705 	andeq	r3, r0, #1310720	@ 0x140000
    1bdc:	22060104 	andcs	r0, r6, #4, 2
    1be0:	02000905 	andeq	r0, r0, #81920	@ 0x14000
    1be4:	00150104 	andseq	r0, r5, r4, lsl #2
    1be8:	01010402 	tsteq	r1, r2, lsl #8
    1bec:	01040200 	mrseq	r0, R12_usr
    1bf0:	04020001 	streq	r0, [r2], #-1
    1bf4:	02002e01 	andeq	r2, r0, #1, 28
    1bf8:	002e0104 	eoreq	r0, lr, r4, lsl #2
    1bfc:	4a010402 	bmi	42c0c <__exidx_end+0x41bc8>
    1c00:	01040200 	mrseq	r0, R12_usr
    1c04:	0402002e 	streq	r0, [r2], #-46	@ 0xffffffd2
    1c08:	02002e01 	andeq	r2, r0, #1, 28
    1c0c:	2e060104 	adfcss	f0, f6, f4
    1c10:	01040200 	mrseq	r0, R12_usr
    1c14:	0b050106 	bleq	142034 <__exidx_end+0x140ff0>
    1c18:	01040200 	mrseq	r0, R12_usr
    1c1c:	0006020f 	andeq	r0, r6, pc, lsl #4
    1c20:	04c90101 	strbeq	r0, [r9], #257	@ 0x101
    1c24:	00030000 	andeq	r0, r3, r0
    1c28:	0000005d 	andeq	r0, r0, sp, asr r0
    1c2c:	0efb0102 	cdpeq	1, 15, cr0, cr11, cr2, {0}
    1c30:	0101000d 	tsteq	r1, sp
    1c34:	00000101 	andeq	r0, r0, r1, lsl #2
    1c38:	00000100 	andeq	r0, r0, r0, lsl #2
    1c3c:	63725301 	cmnvs	r2, #67108864	@ 0x4000000
    1c40:	636e4900 	cmnvs	lr, #0, 18
    1c44:	746b0000 	strbtvc	r0, [fp], #-0
    1c48:	72656d69 	rsbvc	r6, r5, #6720	@ 0x1a40
    1c4c:	0100632e 	tsteq	r0, lr, lsr #6
    1c50:	686b0000 	stmdavs	fp!, {}^	@ <UNPREDICTABLE>
    1c54:	682e6c61 	stmdavs	lr!, {r0, r5, r6, sl, fp, sp, lr}
    1c58:	00000200 	andeq	r0, r0, r0, lsl #4
    1c5c:	6665646b 	strbtvs	r6, [r5], -fp, ror #8
    1c60:	00682e73 	rsbeq	r2, r8, r3, ror lr
    1c64:	6b000002 	blvs	1c74 <__exidx_end+0xc30>
    1c68:	736a626f 	cmnvc	sl, #-268435450	@ 0xf0000006
    1c6c:	0200682e 	andeq	r6, r0, #3014656	@ 0x2e0000
    1c70:	736b0000 	cmnvc	fp, #0
    1c74:	682e6863 	stmdavs	lr!, {r0, r1, r5, r6, fp, sp, lr}
    1c78:	00000200 	andeq	r0, r0, r0, lsl #4
    1c7c:	6d69746b 	cfstrdvs	mvd7, [r9, #-428]!	@ 0xfffffe54
    1c80:	682e7265 	stmdavs	lr!, {r0, r2, r5, r6, r9, ip, sp, lr}
    1c84:	00000200 	andeq	r0, r0, r0, lsl #4
    1c88:	00020500 	andeq	r0, r2, r0, lsl #10
    1c8c:	00000205 	andeq	r0, r0, r5, lsl #4
    1c90:	1b030000 	blne	c1c98 <__exidx_end+0xc0c54>
    1c94:	13060501 	movwne	r0, #25857	@ 0x6501
    1c98:	13060205 	movwne	r0, #25093	@ 0x6205
    1c9c:	01000602 	tsteq	r0, r2, lsl #12
    1ca0:	00020501 	andeq	r0, r2, r1, lsl #10
    1ca4:	00000205 	andeq	r0, r0, r5, lsl #4
    1ca8:	23030000 	movwcs	r0, #12288	@ 0x3000
    1cac:	13060501 	movwne	r0, #25857	@ 0x6501
    1cb0:	01061005 	tsteq	r6, r5
    1cb4:	052e0905 	streq	r0, [lr, #-2309]!	@ 0xfffff6fb
    1cb8:	0530060a 	ldreq	r0, [r0, #-1546]!	@ 0xfffff9f6
    1cbc:	0501061f 	streq	r0, [r1, #-1567]	@ 0xfffff9e1
    1cc0:	04020013 	streq	r0, [r2], #-19	@ 0xffffffed
    1cc4:	0d052201 	sfmeq	f2, 4, [r5, #-4]
    1cc8:	01040200 	mrseq	r0, R12_usr
    1ccc:	02052006 	andeq	r2, r5, #6
    1cd0:	04023106 	streq	r3, [r2], #-262	@ 0xfffffefa
    1cd4:	05010100 	streq	r0, [r1, #-256]	@ 0xffffff00
    1cd8:	02050002 	andeq	r0, r5, #2
    1cdc:	00000cfc 	strdeq	r0, [r0], -ip
    1ce0:	0101b003 	tsteq	r1, r3
    1ce4:	05140605 	ldreq	r0, [r4, #-1541]	@ 0xfffff9fb
    1ce8:	05100602 	ldreq	r0, [r0, #-1538]	@ 0xfffff9fe
    1cec:	06052209 	streq	r2, [r5], -r9, lsl #4
    1cf0:	09053006 	stmdbeq	r5, {r1, r2, ip, sp}
    1cf4:	06050106 	streq	r0, [r5], -r6, lsl #2
    1cf8:	16053106 	strne	r3, [r5], -r6, lsl #2
    1cfc:	06050106 	streq	r0, [r5], -r6, lsl #2
    1d00:	09054b06 	stmdbeq	r5, {r1, r2, r8, r9, fp, lr}
    1d04:	19051a06 	stmdbne	r5, {r1, r2, r9, fp, ip}
    1d08:	05207903 	streq	r7, [r0, #-2307]!	@ 0xfffff6fd
    1d0c:	052f0606 	streq	r0, [pc, #-1542]!	@ 170e <__exidx_end+0x6ca>
    1d10:	05180609 	ldreq	r0, [r8, #-1545]	@ 0xfffff9f7
    1d14:	06051b1b 			@ <UNDEFINED> instruction: 0x06051b1b
    1d18:	14133006 	ldrne	r3, [r3], #-6
    1d1c:	01060905 	tsteq	r6, r5, lsl #18
    1d20:	22060a05 	andcs	r0, r6, #20480	@ 0x5000
    1d24:	01061b05 	tsteq	r6, r5, lsl #22
    1d28:	2f060a05 	svccs	0x00060a05
    1d2c:	01210514 			@ <UNDEFINED> instruction: 0x01210514
    1d30:	02002b05 	andeq	r2, r0, #5120	@ 0x1400
    1d34:	20060104 	andcs	r0, r6, r4, lsl #2
    1d38:	02004005 	andeq	r4, r0, #5
    1d3c:	05200104 	streq	r0, [r0, #-260]!	@ 0xfffffefc
    1d40:	04020021 	streq	r0, [r2], #-33	@ 0xffffffdf
    1d44:	02002001 	andeq	r2, r0, #1
    1d48:	052e0104 	streq	r0, [lr, #-260]!	@ 0xfffffefc
    1d4c:	2903060a 	stmdbcs	r3, {r1, r3, r9, sl}
    1d50:	061f0501 	ldreq	r0, [pc], -r1, lsl #10
    1d54:	060a0501 	streq	r0, [sl], -r1, lsl #10
    1d58:	060d0521 	streq	r0, [sp], -r1, lsr #10
    1d5c:	060e0501 	streq	r0, [lr], -r1, lsl #10
    1d60:	061d0522 	ldreq	r0, [sp], -r2, lsr #10
    1d64:	060e0501 	streq	r0, [lr], -r1, lsl #10
    1d68:	062c054b 	strteq	r0, [ip], -fp, asr #10
    1d6c:	20230501 	eorcs	r0, r3, r1, lsl #10
    1d70:	21060e05 	tstcs	r6, r5, lsl #28
    1d74:	01061f05 	tsteq	r6, r5, lsl #30
    1d78:	27060a05 	strcs	r0, [r6, -r5, lsl #20]
    1d7c:	01060d05 	tsteq	r6, r5, lsl #26
    1d80:	22060e05 	andcs	r0, r6, #5, 28	@ 0x50
    1d84:	01062105 	tsteq	r6, r5, lsl #2
    1d88:	060e052e 	streq	r0, [lr], -lr, lsr #10
    1d8c:	05014b03 	streq	r4, [r1, #-2819]	@ 0xfffff4fd
    1d90:	05010621 	streq	r0, [r1, #-1569]	@ 0xfffff9df
    1d94:	21052216 	tstcs	r5, r6, lsl r2
    1d98:	060e051e 			@ <UNDEFINED> instruction: 0x060e051e
    1d9c:	16051321 	strne	r1, [r5], -r1, lsr #6
    1da0:	0e050106 	adfeqs	f0, f5, f6
    1da4:	2e150306 	cdpcs	3, 1, cr0, cr5, cr6, {0}
    1da8:	01061f05 	tsteq	r6, r5, lsl #30
    1dac:	030d0520 	movweq	r0, #54560	@ 0xd520
    1db0:	02050125 	andeq	r0, r5, #1073741833	@ 0x40000009
    1db4:	060a0521 	streq	r0, [sl], -r1, lsr #10
    1db8:	05206003 	streq	r6, [r0, #-3]!
    1dbc:	0501061b 	streq	r0, [r1, #-1563]	@ 0xfffff9e5
    1dc0:	142f060a 	strtne	r0, [pc], #-1546	@ 1dc8 <__exidx_end+0xd84>
    1dc4:	05012105 	streq	r2, [r1, #-261]	@ 0xfffffefb
    1dc8:	0402002b 	streq	r0, [r2], #-43	@ 0xffffffd5
    1dcc:	052e0601 	streq	r0, [lr, #-1537]!	@ 0xfffff9ff
    1dd0:	04020040 	streq	r0, [r2], #-64	@ 0xffffffc0
    1dd4:	21052001 	tstcs	r5, r1
    1dd8:	01040200 	mrseq	r0, R12_usr
    1ddc:	060e0520 	streq	r0, [lr], -r0, lsr #10
    1de0:	06210530 			@ <UNDEFINED> instruction: 0x06210530
    1de4:	22160501 	andscs	r0, r6, #4194304	@ 0x400000
    1de8:	051e2105 	ldreq	r2, [lr, #-261]	@ 0xfffffefb
    1dec:	1321060e 			@ <UNDEFINED> instruction: 0x1321060e
    1df0:	01061605 	tsteq	r6, r5, lsl #12
    1df4:	060e0520 	streq	r0, [lr], -r0, lsr #10
    1df8:	05200c03 	streq	r0, [r0, #-3075]!	@ 0xfffff3fd
    1dfc:	2e010623 	cfmadd32cs	mvax1, mvfx0, mvfx1, mvfx3
    1e00:	bc031105 	stflts	f1, [r3], {5}
    1e04:	222e017f 	eorcs	r0, lr, #-1073741793	@ 0xc000001f
    1e08:	0007022e 	andeq	r0, r7, lr, lsr #4
    1e0c:	02050101 	andeq	r0, r5, #1073741824	@ 0x40000000
    1e10:	88020500 	stmdahi	r2, {r8, sl}
    1e14:	0300000d 	movweq	r0, #13
    1e18:	050100eb 	streq	r0, [r1, #-235]	@ 0xffffff15
    1e1c:	05131306 	ldreq	r1, [r3, #-774]	@ 0xfffffcfa
    1e20:	20100602 	andscs	r0, r0, r2, lsl #12
    1e24:	05220605 	streq	r0, [r2, #-1541]!	@ 0xfffff9fb
    1e28:	06053010 			@ <UNDEFINED> instruction: 0x06053010
    1e2c:	1c100524 	cfldr32ne	mvfx0, [r0], {36}	@ 0x24
    1e30:	03240605 			@ <UNDEFINED> instruction: 0x03240605
    1e34:	2206207a 	andcs	r2, r6, #122	@ 0x7a
    1e38:	05140a05 	ldreq	r0, [r4, #-2565]	@ 0xfffff5fb
    1e3c:	22061406 	andcs	r1, r6, #100663296	@ 0x6000000
    1e40:	1420061e 	strtne	r0, [r0], #-1566	@ 0xfffff9e2
    1e44:	2f062e06 	svccs	0x00062e06
    1e48:	15051306 	strne	r1, [r5, #-774]	@ 0xfffffcfa
    1e4c:	0606051f 			@ <UNDEFINED> instruction: 0x0606051f
    1e50:	2f2e4a21 	svccs	0x002e4a21
    1e54:	21060205 	tstcs	r6, r5, lsl #4
    1e58:	2e2d0605 	cfmadda32cs	mvax0, mvax0, mvfx13, mvfx5
    1e5c:	01000502 	tsteq	r0, r2, lsl #10
    1e60:	00020501 	andeq	r0, r2, r1, lsl #10
    1e64:	0dd00205 	lfmeq	f0, 2, [r0, #20]
    1e68:	fe030000 	cdp2	0, 0, cr0, cr3, cr0, {0}
    1e6c:	06050100 	streq	r0, [r5], -r0, lsl #2
    1e70:	02051313 	andeq	r1, r5, #1275068416	@ 0x4c000000
    1e74:	052e1006 	streq	r1, [lr, #-6]!
    1e78:	062e2206 	strteq	r2, [lr], -r6, lsl #4
    1e7c:	09051321 	stmdbeq	r5, {r0, r5, r8, r9, ip}
    1e80:	06050106 	streq	r0, [r5], -r6, lsl #2
    1e84:	05132506 	ldreq	r2, [r3, #-1286]	@ 0xfffffafa
    1e88:	7f92030a 	svcvc	0x0092030a
    1e8c:	14060501 	strne	r0, [r6], #-1281	@ 0xfffffaff
    1e90:	03062305 	movweq	r2, #25349	@ 0x6305
    1e94:	050100ed 	streq	r0, [r1, #-237]	@ 0xffffff13
    1e98:	7f930315 	svcvc	0x00930315
    1e9c:	0323052e 			@ <UNDEFINED> instruction: 0x0323052e
    1ea0:	052000ed 	streq	r0, [r0, #-237]!	@ 0xffffff13
    1ea4:	7f930315 	svcvc	0x00930315
    1ea8:	0605202e 	streq	r2, [r5], -lr, lsr #32
    1eac:	00ed0306 	rsceq	r0, sp, r6, lsl #6
    1eb0:	060e0501 	streq	r0, [lr], -r1, lsl #10
    1eb4:	06060501 	streq	r0, [r6], -r1, lsl #10
    1eb8:	06090530 			@ <UNDEFINED> instruction: 0x06090530
    1ebc:	060a0501 	streq	r0, [sl], -r1, lsl #10
    1ec0:	06170530 			@ <UNDEFINED> instruction: 0x06170530
    1ec4:	06060501 	streq	r0, [r6], -r1, lsl #10
    1ec8:	0a051424 	beq	146f60 <__exidx_end+0x145f1c>
    1ecc:	05200614 	streq	r0, [r0, #-1556]!	@ 0xfffff9ec
    1ed0:	0a053010 	beq	14df18 <__exidx_end+0x14ced4>
    1ed4:	222e061e 	eorcs	r0, lr, #31457280	@ 0x1e00000
    1ed8:	01061005 	tsteq	r6, r5
    1edc:	060a052e 	streq	r0, [sl], -lr, lsr #10
    1ee0:	060d052f 	streq	r0, [sp], -pc, lsr #10
    1ee4:	0e052001 	cdpeq	0, 0, cr2, cr5, cr1, {0}
    1ee8:	13062206 	movwne	r2, #25094	@ 0x6206
    1eec:	051f1d05 	ldreq	r1, [pc, #-3333]	@ 11ef <__exidx_end+0x1ab>
    1ef0:	4a2f060e 	bmi	bc3730 <__exidx_end+0xbc26ec>
    1ef4:	0306052e 	movweq	r0, #25902	@ 0x652e
    1ef8:	05143c76 	ldreq	r3, [r4, #-3190]	@ 0xfffff38a
    1efc:	05010609 	streq	r0, [r1, #-1545]	@ 0xfffff9f7
    1f00:	11030606 	tstne	r3, r6, lsl #12
    1f04:	061b0520 	ldreq	r0, [fp], -r0, lsr #10
    1f08:	06060501 	streq	r0, [r6], -r1, lsl #10
    1f0c:	2f3d2f4c 	svccs	0x003d2f4c
    1f10:	13060205 	movwne	r0, #25093	@ 0x6205
    1f14:	5a030d05 	bpl	c5330 <__exidx_end+0xc42ec>
    1f18:	08022e3c 	stmdaeq	r2, {r2, r3, r4, r5, r9, sl, fp, sp}
    1f1c:	05010100 	streq	r0, [r1, #-256]	@ 0xffffff00
    1f20:	02050002 	andeq	r0, r5, #2
    1f24:	00000e58 	andeq	r0, r0, r8, asr lr
    1f28:	01028903 	tsteq	r2, r3, lsl #18
    1f2c:	05130605 	ldreq	r0, [r3, #-1541]	@ 0xfffff9fb
    1f30:	05110602 	ldreq	r0, [r1, #-1538]	@ 0xfffff9fe
    1f34:	18052309 	stmdane	r5, {r0, r3, r8, r9, sp}
    1f38:	3009051e 	andcc	r0, r9, lr, lsl r5
    1f3c:	051e0e05 	ldreq	r0, [lr, #-3589]	@ 0xfffff1fb
    1f40:	05220606 	streq	r0, [r2, #-1542]!	@ 0xfffff9fa
    1f44:	05010609 	streq	r0, [r1, #-1545]	@ 0xfffff9f7
    1f48:	0522060a 	streq	r0, [r2, #-1546]!	@ 0xfffff9f6
    1f4c:	20010617 	andcs	r0, r1, r7, lsl r6
    1f50:	3d060a05 	vstrcc	s0, [r6, #-20]	@ 0xffffffec
    1f54:	01060d05 	tsteq	r6, r5, lsl #26
    1f58:	22060e05 	andcs	r0, r6, #5, 28	@ 0x50
    1f5c:	01061305 	tsteq	r6, r5, lsl #6
    1f60:	05203005 	streq	r3, [r0, #-5]!
    1f64:	1d052013 	stcne	0, cr2, [r5, #-76]	@ 0xffffffb4
    1f68:	20130520 	andscs	r0, r3, r0, lsr #10
    1f6c:	054a1105 	strbeq	r1, [sl, #-261]	@ 0xfffffefb
    1f70:	05220612 	streq	r0, [r2, #-1554]!	@ 0xfffff9ee
    1f74:	05010619 	streq	r0, [r1, #-1561]	@ 0xfffff9e7
    1f78:	12052023 	andne	r2, r5, #35	@ 0x23
    1f7c:	22052106 	andcs	r2, r5, #-2147483647	@ 0x80000001
    1f80:	12050106 	andne	r0, r5, #-2147483647	@ 0x80000001
    1f84:	33052106 	movwcc	r2, #20742	@ 0x5106
    1f88:	12050106 	andne	r0, r5, #-2147483647	@ 0x80000001
    1f8c:	37052106 	strcc	r2, [r5, -r6, lsl #2]
    1f90:	15050106 	strne	r0, [r5, #-262]	@ 0xfffffefa
    1f94:	03020523 	movweq	r0, #9507	@ 0x2523
    1f98:	06052019 			@ <UNDEFINED> instruction: 0x06052019
    1f9c:	2e6a0306 	cdpcs	3, 6, cr0, cr10, cr6, {0}
    1fa0:	01061105 	tsteq	r6, r5, lsl #2
    1fa4:	05200905 	streq	r0, [r0, #-2309]!	@ 0xfffff6fb
    1fa8:	053e060a 	ldreq	r0, [lr, #-1546]!	@ 0xfffff9f6
    1fac:	0501060f 	streq	r0, [r1, #-1551]	@ 0xfffff9f1
    1fb0:	0f052019 	svceq	0x00052019
    1fb4:	580d0520 	stmdapl	sp, {r5, r8, sl}
    1fb8:	22060e05 	andcs	r0, r6, #5, 28	@ 0x50
    1fbc:	13061e05 	movwne	r1, #28165	@ 0x6e05
    1fc0:	051f1505 	ldreq	r1, [pc, #-1285]	@ 1ac3 <__exidx_end+0xa7f>
    1fc4:	0e05201f 	mcreq	0, 0, r2, cr5, cr15, {0}
    1fc8:	1e052106 	adfnes	f2, f5, f6
    1fcc:	0e050106 	adfeqs	f0, f5, f6
    1fd0:	2f052106 	svccs	0x00052106
    1fd4:	0e050106 	adfeqs	f0, f5, f6
    1fd8:	15052106 	strne	r2, [r5, #-262]	@ 0xfffffefa
    1fdc:	06050106 	streq	r0, [r5], -r6, lsl #2
    1fe0:	11052406 	tstne	r5, r6, lsl #8
    1fe4:	09050106 	stmdbeq	r5, {r1, r2, r8}
    1fe8:	030d0520 	movweq	r0, #54560	@ 0xd520
    1fec:	0a053c0a 	beq	15101c <__exidx_end+0x14ffd8>
    1ff0:	3c780306 	ldclcc	3, cr0, [r8], #-24	@ 0xffffffe8
    1ff4:	01060f05 	tsteq	r6, r5, lsl #30
    1ff8:	05201905 	streq	r1, [r0, #-2309]!	@ 0xfffff6fb
    1ffc:	0d05200f 	stceq	0, cr2, [r5, #-60]	@ 0xffffffc4
    2000:	060e0558 			@ <UNDEFINED> instruction: 0x060e0558
    2004:	061f0530 			@ <UNDEFINED> instruction: 0x061f0530
    2008:	20150501 	andscs	r0, r5, r1, lsl #10
    200c:	05201f05 	streq	r1, [r0, #-3845]!	@ 0xfffff0fb
    2010:	0221060e 	eoreq	r0, r1, #14680064	@ 0xe00000
    2014:	01010004 	tsteq	r1, r4
    2018:	05000205 	streq	r0, [r0, #-517]	@ 0xfffffdfb
    201c:	000ee402 	andeq	lr, lr, r2, lsl #8
    2020:	02ce0300 	sbceq	r0, lr, #0, 6
    2024:	13060501 	movwne	r0, #25857	@ 0x6501
    2028:	11060205 	tstne	r6, r5, lsl #4
    202c:	05210905 	streq	r0, [r1, #-2309]!	@ 0xfffff6fb
    2030:	05230606 	streq	r0, [r3, #-1542]!	@ 0xfffff9fa
    2034:	0501060e 	streq	r0, [r1, #-1550]	@ 0xfffff9f2
    2038:	1f052009 	svcne	0x00052009
    203c:	2f270522 	svccs	0x00270522
    2040:	1f060a05 	svcne	0x00060a05
    2044:	01061f05 	tsteq	r6, r5, lsl #30
    2048:	2f060a05 	svccs	0x00060a05
    204c:	01062105 	tsteq	r6, r5, lsl #2
    2050:	23060605 	movwcs	r0, #26117	@ 0x6605
    2054:	01060e05 	tsteq	r6, r5, lsl #28
    2058:	05200905 	streq	r0, [r0, #-2309]!	@ 0xfffff6fb
    205c:	0605261d 			@ <UNDEFINED> instruction: 0x0605261d
    2060:	14052306 	strne	r2, [r5], #-774	@ 0xfffffcfa
    2064:	05210106 	streq	r0, [r1, #-262]!	@ 0xfffffefa
    2068:	0a052f02 	beq	14dc78 <__exidx_end+0x14cc34>
    206c:	1d051b06 	vstrne	d1, [r5, #-24]	@ 0xffffffe8
    2070:	05020106 	streq	r0, [r2, #-262]	@ 0xfffffefa
    2074:	05010100 	streq	r0, [r1, #-256]	@ 0xffffff00
    2078:	02050002 	andeq	r0, r5, #2
    207c:	00000f10 	andeq	r0, r0, r0, lsl pc
    2080:	0102b703 	tsteq	r2, r3, lsl #14
    2084:	14130605 	ldrne	r0, [r3], #-1541	@ 0xfffff9fb
    2088:	0f060205 	svceq	0x00060205
    208c:	05231c05 	streq	r1, [r3, #-3077]!	@ 0xfffff3fb
    2090:	0a053c09 	beq	1510bc <__exidx_end+0x150078>
    2094:	1c052206 	sfmne	f2, 4, [r5], {6}
    2098:	24050106 	strcs	r0, [r5], #-262	@ 0xfffffefa
    209c:	29020520 	stmdbcs	r2, {r5, r8, sl}
    20a0:	0b030f05 	bleq	c5cbc <__exidx_end+0xc4c78>
    20a4:	0628052e 	strteq	r0, [r8], -lr, lsr #10
    20a8:	0620051e 			@ <UNDEFINED> instruction: 0x0620051e
    20ac:	20280501 	eorcs	r0, r8, r1, lsl #10
    20b0:	02003d05 	andeq	r3, r0, #320	@ 0x140
    20b4:	05200104 	streq	r0, [r0, #-260]!	@ 0xfffffefc
    20b8:	04020028 	streq	r0, [r2], #-40	@ 0xffffffd8
    20bc:	06052001 	streq	r2, [r5], -r1
    20c0:	200b0306 	andcs	r0, fp, r6, lsl #6
    20c4:	01061205 	tsteq	r6, r5, lsl #4
    20c8:	053d0205 	ldreq	r0, [sp, #-517]!	@ 0xfffffdfb
    20cc:	7603060a 	strvc	r0, [r3], -sl, lsl #12
    20d0:	06230520 	strteq	r0, [r3], -r0, lsr #10
    20d4:	1e0f0514 	mcrne	5, 0, r0, cr15, cr4, {0}
    20d8:	22060a05 	andcs	r0, r6, #20480	@ 0x5000
    20dc:	01061d05 	tsteq	r6, r5, lsl #26
    20e0:	21060a05 	tstcs	r6, r5, lsl #20
    20e4:	06100530 			@ <UNDEFINED> instruction: 0x06100530
    20e8:	05023c01 	streq	r3, [r2, #-3073]	@ 0xfffff3ff
    20ec:	6e010100 	adfvss	f0, f1, f0
    20f0:	03000000 	movweq	r0, #0
    20f4:	00003700 	andeq	r3, r0, r0, lsl #14
    20f8:	fb010200 	blx	42902 <__exidx_end+0x418be>
    20fc:	01000d0e 	tsteq	r0, lr, lsl #26
    2100:	00010101 	andeq	r0, r1, r1, lsl #2
    2104:	00010000 	andeq	r0, r1, r0
    2108:	72530100 	subsvc	r0, r3, #0, 2
    210c:	6e490063 	cdpvs	0, 4, cr0, cr9, cr3, {3}
    2110:	6b000063 	blvs	22a4 <__exidx_end+0x1260>
    2114:	73726576 	cmnvc	r2, #494927872	@ 0x1d800000
    2118:	2e6e6f69 	cdpcs	15, 6, cr6, cr14, cr9, {3}
    211c:	00010063 	andeq	r0, r1, r3, rrx
    2120:	65766b00 	ldrbvs	r6, [r6, #-2816]!	@ 0xfffff500
    2124:	6f697372 	svcvs	0x00697372
    2128:	00682e6e 	rsbeq	r2, r8, lr, ror #28
    212c:	00000002 	andeq	r0, r0, r2
    2130:	05000105 	streq	r0, [r0, #-261]	@ 0xfffffefb
    2134:	000f5002 	andeq	r5, pc, r2
    2138:	01190300 	tsteq	r9, r0, lsl #6
    213c:	14130205 	ldrne	r0, [r3], #-517	@ 0xfffffdfb
    2140:	13060105 	movwne	r0, #24837	@ 0x6105
    2144:	01000302 	tsteq	r0, r2, lsl #6
    2148:	00010501 	andeq	r0, r1, r1, lsl #10
    214c:	00000205 	andeq	r0, r0, r5, lsl #4
    2150:	20030000 	andcs	r0, r3, r0
    2154:	13020501 	movwne	r0, #9473	@ 0x2501
    2158:	13060105 	movwne	r0, #24837	@ 0x6105
    215c:	01000202 	tsteq	r0, r2, lsl #4
    2160:	00006801 	andeq	r6, r0, r1, lsl #16
    2164:	3a000300 	bcc	2d6c <__exidx_end+0x1d28>
    2168:	02000000 	andeq	r0, r0, #0
    216c:	0d0efb01 	vstreq	d15, [lr, #-4]
    2170:	01010100 	mrseq	r0, (UNDEF: 17)
    2174:	00000001 	andeq	r0, r0, r1
    2178:	01000001 	tsteq	r0, r1
    217c:	00637253 	rsbeq	r7, r3, r3, asr r2
    2180:	00636e49 	rsbeq	r6, r3, r9, asr #28
    2184:	72656b00 	rsbvc	r6, r5, #0, 22
    2188:	00632e72 	rsbeq	r2, r3, r2, ror lr
    218c:	6b000001 	blvs	2198 <__exidx_end+0x1154>
    2190:	73666564 	cmnvc	r6, #100, 10	@ 0x19000000
    2194:	0200682e 	andeq	r6, r0, #3014656	@ 0x2e0000
    2198:	656b0000 	strbvs	r0, [fp, #-0]!
    219c:	682e7272 	stmdavs	lr!, {r1, r4, r5, r6, r9, ip, sp, lr}
    21a0:	00000200 	andeq	r0, r0, r0, lsl #4
    21a4:	00010500 	andeq	r0, r1, r0, lsl #10
    21a8:	0f580205 	svceq	0x00580205
    21ac:	33030000 	movwcc	r0, #12288	@ 0x3000
    21b0:	15050501 	strne	r0, [r5, #-1281]	@ 0xfffffaff
    21b4:	01060d05 	tsteq	r6, r5, lsl #26
    21b8:	2f060505 	svccs	0x00060505
    21bc:	01040200 	mrseq	r0, R12_usr
    21c0:	000b0521 	andeq	r0, fp, r1, lsr #10
    21c4:	01010402 	tsteq	r1, r2, lsl #8
    21c8:	01000302 	tsteq	r0, r2, lsl #6
    21cc:	Address 0x21cc is out of bounds.


Disassembly of section .debug_str:

00000000 <.debug_str>:
   0:	496a626f 	stmdbmi	sl!, {r0, r1, r2, r3, r5, r6, r9, sp, lr}^
   4:	75720044 	ldrbvc	r0, [r2, #-68]!	@ 0xffffffbc
   8:	436f546e 	cmnmi	pc, #1845493760	@ 0x6e000000
   c:	6c706d6f 	ldclvs	13, cr6, [r0], #-444	@ 0xfffffe44
  10:	73552f00 	cmpvc	r5, #0, 30
  14:	2f737265 	svccs	0x00737265
  18:	6f746e61 	svcvs	0x00746e61
  1c:	2f6f696e 	svccs	0x006f696e
  20:	75636f44 	strbvc	r6, [r3, #-3908]!	@ 0xfffff0bc
  24:	746e656d 	strbtvc	r6, [lr], #-1389	@ 0xfffffa93
  28:	69472f73 	stmdbvs	r7, {r0, r1, r4, r5, r6, r8, r9, sl, fp, sp}^
  2c:	62754874 	rsbsvs	r4, r5, #116, 16	@ 0x740000
  30:	304b522f 	subcc	r5, fp, pc, lsr #4
  34:	52415500 	subpl	r5, r1, #0, 10
  38:	445f3054 	ldrbmi	r3, [pc], #-84	@ 40 <STICK_ON+0x31>
  3c:	506e0052 	rsbpl	r0, lr, r2, asr r0
  40:	6d656572 	cfstr64vs	mvdx6, [r5, #-456]!	@ 0xfffffe38
  44:	64657470 	strbtvs	r7, [r5], #-1136	@ 0xfffffb90
  48:	69616d00 	stmdbvs	r1!, {r8, sl, fp, sp, lr}^
  4c:	7274506c 	rsbsvc	r5, r4, #108	@ 0x6c
  50:	73617400 	cmnvc	r1, #0, 8
  54:	6148326b 	cmpvs	r8, fp, ror #4
  58:	656c646e 	strbvs	r6, [ip, #-1134]!	@ 0xfffffb92
  5c:	696e6900 	stmdbvs	lr!, {r8, fp, sp, lr}^
  60:	69730074 	ldmdbvs	r3!, {r2, r4, r5, r6}^
  64:	6c616e67 	stclvs	14, cr6, [r1], #-412	@ 0xfffffe64
  68:	0064656c 	rsbeq	r6, r4, ip, ror #10
  6c:	676e6f6c 	strbvs	r6, [lr, -ip, ror #30]!
  70:	6e6f6c20 	cdpvs	12, 6, cr6, cr15, cr0, {1}
  74:	6e752067 	cdpvs	0, 7, cr2, cr5, cr7, {3}
  78:	6e676973 			@ <UNDEFINED> instruction: 0x6e676973
  7c:	69206465 	stmdbvs	r0!, {r0, r2, r5, r6, sl, sp, lr}
  80:	5200746e 	andpl	r7, r0, #1845493760	@ 0x6e000000
  84:	52455f4b 	subpl	r5, r5, #300	@ 0x12c
  88:	44410052 	strbmi	r0, [r1], #-82	@ 0xffffffae
  8c:	6c005244 	sfmvs	f5, 4, [r0], {68}	@ 0x44
  90:	20676e6f 	rsbcs	r6, r7, pc, ror #28
  94:	676e6f6c 	strbvs	r6, [lr, -ip, ror #30]!
  98:	746e6920 	strbtvc	r6, [lr], #-2336	@ 0xfffff6e0
  9c:	5f4b5200 	svcpl	0x004b5200
  a0:	4b434954 	blmi	10d25f8 <__exidx_end+0x10d15b4>
  a4:	5f4b5200 	svcpl	0x004b5200
  a8:	5453494c 	ldrbpl	r4, [r3], #-2380	@ 0xfffff6b4
  ac:	69617700 	stmdbvs	r1!, {r8, r9, sl, ip, sp, lr}^
  b0:	676e6974 			@ <UNDEFINED> instruction: 0x676e6974
  b4:	75657551 	strbvc	r7, [r5, #-1361]!	@ 0xfffffaaf
  b8:	506b0065 	rsbpl	r0, fp, r5, rrx
  bc:	00637475 	rsbeq	r7, r3, r5, ror r4
  c0:	7478656e 	ldrbtvc	r6, [r8], #-1390	@ 0xfffffa92
  c4:	00727450 	rsbseq	r7, r2, r0, asr r4
  c8:	6b736174 	blvs	1cd86a0 <__exidx_end+0x1cd765c>
  cc:	656d614e 	strbvs	r6, [sp, #-334]!	@ 0xfffffeb2
  d0:	69546b00 	ldmdbvs	r4, {r8, r9, fp, sp, lr}^
  d4:	756f656d 	strbvc	r6, [pc, #-1389]!	@ fffffb6f <SCB_ICSR+0x1fff0e6b>
  d8:	646f4e74 	strbtvs	r4, [pc], #-3700	@ e0 <SysTick_Handler+0x14>
  dc:	65720065 	ldrbvs	r0, [r2, #-101]!	@ 0xffffff9b
  e0:	6b007663 	blvs	1da74 <__exidx_end+0x1ca30>
  e4:	73747550 	cmnvc	r4, #80, 10	@ 0x14000000
  e8:	73756200 	cmnvc	r5, #0, 4
  ec:	69615779 	stmdbvs	r1!, {r0, r3, r4, r5, r6, r8, r9, sl, ip, lr}^
  f0:	6d695474 	cfstrdvs	mvd5, [r9, #-464]!	@ 0xfffffe30
  f4:	696c0065 	stmdbvs	ip!, {r0, r2, r5, r6}^
  f8:	75447473 	strbvc	r7, [r4, #-1139]	@ 0xfffffb8d
  fc:	00796d6d 	rsbseq	r6, r9, sp, ror #26
 100:	73694c6b 	cmnvc	r9, #27392	@ 0x6b00
 104:	646f4e74 	strbtvs	r4, [pc], #-3700	@ 10c <FAULT_SVC+0xd>
 108:	536b0065 	cmnpl	fp, #101	@ 0x65
 10c:	7065656c 	rsbvc	r6, r5, ip, ror #10
 110:	69746e55 	ldmdbvs	r4!, {r0, r2, r4, r6, r9, sl, fp, sp, lr}^
 114:	506b006c 	rsbpl	r0, fp, ip, rrx
 118:	00646e65 	rsbeq	r6, r4, r5, ror #28
 11c:	544e4955 	strbpl	r4, [lr], #-2389	@ 0xfffff6ab
 120:	6d697400 	cfstrdvs	mvd7, [r9, #-0]
 124:	74756f65 	ldrbtvc	r6, [r5], #-3941	@ 0xfffff09b
 128:	62637400 	rsbvs	r7, r3, #0, 8
 12c:	65646f4e 	strbvs	r6, [r4, #-3918]!	@ 0xfffff0b2
 130:	7a697300 	bvc	1a5cd38 <__exidx_end+0x1a5bcf4>
 134:	68730065 	ldmdavs	r3!, {r0, r2, r5, r6}^
 138:	2074726f 	rsbscs	r7, r4, pc, ror #4
 13c:	69736e75 	ldmdbvs	r3!, {r0, r2, r4, r5, r6, r9, sl, fp, sp, lr}^
 140:	64656e67 	strbtvs	r6, [r5], #-3687	@ 0xfffff199
 144:	746e6920 	strbtvc	r6, [lr], #-2336	@ 0xfffff6e0
 148:	554e4700 	strbpl	r4, [lr, #-1792]	@ 0xfffff900
 14c:	37314320 	ldrcc	r4, [r1, -r0, lsr #6]!
 150:	2e323120 	rsfcssp	f3, f2, f0
 154:	20312e33 	eorscs	r2, r1, r3, lsr lr
 158:	33323032 	teqcc	r2, #50	@ 0x32
 15c:	36323630 			@ <UNDEFINED> instruction: 0x36323630
 160:	636d2d20 	cmnvs	sp, #32, 26	@ 0x800
 164:	633d7570 	teqvs	sp, #112, 10	@ 0x1c000000
 168:	6574726f 	ldrbvs	r7, [r4, #-623]!	@ 0xfffffd91
 16c:	336d2d78 	cmncc	sp, #120, 26	@ 0x1e00
 170:	746d2d20 	strbtvc	r2, [sp], #-3360	@ 0xfffff2e0
 174:	626d7568 	rsbvs	r7, sp, #104, 10	@ 0x1a000000
 178:	666d2d20 	strbtvs	r2, [sp], -r0, lsr #26
 17c:	74616f6c 	strbtvc	r6, [r1], #-3948	@ 0xfffff094
 180:	6962612d 	stmdbvs	r2!, {r0, r2, r3, r5, r8, sp, lr}^
 184:	666f733d 			@ <UNDEFINED> instruction: 0x666f733d
 188:	6d2d2074 	stcvs	0, cr2, [sp, #-464]!	@ 0xfffffe30
 18c:	68637261 	stmdavs	r3!, {r0, r5, r6, r9, ip, sp, lr}^
 190:	6d72613d 	ldfvse	f6, [r2, #-244]!	@ 0xffffff0c
 194:	6d2d3776 	stcvs	7, cr3, [sp, #-472]!	@ 0xfffffe28
 198:	20672d20 	rsbcs	r2, r7, r0, lsr #26
 19c:	20734f2d 	rsbscs	r4, r3, sp, lsr #30
 1a0:	7566662d 	strbvc	r6, [r6, #-1581]!	@ 0xfffff9d3
 1a4:	6974636e 	ldmdbvs	r4!, {r1, r2, r3, r5, r6, r8, r9, sp, lr}^
 1a8:	732d6e6f 			@ <UNDEFINED> instruction: 0x732d6e6f
 1ac:	69746365 	ldmdbvs	r4!, {r0, r2, r5, r6, r8, r9, sp, lr}^
 1b0:	20736e6f 	rsbscs	r6, r3, pc, ror #28
 1b4:	6164662d 	cmnvs	r4, sp, lsr #12
 1b8:	732d6174 			@ <UNDEFINED> instruction: 0x732d6174
 1bc:	69746365 	ldmdbvs	r4!, {r0, r2, r5, r6, r8, r9, sp, lr}^
 1c0:	00736e6f 	rsbseq	r6, r3, pc, ror #28
 1c4:	435f4b52 	cmpmi	pc, #83968	@ 0x14800
 1c8:	5f45524f 	svcpl	0x0045524f
 1cc:	54535953 	ldrbpl	r5, [r3], #-2387	@ 0xfffff6ad
 1d0:	5f4b4349 	svcpl	0x004b4349
 1d4:	45505954 	ldrbmi	r5, [r0, #-2388]	@ 0xfffff6ac
 1d8:	73696c00 	cmnvc	r9, #0, 24
 1dc:	6d614e74 	stclvs	14, cr4, [r1, #-464]!	@ 0xfffffe30
 1e0:	69740065 	ldmdbvs	r4!, {r0, r2, r5, r6}^
 1e4:	754f656d 	strbvc	r6, [pc, #-1389]	@ fffffc7f <SCB_ICSR+0x1fff0f7b>
 1e8:	72700074 	rsbsvc	r0, r0, #116	@ 0x74
 1ec:	69726f69 	ldmdbvs	r2!, {r0, r3, r5, r6, r8, r9, sl, fp, sp, lr}^
 1f0:	73007974 	movwvc	r7, #2420	@ 0x974
 1f4:	64657661 	strbtvs	r7, [r5], #-1633	@ 0xfffff99f
 1f8:	5600524c 	strpl	r5, [r0], -ip, asr #4
 1fc:	0044494f 	subeq	r4, r4, pc, asr #18
 200:	4c4f4f42 	mcrrmi	15, 4, r4, pc, cr2
 204:	6d697400 	cfstrdvs	mvd7, [r9, #-0]
 208:	74756f65 	ldrbtvc	r6, [r5], #-3941	@ 0xfffff09b
 20c:	65646f4e 	strbvs	r6, [r4, #-3918]!	@ 0xfffff0b2
 210:	61747300 	cmnvs	r4, r0, lsl #6
 214:	00316b63 	eorseq	r6, r1, r3, ror #22
 218:	44414f4c 	strbmi	r4, [r1], #-3916	@ 0xfffff0b4
 21c:	61747300 	cmnvs	r4, r0, lsl #6
 220:	00336b63 	eorseq	r6, r3, r3, ror #22
 224:	676e6f6c 	strbvs	r6, [lr, -ip, ror #30]!
 228:	756f6420 	strbvc	r6, [pc, #-1056]!	@ fffffe10 <SCB_ICSR+0x1fff110c>
 22c:	00656c62 	rsbeq	r6, r5, r2, ror #24
 230:	74696177 	strbtvc	r6, [r9], #-375	@ 0xfffffe89
 234:	51676e69 	cmnpl	r7, r9, ror #28
 238:	65756575 	ldrbvs	r6, [r5, #-1397]!	@ 0xfffffa8b
 23c:	00727450 	rsbseq	r7, r2, r0, asr r4
 240:	6773656d 	ldrbvs	r6, [r3, -sp, ror #10]!
 244:	73617400 	cmnvc	r1, #0, 8
 248:	6148316b 	cmpvs	r8, fp, ror #2
 24c:	656c646e 	strbvs	r6, [ip, #-1134]!	@ 0xfffffb92
 250:	73616c00 	cmnvc	r1, #0, 24
 254:	6b615774 	blvs	185602c <__exidx_end+0x1854fe8>
 258:	6d695465 	cfstrdvs	mvd5, [r9, #-404]!	@ 0xfffffe6c
 25c:	69740065 	ldmdbvs	r4!, {r0, r2, r5, r6}^
 260:	756f656d 	strbvc	r6, [pc, #-1389]!	@ fffffcfb <SCB_ICSR+0x1fff0ff7>
 264:	70795474 	rsbsvc	r5, r9, r4, ror r4
 268:	61740065 	cmnvs	r4, r5, rrx
 26c:	48336b73 	ldmdami	r3!, {r0, r1, r4, r5, r6, r8, r9, fp, sp, lr}
 270:	6c646e61 	stclvs	14, cr6, [r4], #-388	@ 0xfffffe7c
 274:	626d0065 	rsbvs	r0, sp, #101	@ 0x65
 278:	5500786f 	strpl	r7, [r0, #-2159]	@ 0xfffff791
 27c:	474e4f4c 	strbmi	r4, [lr, -ip, asr #30]
 280:	6e776f00 	cdpvs	15, 7, cr6, cr7, cr0, {0}
 284:	61547265 	cmpvs	r4, r5, ror #4
 288:	6b006b73 	blvs	1b05c <__exidx_end+0x1a018>
 28c:	786f624d 	stmdavc	pc!, {r0, r2, r3, r6, r9, sp, lr}^	@ <UNPREDICTABLE>
 290:	74696e49 	strbtvc	r6, [r9], #-3657	@ 0xfffff1b7
 294:	6c536b00 	mrrcvs	11, 0, r6, r3, cr0
 298:	00706565 	rsbseq	r6, r0, r5, ror #10
 29c:	69736e75 	ldmdbvs	r3!, {r0, r2, r4, r5, r6, r9, sl, fp, sp, lr}^
 2a0:	64656e67 	strbtvs	r6, [r5], #-3687	@ 0xfffff199
 2a4:	61686320 	cmnvs	r8, r0, lsr #6
 2a8:	4b520072 	blmi	1480478 <__exidx_end+0x147f434>
 2ac:	424f4b5f 	submi	r4, pc, #97280	@ 0x17c00
 2b0:	44495f4a 	strbmi	r5, [r9], #-3914	@ 0xfffff0b6
 2b4:	6f687300 	svcvs	0x00687300
 2b8:	69207472 	stmdbvs	r0!, {r1, r4, r5, r6, sl, ip, sp, lr}
 2bc:	7000746e 	andvc	r7, r0, lr, ror #8
 2c0:	6d656572 	cfstr64vs	mvdx6, [r5, #-456]!	@ 0xfffffe38
 2c4:	64657470 	strbtvs	r7, [r5], #-1136	@ 0xfffffb90
 2c8:	73007942 	movwvc	r7, #2370	@ 0x942
 2cc:	6b636174 	blvs	18d88a4 <__exidx_end+0x18d7860>
 2d0:	72646441 	rsbvc	r6, r4, #1090519040	@ 0x41000000
 2d4:	00727450 	rsbseq	r7, r2, r0, asr r4
 2d8:	73694c6b 	cmnvc	r9, #27392	@ 0x6b00
 2dc:	4d6b0074 	stclmi	0, cr0, [fp, #-464]!	@ 0xfffffe30
 2e0:	50786f62 	rsbspl	r6, r8, r2, ror #30
 2e4:	0074736f 	rsbseq	r7, r4, pc, ror #6
 2e8:	545f4b52 	ldrbpl	r4, [pc], #-2898	@ 2f0 <Reset_Handler+0x14>
 2ec:	5f4b5341 	svcpl	0x004b5341
 2f0:	444e4148 	strbmi	r4, [lr], #-328	@ 0xfffffeb8
 2f4:	6b00454c 	blvs	1182c <__exidx_end+0x107e8>
 2f8:	00626354 	rsbeq	r6, r2, r4, asr r3
 2fc:	505f4b52 	subspl	r4, pc, r2, asr fp	@ <UNPREDICTABLE>
 300:	004f4952 	subeq	r4, pc, r2, asr r9	@ <UNPREDICTABLE>
 304:	63617473 	cmnvs	r1, #1929379840	@ 0x73000000
 308:	7a69536b 	bvc	1a550bc <__exidx_end+0x1a54078>
 30c:	74640065 	strbtvc	r0, [r4], #-101	@ 0xffffff9b
 310:	006b6369 	rsbeq	r6, fp, r9, ror #6
 314:	52414843 	subpl	r4, r1, #4390912	@ 0x430000
 318:	5f4b5200 	svcpl	0x004b5200
 31c:	584f424d 	stmdapl	pc, {r0, r2, r3, r6, r9, lr}^	@ <UNPREDICTABLE>
 320:	61747300 	cmnvs	r4, r0, lsl #6
 324:	00326b63 	eorseq	r6, r2, r3, ror #22
 328:	7070416b 	rsbsvc	r4, r0, fp, ror #2
 32c:	6163696c 	cmnvs	r3, ip, ror #18
 330:	6e6f6974 			@ <UNDEFINED> instruction: 0x6e6f6974
 334:	74696e49 	strbtvc	r6, [r9], #-3657	@ 0xfffff1b7
 338:	52544300 	subspl	r4, r4, #0, 6
 33c:	6572004c 	ldrbvs	r0, [r2, #-76]!	@ 0xffffffb4
 340:	74507663 	ldrbvc	r7, [r0], #-1635	@ 0xfffff99d
 344:	41430072 	hvcmi	12290	@ 0x3002
 348:	0042494c 	subeq	r4, r2, ip, asr #18
 34c:	76657270 			@ <UNDEFINED> instruction: 0x76657270
 350:	00727450 	rsbseq	r7, r2, r0, asr r4
 354:	74617473 	strbtvc	r7, [r1], #-1139	@ 0xfffffb8d
 358:	72007375 	andvc	r7, r0, #-738197503	@ 0xd4000001
 35c:	6e436e75 	mcrvs	14, 2, r6, cr3, cr5, {3}
 360:	4d6b0074 	stclmi	0, cr0, [fp, #-464]!	@ 0xfffffe30
 364:	626c6961 	rsbvs	r6, ip, #1589248	@ 0x184000
 368:	5200786f 	andpl	r7, r0, #7274496	@ 0x6f0000
 36c:	49505f4b 	ldmdbmi	r0, {r0, r1, r3, r6, r8, r9, sl, fp, ip, lr}^
 370:	61540044 	cmpvs	r4, r4, asr #32
 374:	00316b73 	eorseq	r6, r1, r3, ror fp
 378:	6b736154 	blvs	1cd88d0 <__exidx_end+0x1cd788c>
 37c:	61540032 	cmpvs	r4, r2, lsr r0
 380:	00336b73 	eorseq	r6, r3, r3, ror fp
 384:	73677261 	cmnvc	r7, #268435462	@ 0x10000006
 388:	69616d00 	stmdbvs	r1!, {r8, sl, fp, sp, lr}^
 38c:	7061006c 	rsbvc	r0, r1, ip, rrx
 390:	72532f70 	subsvc	r2, r3, #112, 30	@ 0x1c0
 394:	70612f63 	rsbvc	r2, r1, r3, ror #30
 398:	63696c70 	cmnvs	r9, #112, 24	@ 0x7000
 39c:	6f697461 	svcvs	0x00697461
 3a0:	00632e6e 	rsbeq	r2, r3, lr, ror #28
 3a4:	545f4b52 	ldrbpl	r4, [pc], #-2898	@ 3ac <kMboxInit+0x38>
 3a8:	5f4b5341 	svcpl	0x004b5341
 3ac:	54415453 	strbpl	r5, [r1], #-1107	@ 0xfffffbad
 3b0:	6b005355 	blvs	1510c <__exidx_end+0x140c8>
 3b4:	786f624d 	stmdavc	pc!, {r0, r2, r3, r6, r9, sp, lr}^	@ <UNPREDICTABLE>
 3b8:	646e6550 	strbtvs	r6, [lr], #-1360	@ 0xfffffab0
 3bc:	69616d00 	stmdbvs	r1!, {r8, sl, fp, sp, lr}^
 3c0:	436b006e 	cmnmi	fp, #110	@ 0x6e
 3c4:	5365726f 	cmnpl	r5, #-268435450	@ 0xf0000006
 3c8:	6e497465 	cdpvs	4, 4, cr7, cr9, cr5, {3}
 3cc:	72726574 	rsbsvc	r6, r2, #116, 10	@ 0x1d000000
 3d0:	50747075 	rsbspl	r7, r4, r5, ror r0
 3d4:	726f6972 	rsbvc	r6, pc, #1867776	@ 0x1c8000
 3d8:	00797469 	rsbseq	r7, r9, r9, ror #8
 3dc:	726f436b 	rsbvc	r4, pc, #-1409286143	@ 0xac000001
 3e0:	73795365 	cmnvc	r9, #-1811939327	@ 0x94000001
 3e4:	6b636954 	blvs	18da93c <__exidx_end+0x18d98f8>
 3e8:	666e6f43 	strbtvs	r6, [lr], -r3, asr #30
 3ec:	6d006769 	stcvs	7, cr6, [r0, #-420]	@ 0xfffffe5c
 3f0:	2e6e6961 	vnmulcs.f16	s13, s28, s3	@ <UNPREDICTABLE>
 3f4:	4b520063 	blmi	1480588 <__exidx_end+0x147f544>
 3f8:	5341545f 	movtpl	r5, #5215	@ 0x145f
 3fc:	544e454b 	strbpl	r4, [lr], #-1355	@ 0xfffffab5
 400:	6b005952 	blvs	16950 <__exidx_end+0x1590c>
 404:	74696e49 	strbtvc	r6, [r9], #-3657	@ 0xfffff1b7
 408:	72436b00 	subvc	r6, r3, #0, 22
 40c:	65746165 	ldrbvs	r6, [r4, #-357]!	@ 0xfffffe9b
 410:	6b736154 	blvs	1cd8968 <__exidx_end+0x1cd7924>
 414:	64735f00 	ldrbtvs	r5, [r3], #-3840	@ 0xfffff100
 418:	00617461 	rsbeq	r7, r1, r1, ror #8
 41c:	7362735f 	cmnvc	r2, #2080374785	@ 0x7c000001
 420:	655f0073 	ldrbvs	r0, [pc, #-115]	@ 3b5 <kMboxInit+0x41>
 424:	00737362 	rsbseq	r7, r3, r2, ror #6
 428:	65736552 	ldrbvs	r6, [r3, #-1362]!	@ 0xfffffaae
 42c:	61485f74 	hvcvs	34292	@ 0x85f4
 430:	656c646e 	strbvs	r6, [ip, #-1134]!	@ 0xfffffb92
 434:	79530072 	ldmdbvc	r3, {r1, r4, r5, r6}^
 438:	63695473 	cmnvs	r9, #1929379840	@ 0x73000000
 43c:	61485f6b 	cmpvs	r8, fp, ror #30
 440:	656c646e 	strbvs	r6, [ip, #-1134]!	@ 0xfffffb92
 444:	5f670072 	svcpl	0x00670072
 448:	566e6670 			@ <UNDEFINED> instruction: 0x566e6670
 44c:	6f746365 	svcvs	0x00746365
 450:	70007372 	andvc	r7, r0, r2, ror r3
 454:	74736544 	ldrbtvc	r6, [r3], #-1348	@ 0xfffffabc
 458:	64655f00 	strbtvs	r5, [r5], #-3840	@ 0xfffff100
 45c:	00617461 	rsbeq	r7, r1, r1, ror #8
 460:	6469735f 	strbtvs	r7, [r9], #-863	@ 0xfffffca1
 464:	00617461 	rsbeq	r7, r1, r1, ror #8
 468:	75625f5f 	strbvc	r5, [r2, #-3935]!	@ 0xfffff0a1
 46c:	69746c69 	ldmdbvs	r4!, {r0, r3, r5, r6, sl, fp, sp, lr}^
 470:	656d5f6e 	strbvs	r5, [sp, #-3950]!	@ 0xfffff092
 474:	7465736d 	strbtvc	r7, [r5], #-877	@ 0xfffffc93
 478:	755f5f00 	ldrbvc	r5, [pc, #-3840]	@ fffff580 <SCB_ICSR+0x1fff087c>
 47c:	33746e69 	cmncc	r4, #1680	@ 0x690
 480:	00745f32 	rsbseq	r5, r4, r2, lsr pc
 484:	75625f5f 	strbvc	r5, [r2, #-3935]!	@ 0xfffff0a1
 488:	69746c69 	ldmdbvs	r4!, {r0, r3, r5, r6, sl, fp, sp, lr}^
 48c:	656d5f6e 	strbvs	r5, [sp, #-3950]!	@ 0xfffff092
 490:	7970636d 	ldmdbvc	r0!, {r0, r2, r3, r5, r6, r8, r9, sp, lr}^
 494:	66654400 	strbtvs	r4, [r5], -r0, lsl #8
 498:	746c7561 	strbtvc	r7, [ip], #-1377	@ 0xfffffa9f
 49c:	6e61485f 	mcrvs	8, 3, r4, cr1, cr15, {2}
 4a0:	72656c64 	rsbvc	r6, r5, #100, 24	@ 0x6400
 4a4:	73795300 	cmnvc	r9, #0, 6
 4a8:	496d6574 	stmdbmi	sp!, {r2, r4, r5, r6, r8, sl, sp, lr}^
 4ac:	0074696e 	rsbseq	r6, r4, lr, ror #18
 4b0:	5f435653 	svcpl	0x00435653
 4b4:	646e6148 	strbtvs	r6, [lr], #-328	@ 0xfffffeb8
 4b8:	0072656c 	rsbseq	r6, r2, ip, ror #10
 4bc:	646e6550 	strbtvs	r6, [lr], #-1360	@ 0xfffffab0
 4c0:	485f5653 	ldmdami	pc, {r0, r1, r4, r6, r9, sl, ip, lr}^	@ <UNPREDICTABLE>
 4c4:	6c646e61 	stclvs	14, cr6, [r4], #-388	@ 0xfffffe7c
 4c8:	73007265 	movwvc	r7, #613	@ 0x265
 4cc:	74726174 	ldrbtvc	r6, [r2], #-372	@ 0xfffffe8c
 4d0:	635f7075 	cmpvs	pc, #117	@ 0x75
 4d4:	6574726f 	ldrbvs	r7, [r4, #-623]!	@ 0xfffffd91
 4d8:	632e6d78 			@ <UNDEFINED> instruction: 0x632e6d78
 4dc:	72537000 	subsvc	r7, r3, #0
 4e0:	436b0063 	cmnmi	fp, #99	@ 0x63
 4e4:	4465726f 	strbtmi	r7, [r5], #-623	@ 0xfffffd91
 4e8:	62617369 	rsbvs	r7, r1, #-1543503871	@ 0xa4000001
 4ec:	6e49656c 	cdpvs	5, 4, cr6, cr9, cr12, {3}
 4f0:	72726574 	rsbsvc	r6, r2, #116, 10	@ 0x1d000000
 4f4:	00747075 	rsbseq	r7, r4, r5, ror r0
 4f8:	435f4b52 	cmpmi	pc, #83968	@ 0x14800
 4fc:	5f45524f 	svcpl	0x0045524f
 500:	4349564e 	movtmi	r5, #38478	@ 0x964e
 504:	5059545f 	subspl	r5, r9, pc, asr r4
 508:	43490045 	movtmi	r0, #36933	@ 0x9045
 50c:	6b005250 	blvs	14e54 <__exidx_end+0x13e10>
 510:	65726f43 	ldrbvs	r6, [r2, #-3907]!	@ 0xfffff0bd
 514:	50746553 	rsbspl	r6, r4, r3, asr r5
 518:	69646e65 	stmdbvs	r4!, {r0, r2, r5, r6, r9, sl, fp, sp, lr}^
 51c:	6e49676e 	cdpvs	7, 4, cr6, cr9, cr14, {3}
 520:	72726574 	rsbsvc	r6, r2, #116, 10	@ 0x1d000000
 524:	00747075 	rsbseq	r7, r4, r5, ror r0
 528:	53434853 	movtpl	r4, #14419	@ 0x3853
 52c:	436b0052 	cmnmi	fp, #82	@ 0x52
 530:	4565726f 	strbmi	r7, [r5, #-623]!	@ 0xfffffd91
 534:	6c62616e 	stfvse	f6, [r2], #-440	@ 0xfffffe48
 538:	746e4965 	strbtvc	r4, [lr], #-2405	@ 0xfffff69b
 53c:	75727265 	ldrbvc	r7, [r2, #-613]!	@ 0xfffffd9b
 540:	50007470 	andpl	r7, r0, r0, ror r4
 544:	726f6972 	rsbvc	r6, pc, #1867776	@ 0x1c8000
 548:	47797469 	ldrbmi	r7, [r9, -r9, ror #8]!
 54c:	70756f72 	rsbsvc	r6, r5, r2, ror pc
 550:	00706d54 	rsbseq	r6, r0, r4, asr sp
 554:	6b636974 	blvs	18dab2c <__exidx_end+0x18d9ae8>
 558:	54560073 	ldrbpl	r0, [r6], #-115	@ 0xffffff8d
 55c:	5200524f 	andpl	r5, r0, #-268435452	@ 0xf0000004
 560:	52455345 	subpl	r5, r5, #335544321	@ 0x14000001
 564:	30444556 	subcc	r4, r4, r6, asr r5
 568:	53455200 	movtpl	r5, #20992	@ 0x5200
 56c:	45565245 	ldrbmi	r5, [r6, #-581]	@ 0xfffffdbb
 570:	52003144 	andpl	r3, r0, #68, 2
 574:	52455345 	subpl	r5, r5, #335544321	@ 0x14000001
 578:	34444556 	strbcc	r4, [r4], #-1366	@ 0xfffffaaa
 57c:	53455200 	movtpl	r5, #20992	@ 0x5200
 580:	45565245 	ldrbmi	r5, [r6, #-581]	@ 0xfffffdbb
 584:	6b003544 	blvs	da9c <__exidx_end+0xca58>
 588:	65726f43 	ldrbvs	r6, [r2, #-3907]!	@ 0xfffff0bd
 58c:	50746547 	rsbspl	r6, r4, r7, asr #10
 590:	726f6972 	rsbvc	r6, pc, #1867776	@ 0x1c8000
 594:	47797469 	ldrbmi	r7, [r9, -r9, ror #8]!
 598:	70756f72 	rsbsvc	r6, r5, r2, ror pc
 59c:	00676e69 	rsbeq	r6, r7, r9, ror #28
 5a0:	52495453 	subpl	r5, r9, #1392508928	@ 0x53000000
 5a4:	6f436b00 	svcvs	0x00436b00
 5a8:	65476572 	strbvs	r6, [r7, #-1394]	@ 0xfffffa8e
 5ac:	746e4974 	strbtvc	r4, [lr], #-2420	@ 0xfffff68c
 5b0:	75727265 	ldrbvc	r7, [r2, #-613]!	@ 0xfffffd9b
 5b4:	72507470 	subsvc	r7, r0, #112, 8	@ 0x70000000
 5b8:	69726f69 	ldmdbvs	r2!, {r0, r3, r5, r6, r8, r9, sl, fp, sp, lr}^
 5bc:	43007974 	movwmi	r7, #2420	@ 0x974
 5c0:	00525346 	subseq	r5, r2, r6, asr #6
 5c4:	52534648 	subspl	r4, r3, #72, 12	@ 0x4800000
 5c8:	5f4b5200 	svcpl	0x004b5200
 5cc:	45524f43 	ldrbmi	r4, [r2, #-3907]	@ 0xfffff0bd
 5d0:	4243535f 	submi	r5, r3, #2080374785	@ 0x7c000001
 5d4:	5059545f 	subspl	r5, r9, pc, asr r4
 5d8:	53490045 	movtpl	r0, #36933	@ 0x9045
 5dc:	44005250 	strmi	r5, [r0], #-592	@ 0xfffffdb0
 5e0:	00525346 	subseq	r5, r2, r6, asr #6
 5e4:	52534349 	subspl	r4, r3, #603979777	@ 0x24000001
 5e8:	6f436b00 	svcvs	0x00436b00
 5ec:	65476572 	strbvs	r6, [r7, #-1394]	@ 0xfffffa8e
 5f0:	6e655074 	mcrvs	0, 3, r5, cr5, cr4, {3}
 5f4:	676e6964 	strbvs	r6, [lr, -r4, ror #18]!
 5f8:	65746e49 	ldrbvs	r6, [r4, #-3657]!	@ 0xfffff1b7
 5fc:	70757272 	rsbsvc	r7, r5, r2, ror r2
 600:	436b0074 	cmnmi	fp, #116	@ 0x74
 604:	4765726f 	strbmi	r7, [r5, -pc, ror #4]!
 608:	79537465 	ldmdbvc	r3, {r0, r2, r5, r6, sl, ip, sp, lr}^
 60c:	63695473 	cmnvs	r9, #1929379840	@ 0x73000000
 610:	6c61566b 	stclvs	6, cr5, [r1], #-428	@ 0xfffffe54
 614:	41006575 	tstmi	r0, r5, ror r5
 618:	52435249 	subpl	r5, r3, #-1879048188	@ 0x90000004
 61c:	41464200 	mrsmi	r4, (UNDEF: 102)
 620:	50430052 	subpl	r0, r3, r2, asr r0
 624:	00444955 	subeq	r4, r4, r5, asr r9
 628:	6f697270 	svcvs	0x00697270
 62c:	79746972 	ldmdbvc	r4!, {r1, r4, r5, r6, r8, fp, sp, lr}^
 630:	756f7247 	strbvc	r7, [pc, #-583]!	@ 3f1 <kMboxPost+0x2d>
 634:	65720070 	ldrbvs	r0, [r2, #-112]!	@ 0xffffff90
 638:	61765f67 	cmnvs	r6, r7, ror #30
 63c:	0065756c 	rsbeq	r7, r5, ip, ror #10
 640:	726f436b 	rsbvc	r4, pc, #-1409286143	@ 0xac000001
 644:	616e4565 	cmnvs	lr, r5, ror #10
 648:	46656c62 	strbtmi	r6, [r5], -r2, ror #24
 64c:	746c7561 	strbtvc	r7, [ip], #-1377	@ 0xfffffa9f
 650:	53490073 	movtpl	r0, #36979	@ 0x9073
 654:	4d005245 	sfmmi	f5, 4, [r0, #-276]	@ 0xfffffeec
 658:	5241464d 	subpl	r4, r1, #80740352	@ 0x4d00000
 65c:	6f436b00 	svcvs	0x00436b00
 660:	6c436572 	cfstr64vs	mvdx6, [r3], {114}	@ 0x72
 664:	50726165 	rsbspl	r6, r2, r5, ror #2
 668:	69646e65 	stmdbvs	r4!, {r0, r2, r5, r6, r9, sl, fp, sp, lr}^
 66c:	6e49676e 	cdpvs	7, 4, cr6, cr9, cr14, {3}
 670:	72726574 	rsbsvc	r6, r2, #116, 10	@ 0x1d000000
 674:	00747075 	rsbseq	r7, r4, r5, ror r0
 678:	2f637253 	svccs	0x00637253
 67c:	6c61686b 	stclvs	8, cr6, [r1], #-428	@ 0xfffffe54
 680:	6b00632e 	blvs	19340 <__exidx_end+0x182fc>
 684:	65726f43 	ldrbvs	r6, [r2, #-3907]!	@ 0xfffff0bd
 688:	50746553 	rsbspl	r6, r4, r3, asr r5
 68c:	726f6972 	rsbvc	r6, pc, #1867776	@ 0x1c8000
 690:	47797469 	ldrbmi	r7, [r9, -r9, ror #8]!
 694:	70756f72 	rsbsvc	r6, r5, r2, ror pc
 698:	00676e69 	rsbeq	r6, r7, r9, ror #28
 69c:	726f436b 	rsbvc	r4, pc, #-1409286143	@ 0xac000001
 6a0:	616e4565 	cmnvs	lr, r5, ror #10
 6a4:	53656c62 	cmnpl	r5, #25088	@ 0x6200
 6a8:	69547379 	ldmdbvs	r4, {r0, r3, r4, r5, r6, r8, r9, ip, sp, lr}^
 6ac:	6f436b63 	svcvs	0x00436b63
 6b0:	49006572 	stmdbmi	r0, {r1, r4, r5, r6, r8, sl, sp, lr}
 6b4:	00524543 	subseq	r4, r2, r3, asr #10
 6b8:	52424149 	subpl	r4, r2, #1073741842	@ 0x40000012
 6bc:	6f436b00 	svcvs	0x00436b00
 6c0:	69446572 	stmdbvs	r4, {r1, r4, r5, r6, r8, sl, sp, lr}^
 6c4:	6c626173 	stfvse	f6, [r2], #-460	@ 0xfffffe34
 6c8:	73795365 	cmnvc	r9, #-1811939327	@ 0x94000001
 6cc:	6b636954 	blvs	18dac24 <__exidx_end+0x18d9be0>
 6d0:	65726f43 	ldrbvs	r6, [r2, #-3907]!	@ 0xfffff0bd
 6d4:	53464100 	movtpl	r4, #24832	@ 0x6100
 6d8:	45520052 	ldrbmi	r0, [r2, #-82]	@ 0xffffffae
 6dc:	56524553 			@ <UNDEFINED> instruction: 0x56524553
 6e0:	00324445 	eorseq	r4, r2, r5, asr #8
 6e4:	6e515249 	cdpvs	2, 5, cr5, cr1, cr9, {2}
 6e8:	53455200 	movtpl	r5, #20992	@ 0x5200
 6ec:	45565245 	ldrbmi	r5, [r6, #-581]	@ 0xfffffdbb
 6f0:	73003344 	movwvc	r3, #836	@ 0x344
 6f4:	50646e65 	rsbpl	r6, r4, r5, ror #28
 6f8:	52007274 	andpl	r7, r0, #116, 4	@ 0x40000007
 6fc:	43545f4b 	cmpmi	r4, #300	@ 0x12c
 700:	72005142 	andvc	r5, r0, #-2147483632	@ 0x80000010
 704:	79646165 	stmdbvc	r4!, {r0, r2, r5, r6, r8, sp, lr}^
 708:	75657551 	strbvc	r7, [r5, #-1361]!	@ 0xfffffaaf
 70c:	456b0065 	strbmi	r0, [fp, #-101]!	@ 0xffffff9b
 710:	7265746e 	rsbvc	r7, r5, #1845493760	@ 0x6e000000
 714:	6b005243 	blvs	15028 <__exidx_end+0x13fe4>
 718:	53497349 	movtpl	r7, #37705	@ 0x9349
 71c:	72530052 	subsvc	r0, r3, #82	@ 0x52
 720:	6d6b2f63 	stclvs	15, cr2, [fp, #-396]!	@ 0xfffffe74
 724:	2e677365 	cdpcs	3, 6, cr7, cr7, cr5, {3}
 728:	75720063 	ldrbvc	r0, [r2, #-99]!	@ 0xffffff9d
 72c:	7274506e 	rsbsvc	r5, r4, #110	@ 0x6e
 730:	69546b00 	ldmdbvs	r4, {r8, r9, fp, sp, lr}^
 734:	754f656d 	strbvc	r6, [pc, #-1389]	@ 1cf <Task2+0x3>
 738:	546b0074 	strbtpl	r0, [fp], #-116	@ 0xffffff8c
 73c:	44514243 	ldrbmi	r4, [r1], #-579	@ 0xfffffdbd
 740:	6b007165 	blvs	1ccdc <__exidx_end+0x1bc98>
 744:	51424354 	cmppl	r2, r4, asr r3
 748:	00716e45 	rsbseq	r6, r1, r5, asr #28
 74c:	6b656570 	blvs	1959d14 <__exidx_end+0x1958cd0>
 750:	72745050 	rsbsvc	r5, r4, #80	@ 0x50
 754:	5f4b5200 	svcpl	0x004b5200
 758:	4c554146 	ldfmie	f4, [r5], {70}	@ 0x46
 75c:	4b520054 	blmi	14808b4 <__exidx_end+0x147f870>
 760:	4243545f 	submi	r5, r3, #1593835520	@ 0x5f000000
 764:	624d6b00 	subvs	r6, sp, #0, 22
 768:	6f50786f 	svcvs	0x0050786f
 76c:	764f7473 			@ <UNDEFINED> instruction: 0x764f7473
 770:	526b0077 	rsbpl	r0, fp, #119	@ 0x77
 774:	766f6d65 	strbtvc	r6, [pc], -r5, ror #26
 778:	6d695465 	cfstrdvs	mvd5, [r9, #-404]!	@ 0xfffffe6c
 77c:	74756f65 	ldrbtvc	r6, [r5], #-3941	@ 0xfffff09b
 780:	65646f4e 	strbvs	r6, [r4, #-3918]!	@ 0xfffff0b2
 784:	63657200 	cmnvs	r5, #0, 4
 788:	74505076 	ldrbvc	r5, [r0], #-118	@ 0xffffff8a
 78c:	456b0072 	strbmi	r0, [fp, #-114]!	@ 0xffffff8e
 790:	43746978 	cmnmi	r4, #120, 18	@ 0x1e0000
 794:	61740052 	cmnvs	r4, r2, asr r0
 798:	61486b73 	hvcvs	34483	@ 0x86b3
 79c:	656c646e 	strbvs	r6, [ip, #-1134]!	@ 0xfffffb92
 7a0:	5f4b5200 	svcpl	0x004b5200
 7a4:	454d4954 	strbmi	r4, [sp, #-2388]	@ 0xfffff6ac
 7a8:	5f54554f 	svcpl	0x0054554f
 7ac:	45444f4e 	strbmi	r4, [r4, #-3918]	@ 0xfffff0b2
 7b0:	696e6900 	stmdbvs	lr!, {r8, fp, sp, lr}^
 7b4:	69614d74 	stmdbvs	r1!, {r2, r4, r5, r6, r8, sl, fp, lr}^
 7b8:	7274506c 	rsbsvc	r5, r4, #108	@ 0x6c
 7bc:	694c6b00 	stmdbvs	ip, {r8, r9, fp, sp, lr}^
 7c0:	6e497473 	mcrvs	4, 2, r7, cr9, cr3, {3}
 7c4:	6b007469 	blvs	1d970 <__exidx_end+0x1c92c>
 7c8:	786f624d 	stmdavc	pc!, {r0, r2, r3, r6, r9, sp, lr}^	@ <UNPREDICTABLE>
 7cc:	72657551 	rsbvc	r7, r5, #339738624	@ 0x14400000
 7d0:	6f6b0079 	svcvs	0x006b0079
 7d4:	6c006a62 			@ <UNDEFINED> instruction: 0x6c006a62
 7d8:	65747369 	ldrbvs	r7, [r4, #-873]!	@ 0xfffffc97
 7dc:	69007272 	stmdbvs	r0, {r1, r4, r5, r6, r9, ip, sp, lr}
 7e0:	5f727370 	svcpl	0x00727370
 7e4:	756c6176 	strbvc	r6, [ip, #-374]!	@ 0xfffffe8a
 7e8:	4d6b0065 	stclmi	0, cr0, [fp, #-404]!	@ 0xfffffe6c
 7ec:	50786f62 	rsbspl	r6, r8, r2, ror #30
 7f0:	006b6565 	rsbeq	r6, fp, r5, ror #10
 7f4:	65657266 	strbvs	r7, [r5, #-614]!	@ 0xfffffd9a
 7f8:	74697257 	strbtvc	r7, [r9], #-599	@ 0xfffffda9
 7fc:	74507265 	ldrbvc	r7, [r0], #-613	@ 0xfffffd9b
 800:	72660072 	rsbvc	r0, r6, #114	@ 0x72
 804:	65526565 	ldrbvs	r6, [r2, #-1381]	@ 0xfffffa9b
 808:	74506461 	ldrbvc	r6, [r0], #-1121	@ 0xfffffb9f
 80c:	546b0072 	strbtpl	r0, [fp], #-114	@ 0xffffff8e
 810:	50514243 	subspl	r4, r1, r3, asr #4
 814:	006b6565 	rsbeq	r6, fp, r5, ror #10
 818:	74537263 	ldrbvc	r7, [r3], #-611	@ 0xfffffd9d
 81c:	5f657461 	svcpl	0x00657461
 820:	624d6b00 	subvs	r6, sp, #0, 22
 824:	6553786f 	ldrbvs	r7, [r3, #-2159]	@ 0xfffff791
 828:	6e774f74 	mrcvs	15, 3, r4, cr7, cr4, {3}
 82c:	6b007265 	blvs	1d1c8 <__exidx_end+0x1c184>
 830:	48727245 	ldmdami	r2!, {r0, r2, r6, r9, ip, sp, lr}^
 834:	6c646e61 	stclvs	14, cr6, [r4], #-388	@ 0xfffffe7c
 838:	6b007265 	blvs	1d1d4 <__exidx_end+0x1c190>
 83c:	73726576 	cmnvc	r2, #494927872	@ 0x1d800000
 840:	006e6f69 	rsbeq	r6, lr, r9, ror #30
 844:	73694c6b 	cmnvc	r9, #27392	@ 0x6b00
 848:	64644174 	strbtvs	r4, [r4], #-372	@ 0xfffffe8c
 84c:	6c696154 	stfvse	f6, [r9], #-336	@ 0xfffffeb0
 850:	72756300 	rsbsvc	r6, r5, #0, 6
 854:	62635472 	rsbvs	r5, r3, #1912602624	@ 0x72000000
 858:	00727450 	rsbseq	r7, r2, r0, asr r4
 85c:	64616572 	strbtvs	r6, [r1], #-1394	@ 0xfffffa8e
 860:	69425179 	stmdbvs	r2, {r0, r3, r4, r5, r6, r8, ip, lr}^
 864:	73614d74 	cmnvc	r1, #116, 26	@ 0x1d00
 868:	656e006b 	strbvs	r0, [lr, #-107]!	@ 0xffffff95
 86c:	646f4e77 	strbtvs	r4, [pc], #-3703	@ 874 <kCreateTask+0x8>
 870:	72745065 	rsbsvc	r5, r4, #101	@ 0x65
 874:	45564b00 	ldrbmi	r4, [r6, #-2816]	@ 0xfffff500
 878:	4f495352 	svcmi	0x00495352
 87c:	5f5f004e 	svcpl	0x005f004e
 880:	62616e65 	rsbvs	r6, r1, #1616	@ 0x650
 884:	695f656c 	ldmdbvs	pc, {r2, r3, r5, r6, r8, sl, sp, lr}^	@ <UNPREDICTABLE>
 888:	74007172 	strvc	r7, [r0], #-370	@ 0xfffffe8e
 88c:	74506263 	ldrbvc	r6, [r0], #-611	@ 0xfffffd9d
 890:	6b005f72 	blvs	18660 <__exidx_end+0x1761c>
 894:	74696e49 	strbtvc	r6, [r9], #-3657	@ 0xfffff1b7
 898:	546e7552 	strbtpl	r7, [lr], #-1362	@ 0xfffffaae
 89c:	5f656d69 	svcpl	0x00656d69
 8a0:	61486b00 	cmpvs	r8, r0, lsl #22
 8a4:	656c646e 	strbvs	r6, [ip, #-1134]!	@ 0xfffffb92
 8a8:	656d6954 	strbvs	r6, [sp, #-2388]!	@ 0xfffff6ac
 8ac:	4c74756f 	cfldr64mi	mvdx7, [r4], #-444	@ 0xfffffe44
 8b0:	00747369 	rsbseq	r7, r4, r9, ror #6
 8b4:	6165526b 	cmnvs	r5, fp, ror #4
 8b8:	74437964 	strbvc	r7, [r3], #-2404	@ 0xfffff69c
 8bc:	77537478 			@ <UNDEFINED> instruction: 0x77537478
 8c0:	00686374 	rsbeq	r6, r8, r4, ror r3
 8c4:	656c6469 	strbvs	r6, [ip, #-1129]!	@ 0xfffffb97
 8c8:	6b736154 	blvs	1cd8e20 <__exidx_end+0x1cd7ddc>
 8cc:	6f697250 	svcvs	0x00697250
 8d0:	69546b00 	ldmdbvs	r4, {r8, r9, fp, sp, lr}^
 8d4:	0072656d 	rsbseq	r6, r2, sp, ror #10
 8d8:	656c6449 	strbvs	r6, [ip, #-1097]!	@ 0xfffffbb7
 8dc:	6b736154 	blvs	1cd8e34 <__exidx_end+0x1cd7df0>
 8e0:	61436b00 	cmpvs	r3, r0, lsl #22
 8e4:	654e636c 	strbvs	r6, [lr, #-876]	@ 0xfffffc94
 8e8:	61547478 	cmpvs	r4, r8, ror r4
 8ec:	72506b73 	subsvc	r6, r0, #117760	@ 0x1cc00
 8f0:	005f6f69 	subseq	r6, pc, r9, ror #30
 8f4:	6b736174 	blvs	1cd8ecc <__exidx_end+0x1cd7e88>
 8f8:	636e7546 	cmnvs	lr, #293601280	@ 0x11800000
 8fc:	00727450 	rsbseq	r7, r2, r0, asr r4
 900:	73626374 	cmnvc	r2, #116, 6	@ 0xd0000001
 904:	6d697400 	cfstrdvs	mvd7, [r9, #-0]
 908:	74754f65 	ldrbtvc	r4, [r5], #-3941	@ 0xfffff09b
 90c:	6b736154 	blvs	1cd8e64 <__exidx_end+0x1cd7e20>
 910:	675f5f00 	ldrbvs	r5, [pc, -r0, lsl #30]
 914:	65527465 	ldrbvs	r7, [r2, #-1125]	@ 0xfffffb9b
 918:	50796461 	rsbspl	r6, r9, r1, ror #8
 91c:	006f6972 	rsbeq	r6, pc, r2, ror r9	@ <UNPREDICTABLE>
 920:	4e666572 	mcrmi	5, 3, r6, cr6, cr2, {3}
 924:	5065646f 	rsbpl	r6, r5, pc, ror #8
 928:	70007274 	andvc	r7, r0, r4, ror r2
 92c:	5f6f6972 	svcpl	0x006f6972
 930:	675f5f00 	ldrbvs	r5, [pc, -r0, lsl #30]
 934:	505f7465 	subspl	r7, pc, r5, ror #8
 938:	414d4952 	cmpmi	sp, r2, asr r9
 93c:	6b004b53 	blvs	13690 <__exidx_end+0x1264c>
 940:	74696e49 	strbtvc	r6, [r9], #-3657	@ 0xfffff1b7
 944:	5f626354 	svcpl	0x00626354
 948:	67696800 	strbvs	r6, [r9, -r0, lsl #16]!
 94c:	74736568 	ldrbtvc	r6, [r3], #-1384	@ 0xfffffa98
 950:	6f697250 	svcvs	0x00697250
 954:	694c6b00 	stmdbvs	ip, {r8, r9, fp, sp, lr}^
 958:	65527473 	ldrbvs	r7, [r2, #-1139]	@ 0xfffffb8d
 95c:	65766f6d 	ldrbvs	r6, [r6, #-3949]!	@ 0xfffff093
 960:	694c6b00 	stmdbvs	ip, {r8, r9, fp, sp, lr}^
 964:	6e497473 	mcrvs	4, 2, r7, cr9, cr3, {3}
 968:	74726573 	ldrbtvc	r6, [r2], #-1395	@ 0xfffffa8d
 96c:	65746641 	ldrbvs	r6, [r4, #-1601]!	@ 0xfffff9bf
 970:	72530072 	subsvc	r0, r3, #114	@ 0x72
 974:	736b2f63 	cmnvc	fp, #396	@ 0x18c
 978:	632e6863 			@ <UNDEFINED> instruction: 0x632e6863
 97c:	78656e00 	stmdavc	r5!, {r9, sl, fp, sp, lr}^
 980:	6e755274 	mrcvs	2, 3, r5, cr5, cr4, {3}
 984:	00727450 	rsbseq	r7, r2, r0, asr r4
 988:	6172576e 	cmnvs	r2, lr, ror #14
 98c:	6b007370 	blvs	1d754 <__exidx_end+0x1c710>
 990:	64616552 	strbtvs	r6, [r1], #-1362	@ 0xfffffaae
 994:	6e755279 	mrcvs	2, 3, r5, cr5, cr9, {3}
 998:	676e696e 	strbvs	r6, [lr, -lr, ror #18]!
 99c:	6b736154 	blvs	1cd8ef4 <__exidx_end+0x1cd7eb0>
 9a0:	6469005f 	strbtvs	r0, [r9], #-95	@ 0xffffffa1
 9a4:	7453656c 	ldrbvc	r6, [r3], #-1388	@ 0xfffffa94
 9a8:	006b6361 	rsbeq	r6, fp, r1, ror #6
 9ac:	72727563 	rsbsvc	r7, r2, #415236096	@ 0x18c00000
 9b0:	65646f4e 	strbvs	r6, [r4, #-3918]!	@ 0xfffff0b2
 9b4:	00727450 	rsbseq	r7, r2, r0, asr r4
 9b8:	72727563 	rsbsvc	r7, r2, #415236096	@ 0x18c00000
 9bc:	64616548 	strbtvs	r6, [r1], #-1352	@ 0xfffffab8
 9c0:	00727450 	rsbseq	r7, r2, r0, asr r4
 9c4:	656c6469 	strbvs	r6, [ip, #-1129]!	@ 0xfffffb97
 9c8:	6b736154 	blvs	1cd8f20 <__exidx_end+0x1cd7edc>
 9cc:	646e6148 	strbtvs	r6, [lr], #-328	@ 0xfffffeb8
 9d0:	6100656c 	tstvs	r0, ip, ror #10
 9d4:	50736772 	rsbspl	r6, r3, r2, ror r7
 9d8:	6d007274 	sfmvs	f7, 4, [r0, #-464]	@ 0xfffffe30
 9dc:	726f6e69 	rsbvc	r6, pc, #1680	@ 0x690
 9e0:	65526b00 	ldrbvs	r6, [r2, #-2816]	@ 0xfffff500
 9e4:	51796461 	cmnpl	r9, r1, ror #8
 9e8:	00716544 	rsbseq	r6, r1, r4, asr #10
 9ec:	76657270 			@ <UNDEFINED> instruction: 0x76657270
 9f0:	506e7552 	rsbpl	r7, lr, r2, asr r5
 9f4:	74007274 	strvc	r7, [r0], #-628	@ 0xfffffd8c
 9f8:	72656d69 	rsbvc	r6, r5, #6720	@ 0x1a40
 9fc:	7473694c 	ldrbtvc	r6, [r3], #-2380	@ 0xfffff6b4
 a00:	64616548 	strbtvs	r6, [r1], #-1352	@ 0xfffffab8
 a04:	00727450 	rsbseq	r7, r2, r0, asr r4
 a08:	4e6d6572 	mcrmi	5, 3, r6, cr13, cr2, {3}
 a0c:	5065646f 	rsbpl	r6, r5, pc, ror #8
 a10:	6b007274 	blvs	1d3e8 <__exidx_end+0x1c3a4>
 a14:	56746547 	ldrbtpl	r6, [r4], -r7, asr #10
 a18:	69737265 	ldmdbvs	r3!, {r0, r2, r5, r6, r9, ip, sp, lr}^
 a1c:	6b006e6f 	blvs	1c3e0 <__exidx_end+0x1b39c>
 a20:	7473694c 	ldrbtvc	r6, [r3], #-2380	@ 0xfffff6b4
 a24:	6f6d6552 	svcvs	0x006d6552
 a28:	65486576 	strbvs	r6, [r8, #-1398]	@ 0xfffffa8a
 a2c:	74006461 	strvc	r6, [r0], #-1121	@ 0xfffffb9f
 a30:	4f656d69 	svcmi	0x00656d69
 a34:	694c7475 	stmdbvs	ip, {r0, r2, r4, r5, r6, sl, ip, sp, lr}^
 a38:	65487473 	strbvs	r7, [r8, #-1139]	@ 0xfffffb8d
 a3c:	74506461 	ldrbvc	r6, [r0], #-1121	@ 0xfffffb9f
 a40:	72700072 	rsbsvc	r0, r0, #114	@ 0x72
 a44:	73614d69 	cmnvc	r1, #6720	@ 0x1a40
 a48:	7572006b 	ldrbvc	r0, [r2, #-107]!	@ 0xffffff95
 a4c:	6d69546e 	cfstrdvs	mvd5, [r9, #-440]!	@ 0xfffffe48
 a50:	6f6c0065 	svcvs	0x006c0065
 a54:	74736577 	ldrbtvc	r6, [r3], #-1399	@ 0xfffffa89
 a58:	6f697250 	svcvs	0x00697250
 a5c:	646f6e00 	strbtvs	r6, [pc], #-3584	@ a64 <kInit+0x3c>
 a60:	72745065 	rsbsvc	r5, r4, #101	@ 0x65
 a64:	63536b00 	cmpvs	r3, #0, 22
 a68:	74775368 	ldrbtvc	r5, [r7], #-872	@ 0xfffffc98
 a6c:	70006863 	andvc	r6, r0, r3, ror #16
 a70:	006f6972 	rsbeq	r6, pc, r2, ror r9	@ <UNPREDICTABLE>
 a74:	65735f5f 	ldrbvs	r5, [r3, #-3935]!	@ 0xfffff0a1
 a78:	52505f74 	subspl	r5, r0, #116, 30	@ 0x1d0
 a7c:	53414d49 	movtpl	r4, #7497	@ 0x1d49
 a80:	496b004b 	stmdbmi	fp!, {r0, r1, r3, r6}^
 a84:	5174696e 	cmnpl	r4, lr, ror #18
 a88:	65756575 	ldrbvs	r6, [r5, #-1397]!	@ 0xfffffa8b
 a8c:	74005f73 	strvc	r5, [r0], #-3955	@ 0xfffff08d
 a90:	486b7361 	stmdami	fp!, {r0, r5, r6, r8, r9, ip, sp, lr}^
 a94:	6c646e61 	stclvs	14, cr6, [r4], #-388	@ 0xfffffe7c
 a98:	72745065 	rsbsvc	r5, r4, #101	@ 0x65
 a9c:	43546b00 	cmpmi	r4, #0, 22
 aa0:	6e495142 	dvfvsem	f5, f1, f2
 aa4:	6b007469 	blvs	1dc50 <__exidx_end+0x1cc0c>
 aa8:	51424354 	cmppl	r2, r4, asr r3
 aac:	42716e45 	rsbsmi	r6, r1, #1104	@ 0x450
 ab0:	69725079 	ldmdbvs	r2!, {r0, r3, r4, r5, r6, ip, lr}^
 ab4:	496b006f 	stmdbmi	fp!, {r0, r1, r2, r3, r5, r6}^
 ab8:	5374696e 	cmnpl	r4, #1802240	@ 0x1b8000
 abc:	6b636174 	blvs	18d9094 <__exidx_end+0x18d8050>
 ac0:	6170005f 	cmnvs	r0, pc, asr r0
 ac4:	00686374 	rsbeq	r6, r8, r4, ror r3
 ac8:	74537263 	ldrbvc	r7, [r3], #-611	@ 0xfffffd9d
 acc:	00657461 	rsbeq	r7, r5, r1, ror #8
 ad0:	64695070 	strbtvs	r5, [r9], #-112	@ 0xffffff90
 ad4:	6d697400 	cfstrdvs	mvd7, [r9, #-0]
 ad8:	694c7265 	stmdbvs	ip, {r0, r2, r5, r6, r9, ip, sp, lr}^
 adc:	65487473 	strbvs	r7, [r8, #-1139]	@ 0xfffffb8d
 ae0:	74506461 	ldrbvc	r6, [r0], #-1121	@ 0xfffffb9f
 ae4:	76615372 			@ <UNDEFINED> instruction: 0x76615372
 ae8:	74006465 	strvc	r6, [r0], #-1125	@ 0xfffffb9b
 aec:	61546d69 	cmpvs	r4, r9, ror #26
 af0:	61486b73 	hvcvs	34483	@ 0x86b3
 af4:	656c646e 	strbvs	r6, [ip, #-1134]!	@ 0xfffffb92
 af8:	6d657200 	sfmvs	f7, 2, [r5, #-0]
 afc:	65646f4e 	strbvs	r6, [r4, #-3918]!	@ 0xfffff0b2
 b00:	72745050 	rsbsvc	r5, r4, #80	@ 0x50
 b04:	5f4b5200 	svcpl	0x004b5200
 b08:	454d4954 	strbmi	r4, [sp, #-2388]	@ 0xfffff6ac
 b0c:	546b0052 	strbtpl	r0, [fp], #-82	@ 0xffffffae
 b10:	52514243 	subspl	r4, r1, #805306372	@ 0x30000004
 b14:	74006d65 	strvc	r6, [r0], #-3429	@ 0xfffff29b
 b18:	72656d69 	rsbvc	r6, r5, #6720	@ 0x1a40
 b1c:	646e6148 	strbtvs	r6, [lr], #-328	@ 0xfffffeb8
 b20:	5372656c 	cmnpl	r2, #108, 10	@ 0x1b000000
 b24:	6b636174 	blvs	18d90fc <__exidx_end+0x18d80b8>
 b28:	67696800 	strbvs	r6, [r9, -r0, lsl #16]!
 b2c:	74736568 	ldrbtvc	r6, [r3], #-1384	@ 0xfffffa98
 b30:	64616552 	strbtvs	r6, [r1], #-1362	@ 0xfffffaae
 b34:	69725079 	ldmdbvs	r2!, {r0, r3, r4, r5, r6, ip, lr}^
 b38:	6954006f 	ldmdbvs	r4, {r0, r1, r2, r3, r5, r6}^
 b3c:	4872656d 	ldmdami	r2!, {r0, r2, r3, r5, r6, r8, sl, sp, lr}^
 b40:	6c646e61 	stclvs	14, cr6, [r4], #-388	@ 0xfffffe7c
 b44:	61547265 	cmpvs	r4, r5, ror #4
 b48:	52006b73 	andpl	r6, r0, #117760	@ 0x1cc00
 b4c:	4f4e5f4b 	svcmi	0x004e5f4b
 b50:	6b004544 	blvs	12068 <__exidx_end+0x11024>
 b54:	6b636954 	blvs	18db0ac <__exidx_end+0x18da068>
 b58:	646e6148 	strbtvs	r6, [lr], #-328	@ 0xfffffeb8
 b5c:	0072656c 	rsbseq	r6, r2, ip, ror #10
 b60:	50626374 	rsbpl	r6, r2, r4, ror r3
 b64:	6b007274 	blvs	1d53c <__exidx_end+0x1c4f8>
 b68:	6c656959 			@ <UNDEFINED> instruction: 0x6c656959
 b6c:	63740064 	cmnvs	r4, #100	@ 0x64
 b70:	74505062 	ldrbvc	r5, [r0], #-98	@ 0xffffff9e
 b74:	65680072 	strbvs	r0, [r8, #-114]!	@ 0xffffff8e
 b78:	69546461 	ldmdbvs	r4, {r0, r5, r6, sl, sp, lr}^
 b7c:	7274506d 	rsbsvc	r5, r4, #109	@ 0x6d
 b80:	71656400 	cmnvc	r5, r0, lsl #8
 b84:	65756575 	ldrbvs	r6, [r5, #-1397]!	@ 0xfffffa8b
 b88:	646f4e64 	strbtvs	r4, [pc], #-3684	@ b90 <kTickHandler+0x10>
 b8c:	72745065 	rsbsvc	r5, r4, #101	@ 0x65
 b90:	75526b00 	ldrbvc	r6, [r2, #-2816]	@ 0xfffff500
 b94:	6d69546e 	cfstrdvs	mvd5, [r9, #-440]!	@ 0xfffffe48
 b98:	616d0065 	cmnvs	sp, r5, rrx
 b9c:	00726f6a 	rsbseq	r6, r2, sl, ror #30
 ba0:	626f6c67 	rsbvs	r6, pc, #26368	@ 0x6700
 ba4:	69546c61 	ldmdbvs	r4, {r0, r5, r6, sl, fp, sp, lr}^
 ba8:	72006b63 	andvc	r6, r0, #101376	@ 0x18c00
 bac:	6c757365 	ldclvs	3, cr7, [r5], #-404	@ 0xfffffe6c
 bb0:	656e0074 	strbvs	r0, [lr, #-116]!	@ 0xffffff8c
 bb4:	61547478 	cmpvs	r4, r8, ror r4
 bb8:	72506b73 	subsvc	r6, r0, #117760	@ 0x1cc00
 bbc:	72006f69 	andvc	r6, r0, #420	@ 0x1a4
 bc0:	79646165 	stmdbvc	r4!, {r0, r2, r5, r6, r8, sp, lr}^
 bc4:	67695251 			@ <UNDEFINED> instruction: 0x67695251
 bc8:	614d7468 	cmpvs	sp, r8, ror #8
 bcc:	53006b73 	movwpl	r6, #2931	@ 0xb73
 bd0:	6b2f6372 	blvs	bd99a0 <__exidx_end+0xbd895c>
 bd4:	636e7973 	cmnvs	lr, #1884160	@ 0x1cc000
 bd8:	00632e68 	rsbeq	r2, r3, r8, ror #28
 bdc:	6769536b 	strbvs	r5, [r9, -fp, ror #6]!
 be0:	006c616e 	rsbeq	r6, ip, lr, ror #2
 be4:	2f637253 	svccs	0x00637253
 be8:	7379736b 	cmnvc	r9, #-1409286143	@ 0xac000001
 bec:	6b736174 	blvs	1cd91c4 <__exidx_end+0x1cd8180>
 bf0:	00632e73 	rsbeq	r2, r3, r3, ror lr
 bf4:	656c6469 	strbvs	r6, [ip, #-1129]!	@ 0xfffffb97
 bf8:	6b636954 	blvs	18db150 <__exidx_end+0x18da10c>
 bfc:	5f5f0073 	svcpl	0x005f0073
 c00:	00425344 	subeq	r5, r2, r4, asr #6
 c04:	53495f5f 	movtpl	r5, #40799	@ 0x9f5f
 c08:	61740042 	cmnvs	r4, r2, asr #32
 c0c:	74506b73 	ldrbvc	r6, [r0], #-2931	@ 0xfffff48d
 c10:	65700072 	ldrbvs	r0, [r0, #-114]!	@ 0xffffff8e
 c14:	646f6972 	strbtvs	r6, [pc], #-2418	@ c1c <kPend+0x1c>
 c18:	72756300 	rsbsvc	r6, r5, #0, 6
 c1c:	72745072 	rsbsvc	r5, r4, #114	@ 0x72
 c20:	6d697400 	cfstrdvs	mvd7, [r9, #-0]
 c24:	74754f65 	ldrbtvc	r4, [r5], #-3941	@ 0xfffff09b
 c28:	65646f4e 	strbvs	r6, [r4, #-3918]!	@ 0xfffff0b2
 c2c:	78656e00 	stmdavc	r5!, {r9, sl, fp, sp, lr}^
 c30:	6b615774 	blvs	1856a08 <__exidx_end+0x18559c4>
 c34:	6d695465 	cfstrdvs	mvd5, [r9, #-404]!	@ 0xfffffe6c
 c38:	426b0065 	rsbmi	r0, fp, #101	@ 0x65
 c3c:	44797375 	ldrbtmi	r7, [r9], #-885	@ 0xfffffc8b
 c40:	79616c65 	stmdbvc	r1!, {r0, r2, r5, r6, sl, fp, sp, lr}^
 c44:	6c656400 	cfstrdvs	mvd6, [r5], #-0
 c48:	63007961 	movwvs	r7, #2401	@ 0x961
 c4c:	65727275 	ldrbvs	r7, [r2, #-629]!	@ 0xfffffd8b
 c50:	6954746e 	ldmdbvs	r4, {r1, r2, r3, r5, r6, sl, ip, sp, lr}^
 c54:	6e006b63 	vmlsvs.f64	d6, d0, d19
 c58:	0065646f 	rsbeq	r6, r5, pc, ror #8
 c5c:	54495845 	strbpl	r5, [r9], #-2117	@ 0xfffff7bb
 c60:	63725300 	cmnvs	r2, #0, 6
 c64:	69746b2f 	ldmdbvs	r4!, {r0, r1, r2, r3, r5, r8, r9, fp, sp, lr}^
 c68:	2e72656d 	cdpcs	5, 7, cr6, cr2, cr13, {3}
 c6c:	546b0063 	strbtpl	r0, [fp], #-99	@ 0xffffff9d
 c70:	4f656d69 	svcmi	0x00656d69
 c74:	65527475 	ldrbvs	r7, [r2, #-1141]	@ 0xfffffb8b
 c78:	54796461 	ldrbtpl	r6, [r9], #-1121	@ 0xfffffb9f
 c7c:	006b7361 	rsbeq	r7, fp, r1, ror #6
 c80:	6369546b 	cmnvs	r9, #1795162112	@ 0x6b000000
 c84:	7465476b 	strbtvc	r4, [r5], #-1899	@ 0xfffff895
 c88:	73496b00 	movtvc	r6, #39680	@ 0x9b00
 c8c:	696c6156 	stmdbvs	ip!, {r1, r2, r4, r6, r8, sp, lr}^
 c90:	72655664 	rsbvc	r5, r5, #100, 12	@ 0x6400000
 c94:	6e6f6973 			@ <UNDEFINED> instruction: 0x6e6f6973
 c98:	63725300 	cmnvs	r2, #0, 6
 c9c:	65766b2f 	ldrbvs	r6, [r6, #-2863]!	@ 0xfffff4d1
 ca0:	6f697372 	svcvs	0x00697372
 ca4:	00632e6e 	rsbeq	r2, r3, lr, ror #28
 ca8:	2f637253 	svccs	0x00637253
 cac:	7272656b 	rsbsvc	r6, r2, #448790528	@ 0x1ac00000
 cb0:	6600632e 	strvs	r6, [r0], -lr, lsr #6
 cb4:	746c7561 	strbtvc	r7, [ip], #-1377	@ 0xfffffa9f
 cb8:	75616600 	strbvc	r6, [r1, #-1536]!	@ 0xfffffa00
 cbc:	4449746c 	strbmi	r7, [r9], #-1132	@ 0xfffffb94
	...

Disassembly of section .debug_frame:

00000000 <.debug_frame>:
   0:	0000000c 	andeq	r0, r0, ip
   4:	ffffffff 			@ <UNDEFINED> instruction: 0xffffffff
   8:	7c020001 	stcvc	0, cr0, [r2], {1}
   c:	000d0c0e 	andeq	r0, sp, lr, lsl #24
  10:	0000000c 	andeq	r0, r0, ip
	...
  1c:	0000000c 	andeq	r0, r0, ip
  20:	00000014 	andeq	r0, r0, r4, lsl r0
  24:	00000000 	andeq	r0, r0, r0
  28:	00000160 	andeq	r0, r0, r0, ror #2
  2c:	0000002c 	andeq	r0, r0, ip, lsr #32
  30:	84080e41 	strhi	r0, [r8], #-3649	@ 0xfffff1bf
  34:	00018e02 	andeq	r8, r1, r2, lsl #28
  38:	0000000c 	andeq	r0, r0, ip
  3c:	00000000 	andeq	r0, r0, r0
  40:	0000018c 	andeq	r0, r0, ip, lsl #3
  44:	0000000c 	andeq	r0, r0, ip
  48:	00000018 	andeq	r0, r0, r8, lsl r0
  4c:	00000000 	andeq	r0, r0, r0
  50:	00000198 	muleq	r0, r8, r1
  54:	00000034 	andeq	r0, r0, r4, lsr r0
  58:	84180e41 	ldrhi	r0, [r8], #-3649	@ 0xfffff1bf
  5c:	86038504 	strhi	r8, [r3], -r4, lsl #10
  60:	00018e02 	andeq	r8, r1, r2, lsl #28
  64:	00000014 	andeq	r0, r0, r4, lsl r0
  68:	00000000 	andeq	r0, r0, r0
  6c:	000001cc 	andeq	r0, r0, ip, asr #3
  70:	0000002c 	andeq	r0, r0, ip, lsr #32
  74:	8e100e42 	cdphi	14, 1, cr0, cr0, cr2, {2}
  78:	00000001 	andeq	r0, r0, r1
  7c:	00000018 	andeq	r0, r0, r8, lsl r0
  80:	00000000 	andeq	r0, r0, r0
  84:	000001f8 	strdeq	r0, [r0], -r8
  88:	0000002c 	andeq	r0, r0, ip, lsr #32
  8c:	83100e41 	tsthi	r0, #1040	@ 0x410
  90:	85038404 	strhi	r8, [r3, #-1028]	@ 0xfffffbfc
  94:	00018e02 	andeq	r8, r1, r2, lsl #28
  98:	0000000c 	andeq	r0, r0, ip
  9c:	ffffffff 			@ <UNDEFINED> instruction: 0xffffffff
  a0:	7c020001 	stcvc	0, cr0, [r2], {1}
  a4:	000d0c0e 	andeq	r0, sp, lr, lsl #24
  a8:	00000014 	andeq	r0, r0, r4, lsl r0
  ac:	00000098 	muleq	r0, r8, r0
  b0:	00000224 	andeq	r0, r0, r4, lsr #4
  b4:	000000b4 	strheq	r0, [r0], -r4
  b8:	8e180e41 	cdphi	14, 1, cr0, cr8, cr1, {2}
  bc:	00000001 	andeq	r0, r0, r1
  c0:	0000000c 	andeq	r0, r0, ip
  c4:	ffffffff 			@ <UNDEFINED> instruction: 0xffffffff
  c8:	7c020001 	stcvc	0, cr0, [r2], {1}
  cc:	000d0c0e 	andeq	r0, sp, lr, lsl #24
  d0:	0000000c 	andeq	r0, r0, ip
  d4:	000000c0 	andeq	r0, r0, r0, asr #1
  d8:	000002d8 	ldrdeq	r0, [r0], -r8
  dc:	00000002 	andeq	r0, r0, r2
  e0:	00000014 	andeq	r0, r0, r4, lsl r0
  e4:	000000c0 	andeq	r0, r0, r0, asr #1
  e8:	000002dc 	ldrdeq	r0, [r0], -ip
  ec:	00000050 	andeq	r0, r0, r0, asr r0
  f0:	83080e41 	movwhi	r0, #36417	@ 0x8e41
  f4:	00018e02 	andeq	r8, r1, r2, lsl #28
  f8:	0000000c 	andeq	r0, r0, ip
  fc:	000000c0 	andeq	r0, r0, r0, asr #1
 100:	00000000 	andeq	r0, r0, r0
 104:	00000002 	andeq	r0, r0, r2
 108:	0000000c 	andeq	r0, r0, ip
 10c:	ffffffff 			@ <UNDEFINED> instruction: 0xffffffff
 110:	7c020001 	stcvc	0, cr0, [r2], {1}
 114:	000d0c0e 	andeq	r0, sp, lr, lsl #24
 118:	0000000c 	andeq	r0, r0, ip
 11c:	00000108 	andeq	r0, r0, r8, lsl #2
 120:	00000000 	andeq	r0, r0, r0
 124:	00000020 	andeq	r0, r0, r0, lsr #32
 128:	0000000c 	andeq	r0, r0, ip
 12c:	00000108 	andeq	r0, r0, r8, lsl #2
 130:	00000000 	andeq	r0, r0, r0
 134:	00000010 	andeq	r0, r0, r0, lsl r0
 138:	0000000c 	andeq	r0, r0, ip
 13c:	00000108 	andeq	r0, r0, r8, lsl #2
 140:	00000000 	andeq	r0, r0, r0
 144:	00000010 	andeq	r0, r0, r0, lsl r0
 148:	0000000c 	andeq	r0, r0, ip
 14c:	00000108 	andeq	r0, r0, r8, lsl #2
 150:	0000032c 	andeq	r0, r0, ip, lsr #6
 154:	00000028 	andeq	r0, r0, r8, lsr #32
 158:	0000000c 	andeq	r0, r0, ip
 15c:	00000108 	andeq	r0, r0, r8, lsl #2
 160:	00000000 	andeq	r0, r0, r0
 164:	00000024 	andeq	r0, r0, r4, lsr #32
 168:	0000000c 	andeq	r0, r0, ip
 16c:	00000108 	andeq	r0, r0, r8, lsl #2
 170:	00000000 	andeq	r0, r0, r0
 174:	0000001c 	andeq	r0, r0, ip, lsl r0
 178:	0000000c 	andeq	r0, r0, ip
 17c:	00000108 	andeq	r0, r0, r8, lsl #2
 180:	00000000 	andeq	r0, r0, r0
 184:	0000001c 	andeq	r0, r0, ip, lsl r0
 188:	0000000c 	andeq	r0, r0, ip
 18c:	00000108 	andeq	r0, r0, r8, lsl #2
 190:	00000000 	andeq	r0, r0, r0
 194:	0000001c 	andeq	r0, r0, ip, lsl r0
 198:	0000000c 	andeq	r0, r0, ip
 19c:	00000108 	andeq	r0, r0, r8, lsl #2
 1a0:	00000000 	andeq	r0, r0, r0
 1a4:	0000001c 	andeq	r0, r0, ip, lsl r0
 1a8:	0000000c 	andeq	r0, r0, ip
 1ac:	00000108 	andeq	r0, r0, r8, lsl #2
 1b0:	00000000 	andeq	r0, r0, r0
 1b4:	00000024 	andeq	r0, r0, r4, lsr #32
 1b8:	0000000c 	andeq	r0, r0, ip
 1bc:	00000108 	andeq	r0, r0, r8, lsl #2
 1c0:	00000354 	andeq	r0, r0, r4, asr r3
 1c4:	0000001e 	andeq	r0, r0, lr, lsl r0
 1c8:	0000000c 	andeq	r0, r0, ip
 1cc:	00000108 	andeq	r0, r0, r8, lsl #2
 1d0:	00000000 	andeq	r0, r0, r0
 1d4:	00000008 	andeq	r0, r0, r8
 1d8:	0000000c 	andeq	r0, r0, ip
 1dc:	00000108 	andeq	r0, r0, r8, lsl #2
 1e0:	00000000 	andeq	r0, r0, r0
 1e4:	0000000e 	andeq	r0, r0, lr
 1e8:	0000000c 	andeq	r0, r0, ip
 1ec:	00000108 	andeq	r0, r0, r8, lsl #2
 1f0:	00000000 	andeq	r0, r0, r0
 1f4:	0000000e 	andeq	r0, r0, lr
 1f8:	0000000c 	andeq	r0, r0, ip
 1fc:	ffffffff 			@ <UNDEFINED> instruction: 0xffffffff
 200:	7c020001 	stcvc	0, cr0, [r2], {1}
 204:	000d0c0e 	andeq	r0, sp, lr, lsl #24
 208:	00000018 	andeq	r0, r0, r8, lsl r0
 20c:	000001f8 	strdeq	r0, [r0], -r8
 210:	00000374 	andeq	r0, r0, r4, ror r3
 214:	00000050 	andeq	r0, r0, r0, asr r0
 218:	84100e41 	ldrhi	r0, [r0], #-3649	@ 0xfffff1bf
 21c:	86038504 	strhi	r8, [r3], -r4, lsl #10
 220:	00018e02 	andeq	r8, r1, r2, lsl #28
 224:	00000018 	andeq	r0, r0, r8, lsl r0
 228:	000001f8 	strdeq	r0, [r0], -r8
 22c:	00000000 	andeq	r0, r0, r0
 230:	00000026 	andeq	r0, r0, r6, lsr #32
 234:	83100e41 	tsthi	r0, #1040	@ 0x410
 238:	85038404 	strhi	r8, [r3, #-1028]	@ 0xfffffbfc
 23c:	00018e02 	andeq	r8, r1, r2, lsl #28
 240:	00000028 	andeq	r0, r0, r8, lsr #32
 244:	000001f8 	strdeq	r0, [r0], -r8
 248:	000003c4 	andeq	r0, r0, r4, asr #7
 24c:	00000138 	andeq	r0, r0, r8, lsr r1
 250:	84280e42 	strthi	r0, [r8], #-3650	@ 0xfffff1be
 254:	86078508 	strhi	r8, [r7], -r8, lsl #10
 258:	88058706 	stmdahi	r5, {r1, r2, r8, r9, sl, pc}
 25c:	8a038904 	bhi	e2674 <__exidx_end+0xe1630>
 260:	66018e02 	strvs	r8, [r1], -r2, lsl #28
 264:	42200e0a 	eormi	r0, r0, #10, 28	@ 0xa0
 268:	0000000b 	andeq	r0, r0, fp
 26c:	00000018 	andeq	r0, r0, r8, lsl r0
 270:	000001f8 	strdeq	r0, [r0], -r8
 274:	00000000 	andeq	r0, r0, r0
 278:	00000030 	andeq	r0, r0, r0, lsr r0
 27c:	84100e41 	ldrhi	r0, [r0], #-3649	@ 0xfffff1bf
 280:	86038504 	strhi	r8, [r3], -r4, lsl #10
 284:	00018e02 	andeq	r8, r1, r2, lsl #28
 288:	00000028 	andeq	r0, r0, r8, lsr #32
 28c:	000001f8 	strdeq	r0, [r0], -r8
 290:	000004fc 	strdeq	r0, [r0], -ip
 294:	00000138 	andeq	r0, r0, r8, lsr r1
 298:	84280e42 	strthi	r0, [r8], #-3650	@ 0xfffff1be
 29c:	86078508 	strhi	r8, [r7], -r8, lsl #10
 2a0:	88058706 	stmdahi	r5, {r1, r2, r8, r9, sl, pc}
 2a4:	8a038904 	bhi	e26bc <__exidx_end+0xe1678>
 2a8:	66018e02 	strvs	r8, [r1], -r2, lsl #28
 2ac:	42200e0a 	eormi	r0, r0, #10, 28	@ 0xa0
 2b0:	0000000b 	andeq	r0, r0, fp
 2b4:	0000000c 	andeq	r0, r0, ip
 2b8:	000001f8 	strdeq	r0, [r0], -r8
 2bc:	00000000 	andeq	r0, r0, r0
 2c0:	0000000a 	andeq	r0, r0, sl
 2c4:	00000018 	andeq	r0, r0, r8, lsl r0
 2c8:	000001f8 	strdeq	r0, [r0], -r8
 2cc:	00000000 	andeq	r0, r0, r0
 2d0:	00000046 	andeq	r0, r0, r6, asr #32
 2d4:	84100e41 	ldrhi	r0, [r0], #-3649	@ 0xfffff1bf
 2d8:	86038504 	strhi	r8, [r3], -r4, lsl #10
 2dc:	00018e02 	andeq	r8, r1, r2, lsl #28
 2e0:	0000000c 	andeq	r0, r0, ip
 2e4:	ffffffff 			@ <UNDEFINED> instruction: 0xffffffff
 2e8:	7c020001 	stcvc	0, cr0, [r2], {1}
 2ec:	000d0c0e 	andeq	r0, sp, lr, lsl #24
 2f0:	00000018 	andeq	r0, r0, r8, lsl r0
 2f4:	000002e0 	andeq	r0, r0, r0, ror #5
 2f8:	00000634 	andeq	r0, r0, r4, lsr r6
 2fc:	000000d4 	ldrdeq	r0, [r0], -r4
 300:	84100e41 	ldrhi	r0, [r0], #-3649	@ 0xfffff1bf
 304:	86038504 	strhi	r8, [r3], -r4, lsl #10
 308:	00018e02 	andeq	r8, r1, r2, lsl #28
 30c:	00000014 	andeq	r0, r0, r4, lsl r0
 310:	000002e0 	andeq	r0, r0, r0, ror #5
 314:	00000708 	andeq	r0, r0, r8, lsl #14
 318:	0000002c 	andeq	r0, r0, ip, lsr #32
 31c:	83080e42 	movwhi	r0, #36418	@ 0x8e42
 320:	00018e02 	andeq	r8, r1, r2, lsl #28
 324:	00000014 	andeq	r0, r0, r4, lsl r0
 328:	000002e0 	andeq	r0, r0, r0, ror #5
 32c:	00000734 	andeq	r0, r0, r4, lsr r7
 330:	00000028 	andeq	r0, r0, r8, lsr #32
 334:	83080e41 	movwhi	r0, #36417	@ 0x8e41
 338:	00018e02 	andeq	r8, r1, r2, lsl #28
 33c:	00000018 	andeq	r0, r0, r8, lsl r0
 340:	000002e0 	andeq	r0, r0, r0, ror #5
 344:	0000075c 	andeq	r0, r0, ip, asr r7
 348:	00000068 	andeq	r0, r0, r8, rrx
 34c:	83100e41 	tsthi	r0, #1040	@ 0x410
 350:	85038404 	strhi	r8, [r3, #-1028]	@ 0xfffffbfc
 354:	00018e02 	andeq	r8, r1, r2, lsl #28
 358:	00000018 	andeq	r0, r0, r8, lsl r0
 35c:	000002e0 	andeq	r0, r0, r0, ror #5
 360:	000007c4 	andeq	r0, r0, r4, asr #15
 364:	00000070 	andeq	r0, r0, r0, ror r0
 368:	83100e41 	tsthi	r0, #1040	@ 0x410
 36c:	85038404 	strhi	r8, [r3, #-1028]	@ 0xfffffbfc
 370:	00018e02 	andeq	r8, r1, r2, lsl #28
 374:	00000014 	andeq	r0, r0, r4, lsl r0
 378:	000002e0 	andeq	r0, r0, r0, ror #5
 37c:	00000834 	andeq	r0, r0, r4, lsr r8
 380:	00000014 	andeq	r0, r0, r4, lsl r0
 384:	84080e41 	strhi	r0, [r8], #-3649	@ 0xfffff1bf
 388:	00018e02 	andeq	r8, r1, r2, lsl #28
 38c:	00000014 	andeq	r0, r0, r4, lsl r0
 390:	000002e0 	andeq	r0, r0, r0, ror #5
 394:	00000848 	andeq	r0, r0, r8, asr #16
 398:	00000024 	andeq	r0, r0, r4, lsr #32
 39c:	84080e45 	strhi	r0, [r8], #-3653	@ 0xfffff1bb
 3a0:	00018e02 	andeq	r8, r1, r2, lsl #28
 3a4:	00000024 	andeq	r0, r0, r4, lsr #32
 3a8:	000002e0 	andeq	r0, r0, r0, ror #5
 3ac:	0000086c 	andeq	r0, r0, ip, ror #16
 3b0:	000000f0 	strdeq	r0, [r0], -r0	@ <UNPREDICTABLE>
 3b4:	83280e42 			@ <UNDEFINED> instruction: 0x83280e42
 3b8:	8509840a 	strhi	r8, [r9, #-1034]	@ 0xfffffbf6
 3bc:	87078608 	strhi	r8, [r7, -r8, lsl #12]
 3c0:	89058806 	stmdbhi	r5, {r1, r2, fp, pc}
 3c4:	8b038a04 	blhi	e2bdc <__exidx_end+0xe1b98>
 3c8:	00018e02 	andeq	r8, r1, r2, lsl #28
 3cc:	0000000c 	andeq	r0, r0, ip
 3d0:	000002e0 	andeq	r0, r0, r0, ror #5
 3d4:	0000095c 	andeq	r0, r0, ip, asr r9
 3d8:	0000001c 	andeq	r0, r0, ip, lsl r0
 3dc:	0000000c 	andeq	r0, r0, ip
 3e0:	000002e0 	andeq	r0, r0, r0, ror #5
 3e4:	00000978 	andeq	r0, r0, r8, ror r9
 3e8:	0000000e 	andeq	r0, r0, lr
 3ec:	0000001c 	andeq	r0, r0, ip, lsl r0
 3f0:	000002e0 	andeq	r0, r0, r0, ror #5
 3f4:	00000988 	andeq	r0, r0, r8, lsl #19
 3f8:	0000006c 	andeq	r0, r0, ip, rrx
 3fc:	83180e41 	tsthi	r8, #1040	@ 0x410
 400:	85058406 	strhi	r8, [r5, #-1030]	@ 0xfffffbfa
 404:	87038604 	strhi	r8, [r3, -r4, lsl #12]
 408:	00018e02 	andeq	r8, r1, r2, lsl #28
 40c:	00000014 	andeq	r0, r0, r4, lsl r0
 410:	000002e0 	andeq	r0, r0, r0, ror #5
 414:	000009f4 	strdeq	r0, [r0], -r4
 418:	00000034 	andeq	r0, r0, r4, lsr r0
 41c:	84080e41 	strhi	r0, [r8], #-3649	@ 0xfffff1bf
 420:	00018e02 	andeq	r8, r1, r2, lsl #28
 424:	00000024 	andeq	r0, r0, r4, lsr #32
 428:	000002e0 	andeq	r0, r0, r0, ror #5
 42c:	00000000 	andeq	r0, r0, r0
 430:	00000062 	andeq	r0, r0, r2, rrx
 434:	83100e41 	tsthi	r0, #1040	@ 0x410
 438:	85038404 	strhi	r8, [r3, #-1028]	@ 0xfffffbfc
 43c:	4e018e02 	cdpmi	14, 0, cr8, cr1, cr2, {0}
 440:	c4c5ce0a 	strbgt	ip, [r5], #3594	@ 0xe0a
 444:	42000ec3 	andmi	r0, r0, #3120	@ 0xc30
 448:	0000000b 	andeq	r0, r0, fp
 44c:	00000018 	andeq	r0, r0, r8, lsl r0
 450:	000002e0 	andeq	r0, r0, r0, ror #5
 454:	00000000 	andeq	r0, r0, r0
 458:	0000002c 	andeq	r0, r0, ip, lsr #32
 45c:	84080e41 	strhi	r0, [r8], #-3649	@ 0xfffff1bf
 460:	51018e02 	tstpl	r1, r2, lsl #28
 464:	000ec4ce 	andeq	ip, lr, lr, asr #9
 468:	0000001c 	andeq	r0, r0, ip, lsl r0
 46c:	000002e0 	andeq	r0, r0, r0, ror #5
 470:	00000000 	andeq	r0, r0, r0
 474:	00000090 	muleq	r0, r0, r0
 478:	84180e42 	ldrhi	r0, [r8], #-3650	@ 0xfffff1be
 47c:	86058506 	strhi	r8, [r5], -r6, lsl #10
 480:	88038704 	stmdahi	r3, {r2, r8, r9, sl, pc}
 484:	00018e02 	andeq	r8, r1, r2, lsl #28
 488:	00000020 	andeq	r0, r0, r0, lsr #32
 48c:	000002e0 	andeq	r0, r0, r0, ror #5
 490:	00000a28 	andeq	r0, r0, r8, lsr #20
 494:	000000f8 	strdeq	r0, [r0], -r8
 498:	83200e42 			@ <UNDEFINED> instruction: 0x83200e42
 49c:	85078408 	strhi	r8, [r7, #-1032]	@ 0xfffffbf8
 4a0:	87058606 	strhi	r8, [r5, -r6, lsl #12]
 4a4:	89038804 	stmdbhi	r3, {r2, fp, pc}
 4a8:	00018e02 	andeq	r8, r1, r2, lsl #28
 4ac:	0000001c 	andeq	r0, r0, ip, lsl r0
 4b0:	000002e0 	andeq	r0, r0, r0, ror #5
 4b4:	00000b20 	andeq	r0, r0, r0, lsr #22
 4b8:	00000060 	andeq	r0, r0, r0, rrx
 4bc:	84180e42 	ldrhi	r0, [r8], #-3650	@ 0xfffff1be
 4c0:	86038504 	strhi	r8, [r3], -r4, lsl #10
 4c4:	66018e02 	strvs	r8, [r1], -r2, lsl #28
 4c8:	0000100e 	andeq	r1, r0, lr
 4cc:	00000018 	andeq	r0, r0, r8, lsl r0
 4d0:	000002e0 	andeq	r0, r0, r0, ror #5
 4d4:	00000b80 	andeq	r0, r0, r0, lsl #23
 4d8:	00000080 	andeq	r0, r0, r0, lsl #1
 4dc:	84100e41 	ldrhi	r0, [r0], #-3649	@ 0xfffff1bf
 4e0:	86038504 	strhi	r8, [r3], -r4, lsl #10
 4e4:	00018e02 	andeq	r8, r1, r2, lsl #28
 4e8:	0000000c 	andeq	r0, r0, ip
 4ec:	ffffffff 			@ <UNDEFINED> instruction: 0xffffffff
 4f0:	7c020001 	stcvc	0, cr0, [r2], {1}
 4f4:	000d0c0e 	andeq	r0, sp, lr, lsl #24
 4f8:	0000001c 	andeq	r0, r0, ip, lsl r0
 4fc:	000004e8 	andeq	r0, r0, r8, ror #9
 500:	00000c00 	andeq	r0, r0, r0, lsl #24
 504:	000000a8 	andeq	r0, r0, r8, lsr #1
 508:	83180e41 	tsthi	r8, #1040	@ 0x410
 50c:	85058406 	strhi	r8, [r5, #-1030]	@ 0xfffffbfa
 510:	87038604 	strhi	r8, [r3, -r4, lsl #12]
 514:	00018e02 	andeq	r8, r1, r2, lsl #28
 518:	00000018 	andeq	r0, r0, r8, lsl r0
 51c:	000004e8 	andeq	r0, r0, r8, ror #9
 520:	00000000 	andeq	r0, r0, r0
 524:	00000054 	andeq	r0, r0, r4, asr r0
 528:	83100e41 	tsthi	r0, #1040	@ 0x410
 52c:	85038404 	strhi	r8, [r3, #-1028]	@ 0xfffffbfc
 530:	00018e02 	andeq	r8, r1, r2, lsl #28
 534:	0000000c 	andeq	r0, r0, ip
 538:	ffffffff 			@ <UNDEFINED> instruction: 0xffffffff
 53c:	7c020001 	stcvc	0, cr0, [r2], {1}
 540:	000d0c0e 	andeq	r0, sp, lr, lsl #24
 544:	0000000c 	andeq	r0, r0, ip
 548:	00000534 	andeq	r0, r0, r4, lsr r5
 54c:	00000ca8 	andeq	r0, r0, r8, lsr #25
 550:	00000018 	andeq	r0, r0, r8, lsl r0
 554:	00000018 	andeq	r0, r0, r8, lsl r0
 558:	00000534 	andeq	r0, r0, r4, lsr r5
 55c:	00000cc0 	andeq	r0, r0, r0, asr #25
 560:	0000003c 	andeq	r0, r0, ip, lsr r0
 564:	84100e46 	ldrhi	r0, [r0], #-3654	@ 0xfffff1ba
 568:	86038504 	strhi	r8, [r3], -r4, lsl #10
 56c:	00018e02 	andeq	r8, r1, r2, lsl #28
 570:	0000000c 	andeq	r0, r0, ip
 574:	ffffffff 			@ <UNDEFINED> instruction: 0xffffffff
 578:	7c020001 	stcvc	0, cr0, [r2], {1}
 57c:	000d0c0e 	andeq	r0, sp, lr, lsl #24
 580:	0000000c 	andeq	r0, r0, ip
 584:	00000570 	andeq	r0, r0, r0, ror r5
 588:	00000000 	andeq	r0, r0, r0
 58c:	0000000c 	andeq	r0, r0, ip
 590:	0000000c 	andeq	r0, r0, ip
 594:	00000570 	andeq	r0, r0, r0, ror r5
 598:	00000000 	andeq	r0, r0, r0
 59c:	00000018 	andeq	r0, r0, r8, lsl r0
 5a0:	00000018 	andeq	r0, r0, r8, lsl r0
 5a4:	00000570 	andeq	r0, r0, r0, ror r5
 5a8:	00000cfc 	strdeq	r0, [r0], -ip
 5ac:	0000008c 	andeq	r0, r0, ip, lsl #1
 5b0:	840c0e41 	strhi	r0, [ip], #-3649	@ 0xfffff1bf
 5b4:	8e028503 	cfsh32hi	mvfx8, mvfx2, #3
 5b8:	00000001 	andeq	r0, r0, r1
 5bc:	00000024 	andeq	r0, r0, r4, lsr #32
 5c0:	00000570 	andeq	r0, r0, r0, ror r5
 5c4:	00000d88 	andeq	r0, r0, r8, lsl #27
 5c8:	00000048 	andeq	r0, r0, r8, asr #32
 5cc:	83180e41 	tsthi	r8, #1040	@ 0x410
 5d0:	85058406 	strhi	r8, [r5, #-1030]	@ 0xfffffbfa
 5d4:	87038604 	strhi	r8, [r3, -r4, lsl #12]
 5d8:	5c018e02 	stcpl	14, cr8, [r1], {2}
 5dc:	c5c6c7ce 	strbgt	ip, [r6, #1998]	@ 0x7ce
 5e0:	000ec3c4 	andeq	ip, lr, r4, asr #7
 5e4:	00000020 	andeq	r0, r0, r0, lsr #32
 5e8:	00000570 	andeq	r0, r0, r0, ror r5
 5ec:	00000dd0 	ldrdeq	r0, [r0], -r0	@ <UNPREDICTABLE>
 5f0:	00000088 	andeq	r0, r0, r8, lsl #1
 5f4:	83200e42 			@ <UNDEFINED> instruction: 0x83200e42
 5f8:	85078408 	strhi	r8, [r7, #-1032]	@ 0xfffffbf8
 5fc:	87058606 	strhi	r8, [r5, -r6, lsl #12]
 600:	89038804 	stmdbhi	r3, {r2, fp, pc}
 604:	00018e02 	andeq	r8, r1, r2, lsl #28
 608:	0000001c 	andeq	r0, r0, ip, lsl r0
 60c:	00000570 	andeq	r0, r0, r0, ror r5
 610:	00000e58 	andeq	r0, r0, r8, asr lr
 614:	0000008c 	andeq	r0, r0, ip, lsl #1
 618:	84100e41 	ldrhi	r0, [r0], #-3649	@ 0xfffff1bf
 61c:	5b018e02 	blpl	63e2c <__exidx_end+0x62de8>
 620:	41080e0a 	tstmi	r8, sl, lsl #28
 624:	0000000b 	andeq	r0, r0, fp
 628:	00000014 	andeq	r0, r0, r4, lsl r0
 62c:	00000570 	andeq	r0, r0, r0, ror r5
 630:	00000ee4 	andeq	r0, r0, r4, ror #29
 634:	0000002c 	andeq	r0, r0, ip, lsr #32
 638:	84080e41 	strhi	r0, [r8], #-3649	@ 0xfffff1bf
 63c:	00018e02 	andeq	r8, r1, r2, lsl #28
 640:	00000018 	andeq	r0, r0, r8, lsl r0
 644:	00000570 	andeq	r0, r0, r0, ror r5
 648:	00000f10 	andeq	r0, r0, r0, lsl pc
 64c:	00000040 	andeq	r0, r0, r0, asr #32
 650:	83100e41 	tsthi	r0, #1040	@ 0x410
 654:	85038404 	strhi	r8, [r3, #-1028]	@ 0xfffffbfc
 658:	00018e02 	andeq	r8, r1, r2, lsl #28
 65c:	0000000c 	andeq	r0, r0, ip
 660:	ffffffff 			@ <UNDEFINED> instruction: 0xffffffff
 664:	7c020001 	stcvc	0, cr0, [r2], {1}
 668:	000d0c0e 	andeq	r0, sp, lr, lsl #24
 66c:	0000000c 	andeq	r0, r0, ip
 670:	0000065c 	andeq	r0, r0, ip, asr r6
 674:	00000f50 	andeq	r0, r0, r0, asr pc
 678:	00000006 	andeq	r0, r0, r6
 67c:	0000000c 	andeq	r0, r0, ip
 680:	0000065c 	andeq	r0, r0, ip, asr r6
 684:	00000000 	andeq	r0, r0, r0
 688:	00000004 	andeq	r0, r0, r4
 68c:	0000000c 	andeq	r0, r0, ip
 690:	ffffffff 			@ <UNDEFINED> instruction: 0xffffffff
 694:	7c020001 	stcvc	0, cr0, [r2], {1}
 698:	000d0c0e 	andeq	r0, sp, lr, lsl #24
 69c:	0000000c 	andeq	r0, r0, ip
 6a0:	0000068c 	andeq	r0, r0, ip, lsl #13
 6a4:	00000f58 	andeq	r0, r0, r8, asr pc
 6a8:	0000000c 	andeq	r0, r0, ip
 6ac:	0000000c 	andeq	r0, r0, ip
 6b0:	ffffffff 			@ <UNDEFINED> instruction: 0xffffffff
 6b4:	7c020001 	stcvc	0, cr0, [r2], {1}
 6b8:	000d0c0e 	andeq	r0, sp, lr, lsl #24
 6bc:	0000000c 	andeq	r0, r0, ip
 6c0:	000006ac 	andeq	r0, r0, ip, lsr #13
 6c4:	00000f64 	andeq	r0, r0, r4, ror #30
 6c8:	00000010 	andeq	r0, r0, r0, lsl r0
 6cc:	0000000c 	andeq	r0, r0, ip
 6d0:	ffffffff 			@ <UNDEFINED> instruction: 0xffffffff
 6d4:	7c020001 	stcvc	0, cr0, [r2], {1}
 6d8:	000d0c0e 	andeq	r0, sp, lr, lsl #24
 6dc:	00000014 	andeq	r0, r0, r4, lsl r0
 6e0:	000006cc 	andeq	r0, r0, ip, asr #13
 6e4:	00000f74 	andeq	r0, r0, r4, ror pc
 6e8:	0000001c 	andeq	r0, r0, ip, lsl r0
 6ec:	84080e47 	strhi	r0, [r8], #-3655	@ 0xfffff1b9
 6f0:	00018e02 	andeq	r8, r1, r2, lsl #28
