ARM GAS  /var/folders/fg/4fzv35n91mbcgx4z5jzqdsl40000gn/T//cctJ5uaz.s 			page 1


   1              		.cpu cortex-m3
   2              		.arch armv7-m
   3              		.fpu softvfp
   4              		.eabi_attribute 20, 1
   5              		.eabi_attribute 21, 1
   6              		.eabi_attribute 23, 3
   7              		.eabi_attribute 24, 1
   8              		.eabi_attribute 25, 1
   9              		.eabi_attribute 26, 1
  10              		.eabi_attribute 30, 1
  11              		.eabi_attribute 34, 1
  12              		.eabi_attribute 18, 4
  13              		.file	"kmem.c"
  14              		.text
  15              	.Ltext0:
  16              		.cfi_sections	.debug_frame
  17              		.file 1 "core/src/kmem.c"
  18              		.section	.text.kMemInit,"ax",%progbits
  19              		.align	1
  20              		.global	kMemInit
  21              		.syntax unified
  22              		.thumb
  23              		.thumb_func
  25              	kMemInit:
  26              	.LVL0:
  27              	.LFB54:
   1:core/src/kmem.c **** /******************************************************************************
   2:core/src/kmem.c ****  *
   3:core/src/kmem.c ****  *     [[RK0] | [VERSION: 0.4.0]]
   4:core/src/kmem.c ****  *
   5:core/src/kmem.c ****  ******************************************************************************
   6:core/src/kmem.c ****  ******************************************************************************
   7:core/src/kmem.c ****  * 	Module           : Memory Block Allocator
   8:core/src/kmem.c ****  * 	Provides to      : Inter-task Communication, Application Timers
   9:core/src/kmem.c ****  * 	Depends on       : Inter-task Synchronisation
  10:core/src/kmem.c ****  *  Public API       : Yes
  11:core/src/kmem.c ****  * 	In this unit	 :
  12:core/src/kmem.c ****  * 					    o Memory Block Allocator
  13:core/src/kmem.c ****  *
  14:core/src/kmem.c ****  *****************************************************************************/
  15:core/src/kmem.c **** 
  16:core/src/kmem.c **** #define RK_CODE
  17:core/src/kmem.c **** #include "kexecutive.h"
  18:core/src/kmem.c **** 
  19:core/src/kmem.c **** RK_ERR kMemInit( RK_MEM *const kobj, VOID *memPoolPtr, ULONG blkSize,
  20:core/src/kmem.c **** 		ULONG const numBlocks)
  21:core/src/kmem.c **** {
  28              		.loc 1 21 1 view -0
  29              		.cfi_startproc
  30              		@ args = 0, pretend = 0, frame = 0
  31              		@ frame_needed = 0, uses_anonymous_args = 0
  32              		.loc 1 21 1 is_stmt 0 view .LVU1
  33 0000 2DE9F041 		push	{r4, r5, r6, r7, r8, lr}
  34              		.cfi_def_cfa_offset 24
  35              		.cfi_offset 4, -24
  36              		.cfi_offset 5, -20
  37              		.cfi_offset 6, -16
ARM GAS  /var/folders/fg/4fzv35n91mbcgx4z5jzqdsl40000gn/T//cctJ5uaz.s 			page 2


  38              		.cfi_offset 7, -12
  39              		.cfi_offset 8, -8
  40              		.cfi_offset 14, -4
  41 0004 0646     		mov	r6, r0
  42 0006 0F46     		mov	r7, r1
  43 0008 1446     		mov	r4, r2
  44 000a 1D46     		mov	r5, r3
  22:core/src/kmem.c **** 	RK_CR_AREA
  45              		.loc 1 22 2 is_stmt 1 view .LVU2
  23:core/src/kmem.c **** 
  24:core/src/kmem.c **** 	RK_CR_ENTER
  46              		.loc 1 24 2 view .LVU3
  47 000c FFF7FEFF 		bl	kEnterCR
  48              	.LVL1:
  49              		.loc 1 24 2 is_stmt 0 view .LVU4
  50 0010 8046     		mov	r8, r0
  51              	.LVL2:
  25:core/src/kmem.c **** 
  26:core/src/kmem.c **** 	if (RK_IS_NULL_PTR( kobj))
  52              		.loc 1 26 2 is_stmt 1 view .LVU5
  53              		.loc 1 26 5 is_stmt 0 view .LVU6
  54 0012 36B1     		cbz	r6, .L7
  27:core/src/kmem.c **** 	{
  28:core/src/kmem.c **** 		KERR( RK_FAULT_OBJ_NULL);
  29:core/src/kmem.c **** 		RK_CR_EXIT
  30:core/src/kmem.c **** 		return (RK_ERR_MEM_INIT);
  31:core/src/kmem.c **** 	}
  32:core/src/kmem.c **** 	/* rounds up to next multiple of 4*/
  33:core/src/kmem.c **** 	blkSize = (blkSize + 0x03) & (ULONG) (~0x03);
  55              		.loc 1 33 2 is_stmt 1 view .LVU7
  56              		.loc 1 33 21 is_stmt 0 view .LVU8
  57 0014 E31C     		adds	r3, r4, #3
  58              		.loc 1 33 10 view .LVU9
  59 0016 23F00303 		bic	r3, r3, #3
  60              	.LVL3:
  34:core/src/kmem.c **** 
  35:core/src/kmem.c **** 	/* initialise freelist of blocks */
  36:core/src/kmem.c **** 
  37:core/src/kmem.c **** 	ULONG *blockPtr = (ULONG*) memPoolPtr;
  61              		.loc 1 37 2 is_stmt 1 view .LVU10
  38:core/src/kmem.c **** 	VOID **nextAddrPtr = (VOID **) memPoolPtr; /* next block address */
  62              		.loc 1 38 2 view .LVU11
  39:core/src/kmem.c **** 
  40:core/src/kmem.c **** 	for (ULONG i = 0; i < numBlocks - 1; i++)
  63              		.loc 1 40 2 view .LVU12
  64              	.LBB2:
  65              		.loc 1 40 7 view .LVU13
  66              		.loc 1 40 7 is_stmt 0 view .LVU14
  67              	.LBE2:
  37:core/src/kmem.c **** 	VOID **nextAddrPtr = (VOID **) memPoolPtr; /* next block address */
  68              		.loc 1 37 9 view .LVU15
  69 001a 3A46     		mov	r2, r7
  70              	.LBB5:
  71              		.loc 1 40 13 view .LVU16
  72 001c 4FF0000C 		mov	ip, #0
  73              		.loc 1 40 2 view .LVU17
  74 0020 0EE0     		b	.L4
ARM GAS  /var/folders/fg/4fzv35n91mbcgx4z5jzqdsl40000gn/T//cctJ5uaz.s 			page 3


  75              	.LVL4:
  76              	.L7:
  77              		.loc 1 40 2 view .LVU18
  78              	.LBE5:
  28:core/src/kmem.c **** 		RK_CR_EXIT
  79              		.loc 1 28 3 is_stmt 1 view .LVU19
  80 0022 6FF06300 		mvn	r0, #99
  81              	.LVL5:
  28:core/src/kmem.c **** 		RK_CR_EXIT
  82              		.loc 1 28 3 is_stmt 0 view .LVU20
  83 0026 FFF7FEFF 		bl	kErrHandler
  84              	.LVL6:
  29:core/src/kmem.c **** 		return (RK_ERR_MEM_INIT);
  85              		.loc 1 29 3 is_stmt 1 view .LVU21
  86 002a 4046     		mov	r0, r8
  87 002c FFF7FEFF 		bl	kExitCR
  88              	.LVL7:
  30:core/src/kmem.c **** 	}
  89              		.loc 1 30 3 view .LVU22
  30:core/src/kmem.c **** 	}
  90              		.loc 1 30 10 is_stmt 0 view .LVU23
  91 0030 6FF0C800 		mvn	r0, #200
  92 0034 14E0     		b	.L1
  93              	.LVL8:
  94              	.L5:
  95              	.LBB6:
  96              	.LBB3:
  41:core/src/kmem.c **** 	{
  42:core/src/kmem.c **** 		ULONG wordSize = blkSize / 4;
  97              		.loc 1 42 3 is_stmt 1 discriminator 3 view .LVU24
  43:core/src/kmem.c **** 		blockPtr += wordSize;
  98              		.loc 1 43 3 discriminator 3 view .LVU25
  99              		.loc 1 43 12 is_stmt 0 discriminator 3 view .LVU26
 100 0036 D418     		adds	r4, r2, r3
 101              	.LVL9:
  44:core/src/kmem.c **** 		/* save blockPtr addr as the next */
  45:core/src/kmem.c **** 		*nextAddrPtr = (VOID *) blockPtr;
 102              		.loc 1 45 3 is_stmt 1 discriminator 3 view .LVU27
 103              		.loc 1 45 16 is_stmt 0 discriminator 3 view .LVU28
 104 0038 1460     		str	r4, [r2]
  46:core/src/kmem.c **** 		/* update  */
  47:core/src/kmem.c **** 		nextAddrPtr = (VOID **) (blockPtr);
 105              		.loc 1 47 3 is_stmt 1 discriminator 3 view .LVU29
 106              	.LVL10:
 107              		.loc 1 47 3 is_stmt 0 discriminator 3 view .LVU30
 108              	.LBE3:
  40:core/src/kmem.c **** 	{
 109              		.loc 1 40 40 is_stmt 1 discriminator 3 view .LVU31
 110 003a 0CF1010C 		add	ip, ip, #1
 111              	.LVL11:
 112              	.LBB4:
  43:core/src/kmem.c **** 		/* save blockPtr addr as the next */
 113              		.loc 1 43 12 is_stmt 0 discriminator 3 view .LVU32
 114 003e 2246     		mov	r2, r4
 115              	.LVL12:
 116              	.L4:
  43:core/src/kmem.c **** 		/* save blockPtr addr as the next */
ARM GAS  /var/folders/fg/4fzv35n91mbcgx4z5jzqdsl40000gn/T//cctJ5uaz.s 			page 4


 117              		.loc 1 43 12 discriminator 3 view .LVU33
 118              	.LBE4:
  40:core/src/kmem.c **** 	{
 119              		.loc 1 40 22 is_stmt 1 discriminator 1 view .LVU34
  40:core/src/kmem.c **** 	{
 120              		.loc 1 40 34 is_stmt 0 discriminator 1 view .LVU35
 121 0040 6C1E     		subs	r4, r5, #1
  40:core/src/kmem.c **** 	{
 122              		.loc 1 40 22 discriminator 1 view .LVU36
 123 0042 6445     		cmp	r4, ip
 124 0044 F7D8     		bhi	.L5
  40:core/src/kmem.c **** 	{
 125              		.loc 1 40 22 discriminator 1 view .LVU37
 126              	.LBE6:
  48:core/src/kmem.c **** 
  49:core/src/kmem.c **** 	}
  50:core/src/kmem.c **** 	*nextAddrPtr = NULL;
 127              		.loc 1 50 2 is_stmt 1 view .LVU38
 128              		.loc 1 50 15 is_stmt 0 view .LVU39
 129 0046 0024     		movs	r4, #0
 130 0048 1460     		str	r4, [r2]
  51:core/src/kmem.c **** 
  52:core/src/kmem.c **** 	/* init the control block */
  53:core/src/kmem.c **** 	kobj->blkSize = blkSize;
 131              		.loc 1 53 2 is_stmt 1 view .LVU40
 132              		.loc 1 53 16 is_stmt 0 view .LVU41
 133 004a F360     		str	r3, [r6, #12]
  54:core/src/kmem.c **** 	kobj->nMaxBlocks = numBlocks;
 134              		.loc 1 54 2 is_stmt 1 view .LVU42
 135              		.loc 1 54 19 is_stmt 0 view .LVU43
 136 004c 3561     		str	r5, [r6, #16]
  55:core/src/kmem.c **** 	kobj->nFreeBlocks = numBlocks;
 137              		.loc 1 55 2 is_stmt 1 view .LVU44
 138              		.loc 1 55 20 is_stmt 0 view .LVU45
 139 004e 7561     		str	r5, [r6, #20]
  56:core/src/kmem.c **** 	kobj->freeListPtr = memPoolPtr;
 140              		.loc 1 56 2 is_stmt 1 view .LVU46
 141              		.loc 1 56 20 is_stmt 0 view .LVU47
 142 0050 7760     		str	r7, [r6, #4]
  57:core/src/kmem.c **** 	kobj->poolPtr = memPoolPtr;
 143              		.loc 1 57 2 is_stmt 1 view .LVU48
 144              		.loc 1 57 16 is_stmt 0 view .LVU49
 145 0052 B760     		str	r7, [r6, #8]
  58:core/src/kmem.c **** 	kobj->init = TRUE;
 146              		.loc 1 58 2 is_stmt 1 view .LVU50
 147              		.loc 1 58 13 is_stmt 0 view .LVU51
 148 0054 0123     		movs	r3, #1
 149              	.LVL13:
 150              		.loc 1 58 13 view .LVU52
 151 0056 B361     		str	r3, [r6, #24]
  59:core/src/kmem.c **** 	RK_CR_EXIT
 152              		.loc 1 59 2 is_stmt 1 view .LVU53
 153 0058 4046     		mov	r0, r8
 154              	.LVL14:
 155              		.loc 1 59 2 is_stmt 0 view .LVU54
 156 005a FFF7FEFF 		bl	kExitCR
 157              	.LVL15:
ARM GAS  /var/folders/fg/4fzv35n91mbcgx4z5jzqdsl40000gn/T//cctJ5uaz.s 			page 5


  60:core/src/kmem.c **** 	return (RK_SUCCESS);
 158              		.loc 1 60 2 is_stmt 1 view .LVU55
 159              		.loc 1 60 9 is_stmt 0 view .LVU56
 160 005e 2046     		mov	r0, r4
 161              	.LVL16:
 162              	.L1:
  61:core/src/kmem.c **** }
 163              		.loc 1 61 1 view .LVU57
 164 0060 BDE8F081 		pop	{r4, r5, r6, r7, r8, pc}
 165              		.loc 1 61 1 view .LVU58
 166              		.cfi_endproc
 167              	.LFE54:
 169              		.section	.text.kMemAlloc,"ax",%progbits
 170              		.align	1
 171              		.global	kMemAlloc
 172              		.syntax unified
 173              		.thumb
 174              		.thumb_func
 176              	kMemAlloc:
 177              	.LVL17:
 178              	.LFB55:
  62:core/src/kmem.c **** 
  63:core/src/kmem.c **** VOID *kMemAlloc( RK_MEM *const kobj)
  64:core/src/kmem.c **** {
 179              		.loc 1 64 1 is_stmt 1 view -0
 180              		.cfi_startproc
 181              		@ args = 0, pretend = 0, frame = 0
 182              		@ frame_needed = 0, uses_anonymous_args = 0
 183              		.loc 1 64 1 is_stmt 0 view .LVU60
 184 0000 38B5     		push	{r3, r4, r5, lr}
 185              		.cfi_def_cfa_offset 16
 186              		.cfi_offset 3, -16
 187              		.cfi_offset 4, -12
 188              		.cfi_offset 5, -8
 189              		.cfi_offset 14, -4
  65:core/src/kmem.c **** 
  66:core/src/kmem.c **** 	if (kobj->nFreeBlocks == 0)
 190              		.loc 1 66 2 is_stmt 1 view .LVU61
 191              		.loc 1 66 10 is_stmt 0 view .LVU62
 192 0002 4369     		ldr	r3, [r0, #20]
 193              		.loc 1 66 5 view .LVU63
 194 0004 6BB1     		cbz	r3, .L11
 195 0006 0446     		mov	r4, r0
  67:core/src/kmem.c **** 	{
  68:core/src/kmem.c **** 		return (NULL);
  69:core/src/kmem.c **** 	}
  70:core/src/kmem.c **** 	RK_CR_AREA
 196              		.loc 1 70 2 is_stmt 1 view .LVU64
  71:core/src/kmem.c **** 
  72:core/src/kmem.c **** 	RK_CR_ENTER
 197              		.loc 1 72 2 view .LVU65
 198 0008 FFF7FEFF 		bl	kEnterCR
 199              	.LVL18:
  73:core/src/kmem.c **** 	VOID *allocPtr = kobj->freeListPtr;
 200              		.loc 1 73 2 view .LVU66
 201              		.loc 1 73 8 is_stmt 0 view .LVU67
 202 000c 6568     		ldr	r5, [r4, #4]
ARM GAS  /var/folders/fg/4fzv35n91mbcgx4z5jzqdsl40000gn/T//cctJ5uaz.s 			page 6


 203              	.LVL19:
  74:core/src/kmem.c **** 	kobj->freeListPtr = *(VOID **) allocPtr;
 204              		.loc 1 74 2 is_stmt 1 view .LVU68
 205              		.loc 1 74 22 is_stmt 0 view .LVU69
 206 000e 2B68     		ldr	r3, [r5]
 207              		.loc 1 74 20 view .LVU70
 208 0010 6360     		str	r3, [r4, #4]
  75:core/src/kmem.c **** #if(MEMBLKLAST)
  76:core/src/kmem.c ****     kobj->lastUsed = allocPtr;
  77:core/src/kmem.c ****     #endif
  78:core/src/kmem.c **** 	if (allocPtr != NULL)
 209              		.loc 1 78 2 is_stmt 1 view .LVU71
 210              		.loc 1 78 5 is_stmt 0 view .LVU72
 211 0012 15B1     		cbz	r5, .L10
  79:core/src/kmem.c **** 		kobj->nFreeBlocks -= 1;
 212              		.loc 1 79 3 is_stmt 1 view .LVU73
 213              		.loc 1 79 7 is_stmt 0 view .LVU74
 214 0014 6369     		ldr	r3, [r4, #20]
 215              		.loc 1 79 21 view .LVU75
 216 0016 013B     		subs	r3, r3, #1
 217 0018 6361     		str	r3, [r4, #20]
 218              	.L10:
  80:core/src/kmem.c **** 	RK_CR_EXIT
 219              		.loc 1 80 2 is_stmt 1 view .LVU76
 220 001a FFF7FEFF 		bl	kExitCR
 221              	.LVL20:
  81:core/src/kmem.c **** 	return (allocPtr);
 222              		.loc 1 81 2 view .LVU77
 223              	.L8:
  82:core/src/kmem.c **** }
 224              		.loc 1 82 1 is_stmt 0 view .LVU78
 225 001e 2846     		mov	r0, r5
 226 0020 38BD     		pop	{r3, r4, r5, pc}
 227              	.LVL21:
 228              	.L11:
  68:core/src/kmem.c **** 	}
 229              		.loc 1 68 10 view .LVU79
 230 0022 0025     		movs	r5, #0
 231 0024 FBE7     		b	.L8
 232              		.cfi_endproc
 233              	.LFE55:
 235              		.section	.text.kMemFree,"ax",%progbits
 236              		.align	1
 237              		.global	kMemFree
 238              		.syntax unified
 239              		.thumb
 240              		.thumb_func
 242              	kMemFree:
 243              	.LVL22:
 244              	.LFB56:
  83:core/src/kmem.c **** 
  84:core/src/kmem.c **** RK_ERR kMemFree( RK_MEM *const kobj, VOID *blockPtr)
  85:core/src/kmem.c **** {
 245              		.loc 1 85 1 is_stmt 1 view -0
 246              		.cfi_startproc
 247              		@ args = 0, pretend = 0, frame = 0
 248              		@ frame_needed = 0, uses_anonymous_args = 0
ARM GAS  /var/folders/fg/4fzv35n91mbcgx4z5jzqdsl40000gn/T//cctJ5uaz.s 			page 7


 249              		.loc 1 85 1 is_stmt 0 view .LVU81
 250 0000 38B5     		push	{r3, r4, r5, lr}
 251              		.cfi_def_cfa_offset 16
 252              		.cfi_offset 3, -16
 253              		.cfi_offset 4, -12
 254              		.cfi_offset 5, -8
 255              		.cfi_offset 14, -4
  86:core/src/kmem.c **** 
  87:core/src/kmem.c **** 	if (kobj->nFreeBlocks == kobj->nMaxBlocks)
 256              		.loc 1 87 2 is_stmt 1 view .LVU82
 257              		.loc 1 87 10 is_stmt 0 view .LVU83
 258 0002 4269     		ldr	r2, [r0, #20]
 259              		.loc 1 87 31 view .LVU84
 260 0004 0369     		ldr	r3, [r0, #16]
 261              		.loc 1 87 5 view .LVU85
 262 0006 9A42     		cmp	r2, r3
 263 0008 0ED0     		beq	.L15
 264 000a 0446     		mov	r4, r0
 265 000c 0D46     		mov	r5, r1
  88:core/src/kmem.c **** 	{
  89:core/src/kmem.c **** 		return (RK_ERR_MEM_FREE);
  90:core/src/kmem.c **** 	}
  91:core/src/kmem.c **** 	if (RK_IS_NULL_PTR(kobj) || RK_IS_NULL_PTR( blockPtr))
 266              		.loc 1 91 2 is_stmt 1 discriminator 1 view .LVU86
 267              		.loc 1 91 27 is_stmt 0 discriminator 1 view .LVU87
 268 000e 71B1     		cbz	r1, .L16
  92:core/src/kmem.c **** 	{
  93:core/src/kmem.c **** 		return (RK_ERR_MEM_FREE);
  94:core/src/kmem.c **** 	}
  95:core/src/kmem.c **** 	RK_CR_AREA
 269              		.loc 1 95 2 is_stmt 1 view .LVU88
  96:core/src/kmem.c **** 	RK_CR_ENTER
 270              		.loc 1 96 2 view .LVU89
 271 0010 FFF7FEFF 		bl	kEnterCR
 272              	.LVL23:
  97:core/src/kmem.c **** 	*(VOID **) blockPtr = kobj->freeListPtr;
 273              		.loc 1 97 2 view .LVU90
 274              		.loc 1 97 28 is_stmt 0 view .LVU91
 275 0014 6368     		ldr	r3, [r4, #4]
 276              		.loc 1 97 22 view .LVU92
 277 0016 2B60     		str	r3, [r5]
  98:core/src/kmem.c **** 	kobj->freeListPtr = blockPtr;
 278              		.loc 1 98 2 is_stmt 1 view .LVU93
 279              		.loc 1 98 20 is_stmt 0 view .LVU94
 280 0018 6560     		str	r5, [r4, #4]
  99:core/src/kmem.c **** 	kobj->nFreeBlocks += 1;
 281              		.loc 1 99 2 is_stmt 1 view .LVU95
 282              		.loc 1 99 6 is_stmt 0 view .LVU96
 283 001a 6369     		ldr	r3, [r4, #20]
 284              		.loc 1 99 20 view .LVU97
 285 001c 0133     		adds	r3, r3, #1
 286 001e 6361     		str	r3, [r4, #20]
 100:core/src/kmem.c **** 	RK_CR_EXIT
 287              		.loc 1 100 2 is_stmt 1 view .LVU98
 288 0020 FFF7FEFF 		bl	kExitCR
 289              	.LVL24:
 101:core/src/kmem.c **** 	return (RK_SUCCESS);
ARM GAS  /var/folders/fg/4fzv35n91mbcgx4z5jzqdsl40000gn/T//cctJ5uaz.s 			page 8


 290              		.loc 1 101 2 view .LVU99
 291              		.loc 1 101 9 is_stmt 0 view .LVU100
 292 0024 0020     		movs	r0, #0
 293              	.LVL25:
 294              	.L13:
 102:core/src/kmem.c **** }
 295              		.loc 1 102 1 view .LVU101
 296 0026 38BD     		pop	{r3, r4, r5, pc}
 297              	.LVL26:
 298              	.L15:
  89:core/src/kmem.c **** 	}
 299              		.loc 1 89 10 view .LVU102
 300 0028 6FF0C700 		mvn	r0, #199
 301              	.LVL27:
  89:core/src/kmem.c **** 	}
 302              		.loc 1 89 10 view .LVU103
 303 002c FBE7     		b	.L13
 304              	.LVL28:
 305              	.L16:
  93:core/src/kmem.c **** 	}
 306              		.loc 1 93 10 view .LVU104
 307 002e 6FF0C700 		mvn	r0, #199
 308              	.LVL29:
  93:core/src/kmem.c **** 	}
 309              		.loc 1 93 10 view .LVU105
 310 0032 F8E7     		b	.L13
 311              		.cfi_endproc
 312              	.LFE56:
 314              		.text
 315              	.Letext0:
 316              		.file 2 "arch/armv7m/kernel/inc/kdefs.h"
 317              		.file 3 "core/inc/kobjs.h"
 318              		.file 4 "arch/armv7m/kernel/inc/ksch.h"
 319              		.file 5 "core/inc/kerr.h"
ARM GAS  /var/folders/fg/4fzv35n91mbcgx4z5jzqdsl40000gn/T//cctJ5uaz.s 			page 9

