ARM GAS  /var/folders/fg/4fzv35n91mbcgx4z5jzqdsl40000gn/T//ccsuUsPw.s 			page 1


   1              		.cpu cortex-m3
   2              		.arch armv7-m
   3              		.fpu softvfp
   4              		.eabi_attribute 20, 1
   5              		.eabi_attribute 21, 1
   6              		.eabi_attribute 23, 3
   7              		.eabi_attribute 24, 1
   8              		.eabi_attribute 25, 1
   9              		.eabi_attribute 26, 1
  10              		.eabi_attribute 30, 1
  11              		.eabi_attribute 34, 1
  12              		.eabi_attribute 18, 4
  13              		.file	"kmesg.c"
  14              		.text
  15              	.Ltext0:
  16              		.cfi_sections	.debug_frame
  17              		.file 1 "core/src/kmesg.c"
  18              		.section	.rodata.kMboxInit.str1.4,"aMS",%progbits,1
  19              		.align	2
  20              	.LC0:
  21 0000 6D61696C 		.ascii	"mailq\000"
  21      7100
  22              		.section	.text.kMboxInit,"ax",%progbits
  23              		.align	1
  24              		.global	kMboxInit
  25              		.syntax unified
  26              		.thumb
  27              		.thumb_func
  29              	kMboxInit:
  30              	.LVL0:
  31              	.LFB54:
   1:core/src/kmesg.c **** /******************************************************************************
   2:core/src/kmesg.c ****  *
   3:core/src/kmesg.c ****  *                     [RK0 - Real-Time Kernel '0']
   4:core/src/kmesg.c ****  *
   5:core/src/kmesg.c ****  * Version          :   V0.4.0
   6:core/src/kmesg.c ****  * Architecture     :   ARMv7m
   7:core/src/kmesg.c ****  *
   8:core/src/kmesg.c ****  *
   9:core/src/kmesg.c ****  * Copyright (c) 2025 Antonio Giacomelli
  10:core/src/kmesg.c ****  *
  11:core/src/kmesg.c ****  *
  12:core/src/kmesg.c ****  ******************************************************************************/
  13:core/src/kmesg.c **** 
  14:core/src/kmesg.c **** /******************************************************************************
  15:core/src/kmesg.c ****  *
  16:core/src/kmesg.c ****  *  Module          : MESSAGE-PASSING
  17:core/src/kmesg.c ****  *  Depends on      : LOW-LEVEL SCHEDULER, TIMER
  18:core/src/kmesg.c ****  *  Provides to     : EXECUTIVE, APPLICATION
  19:core/src/kmesg.c ****  *  Public API      : YES
  20:core/src/kmesg.c ****  *
  21:core/src/kmesg.c ****  *****************************************************************************/
  22:core/src/kmesg.c **** 
  23:core/src/kmesg.c **** #define RK_CODE
  24:core/src/kmesg.c **** 
  25:core/src/kmesg.c **** #include <kexecutive.h>
  26:core/src/kmesg.c **** 
ARM GAS  /var/folders/fg/4fzv35n91mbcgx4z5jzqdsl40000gn/T//ccsuUsPw.s 			page 2


  27:core/src/kmesg.c **** /* Timeout Node Setup */
  28:core/src/kmesg.c **** 
  29:core/src/kmesg.c **** #ifndef RK_TASK_TIMEOUT_WAITINGQUEUE_SETUP
  30:core/src/kmesg.c **** #define RK_TASK_TIMEOUT_WAITINGQUEUE_SETUP \
  31:core/src/kmesg.c ****     runPtr->timeoutNode.timeoutType = RK_BLOCKING_TIMEOUT; \
  32:core/src/kmesg.c ****     runPtr->timeoutNode.waitingQueuePtr = &kobj->waitingQueue;
  33:core/src/kmesg.c **** #endif
  34:core/src/kmesg.c **** 
  35:core/src/kmesg.c **** /*******************************************************************************
  36:core/src/kmesg.c ****  * MAILBOXES
  37:core/src/kmesg.c ****  ******************************************************************************/
  38:core/src/kmesg.c **** #if (RK_CONF_MBOX==ON)
  39:core/src/kmesg.c **** /*
  40:core/src/kmesg.c ****  * a mailbox holds an VOID *variable as a mail
  41:core/src/kmesg.c ****  * it can initialise full (non-null) or empty (NULL)
  42:core/src/kmesg.c ****  * */
  43:core/src/kmesg.c **** 
  44:core/src/kmesg.c **** RK_ERR kMboxInit( RK_MBOX *const kobj, VOID *initMailPtr)
  45:core/src/kmesg.c **** {
  32              		.loc 1 45 1 view -0
  33              		.cfi_startproc
  34              		@ args = 0, pretend = 0, frame = 0
  35              		@ frame_needed = 0, uses_anonymous_args = 0
  36              		.loc 1 45 1 is_stmt 0 view .LVU1
  37 0000 70B5     		push	{r4, r5, r6, lr}
  38              		.cfi_def_cfa_offset 16
  39              		.cfi_offset 4, -16
  40              		.cfi_offset 5, -12
  41              		.cfi_offset 6, -8
  42              		.cfi_offset 14, -4
  43 0002 0446     		mov	r4, r0
  44 0004 0D46     		mov	r5, r1
  46:core/src/kmesg.c **** 	RK_CR_AREA
  45              		.loc 1 46 2 is_stmt 1 view .LVU2
  47:core/src/kmesg.c **** 	RK_CR_ENTER
  46              		.loc 1 47 2 view .LVU3
  47 0006 FFF7FEFF 		bl	kEnterCR
  48              	.LVL1:
  49              		.loc 1 47 2 is_stmt 0 view .LVU4
  50 000a 0646     		mov	r6, r0
  51              	.LVL2:
  48:core/src/kmesg.c **** 	if (kobj == NULL)
  52              		.loc 1 48 2 is_stmt 1 view .LVU5
  53              		.loc 1 48 5 is_stmt 0 view .LVU6
  54 000c 9CB1     		cbz	r4, .L5
  49:core/src/kmesg.c **** 	{
  50:core/src/kmesg.c **** 		KERR( RK_FAULT_OBJ_NULL);
  51:core/src/kmesg.c **** 		RK_CR_EXIT
  52:core/src/kmesg.c **** 		return (RK_ERROR);
  53:core/src/kmesg.c **** 	}
  54:core/src/kmesg.c **** 	kobj->mailPtr = initMailPtr;
  55              		.loc 1 54 2 is_stmt 1 view .LVU7
  56              		.loc 1 54 16 is_stmt 0 view .LVU8
  57 000e A560     		str	r5, [r4, #8]
  55:core/src/kmesg.c **** 	RK_ERR err;
  58              		.loc 1 55 2 is_stmt 1 view .LVU9
  56:core/src/kmesg.c **** 	err = kListInit( &kobj->waitingQueue, "mailq");
ARM GAS  /var/folders/fg/4fzv35n91mbcgx4z5jzqdsl40000gn/T//ccsuUsPw.s 			page 3


  59              		.loc 1 56 2 view .LVU10
  60              	.LVL3:
  61              	.LBB33:
  62              	.LBI33:
  63              		.file 2 "arch/armv7m/kernel/inc/ksch.h"
   1:arch/armv7m/kernel/inc/ksch.h **** /******************************************************************************
   2:arch/armv7m/kernel/inc/ksch.h ****  *
   3:arch/armv7m/kernel/inc/ksch.h ****  *     [[RK0] | [VERSION: 0.4.0]]
   4:arch/armv7m/kernel/inc/ksch.h ****  *
   5:arch/armv7m/kernel/inc/ksch.h ****  ******************************************************************************
   6:arch/armv7m/kernel/inc/ksch.h ****  ******************************************************************************
   7:arch/armv7m/kernel/inc/ksch.h ****  *  In this header:
   8:arch/armv7m/kernel/inc/ksch.h ****  *                  o High-level scheduler kernel module.
   9:arch/armv7m/kernel/inc/ksch.h ****  *
  10:arch/armv7m/kernel/inc/ksch.h ****  *****************************************************************************/
  11:arch/armv7m/kernel/inc/ksch.h **** #ifndef RK_SCH_H
  12:arch/armv7m/kernel/inc/ksch.h **** #define RK_SCH_H
  13:arch/armv7m/kernel/inc/ksch.h **** #ifdef __cplusplus
  14:arch/armv7m/kernel/inc/ksch.h **** {
  15:arch/armv7m/kernel/inc/ksch.h **** #endif
  16:arch/armv7m/kernel/inc/ksch.h **** 
  17:arch/armv7m/kernel/inc/ksch.h **** /* shared data */
  18:arch/armv7m/kernel/inc/ksch.h **** extern RK_TCB* runPtr; /* Pointer to the running TCB */
  19:arch/armv7m/kernel/inc/ksch.h **** extern RK_TCB tcbs[RK_NTHREADS]; /* Pool of TCBs */
  20:arch/armv7m/kernel/inc/ksch.h **** extern volatile RK_FAULT faultID; /* Fault ID */
  21:arch/armv7m/kernel/inc/ksch.h **** extern INT idleStack[RK_CONF_IDLE_STACKSIZE]; /* Stack for idle task */
  22:arch/armv7m/kernel/inc/ksch.h **** extern INT timerHandlerStack[RK_CONF_TIMHANDLER_STACKSIZE];
  23:arch/armv7m/kernel/inc/ksch.h **** extern RK_TCBQ readyQueue[RK_CONF_MIN_PRIO + 2]; /* Table of ready queues */
  24:arch/armv7m/kernel/inc/ksch.h **** extern RK_TCBQ timeOutQueue;
  25:arch/armv7m/kernel/inc/ksch.h **** extern volatile BOOL lockScheduler;
  26:arch/armv7m/kernel/inc/ksch.h **** extern volatile ULONG idleTicks;
  27:arch/armv7m/kernel/inc/ksch.h **** BOOL kSchNeedReschedule(RK_TCB*);
  28:arch/armv7m/kernel/inc/ksch.h **** VOID kSchSwtch(VOID);
  29:arch/armv7m/kernel/inc/ksch.h **** UINT kEnterCR(VOID);
  30:arch/armv7m/kernel/inc/ksch.h **** VOID kExitCR(UINT);
  31:arch/armv7m/kernel/inc/ksch.h **** VOID kInit(VOID);
  32:arch/armv7m/kernel/inc/ksch.h **** VOID kYield(VOID);
  33:arch/armv7m/kernel/inc/ksch.h **** VOID kApplicationInit(VOID);
  34:arch/armv7m/kernel/inc/ksch.h **** extern unsigned __getReadyPrio(unsigned);
  35:arch/armv7m/kernel/inc/ksch.h **** RK_ERR kTCBQInit(RK_LIST* const, CHAR*);
  36:arch/armv7m/kernel/inc/ksch.h **** RK_ERR kTCBQEnq(RK_LIST* const, RK_TCB* const);
  37:arch/armv7m/kernel/inc/ksch.h **** RK_ERR kTCBQDeq(RK_TCBQ* const, RK_TCB** const);
  38:arch/armv7m/kernel/inc/ksch.h **** RK_ERR kTCBQRem(RK_TCBQ* const, RK_TCB** const);
  39:arch/armv7m/kernel/inc/ksch.h **** RK_ERR kReadyCtxtSwtch(RK_TCB* const);
  40:arch/armv7m/kernel/inc/ksch.h **** RK_ERR kReadyQDeq(RK_TCB** const, RK_PRIO);
  41:arch/armv7m/kernel/inc/ksch.h **** RK_TCB* kTCBQPeek(RK_TCBQ* const);
  42:arch/armv7m/kernel/inc/ksch.h **** RK_ERR kTCBQEnqByPrio(RK_TCBQ* const, RK_TCB* const);
  43:arch/armv7m/kernel/inc/ksch.h **** 
  44:arch/armv7m/kernel/inc/ksch.h **** /* Doubly Linked List ADT */
  45:arch/armv7m/kernel/inc/ksch.h **** 
  46:arch/armv7m/kernel/inc/ksch.h **** #define RK_LIST_GET_TCB_NODE(nodePtr, containerType) \
  47:arch/armv7m/kernel/inc/ksch.h ****     RK_GET_CONTAINER_ADDR(nodePtr, containerType, tcbNode)
  48:arch/armv7m/kernel/inc/ksch.h **** 
  49:arch/armv7m/kernel/inc/ksch.h **** #define KLISTNODEDEL(nodePtr) \
  50:arch/armv7m/kernel/inc/ksch.h ****     do \
  51:arch/armv7m/kernel/inc/ksch.h ****     \
  52:arch/armv7m/kernel/inc/ksch.h ****     { \
ARM GAS  /var/folders/fg/4fzv35n91mbcgx4z5jzqdsl40000gn/T//ccsuUsPw.s 			page 4


  53:arch/armv7m/kernel/inc/ksch.h ****     nodePtr->nextPtr->prevPtr = nodePtr->prevPtr; \
  54:arch/armv7m/kernel/inc/ksch.h ****     nodePtr->prevPtr->nextPtr = nodePtr->nextPtr; \
  55:arch/armv7m/kernel/inc/ksch.h ****     nodePtr->prevPtr=NULL; \
  56:arch/armv7m/kernel/inc/ksch.h ****     nodePtr->nextPtr=NULL; \
  57:arch/armv7m/kernel/inc/ksch.h ****     \
  58:arch/armv7m/kernel/inc/ksch.h ****     }while(0U)
  59:arch/armv7m/kernel/inc/ksch.h **** 
  60:arch/armv7m/kernel/inc/ksch.h **** __attribute__((always_inline)) static inline RK_ERR kListInit(RK_LIST* const kobj,
  64              		.loc 2 60 53 view .LVU11
  65              	.LBB34:
  61:arch/armv7m/kernel/inc/ksch.h ****         CHAR* listName)
  62:arch/armv7m/kernel/inc/ksch.h **** {
  63:arch/armv7m/kernel/inc/ksch.h ****     if (kobj == NULL)
  66              		.loc 2 63 5 view .LVU12
  64:arch/armv7m/kernel/inc/ksch.h ****     {
  65:arch/armv7m/kernel/inc/ksch.h ****         return (RK_ERR_OBJ_NULL);
  66:arch/armv7m/kernel/inc/ksch.h ****     }
  67:arch/armv7m/kernel/inc/ksch.h ****     kobj->listDummy.nextPtr = & (kobj->listDummy);
  67              		.loc 2 67 5 view .LVU13
  68              		.loc 2 67 31 is_stmt 0 view .LVU14
  69 0010 04F10C03 		add	r3, r4, #12
  70              	.LVL4:
  71              		.loc 2 67 29 view .LVU15
  72 0014 E360     		str	r3, [r4, #12]
  68:arch/armv7m/kernel/inc/ksch.h ****     kobj->listDummy.prevPtr = & (kobj->listDummy);
  73              		.loc 2 68 5 is_stmt 1 view .LVU16
  74              		.loc 2 68 29 is_stmt 0 view .LVU17
  75 0016 2361     		str	r3, [r4, #16]
  69:arch/armv7m/kernel/inc/ksch.h ****     kobj->listName = listName;
  76              		.loc 2 69 5 is_stmt 1 view .LVU18
  77              		.loc 2 69 20 is_stmt 0 view .LVU19
  78 0018 0C4B     		ldr	r3, .L6
  79              	.LVL5:
  80              		.loc 2 69 20 view .LVU20
  81 001a 6361     		str	r3, [r4, #20]
  70:arch/armv7m/kernel/inc/ksch.h ****     kobj->size = 0U;
  82              		.loc 2 70 5 is_stmt 1 view .LVU21
  83              		.loc 2 70 16 is_stmt 0 view .LVU22
  84 001c 0025     		movs	r5, #0
  85              	.LVL6:
  86              		.loc 2 70 16 view .LVU23
  87 001e A561     		str	r5, [r4, #24]
  71:arch/armv7m/kernel/inc/ksch.h ****     kobj->init=TRUE;
  88              		.loc 2 71 5 is_stmt 1 view .LVU24
  89              		.loc 2 71 15 is_stmt 0 view .LVU25
  90 0020 0123     		movs	r3, #1
  91 0022 E361     		str	r3, [r4, #28]
  72:arch/armv7m/kernel/inc/ksch.h ****     _RK_DMB/*guarantee data is updated before going*/
  92              		.loc 2 72 5 is_stmt 1 view .LVU26
  93              		.syntax unified
  94              	@ 72 "arch/armv7m/kernel/inc/ksch.h" 1
  95 0024 BFF35F8F 		dmb 0xF
  96              	@ 0 "" 2
  73:arch/armv7m/kernel/inc/ksch.h ****     return (RK_SUCCESS);
  97              		.loc 2 73 5 view .LVU27
  98              	.LVL7:
  99              		.loc 2 73 5 is_stmt 0 view .LVU28
ARM GAS  /var/folders/fg/4fzv35n91mbcgx4z5jzqdsl40000gn/T//ccsuUsPw.s 			page 5


 100              		.thumb
 101              		.syntax unified
 102              	.LBE34:
 103              	.LBE33:
  57:core/src/kmesg.c **** 	if (err != RK_SUCCESS)
 104              		.loc 1 57 2 is_stmt 1 view .LVU29
  58:core/src/kmesg.c **** 	{
  59:core/src/kmesg.c **** 		RK_CR_EXIT
  60:core/src/kmesg.c **** 		return (err);
  61:core/src/kmesg.c **** 	}
  62:core/src/kmesg.c **** 	kobj->init = TRUE;
 105              		.loc 1 62 2 view .LVU30
 106              		.loc 1 62 13 is_stmt 0 view .LVU31
 107 0028 6360     		str	r3, [r4, #4]
  63:core/src/kmesg.c **** 	kobj->objID = RK_MAILBOX_KOBJ_ID;
 108              		.loc 1 63 2 is_stmt 1 view .LVU32
 109              		.loc 1 63 14 is_stmt 0 view .LVU33
 110 002a 0423     		movs	r3, #4
 111 002c 2360     		str	r3, [r4]
  64:core/src/kmesg.c **** 	RK_CR_EXIT
 112              		.loc 1 64 2 is_stmt 1 view .LVU34
 113 002e FFF7FEFF 		bl	kExitCR
 114              	.LVL8:
  65:core/src/kmesg.c **** 	return (RK_SUCCESS);
 115              		.loc 1 65 2 view .LVU35
 116              		.loc 1 65 9 is_stmt 0 view .LVU36
 117 0032 2846     		mov	r0, r5
 118              	.LVL9:
 119              	.L1:
  66:core/src/kmesg.c **** }
 120              		.loc 1 66 1 view .LVU37
 121 0034 70BD     		pop	{r4, r5, r6, pc}
 122              	.LVL10:
 123              	.L5:
  50:core/src/kmesg.c **** 		RK_CR_EXIT
 124              		.loc 1 50 3 is_stmt 1 view .LVU38
 125 0036 6FF06300 		mvn	r0, #99
 126              	.LVL11:
  50:core/src/kmesg.c **** 		RK_CR_EXIT
 127              		.loc 1 50 3 is_stmt 0 view .LVU39
 128 003a FFF7FEFF 		bl	kErrHandler
 129              	.LVL12:
  51:core/src/kmesg.c **** 		return (RK_ERROR);
 130              		.loc 1 51 3 is_stmt 1 view .LVU40
 131 003e 3046     		mov	r0, r6
 132 0040 FFF7FEFF 		bl	kExitCR
 133              	.LVL13:
  52:core/src/kmesg.c **** 	}
 134              		.loc 1 52 3 view .LVU41
  52:core/src/kmesg.c **** 	}
 135              		.loc 1 52 10 is_stmt 0 view .LVU42
 136 0044 4FF0FF30 		mov	r0, #-1
 137 0048 F4E7     		b	.L1
 138              	.L7:
 139 004a 00BF     		.align	2
 140              	.L6:
 141 004c 00000000 		.word	.LC0
ARM GAS  /var/folders/fg/4fzv35n91mbcgx4z5jzqdsl40000gn/T//ccsuUsPw.s 			page 6


 142              		.cfi_endproc
 143              	.LFE54:
 145              		.section	.text.kMboxSetOwner,"ax",%progbits
 146              		.align	1
 147              		.global	kMboxSetOwner
 148              		.syntax unified
 149              		.thumb
 150              		.thumb_func
 152              	kMboxSetOwner:
 153              	.LVL14:
 154              	.LFB55:
  67:core/src/kmesg.c **** /* Only an owner can _receive_ from a message kernel object */
  68:core/src/kmesg.c **** RK_ERR kMboxSetOwner( RK_MBOX *const kobj, RK_TASK_HANDLE const taskHandle)
  69:core/src/kmesg.c **** {
 155              		.loc 1 69 1 is_stmt 1 view -0
 156              		.cfi_startproc
 157              		@ args = 0, pretend = 0, frame = 0
 158              		@ frame_needed = 0, uses_anonymous_args = 0
 159              		.loc 1 69 1 is_stmt 0 view .LVU44
 160 0000 38B5     		push	{r3, r4, r5, lr}
 161              		.cfi_def_cfa_offset 16
 162              		.cfi_offset 3, -16
 163              		.cfi_offset 4, -12
 164              		.cfi_offset 5, -8
 165              		.cfi_offset 14, -4
 166 0002 0446     		mov	r4, r0
 167 0004 0D46     		mov	r5, r1
  70:core/src/kmesg.c **** 	RK_CR_AREA
 168              		.loc 1 70 2 is_stmt 1 view .LVU45
  71:core/src/kmesg.c **** 	RK_CR_ENTER
 169              		.loc 1 71 2 view .LVU46
 170 0006 FFF7FEFF 		bl	kEnterCR
 171              	.LVL15:
  72:core/src/kmesg.c **** 	if (kobj && taskHandle)
 172              		.loc 1 72 2 view .LVU47
 173              		.loc 1 72 5 is_stmt 0 view .LVU48
 174 000a 2CB1     		cbz	r4, .L9
 175              		.loc 1 72 11 discriminator 1 view .LVU49
 176 000c 25B1     		cbz	r5, .L9
  73:core/src/kmesg.c **** 	{
  74:core/src/kmesg.c **** 		kobj->ownerTask = taskHandle;
 177              		.loc 1 74 3 is_stmt 1 view .LVU50
 178              		.loc 1 74 19 is_stmt 0 view .LVU51
 179 000e 2562     		str	r5, [r4, #32]
  75:core/src/kmesg.c **** 		RK_CR_EXIT
 180              		.loc 1 75 3 is_stmt 1 view .LVU52
 181 0010 FFF7FEFF 		bl	kExitCR
 182              	.LVL16:
  76:core/src/kmesg.c **** 		return (RK_SUCCESS);
 183              		.loc 1 76 3 view .LVU53
 184              		.loc 1 76 10 is_stmt 0 view .LVU54
 185 0014 0020     		movs	r0, #0
 186              	.L8:
  77:core/src/kmesg.c **** 	}
  78:core/src/kmesg.c **** 	RK_CR_EXIT
  79:core/src/kmesg.c **** 	return (RK_ERR_OBJ_NULL);
  80:core/src/kmesg.c **** }
ARM GAS  /var/folders/fg/4fzv35n91mbcgx4z5jzqdsl40000gn/T//ccsuUsPw.s 			page 7


 187              		.loc 1 80 1 view .LVU55
 188 0016 38BD     		pop	{r3, r4, r5, pc}
 189              	.LVL17:
 190              	.L9:
  78:core/src/kmesg.c **** 	return (RK_ERR_OBJ_NULL);
 191              		.loc 1 78 2 is_stmt 1 view .LVU56
 192 0018 FFF7FEFF 		bl	kExitCR
 193              	.LVL18:
  79:core/src/kmesg.c **** }
 194              		.loc 1 79 2 view .LVU57
  79:core/src/kmesg.c **** }
 195              		.loc 1 79 9 is_stmt 0 view .LVU58
 196 001c 6FF06300 		mvn	r0, #99
 197 0020 F9E7     		b	.L8
 198              		.cfi_endproc
 199              	.LFE55:
 201              		.section	.text.kMboxPost,"ax",%progbits
 202              		.align	1
 203              		.global	kMboxPost
 204              		.syntax unified
 205              		.thumb
 206              		.thumb_func
 208              	kMboxPost:
 209              	.LVL19:
 210              	.LFB56:
  81:core/src/kmesg.c **** 
  82:core/src/kmesg.c **** RK_ERR kMboxPost( RK_MBOX *const kobj, VOID *sendPtr,
  83:core/src/kmesg.c **** 		RK_TICK const timeout)
  84:core/src/kmesg.c **** {
 211              		.loc 1 84 1 is_stmt 1 view -0
 212              		.cfi_startproc
 213              		@ args = 0, pretend = 0, frame = 8
 214              		@ frame_needed = 0, uses_anonymous_args = 0
 215              		.loc 1 84 1 is_stmt 0 view .LVU60
 216 0000 2DE9F041 		push	{r4, r5, r6, r7, r8, lr}
 217              		.cfi_def_cfa_offset 24
 218              		.cfi_offset 4, -24
 219              		.cfi_offset 5, -20
 220              		.cfi_offset 6, -16
 221              		.cfi_offset 7, -12
 222              		.cfi_offset 8, -8
 223              		.cfi_offset 14, -4
 224 0004 82B0     		sub	sp, sp, #8
 225              		.cfi_def_cfa_offset 32
 226 0006 0446     		mov	r4, r0
 227 0008 0F46     		mov	r7, r1
 228 000a 1646     		mov	r6, r2
  85:core/src/kmesg.c **** 
  86:core/src/kmesg.c **** 	RK_CR_AREA
 229              		.loc 1 86 2 is_stmt 1 view .LVU61
  87:core/src/kmesg.c **** 	RK_CR_ENTER
 230              		.loc 1 87 2 view .LVU62
 231 000c FFF7FEFF 		bl	kEnterCR
 232              	.LVL20:
 233              		.loc 1 87 2 is_stmt 0 view .LVU63
 234 0010 0546     		mov	r5, r0
 235              	.LVL21:
ARM GAS  /var/folders/fg/4fzv35n91mbcgx4z5jzqdsl40000gn/T//ccsuUsPw.s 			page 8


  88:core/src/kmesg.c **** 	if (RK_IS_BLOCK_ON_ISR( timeout))
 236              		.loc 1 88 2 is_stmt 1 view .LVU64
 237              	.LBB35:
 238              	.LBI35:
 239              		.file 3 "arch/armv7m/kernel/inc/kdefs.h"
   1:arch/armv7m/kernel/inc/kdefs.h **** /******************************************************************************
   2:arch/armv7m/kernel/inc/kdefs.h ****  *
   3:arch/armv7m/kernel/inc/kdefs.h ****  *                     [RK0 - Real-Time Kernel '0']
   4:arch/armv7m/kernel/inc/kdefs.h ****  *
   5:arch/armv7m/kernel/inc/kdefs.h ****  * Version          :   V0.4.0
   6:arch/armv7m/kernel/inc/kdefs.h ****  * Architecture     :   ARMv7m
   7:arch/armv7m/kernel/inc/kdefs.h ****  *
   8:arch/armv7m/kernel/inc/kdefs.h ****  *
   9:arch/armv7m/kernel/inc/kdefs.h ****  * Copyright (c) 2025 Antonio Giacomelli
  10:arch/armv7m/kernel/inc/kdefs.h ****  *
  11:arch/armv7m/kernel/inc/kdefs.h ****  *
  12:arch/armv7m/kernel/inc/kdefs.h ****  ******************************************************************************/
  13:arch/armv7m/kernel/inc/kdefs.h **** 
  14:arch/armv7m/kernel/inc/kdefs.h **** /******************************************************************************
  15:arch/armv7m/kernel/inc/kdefs.h ****  * 	In this header:
  16:arch/armv7m/kernel/inc/kdefs.h ****  * 					o System defines: code values, typedefs, macro helpers
  17:arch/armv7m/kernel/inc/kdefs.h ****  *
  18:arch/armv7m/kernel/inc/kdefs.h ****  ******************************************************************************/
  19:arch/armv7m/kernel/inc/kdefs.h **** 
  20:arch/armv7m/kernel/inc/kdefs.h **** #ifndef RK_DEFS_H
  21:arch/armv7m/kernel/inc/kdefs.h **** #define RK_DEFS_H
  22:arch/armv7m/kernel/inc/kdefs.h **** 
  23:arch/armv7m/kernel/inc/kdefs.h **** #include <kenv.h>
  24:arch/armv7m/kernel/inc/kdefs.h **** 
  25:arch/armv7m/kernel/inc/kdefs.h **** /* C PROGRAMMING PRIMITIVES */
  26:arch/armv7m/kernel/inc/kdefs.h **** 
  27:arch/armv7m/kernel/inc/kdefs.h **** typedef void VOID;
  28:arch/armv7m/kernel/inc/kdefs.h **** typedef char CHAR;
  29:arch/armv7m/kernel/inc/kdefs.h **** typedef unsigned char BYTE;
  30:arch/armv7m/kernel/inc/kdefs.h **** typedef signed INT;/* stack type */
  31:arch/armv7m/kernel/inc/kdefs.h **** typedef unsigned UINT;
  32:arch/armv7m/kernel/inc/kdefs.h **** typedef unsigned long ULONG;
  33:arch/armv7m/kernel/inc/kdefs.h **** typedef long LONG;
  34:arch/armv7m/kernel/inc/kdefs.h **** 
  35:arch/armv7m/kernel/inc/kdefs.h **** /* if no stdbool.h */
  36:arch/armv7m/kernel/inc/kdefs.h **** #if !defined(bool)
  37:arch/armv7m/kernel/inc/kdefs.h **** typedef unsigned BOOL;
  38:arch/armv7m/kernel/inc/kdefs.h **** #define FALSE (unsigned)(0)
  39:arch/armv7m/kernel/inc/kdefs.h **** #define TRUE  (unsigned)(1)
  40:arch/armv7m/kernel/inc/kdefs.h **** #define bool
  41:arch/armv7m/kernel/inc/kdefs.h **** #else
  42:arch/armv7m/kernel/inc/kdefs.h **** typedef _Bool BOOL;
  43:arch/armv7m/kernel/inc/kdefs.h **** #define TRUE		true
  44:arch/armv7m/kernel/inc/kdefs.h **** #define FALSE	    false
  45:arch/armv7m/kernel/inc/kdefs.h **** #endif
  46:arch/armv7m/kernel/inc/kdefs.h **** 
  47:arch/armv7m/kernel/inc/kdefs.h **** /* Task Initialisation Defines: these values are all subtracted from the
  48:arch/armv7m/kernel/inc/kdefs.h ****      top of the stack */
  49:arch/armv7m/kernel/inc/kdefs.h **** #define PSR_OFFSET  1 /* Program Status Register offset */
  50:arch/armv7m/kernel/inc/kdefs.h **** #define PC_OFFSET   2 /* Program Counter offset */
  51:arch/armv7m/kernel/inc/kdefs.h **** #define LR_OFFSET   3 /* Link Register offset */
  52:arch/armv7m/kernel/inc/kdefs.h **** #define R12_OFFSET  4 /* R12 Register offset */
ARM GAS  /var/folders/fg/4fzv35n91mbcgx4z5jzqdsl40000gn/T//ccsuUsPw.s 			page 9


  53:arch/armv7m/kernel/inc/kdefs.h **** #define R3_OFFSET   5 /* R3 Register offset */
  54:arch/armv7m/kernel/inc/kdefs.h **** #define R2_OFFSET   6 /* R2 Register offset */
  55:arch/armv7m/kernel/inc/kdefs.h **** #define R1_OFFSET   7 /* R1 Register offset */
  56:arch/armv7m/kernel/inc/kdefs.h **** #define R0_OFFSET   8 /* R0 Register offset */
  57:arch/armv7m/kernel/inc/kdefs.h **** #define R11_OFFSET  9 /* R11 Register offset */
  58:arch/armv7m/kernel/inc/kdefs.h **** #define R10_OFFSET  10 /* R10 Register offset */
  59:arch/armv7m/kernel/inc/kdefs.h **** #define R9_OFFSET   11 /* R9 Register offset */
  60:arch/armv7m/kernel/inc/kdefs.h **** #define R8_OFFSET   12 /* R8 Register offset */
  61:arch/armv7m/kernel/inc/kdefs.h **** #define R7_OFFSET   13 /* R7 Register offset */
  62:arch/armv7m/kernel/inc/kdefs.h **** #define R6_OFFSET   14 /* R6 Register offset */
  63:arch/armv7m/kernel/inc/kdefs.h **** #define R5_OFFSET   15 /* R5 Register offset */
  64:arch/armv7m/kernel/inc/kdefs.h **** #define R4_OFFSET   16 /* R4 Register offset */
  65:arch/armv7m/kernel/inc/kdefs.h **** 
  66:arch/armv7m/kernel/inc/kdefs.h **** /*** Configuration Defines for kconfig.h ***/
  67:arch/armv7m/kernel/inc/kdefs.h **** #define RK_TIMHANDLER_ID       ((RK_PID)(0xFF))
  68:arch/armv7m/kernel/inc/kdefs.h **** #define RK_IDLETASK_ID         ((RK_PID)(0x00))
  69:arch/armv7m/kernel/inc/kdefs.h **** #define RK_N_SYSTASKS          2U /*idle task + tim handler*/
  70:arch/armv7m/kernel/inc/kdefs.h **** #define RK_NTHREADS            (RK_CONF_N_USRTASKS + RK_N_SYSTASKS)
  71:arch/armv7m/kernel/inc/kdefs.h **** #define RK_NPRIO               (RK_CONF_MIN_PRIO + 1U)
  72:arch/armv7m/kernel/inc/kdefs.h **** #ifdef  RK_SYSTEMCORECLOCK
  73:arch/armv7m/kernel/inc/kdefs.h **** #define RK_TICK_10MS           ((RK_SYSTEMCORECLOCK)/100U)  /*  Tick period of 10ms */
  74:arch/armv7m/kernel/inc/kdefs.h **** #define RK_TICK_5MS            ((RK_SYSTEMCORECLOCK)/200U)  /* Tick period of 5ms */
  75:arch/armv7m/kernel/inc/kdefs.h **** #define RK_TICK_1MS            ((RK_SYSTEMCORECLOCK)/1000U) /*  Tick period of 1ms */
  76:arch/armv7m/kernel/inc/kdefs.h **** #endif
  77:arch/armv7m/kernel/inc/kdefs.h **** 
  78:arch/armv7m/kernel/inc/kdefs.h **** 
  79:arch/armv7m/kernel/inc/kdefs.h **** /* Kernel Types Aliases */
  80:arch/armv7m/kernel/inc/kdefs.h **** typedef BYTE          RK_PID; 
  81:arch/armv7m/kernel/inc/kdefs.h **** typedef BYTE          RK_PRIO; 
  82:arch/armv7m/kernel/inc/kdefs.h **** typedef INT           RK_TICK; 
  83:arch/armv7m/kernel/inc/kdefs.h **** typedef INT           RK_ERR;
  84:arch/armv7m/kernel/inc/kdefs.h **** typedef UINT          RK_TASK_STATUS;
  85:arch/armv7m/kernel/inc/kdefs.h **** typedef INT           RK_FAULT;
  86:arch/armv7m/kernel/inc/kdefs.h **** typedef UINT          RK_KOBJ_ID;
  87:arch/armv7m/kernel/inc/kdefs.h **** 
  88:arch/armv7m/kernel/inc/kdefs.h **** /* Function pointers */
  89:arch/armv7m/kernel/inc/kdefs.h **** typedef void (*RK_TASKENTRY)( void*);/* Task entry function pointer */
  90:arch/armv7m/kernel/inc/kdefs.h **** typedef void (*RK_TIMER_CALLOUT)( void*);/* Callout (timers)             */
  91:arch/armv7m/kernel/inc/kdefs.h **** 
  92:arch/armv7m/kernel/inc/kdefs.h **** /* Max and Min Values for C Primitives  */
  93:arch/armv7m/kernel/inc/kdefs.h **** 
  94:arch/armv7m/kernel/inc/kdefs.h **** /* maximum usigned =  N-bit number 2^N - 1
  95:arch/armv7m/kernel/inc/kdefs.h ****    maximum signed  =  N-bit number 2^(N-1) - 1 */
  96:arch/armv7m/kernel/inc/kdefs.h **** 
  97:arch/armv7m/kernel/inc/kdefs.h **** #define RK_PRIO_TYPE_MAX ((1UL << (8UL * sizeof(RK_PRIO))) - 1UL)
  98:arch/armv7m/kernel/inc/kdefs.h **** #define RK_INT_MAX       ((1UL << ((8UL * sizeof(INT)) - 1UL)) - 1UL)
  99:arch/armv7m/kernel/inc/kdefs.h **** #define RK_UINT_MAX      ((1UL << (8UL * sizeof(UINT))) - 1UL)
 100:arch/armv7m/kernel/inc/kdefs.h **** #define RK_ULONG_MAX     ((1UL << (8UL * sizeof(ULONG))) - 1UL)
 101:arch/armv7m/kernel/inc/kdefs.h **** #define RK_LONG_MAX      ((1UL << ((8UL * sizeof(LONG)) - 1UL)) - 1UL)
 102:arch/armv7m/kernel/inc/kdefs.h **** #define RK_TICK_TYPE_MAX  ((1UL << ((8UL * sizeof(RK_TICK)) - 1UL)) - 1UL)
 103:arch/armv7m/kernel/inc/kdefs.h **** 
 104:arch/armv7m/kernel/inc/kdefs.h **** /* KERNEL SERVICES */
 105:arch/armv7m/kernel/inc/kdefs.h **** 
 106:arch/armv7m/kernel/inc/kdefs.h **** /* Task Run-to-completion */
 107:arch/armv7m/kernel/inc/kdefs.h **** #define RK_PREEMPT          0U
 108:arch/armv7m/kernel/inc/kdefs.h **** #define RK_NO_PREEMPT       1U
 109:arch/armv7m/kernel/inc/kdefs.h **** 
ARM GAS  /var/folders/fg/4fzv35n91mbcgx4z5jzqdsl40000gn/T//ccsuUsPw.s 			page 10


 110:arch/armv7m/kernel/inc/kdefs.h **** /* Timeout options */
 111:arch/armv7m/kernel/inc/kdefs.h **** #define RK_WAIT_FOREVER      ((RK_TICK)0xFFFFFFFF)
 112:arch/armv7m/kernel/inc/kdefs.h **** #define RK_NO_WAIT           ((RK_TICK)0x0)
 113:arch/armv7m/kernel/inc/kdefs.h **** 
 114:arch/armv7m/kernel/inc/kdefs.h **** /* Timeout code */
 115:arch/armv7m/kernel/inc/kdefs.h **** #define RK_BLOCKING_TIMEOUT  ((UINT)0x1)
 116:arch/armv7m/kernel/inc/kdefs.h **** #define RK_ELAPSING_TIMEOUT  ((UINT)0x2)
 117:arch/armv7m/kernel/inc/kdefs.h **** #define RK_TIMER_TIMEOUT     ((UINT)0x3)
 118:arch/armv7m/kernel/inc/kdefs.h **** #define RK_SLEEP_TIMEOUT     ((UINT)0x4)
 119:arch/armv7m/kernel/inc/kdefs.h **** #define RK_INVALID_TIMEOUT   ((UINT)0x0)
 120:arch/armv7m/kernel/inc/kdefs.h **** 
 121:arch/armv7m/kernel/inc/kdefs.h **** /* Task Flags Options */
 122:arch/armv7m/kernel/inc/kdefs.h **** #define RK_FLAGS_OR             ((UINT)0x1)
 123:arch/armv7m/kernel/inc/kdefs.h **** #define RK_FLAGS_ANY            ((UINT)0x4)
 124:arch/armv7m/kernel/inc/kdefs.h **** #define RK_FLAGS_ALL            ((UINT)0x8)
 125:arch/armv7m/kernel/inc/kdefs.h **** 
 126:arch/armv7m/kernel/inc/kdefs.h **** /* System Task Signals */
 127:arch/armv7m/kernel/inc/kdefs.h **** #define RK_SIG_TIMER            ((ULONG)0x2)
 128:arch/armv7m/kernel/inc/kdefs.h **** 
 129:arch/armv7m/kernel/inc/kdefs.h **** 
 130:arch/armv7m/kernel/inc/kdefs.h **** /* Mutex Priority Inh */
 131:arch/armv7m/kernel/inc/kdefs.h **** #define RK_NO_INHERIT           ((UINT)0)
 132:arch/armv7m/kernel/inc/kdefs.h **** #define RK_INHERIT              ((UINT)1)
 133:arch/armv7m/kernel/inc/kdefs.h **** 
 134:arch/armv7m/kernel/inc/kdefs.h **** 
 135:arch/armv7m/kernel/inc/kdefs.h **** /* Kernel Return Values */
 136:arch/armv7m/kernel/inc/kdefs.h **** 
 137:arch/armv7m/kernel/inc/kdefs.h **** #define RK_SUCCESS                   ((RK_ERR)0x0)
 138:arch/armv7m/kernel/inc/kdefs.h **** /* Generic error (-1) */
 139:arch/armv7m/kernel/inc/kdefs.h **** #define RK_ERROR                     ((RK_ERR)0xFFFFFFFF)
 140:arch/armv7m/kernel/inc/kdefs.h **** 
 141:arch/armv7m/kernel/inc/kdefs.h **** /* Non-service specific errors (-100) */
 142:arch/armv7m/kernel/inc/kdefs.h **** #define RK_ERR_OBJ_NULL              ((RK_ERR)0xFFFFFF9C)
 143:arch/armv7m/kernel/inc/kdefs.h **** #define RK_ERR_OBJ_NOT_INIT          ((RK_ERR)0xFFFFFF9B)
 144:arch/armv7m/kernel/inc/kdefs.h **** #define RK_ERR_LIST_EMPTY            ((RK_ERR)0xFFFFFF9A)
 145:arch/armv7m/kernel/inc/kdefs.h **** #define RK_ERR_EMPTY_WAITING_QUEUE   ((RK_ERR)0xFFFFFF99)
 146:arch/armv7m/kernel/inc/kdefs.h **** #define RK_ERR_READY_QUEUE           ((RK_ERR)0xFFFFFF98)
 147:arch/armv7m/kernel/inc/kdefs.h **** #define RK_ERR_INVALID_PRIO          ((RK_ERR)0xFFFFFF97)
 148:arch/armv7m/kernel/inc/kdefs.h **** #define RK_ERR_OVERFLOW              ((RK_ERR)0xFFFFFF96)
 149:arch/armv7m/kernel/inc/kdefs.h **** #define RK_ERR_KERNEL_VERSION        ((RK_ERR)0xFFFFFF95)
 150:arch/armv7m/kernel/inc/kdefs.h **** #define RK_ERR_TIMEOUT               ((RK_ERR)0xFFFFFF94)
 151:arch/armv7m/kernel/inc/kdefs.h **** #define RK_ERR_INVALID_TIMEOUT       ((RK_ERR)0xFFFFFF93)
 152:arch/armv7m/kernel/inc/kdefs.h **** #define RK_ERR_TASK_INVALID_ST       ((RK_ERR)0xFFFFFF92)
 153:arch/armv7m/kernel/inc/kdefs.h **** #define RK_ERR_INVALID_ISR_PRIMITIVE ((RK_ERR)0xFFFFFF91)
 154:arch/armv7m/kernel/inc/kdefs.h **** #define RK_ERR_INVALID_PARAM         ((RK_ERR)0xFFFFFF90)
 155:arch/armv7m/kernel/inc/kdefs.h **** 
 156:arch/armv7m/kernel/inc/kdefs.h **** /* Memory Pool Service errors (-200)*/
 157:arch/armv7m/kernel/inc/kdefs.h **** #define RK_ERR_MEM_FREE              ((RK_ERR)0xFFFFFF38)
 158:arch/armv7m/kernel/inc/kdefs.h **** #define RK_ERR_MEM_INIT              ((RK_ERR)0xFFFFFF37)
 159:arch/armv7m/kernel/inc/kdefs.h **** 
 160:arch/armv7m/kernel/inc/kdefs.h **** /* Synchronisation Services errors (-300) */
 161:arch/armv7m/kernel/inc/kdefs.h **** #define RK_ERR_MUTEX_REC_LOCK        ((RK_ERR)0xFFFFFED4)
 162:arch/armv7m/kernel/inc/kdefs.h **** #define RK_ERR_MUTEX_NOT_OWNER       ((RK_ERR)0xFFFFFED3)
 163:arch/armv7m/kernel/inc/kdefs.h **** #define RK_ERR_MUTEX_LOCKED          ((RK_ERR)0xFFFFFED2)
 164:arch/armv7m/kernel/inc/kdefs.h **** #define RK_ERR_MUTEX_NOT_LOCKED      ((RK_ERR)0xFFFFFED1)
 165:arch/armv7m/kernel/inc/kdefs.h **** #define RK_ERR_FLAGS_NOT_MET         ((RK_ERR)0xFFFFFED0)
 166:arch/armv7m/kernel/inc/kdefs.h **** #define RK_ERR_BLOCKED_SEMA          ((RK_ERR)0xFFFFFECF)
ARM GAS  /var/folders/fg/4fzv35n91mbcgx4z5jzqdsl40000gn/T//ccsuUsPw.s 			page 11


 167:arch/armv7m/kernel/inc/kdefs.h **** 
 168:arch/armv7m/kernel/inc/kdefs.h **** /* Message Passing Services (-400) */
 169:arch/armv7m/kernel/inc/kdefs.h **** #define RK_ERR_INVALID_QUEUE_SIZE    ((RK_ERR)0xFFFFFE70)
 170:arch/armv7m/kernel/inc/kdefs.h **** #define RK_ERR_INVALID_MESG_SIZE     ((RK_ERR)0xFFFFFE69)
 171:arch/armv7m/kernel/inc/kdefs.h **** #define RK_ERR_MBOX_FULL             ((RK_ERR)0xFFFFFE68)
 172:arch/armv7m/kernel/inc/kdefs.h **** #define RK_ERR_MBOX_EMPTY            ((RK_ERR)0xFFFFFE67)
 173:arch/armv7m/kernel/inc/kdefs.h **** #define RK_ERR_STREAM_FULL           ((RK_ERR)0xFFFFFE66)
 174:arch/armv7m/kernel/inc/kdefs.h **** #define RK_ERR_STREAM_EMPTY          ((RK_ERR)0xFFFFFE65)
 175:arch/armv7m/kernel/inc/kdefs.h **** #define RK_ERR_QUEUE_FULL            ((RK_ERR)0xFFFFFE64)
 176:arch/armv7m/kernel/inc/kdefs.h **** #define RK_ERR_QUEUE_EMPTY           ((RK_ERR)0xFFFFFE63)
 177:arch/armv7m/kernel/inc/kdefs.h **** #define RK_ERR_INVALID_RECEIVER      ((RK_ERR)0xFFFFFE62)
 178:arch/armv7m/kernel/inc/kdefs.h **** #define RK_ERR_PORT_OWNER            ((RK_ERR)0xFFFFFE61)
 179:arch/armv7m/kernel/inc/kdefs.h **** 
 180:arch/armv7m/kernel/inc/kdefs.h **** /* Faults */
 181:arch/armv7m/kernel/inc/kdefs.h **** 
 182:arch/armv7m/kernel/inc/kdefs.h **** #define RK_GENERIC_FAULT                 RK_ERROR
 183:arch/armv7m/kernel/inc/kdefs.h **** #define RK_FAULT_READY_QUEUE             RK_ERR_READY_QUEUE
 184:arch/armv7m/kernel/inc/kdefs.h **** #define RK_FAULT_OBJ_NULL                RK_ERR_OBJ_NULL
 185:arch/armv7m/kernel/inc/kdefs.h **** #define RK_FAULT_KERNEL_VERSION          RK_ERR_KERNEL_VERSION
 186:arch/armv7m/kernel/inc/kdefs.h **** #define RK_FAULT_OBJ_NOT_INIT            RK_ERR_OBJ_NOT_INIT
 187:arch/armv7m/kernel/inc/kdefs.h **** #define RK_FAULT_TASK_INVALID_PRIO       RK_ERR_INVALID_PRIO
 188:arch/armv7m/kernel/inc/kdefs.h **** #define RK_FAULT_UNLOCK_OWNED_MUTEX      RK_ERR_MUTEX_NOT_OWNER
 189:arch/armv7m/kernel/inc/kdefs.h **** #define RK_FAULT_INVALID_ISR_PRIMITIVE   RK_ERR_INVALID_ISR_PRIMITIVE
 190:arch/armv7m/kernel/inc/kdefs.h **** #define RK_FAULT_TASK_INVALID_STATE      RK_ERR_TASK_INVALID_ST
 191:arch/armv7m/kernel/inc/kdefs.h **** 
 192:arch/armv7m/kernel/inc/kdefs.h **** /* Task Status */
 193:arch/armv7m/kernel/inc/kdefs.h **** 
 194:arch/armv7m/kernel/inc/kdefs.h **** 
 195:arch/armv7m/kernel/inc/kdefs.h **** #define RK_INVALID_TASK_STATE     ((RK_TASK_STATUS)0x00)
 196:arch/armv7m/kernel/inc/kdefs.h **** #define RK_READY                  ((RK_TASK_STATUS)0x10)
 197:arch/armv7m/kernel/inc/kdefs.h **** #define RK_RUNNING                ((RK_TASK_STATUS)0x20)
 198:arch/armv7m/kernel/inc/kdefs.h **** #define RK_SLEEPING               ((RK_TASK_STATUS)0x30)
 199:arch/armv7m/kernel/inc/kdefs.h **** #define RK_PENDING_TASK_FLAGS     ((RK_TASK_STATUS)(RK_SLEEPING + 1U))
 200:arch/armv7m/kernel/inc/kdefs.h **** #define RK_BLOCKED                ((RK_TASK_STATUS)(RK_SLEEPING + 2U))
 201:arch/armv7m/kernel/inc/kdefs.h **** #define RK_SENDING                ((RK_TASK_STATUS)(RK_SLEEPING + 3U))
 202:arch/armv7m/kernel/inc/kdefs.h **** #define RK_RECEIVING              ((RK_TASK_STATUS)(RK_SLEEPING + 4U))
 203:arch/armv7m/kernel/inc/kdefs.h **** 
 204:arch/armv7m/kernel/inc/kdefs.h **** 
 205:arch/armv7m/kernel/inc/kdefs.h **** /* Kernel Objects ID */
 206:arch/armv7m/kernel/inc/kdefs.h **** 
 207:arch/armv7m/kernel/inc/kdefs.h **** #define RK_INVALID_KOBJ           ((RK_KOBJ_ID)0x0)
 208:arch/armv7m/kernel/inc/kdefs.h **** 
 209:arch/armv7m/kernel/inc/kdefs.h **** #define RK_SEMAPHORE_KOBJ_ID      ((RK_KOBJ_ID)0x1)
 210:arch/armv7m/kernel/inc/kdefs.h **** #define RK_EVENT_KOBJ_ID          ((RK_KOBJ_ID)0x2)
 211:arch/armv7m/kernel/inc/kdefs.h **** #define RK_MUTEX_KOBJ_ID          ((RK_KOBJ_ID)0x3)
 212:arch/armv7m/kernel/inc/kdefs.h **** #define RK_MAILBOX_KOBJ_ID        ((RK_KOBJ_ID)0x4)
 213:arch/armv7m/kernel/inc/kdefs.h **** #define RK_MAILQUEUE_KOBJ_ID      ((RK_KOBJ_ID)0x5)
 214:arch/armv7m/kernel/inc/kdefs.h **** #define RK_STREAMQUEUE_KOBJ_ID    ((RK_KOBJ_ID)0x6)
 215:arch/armv7m/kernel/inc/kdefs.h **** #define RK_MRM_KOBJ_ID            ((RK_KOBJ_ID)0x7)
 216:arch/armv7m/kernel/inc/kdefs.h **** #define RK_TIMER_KOBJ_ID          ((RK_KOBJ_ID)0x8)
 217:arch/armv7m/kernel/inc/kdefs.h **** #define RK_MEMALLOC_KOBJ_ID       ((RK_KOBJ_ID)0x9)
 218:arch/armv7m/kernel/inc/kdefs.h **** #define RK_TASKHANDLE_KOBJ_ID     ((RK_KOBJ_ID)0xA)
 219:arch/armv7m/kernel/inc/kdefs.h **** #define RK_PORT_KOBJ_ID           ((RK_KOBJ_ID)0xB)
 220:arch/armv7m/kernel/inc/kdefs.h **** 
 221:arch/armv7m/kernel/inc/kdefs.h **** /* Kernel Objects Typedefs */
 222:arch/armv7m/kernel/inc/kdefs.h **** 
 223:arch/armv7m/kernel/inc/kdefs.h **** /* Any typedef _HANDLE is a pointer to an object */
ARM GAS  /var/folders/fg/4fzv35n91mbcgx4z5jzqdsl40000gn/T//ccsuUsPw.s 			page 12


 224:arch/armv7m/kernel/inc/kdefs.h **** 
 225:arch/armv7m/kernel/inc/kdefs.h **** typedef struct kTcb RK_TCB;/* Task Control Block */
 226:arch/armv7m/kernel/inc/kdefs.h **** typedef struct kMemBlock RK_MEM;/* Mem Alloc Control Block */
 227:arch/armv7m/kernel/inc/kdefs.h **** typedef struct kList RK_LIST;/* DList ADT used for TCBs */
 228:arch/armv7m/kernel/inc/kdefs.h **** typedef struct kListNode RK_NODE;/* DList Node */
 229:arch/armv7m/kernel/inc/kdefs.h **** typedef RK_LIST RK_TCBQ;/* Alias for RK_LIST for readability */
 230:arch/armv7m/kernel/inc/kdefs.h **** typedef struct kTcb *RK_TASK_HANDLE;/* Pointer to TCB is a Task Handle */
 231:arch/armv7m/kernel/inc/kdefs.h **** typedef struct kTimeoutNode RK_TIMEOUT_NODE;/* Node for time-out delta list */
 232:arch/armv7m/kernel/inc/kdefs.h **** #if (RK_CONF_CALLOUT_TIMER==ON)
 233:arch/armv7m/kernel/inc/kdefs.h **** typedef struct kTimer RK_TIMER;
 234:arch/armv7m/kernel/inc/kdefs.h **** #endif
 235:arch/armv7m/kernel/inc/kdefs.h **** #if (RK_CONF_EVENT==ON)
 236:arch/armv7m/kernel/inc/kdefs.h **** typedef struct kEvent RK_EVENT;
 237:arch/armv7m/kernel/inc/kdefs.h **** #endif
 238:arch/armv7m/kernel/inc/kdefs.h **** #if (RK_CONF_SEMA == ON)
 239:arch/armv7m/kernel/inc/kdefs.h **** typedef struct kSema RK_SEMA;
 240:arch/armv7m/kernel/inc/kdefs.h **** #endif
 241:arch/armv7m/kernel/inc/kdefs.h **** #if (RK_CONF_MUTEX == ON)
 242:arch/armv7m/kernel/inc/kdefs.h **** typedef struct kMutex RK_MUTEX;
 243:arch/armv7m/kernel/inc/kdefs.h **** #endif
 244:arch/armv7m/kernel/inc/kdefs.h **** #if (RK_CONF_MBOX == ON)
 245:arch/armv7m/kernel/inc/kdefs.h **** typedef struct kMailbox RK_MBOX;
 246:arch/armv7m/kernel/inc/kdefs.h **** #endif
 247:arch/armv7m/kernel/inc/kdefs.h **** #if (RK_CONF_QUEUE==ON)
 248:arch/armv7m/kernel/inc/kdefs.h **** typedef struct kQ RK_QUEUE;
 249:arch/armv7m/kernel/inc/kdefs.h **** #endif
 250:arch/armv7m/kernel/inc/kdefs.h **** #if (RK_CONF_STREAM == ON)
 251:arch/armv7m/kernel/inc/kdefs.h **** typedef struct kStream RK_STREAM;
 252:arch/armv7m/kernel/inc/kdefs.h **** #endif
 253:arch/armv7m/kernel/inc/kdefs.h **** #if (RK_CONF_MRM == ON)
 254:arch/armv7m/kernel/inc/kdefs.h **** typedef struct kMRMBuf RK_MRM_BUF;
 255:arch/armv7m/kernel/inc/kdefs.h **** typedef struct kMRMMem RK_MRM;
 256:arch/armv7m/kernel/inc/kdefs.h **** #endif
 257:arch/armv7m/kernel/inc/kdefs.h **** 
 258:arch/armv7m/kernel/inc/kdefs.h **** /* Inlined and Macro Helpers */
 259:arch/armv7m/kernel/inc/kdefs.h **** 
 260:arch/armv7m/kernel/inc/kdefs.h **** /* Assembly Helpers */
 261:arch/armv7m/kernel/inc/kdefs.h **** #define _RK_DMB                          __ASM volatile ("dmb 0xF":::"memory");
 262:arch/armv7m/kernel/inc/kdefs.h **** #define _RK_DSB                          __ASM volatile ("dsb 0xF":::"memory");
 263:arch/armv7m/kernel/inc/kdefs.h **** #define _RK_ISB                          __ASM volatile ("isb 0xF":::"memory");
 264:arch/armv7m/kernel/inc/kdefs.h **** #define _RK_NOP                          __ASM volatile ("nop");
 265:arch/armv7m/kernel/inc/kdefs.h **** #define _RK_STUP                         __ASM volatile("svc #0xAA");
 266:arch/armv7m/kernel/inc/kdefs.h **** 
 267:arch/armv7m/kernel/inc/kdefs.h **** /* Processor Core Management  */
 268:arch/armv7m/kernel/inc/kdefs.h **** 
 269:arch/armv7m/kernel/inc/kdefs.h **** #define RK_CR_AREA  UINT crState_;
 270:arch/armv7m/kernel/inc/kdefs.h **** #define RK_CR_ENTER crState_ = kEnterCR();
 271:arch/armv7m/kernel/inc/kdefs.h **** #define RK_CR_EXIT  kExitCR(crState_);
 272:arch/armv7m/kernel/inc/kdefs.h **** #define RK_PEND_CTXTSWTCH RK_TRAP_PENDSV
 273:arch/armv7m/kernel/inc/kdefs.h **** #define RK_READY_HIGHER_PRIO(ptr) ((ptr->priority < nextTaskPrio) ? 1U : 0)
 274:arch/armv7m/kernel/inc/kdefs.h **** #define RK_TRAP_PENDSV  \
 275:arch/armv7m/kernel/inc/kdefs.h ****      RK_CORE_SCB->ICSR |= (1<<28U); \
 276:arch/armv7m/kernel/inc/kdefs.h ****     _RK_DSB \
 277:arch/armv7m/kernel/inc/kdefs.h ****     _RK_ISB
 278:arch/armv7m/kernel/inc/kdefs.h **** 
 279:arch/armv7m/kernel/inc/kdefs.h **** #define RK_TRAP_SVC(N)  \
 280:arch/armv7m/kernel/inc/kdefs.h ****     do { asm volatile ("svc %0" :: "i" (N)); } while(0)
ARM GAS  /var/folders/fg/4fzv35n91mbcgx4z5jzqdsl40000gn/T//ccsuUsPw.s 			page 13


 281:arch/armv7m/kernel/inc/kdefs.h **** 
 282:arch/armv7m/kernel/inc/kdefs.h **** #define RK_TICK_EN  RK_CORE_SYSTICK->CTRL |= 0xFFFFFFFF;
 283:arch/armv7m/kernel/inc/kdefs.h **** #define RK_TICK_DIS RK_CORE_SYSTICK->CTRL &= 0xFFFFFFFE;
 284:arch/armv7m/kernel/inc/kdefs.h **** 
 285:arch/armv7m/kernel/inc/kdefs.h **** /* Misc Helpers */
 286:arch/armv7m/kernel/inc/kdefs.h **** #define KERR                kErrHandler
 287:arch/armv7m/kernel/inc/kdefs.h **** 
 288:arch/armv7m/kernel/inc/kdefs.h **** #define RK_IS_BLOCK_ON_ISR(timeout) ((kIsISR() && (timeout > 0)) ? (1U) : (0))
 289:arch/armv7m/kernel/inc/kdefs.h **** 
 290:arch/armv7m/kernel/inc/kdefs.h **** #define RK_GET_CONTAINER_ADDR(memberPtr, containerType, memberName) \
 291:arch/armv7m/kernel/inc/kdefs.h ****     ((containerType *)((unsigned char *)(memberPtr) - \
 292:arch/armv7m/kernel/inc/kdefs.h ****      offsetof(containerType, memberName)))
 293:arch/armv7m/kernel/inc/kdefs.h **** 
 294:arch/armv7m/kernel/inc/kdefs.h **** #define RK_IS_NULL_PTR(ptr) ((ptr) == NULL ? 1U : 0)
 295:arch/armv7m/kernel/inc/kdefs.h **** 
 296:arch/armv7m/kernel/inc/kdefs.h **** #define RK_NOARGS (NULL)
 297:arch/armv7m/kernel/inc/kdefs.h **** 
 298:arch/armv7m/kernel/inc/kdefs.h **** #define RK_UNUSEARGS (void)(args);
 299:arch/armv7m/kernel/inc/kdefs.h **** 
 300:arch/armv7m/kernel/inc/kdefs.h **** #ifdef NDEBUG
 301:arch/armv7m/kernel/inc/kdefs.h **** #define kassert(x) ((void)0)
 302:arch/armv7m/kernel/inc/kdefs.h **** #else
 303:arch/armv7m/kernel/inc/kdefs.h **** #define kassert(x) ((x) ? (void)0 : KERR(0))
 304:arch/armv7m/kernel/inc/kdefs.h **** #endif
 305:arch/armv7m/kernel/inc/kdefs.h **** 
 306:arch/armv7m/kernel/inc/kdefs.h **** 
 307:arch/armv7m/kernel/inc/kdefs.h **** __attribute__((always_inline)) static inline
 308:arch/armv7m/kernel/inc/kdefs.h **** unsigned kIsISR( void)
 240              		.loc 3 308 10 view .LVU65
 241              	.LBB36:
 309:arch/armv7m/kernel/inc/kdefs.h **** {
 310:arch/armv7m/kernel/inc/kdefs.h ****     unsigned ipsr_value;
 242              		.loc 3 310 5 view .LVU66
 311:arch/armv7m/kernel/inc/kdefs.h ****     __ASM ("MRS %0, IPSR" : "=r"(ipsr_value));
 243              		.loc 3 311 5 view .LVU67
 244              		.syntax unified
 245              	@ 311 "arch/armv7m/kernel/inc/kdefs.h" 1
 246 0012 EFF30583 		MRS r3, IPSR
 247              	@ 0 "" 2
 312:arch/armv7m/kernel/inc/kdefs.h ****     __ASM volatile ("dmb 0xF":::"memory");
 248              		.loc 3 312 5 view .LVU68
 249              	@ 312 "arch/armv7m/kernel/inc/kdefs.h" 1
 250 0016 BFF35F8F 		dmb 0xF
 251              	@ 0 "" 2
 313:arch/armv7m/kernel/inc/kdefs.h ****     return (ipsr_value);
 252              		.loc 3 313 5 view .LVU69
 253              		.thumb
 254              		.syntax unified
 255              	.LBE36:
 256              	.LBE35:
 257              		.loc 1 88 5 is_stmt 0 view .LVU70
 258 001a 0BB1     		cbz	r3, .L13
 259              		.loc 1 88 6 discriminator 1 view .LVU71
 260 001c 002E     		cmp	r6, #0
 261 001e 43DC     		bgt	.L28
 262              	.LVL22:
 263              	.L13:
ARM GAS  /var/folders/fg/4fzv35n91mbcgx4z5jzqdsl40000gn/T//ccsuUsPw.s 			page 14


  89:core/src/kmesg.c **** 	{
  90:core/src/kmesg.c **** 		KERR( RK_FAULT_INVALID_ISR_PRIMITIVE);
  91:core/src/kmesg.c **** 	}
  92:core/src/kmesg.c **** 	if ((kobj == NULL) || (sendPtr == NULL))
 264              		.loc 1 92 2 is_stmt 1 view .LVU72
 265              		.loc 1 92 5 is_stmt 0 view .LVU73
 266 0020 002C     		cmp	r4, #0
 267 0022 46D0     		beq	.L14
 268              		.loc 1 92 21 discriminator 1 view .LVU74
 269 0024 002F     		cmp	r7, #0
 270 0026 44D0     		beq	.L14
 271              	.L15:
  93:core/src/kmesg.c **** 	{
  94:core/src/kmesg.c **** 		KERR( RK_FAULT_OBJ_NULL);
  95:core/src/kmesg.c **** 	}
  96:core/src/kmesg.c **** 	if (kobj->init == FALSE)
 272              		.loc 1 96 2 is_stmt 1 view .LVU75
 273              		.loc 1 96 10 is_stmt 0 view .LVU76
 274 0028 6368     		ldr	r3, [r4, #4]
 275              		.loc 1 96 5 view .LVU77
 276 002a 002B     		cmp	r3, #0
 277 002c 46D0     		beq	.L29
 278              	.L16:
  97:core/src/kmesg.c **** 	{
  98:core/src/kmesg.c **** 		KERR( RK_FAULT_OBJ_NOT_INIT);
  99:core/src/kmesg.c **** 	}
 100:core/src/kmesg.c **** 
 101:core/src/kmesg.c **** 	/* mailbox is full  */
 102:core/src/kmesg.c **** 
 103:core/src/kmesg.c **** 	if (kobj->mailPtr != NULL)
 279              		.loc 1 103 2 is_stmt 1 view .LVU78
 280              		.loc 1 103 10 is_stmt 0 view .LVU79
 281 002e A368     		ldr	r3, [r4, #8]
 282              		.loc 1 103 5 view .LVU80
 283 0030 63B3     		cbz	r3, .L17
 104:core/src/kmesg.c **** 	{
 105:core/src/kmesg.c **** 
 106:core/src/kmesg.c **** 		if (timeout == 0)
 284              		.loc 1 106 3 is_stmt 1 view .LVU81
 285              		.loc 1 106 6 is_stmt 0 view .LVU82
 286 0032 002E     		cmp	r6, #0
 287 0034 47D0     		beq	.L30
 107:core/src/kmesg.c **** 		{
 108:core/src/kmesg.c **** 			RK_CR_EXIT
 109:core/src/kmesg.c **** 			return (RK_ERR_MBOX_FULL);
 110:core/src/kmesg.c **** 		}
 111:core/src/kmesg.c **** 
 112:core/src/kmesg.c **** 		kTCBQEnqByPrio( &kobj->waitingQueue, runPtr);
 288              		.loc 1 112 3 is_stmt 1 view .LVU83
 289              		.loc 1 112 19 is_stmt 0 view .LVU84
 290 0036 04F10C08 		add	r8, r4, #12
 291              		.loc 1 112 3 view .LVU85
 292 003a 454B     		ldr	r3, .L36
 293 003c 1968     		ldr	r1, [r3]
 294 003e 4046     		mov	r0, r8
 295 0040 FFF7FEFF 		bl	kTCBQEnqByPrio
 296              	.LVL23:
ARM GAS  /var/folders/fg/4fzv35n91mbcgx4z5jzqdsl40000gn/T//ccsuUsPw.s 			page 15


 113:core/src/kmesg.c **** 
 114:core/src/kmesg.c **** 		if (kobj->ownerTask)
 297              		.loc 1 114 3 is_stmt 1 view .LVU86
 298              		.loc 1 114 11 is_stmt 0 view .LVU87
 299 0044 236A     		ldr	r3, [r4, #32]
 300              		.loc 1 114 6 view .LVU88
 301 0046 33B1     		cbz	r3, .L20
 115:core/src/kmesg.c **** 		{
 116:core/src/kmesg.c **** 			/* priority boost */
 117:core/src/kmesg.c **** 			if (kobj->ownerTask->priority > runPtr->priority)
 302              		.loc 1 117 4 is_stmt 1 view .LVU89
 303              		.loc 1 117 23 is_stmt 0 view .LVU90
 304 0048 597F     		ldrb	r1, [r3, #29]	@ zero_extendqisi2
 305              		.loc 1 117 42 view .LVU91
 306 004a 414A     		ldr	r2, .L36
 307 004c 1268     		ldr	r2, [r2]
 308 004e 527F     		ldrb	r2, [r2, #29]	@ zero_extendqisi2
 309              		.loc 1 117 7 view .LVU92
 310 0050 9142     		cmp	r1, r2
 311 0052 00D9     		bls	.L20
 118:core/src/kmesg.c **** 			{
 119:core/src/kmesg.c **** 				kobj->ownerTask->priority = runPtr->priority;
 312              		.loc 1 119 5 is_stmt 1 view .LVU93
 313              		.loc 1 119 31 is_stmt 0 view .LVU94
 314 0054 5A77     		strb	r2, [r3, #29]
 315              	.L20:
 120:core/src/kmesg.c **** 			}
 121:core/src/kmesg.c **** 		}
 122:core/src/kmesg.c **** 
 123:core/src/kmesg.c **** 		runPtr->status = RK_SENDING;
 316              		.loc 1 123 3 is_stmt 1 view .LVU95
 317              		.loc 1 123 9 is_stmt 0 view .LVU96
 318 0056 3E4B     		ldr	r3, .L36
 319 0058 1868     		ldr	r0, [r3]
 320              		.loc 1 123 18 view .LVU97
 321 005a 3323     		movs	r3, #51
 322 005c 4360     		str	r3, [r0, #4]
 124:core/src/kmesg.c **** 
 125:core/src/kmesg.c **** 		if ((timeout > 0) && (timeout != RK_WAIT_FOREVER))
 323              		.loc 1 125 3 is_stmt 1 view .LVU98
 324              		.loc 1 125 6 is_stmt 0 view .LVU99
 325 005e 002E     		cmp	r6, #0
 326 0060 36DC     		bgt	.L31
 327              	.L21:
 126:core/src/kmesg.c **** 		{
 127:core/src/kmesg.c **** 			RK_TASK_TIMEOUT_WAITINGQUEUE_SETUP
 128:core/src/kmesg.c **** 
 129:core/src/kmesg.c **** 			kTimeOut( &runPtr->timeoutNode, timeout);
 130:core/src/kmesg.c **** 
 131:core/src/kmesg.c **** 		}
 132:core/src/kmesg.c **** 		RK_PEND_CTXTSWTCH
 328              		.loc 1 132 3 is_stmt 1 view .LVU100
 329 0062 3C4A     		ldr	r2, .L36+4
 330 0064 5368     		ldr	r3, [r2, #4]
 331 0066 43F08053 		orr	r3, r3, #268435456
 332 006a 5360     		str	r3, [r2, #4]
 333              		.loc 1 132 3 view .LVU101
ARM GAS  /var/folders/fg/4fzv35n91mbcgx4z5jzqdsl40000gn/T//ccsuUsPw.s 			page 16


 334              		.syntax unified
 335              	@ 132 "core/src/kmesg.c" 1
 336 006c BFF34F8F 		dsb 0xF
 337              	@ 0 "" 2
 338              		.loc 1 132 3 view .LVU102
 339              	@ 132 "core/src/kmesg.c" 1
 340 0070 BFF36F8F 		isb 0xF
 341              	@ 0 "" 2
 133:core/src/kmesg.c **** 		RK_CR_EXIT
 342              		.loc 1 133 3 view .LVU103
 343              		.thumb
 344              		.syntax unified
 345 0074 2846     		mov	r0, r5
 346 0076 FFF7FEFF 		bl	kExitCR
 347              	.LVL24:
 134:core/src/kmesg.c **** 		RK_CR_ENTER
 348              		.loc 1 134 3 view .LVU104
 349 007a FFF7FEFF 		bl	kEnterCR
 350              	.LVL25:
 351 007e 0546     		mov	r5, r0
 352              	.LVL26:
 135:core/src/kmesg.c **** 		if (runPtr->timeOut)
 353              		.loc 1 135 3 view .LVU105
 354              		.loc 1 135 13 is_stmt 0 view .LVU106
 355 0080 334B     		ldr	r3, .L36
 356 0082 1868     		ldr	r0, [r3]
 357              	.LVL27:
 358              		.loc 1 135 13 view .LVU107
 359 0084 836B     		ldr	r3, [r0, #56]
 360              		.loc 1 135 6 view .LVU108
 361 0086 63BB     		cbnz	r3, .L32
 136:core/src/kmesg.c **** 		{
 137:core/src/kmesg.c **** 
 138:core/src/kmesg.c **** 			runPtr->timeOut = FALSE;
 139:core/src/kmesg.c **** 			RK_CR_EXIT
 140:core/src/kmesg.c **** 			return (RK_ERR_TIMEOUT);
 141:core/src/kmesg.c **** 
 142:core/src/kmesg.c **** 		}
 143:core/src/kmesg.c **** 		if ((timeout > RK_NO_WAIT) && (timeout != RK_WAIT_FOREVER))
 362              		.loc 1 143 3 is_stmt 1 view .LVU109
 363              		.loc 1 143 6 is_stmt 0 view .LVU110
 364 0088 002E     		cmp	r6, #0
 365 008a 32DC     		bgt	.L33
 366              	.L17:
 144:core/src/kmesg.c **** 			kRemoveTimeoutNode( &runPtr->timeoutNode);
 145:core/src/kmesg.c **** 
 146:core/src/kmesg.c **** 	}
 147:core/src/kmesg.c **** 
 148:core/src/kmesg.c **** 	kobj->mailPtr = sendPtr;
 367              		.loc 1 148 2 is_stmt 1 view .LVU111
 368              		.loc 1 148 16 is_stmt 0 view .LVU112
 369 008c A760     		str	r7, [r4, #8]
 149:core/src/kmesg.c **** 	if (kobj->ownerTask != NULL)
 370              		.loc 1 149 2 is_stmt 1 view .LVU113
 371              		.loc 1 149 10 is_stmt 0 view .LVU114
 372 008e 236A     		ldr	r3, [r4, #32]
 373              		.loc 1 149 5 view .LVU115
ARM GAS  /var/folders/fg/4fzv35n91mbcgx4z5jzqdsl40000gn/T//ccsuUsPw.s 			page 17


 374 0090 0BB1     		cbz	r3, .L23
 150:core/src/kmesg.c **** 		kobj->ownerTask->priority = kobj->ownerTask->realPrio;
 375              		.loc 1 150 3 is_stmt 1 view .LVU116
 376              		.loc 1 150 46 is_stmt 0 view .LVU117
 377 0092 9A7F     		ldrb	r2, [r3, #30]	@ zero_extendqisi2
 378              		.loc 1 150 29 view .LVU118
 379 0094 5A77     		strb	r2, [r3, #29]
 380              	.L23:
 151:core/src/kmesg.c **** 
 152:core/src/kmesg.c **** 	/*  full: unblock a reader, if any */
 153:core/src/kmesg.c **** 	if (kobj->waitingQueue.size > 0)
 381              		.loc 1 153 2 is_stmt 1 view .LVU119
 382              		.loc 1 153 24 is_stmt 0 view .LVU120
 383 0096 A369     		ldr	r3, [r4, #24]
 384              		.loc 1 153 5 view .LVU121
 385 0098 7BBB     		cbnz	r3, .L34
 386              	.LVL28:
 387              	.L24:
 154:core/src/kmesg.c **** 	{
 155:core/src/kmesg.c **** 		RK_TCB *freeReadPtr;
 156:core/src/kmesg.c **** 		freeReadPtr = kTCBQPeek( &kobj->waitingQueue);
 157:core/src/kmesg.c **** 		{
 158:core/src/kmesg.c **** 			kTCBQDeq( &kobj->waitingQueue, &freeReadPtr);
 159:core/src/kmesg.c **** 			kassert( freeReadPtr != NULL);
 160:core/src/kmesg.c **** 			kTCBQEnq( &readyQueue[freeReadPtr->priority], freeReadPtr);
 161:core/src/kmesg.c **** 			freeReadPtr->status = RK_READY;
 162:core/src/kmesg.c **** 			if (freeReadPtr->priority < runPtr->priority)
 163:core/src/kmesg.c **** 				RK_PEND_CTXTSWTCH
 164:core/src/kmesg.c **** 		}
 165:core/src/kmesg.c **** 	}
 166:core/src/kmesg.c **** 	RK_CR_EXIT
 388              		.loc 1 166 2 is_stmt 1 view .LVU122
 389 009a 2846     		mov	r0, r5
 390 009c FFF7FEFF 		bl	kExitCR
 391              	.LVL29:
 167:core/src/kmesg.c **** 	return (RK_SUCCESS);
 392              		.loc 1 167 2 view .LVU123
 393              		.loc 1 167 9 is_stmt 0 view .LVU124
 394 00a0 0020     		movs	r0, #0
 395              	.L12:
 168:core/src/kmesg.c **** }
 396              		.loc 1 168 1 view .LVU125
 397 00a2 02B0     		add	sp, sp, #8
 398              		.cfi_remember_state
 399              		.cfi_def_cfa_offset 24
 400              		@ sp needed
 401 00a4 BDE8F081 		pop	{r4, r5, r6, r7, r8, pc}
 402              	.LVL30:
 403              	.L28:
 404              		.cfi_restore_state
  90:core/src/kmesg.c **** 	}
 405              		.loc 1 90 3 is_stmt 1 view .LVU126
 406 00a8 6FF06E00 		mvn	r0, #110
 407              	.LVL31:
  90:core/src/kmesg.c **** 	}
 408              		.loc 1 90 3 is_stmt 0 view .LVU127
 409 00ac FFF7FEFF 		bl	kErrHandler
ARM GAS  /var/folders/fg/4fzv35n91mbcgx4z5jzqdsl40000gn/T//ccsuUsPw.s 			page 18


 410              	.LVL32:
 411 00b0 B6E7     		b	.L13
 412              	.L14:
  94:core/src/kmesg.c **** 	}
 413              		.loc 1 94 3 is_stmt 1 view .LVU128
 414 00b2 6FF06300 		mvn	r0, #99
 415 00b6 FFF7FEFF 		bl	kErrHandler
 416              	.LVL33:
 417 00ba B5E7     		b	.L15
 418              	.L29:
  98:core/src/kmesg.c **** 	}
 419              		.loc 1 98 3 view .LVU129
 420 00bc 6FF06400 		mvn	r0, #100
 421 00c0 FFF7FEFF 		bl	kErrHandler
 422              	.LVL34:
 423 00c4 B3E7     		b	.L16
 424              	.L30:
 108:core/src/kmesg.c **** 			return (RK_ERR_MBOX_FULL);
 425              		.loc 1 108 4 view .LVU130
 426 00c6 2846     		mov	r0, r5
 427 00c8 FFF7FEFF 		bl	kExitCR
 428              	.LVL35:
 109:core/src/kmesg.c **** 		}
 429              		.loc 1 109 4 view .LVU131
 109:core/src/kmesg.c **** 		}
 430              		.loc 1 109 11 is_stmt 0 view .LVU132
 431 00cc 2248     		ldr	r0, .L36+8
 432 00ce E8E7     		b	.L12
 433              	.L31:
 127:core/src/kmesg.c **** 
 434              		.loc 1 127 4 is_stmt 1 view .LVU133
 435 00d0 0123     		movs	r3, #1
 436 00d2 C364     		str	r3, [r0, #76]
 127:core/src/kmesg.c **** 
 437              		.loc 1 127 4 view .LVU134
 438 00d4 C0F85880 		str	r8, [r0, #88]
 129:core/src/kmesg.c **** 
 439              		.loc 1 129 4 view .LVU135
 440 00d8 3146     		mov	r1, r6
 441 00da 4430     		adds	r0, r0, #68
 442 00dc FFF7FEFF 		bl	kTimeOut
 443              	.LVL36:
 444 00e0 BFE7     		b	.L21
 445              	.L32:
 138:core/src/kmesg.c **** 			RK_CR_EXIT
 446              		.loc 1 138 4 view .LVU136
 138:core/src/kmesg.c **** 			RK_CR_EXIT
 447              		.loc 1 138 20 is_stmt 0 view .LVU137
 448 00e2 0023     		movs	r3, #0
 449 00e4 8363     		str	r3, [r0, #56]
 139:core/src/kmesg.c **** 			return (RK_ERR_TIMEOUT);
 450              		.loc 1 139 4 is_stmt 1 view .LVU138
 451 00e6 2846     		mov	r0, r5
 452 00e8 FFF7FEFF 		bl	kExitCR
 453              	.LVL37:
 140:core/src/kmesg.c **** 
 454              		.loc 1 140 4 view .LVU139
ARM GAS  /var/folders/fg/4fzv35n91mbcgx4z5jzqdsl40000gn/T//ccsuUsPw.s 			page 19


 140:core/src/kmesg.c **** 
 455              		.loc 1 140 11 is_stmt 0 view .LVU140
 456 00ec 6FF06B00 		mvn	r0, #107
 457 00f0 D7E7     		b	.L12
 458              	.L33:
 144:core/src/kmesg.c **** 
 459              		.loc 1 144 4 is_stmt 1 view .LVU141
 460 00f2 4430     		adds	r0, r0, #68
 461 00f4 FFF7FEFF 		bl	kRemoveTimeoutNode
 462              	.LVL38:
 463 00f8 C8E7     		b	.L17
 464              	.L34:
 465              	.LBB37:
 155:core/src/kmesg.c **** 		freeReadPtr = kTCBQPeek( &kobj->waitingQueue);
 466              		.loc 1 155 3 view .LVU142
 156:core/src/kmesg.c **** 		{
 467              		.loc 1 156 3 view .LVU143
 156:core/src/kmesg.c **** 		{
 468              		.loc 1 156 28 is_stmt 0 view .LVU144
 469 00fa 0C34     		adds	r4, r4, #12
 470              	.LVL39:
 156:core/src/kmesg.c **** 		{
 471              		.loc 1 156 17 view .LVU145
 472 00fc 2046     		mov	r0, r4
 473 00fe FFF7FEFF 		bl	kTCBQPeek
 474              	.LVL40:
 156:core/src/kmesg.c **** 		{
 475              		.loc 1 156 15 view .LVU146
 476 0102 0190     		str	r0, [sp, #4]
 158:core/src/kmesg.c **** 			kassert( freeReadPtr != NULL);
 477              		.loc 1 158 4 is_stmt 1 view .LVU147
 478 0104 01A9     		add	r1, sp, #4
 479 0106 2046     		mov	r0, r4
 480 0108 FFF7FEFF 		bl	kTCBQDeq
 481              	.LVL41:
 159:core/src/kmesg.c **** 			kTCBQEnq( &readyQueue[freeReadPtr->priority], freeReadPtr);
 482              		.loc 1 159 4 view .LVU148
 483 010c 019B     		ldr	r3, [sp, #4]
 484 010e DBB1     		cbz	r3, .L35
 485              	.L25:
 160:core/src/kmesg.c **** 			freeReadPtr->status = RK_READY;
 486              		.loc 1 160 4 view .LVU149
 160:core/src/kmesg.c **** 			freeReadPtr->status = RK_READY;
 487              		.loc 1 160 37 is_stmt 0 view .LVU150
 488 0110 0199     		ldr	r1, [sp, #4]
 489 0112 487F     		ldrb	r0, [r1, #29]	@ zero_extendqisi2
 160:core/src/kmesg.c **** 			freeReadPtr->status = RK_READY;
 490              		.loc 1 160 14 view .LVU151
 491 0114 00EB8000 		add	r0, r0, r0, lsl #2
 160:core/src/kmesg.c **** 			freeReadPtr->status = RK_READY;
 492              		.loc 1 160 4 view .LVU152
 493 0118 104B     		ldr	r3, .L36+12
 494 011a 03EB8000 		add	r0, r3, r0, lsl #2
 495 011e FFF7FEFF 		bl	kTCBQEnq
 496              	.LVL42:
 161:core/src/kmesg.c **** 			if (freeReadPtr->priority < runPtr->priority)
 497              		.loc 1 161 4 is_stmt 1 view .LVU153
ARM GAS  /var/folders/fg/4fzv35n91mbcgx4z5jzqdsl40000gn/T//ccsuUsPw.s 			page 20


 161:core/src/kmesg.c **** 			if (freeReadPtr->priority < runPtr->priority)
 498              		.loc 1 161 15 is_stmt 0 view .LVU154
 499 0122 019B     		ldr	r3, [sp, #4]
 161:core/src/kmesg.c **** 			if (freeReadPtr->priority < runPtr->priority)
 500              		.loc 1 161 24 view .LVU155
 501 0124 1022     		movs	r2, #16
 502 0126 5A60     		str	r2, [r3, #4]
 162:core/src/kmesg.c **** 				RK_PEND_CTXTSWTCH
 503              		.loc 1 162 4 is_stmt 1 view .LVU156
 162:core/src/kmesg.c **** 				RK_PEND_CTXTSWTCH
 504              		.loc 1 162 19 is_stmt 0 view .LVU157
 505 0128 5A7F     		ldrb	r2, [r3, #29]	@ zero_extendqisi2
 162:core/src/kmesg.c **** 				RK_PEND_CTXTSWTCH
 506              		.loc 1 162 38 view .LVU158
 507 012a 094B     		ldr	r3, .L36
 508 012c 1B68     		ldr	r3, [r3]
 509 012e 5B7F     		ldrb	r3, [r3, #29]	@ zero_extendqisi2
 162:core/src/kmesg.c **** 				RK_PEND_CTXTSWTCH
 510              		.loc 1 162 7 view .LVU159
 511 0130 9A42     		cmp	r2, r3
 512 0132 04D2     		bcs	.L26
 163:core/src/kmesg.c **** 		}
 513              		.loc 1 163 5 is_stmt 1 view .LVU160
 514 0134 074A     		ldr	r2, .L36+4
 515 0136 5368     		ldr	r3, [r2, #4]
 516 0138 43F08053 		orr	r3, r3, #268435456
 517 013c 5360     		str	r3, [r2, #4]
 518              	.L26:
 163:core/src/kmesg.c **** 		}
 519              		.loc 1 163 5 discriminator 1 view .LVU161
 520              		.syntax unified
 521              	@ 163 "core/src/kmesg.c" 1
 522 013e BFF34F8F 		dsb 0xF
 523              	@ 0 "" 2
 163:core/src/kmesg.c **** 		}
 524              		.loc 1 163 5 discriminator 1 view .LVU162
 525              	@ 163 "core/src/kmesg.c" 1
 526 0142 BFF36F8F 		isb 0xF
 527              	@ 0 "" 2
 528              		.thumb
 529              		.syntax unified
 530 0146 A8E7     		b	.L24
 531              	.L35:
 159:core/src/kmesg.c **** 			kTCBQEnq( &readyQueue[freeReadPtr->priority], freeReadPtr);
 532              		.loc 1 159 4 is_stmt 0 discriminator 1 view .LVU163
 533 0148 0020     		movs	r0, #0
 534 014a FFF7FEFF 		bl	kErrHandler
 535              	.LVL43:
 536 014e DFE7     		b	.L25
 537              	.L37:
 538              		.align	2
 539              	.L36:
 540 0150 00000000 		.word	runPtr
 541 0154 00ED00E0 		.word	-536810240
 542 0158 68FEFFFF 		.word	-408
 543 015c 00000000 		.word	readyQueue
 544              	.LBE37:
ARM GAS  /var/folders/fg/4fzv35n91mbcgx4z5jzqdsl40000gn/T//ccsuUsPw.s 			page 21


 545              		.cfi_endproc
 546              	.LFE56:
 548              		.section	.text.kMboxPostOvw,"ax",%progbits
 549              		.align	1
 550              		.global	kMboxPostOvw
 551              		.syntax unified
 552              		.thumb
 553              		.thumb_func
 555              	kMboxPostOvw:
 556              	.LVL44:
 557              	.LFB57:
 169:core/src/kmesg.c **** 
 170:core/src/kmesg.c **** #if (RK_CONF_FUNC_MBOX_POSTOVW==(ON))
 171:core/src/kmesg.c **** RK_ERR kMboxPostOvw( RK_MBOX *const kobj, VOID *sendPtr)
 172:core/src/kmesg.c **** {
 558              		.loc 1 172 1 is_stmt 1 view -0
 559              		.cfi_startproc
 560              		@ args = 0, pretend = 0, frame = 0
 561              		@ frame_needed = 0, uses_anonymous_args = 0
 562              		.loc 1 172 1 is_stmt 0 view .LVU165
 563 0000 70B5     		push	{r4, r5, r6, lr}
 564              		.cfi_def_cfa_offset 16
 565              		.cfi_offset 4, -16
 566              		.cfi_offset 5, -12
 567              		.cfi_offset 6, -8
 568              		.cfi_offset 14, -4
 569 0002 0446     		mov	r4, r0
 570 0004 0D46     		mov	r5, r1
 173:core/src/kmesg.c **** 	RK_CR_AREA
 571              		.loc 1 173 2 is_stmt 1 view .LVU166
 174:core/src/kmesg.c **** 	RK_CR_ENTER
 572              		.loc 1 174 2 view .LVU167
 573 0006 FFF7FEFF 		bl	kEnterCR
 574              	.LVL45:
 575              		.loc 1 174 2 is_stmt 0 view .LVU168
 576 000a 0646     		mov	r6, r0
 577              	.LVL46:
 175:core/src/kmesg.c **** 
 176:core/src/kmesg.c **** 	if ((kobj == NULL) || (sendPtr == NULL))
 578              		.loc 1 176 2 is_stmt 1 view .LVU169
 579              		.loc 1 176 5 is_stmt 0 view .LVU170
 580 000c 3CB1     		cbz	r4, .L39
 581              		.loc 1 176 21 discriminator 1 view .LVU171
 582 000e 35B1     		cbz	r5, .L39
 177:core/src/kmesg.c **** 	{
 178:core/src/kmesg.c **** 		KERR( RK_FAULT_OBJ_NULL);
 179:core/src/kmesg.c **** 		RK_CR_EXIT
 180:core/src/kmesg.c **** 		return (RK_ERR_OBJ_NULL);
 181:core/src/kmesg.c **** 	}
 182:core/src/kmesg.c **** 	if (kobj->init == FALSE)
 583              		.loc 1 182 2 is_stmt 1 view .LVU172
 584              		.loc 1 182 10 is_stmt 0 view .LVU173
 585 0010 6368     		ldr	r3, [r4, #4]
 586              		.loc 1 182 5 view .LVU174
 587 0012 73B1     		cbz	r3, .L44
 183:core/src/kmesg.c **** 	{
 184:core/src/kmesg.c **** 		KERR( RK_FAULT_OBJ_NOT_INIT);
ARM GAS  /var/folders/fg/4fzv35n91mbcgx4z5jzqdsl40000gn/T//ccsuUsPw.s 			page 22


 185:core/src/kmesg.c **** 		RK_CR_EXIT
 186:core/src/kmesg.c **** 		return (RK_ERR_OBJ_NOT_INIT);
 187:core/src/kmesg.c **** 	}
 188:core/src/kmesg.c **** 	if (kobj == NULL)
 588              		.loc 1 188 2 is_stmt 1 view .LVU175
 189:core/src/kmesg.c **** 	{
 190:core/src/kmesg.c **** 		kobj->mailPtr = sendPtr;
 191:core/src/kmesg.c **** 		/*  full: unblock a reader, if any */
 192:core/src/kmesg.c **** 		if (kobj->waitingQueue.size > 0)
 193:core/src/kmesg.c **** 		{
 194:core/src/kmesg.c **** 			RK_TCB *freeReadPtr;
 195:core/src/kmesg.c **** 			freeReadPtr = kTCBQPeek( &kobj->waitingQueue);
 196:core/src/kmesg.c **** 
 197:core/src/kmesg.c **** 			kTCBQDeq( &kobj->waitingQueue, &freeReadPtr);
 198:core/src/kmesg.c **** 			kassert( freeReadPtr != NULL);
 199:core/src/kmesg.c **** 			kTCBQEnq( &readyQueue[freeReadPtr->priority], freeReadPtr);
 200:core/src/kmesg.c **** 			freeReadPtr->status = RK_READY;
 201:core/src/kmesg.c **** 			if (freeReadPtr->priority < runPtr->priority)
 202:core/src/kmesg.c **** 				RK_PEND_CTXTSWTCH
 203:core/src/kmesg.c **** 
 204:core/src/kmesg.c **** 		}
 205:core/src/kmesg.c **** 	}
 206:core/src/kmesg.c **** 	else
 207:core/src/kmesg.c **** 	{
 208:core/src/kmesg.c **** 		kobj->mailPtr = sendPtr;
 589              		.loc 1 208 3 view .LVU176
 590              		.loc 1 208 17 is_stmt 0 view .LVU177
 591 0014 A560     		str	r5, [r4, #8]
 209:core/src/kmesg.c **** 	}
 210:core/src/kmesg.c **** 
 211:core/src/kmesg.c **** 	RK_CR_EXIT
 592              		.loc 1 211 2 is_stmt 1 view .LVU178
 593 0016 FFF7FEFF 		bl	kExitCR
 594              	.LVL47:
 212:core/src/kmesg.c **** 	return (RK_SUCCESS);
 595              		.loc 1 212 2 view .LVU179
 596              		.loc 1 212 9 is_stmt 0 view .LVU180
 597 001a 0020     		movs	r0, #0
 598              	.L38:
 213:core/src/kmesg.c **** }
 599              		.loc 1 213 1 view .LVU181
 600 001c 70BD     		pop	{r4, r5, r6, pc}
 601              	.LVL48:
 602              	.L39:
 178:core/src/kmesg.c **** 		RK_CR_EXIT
 603              		.loc 1 178 3 is_stmt 1 view .LVU182
 604 001e 6FF06300 		mvn	r0, #99
 605              	.LVL49:
 178:core/src/kmesg.c **** 		RK_CR_EXIT
 606              		.loc 1 178 3 is_stmt 0 view .LVU183
 607 0022 FFF7FEFF 		bl	kErrHandler
 608              	.LVL50:
 179:core/src/kmesg.c **** 		return (RK_ERR_OBJ_NULL);
 609              		.loc 1 179 3 is_stmt 1 view .LVU184
 610 0026 3046     		mov	r0, r6
 611 0028 FFF7FEFF 		bl	kExitCR
 612              	.LVL51:
ARM GAS  /var/folders/fg/4fzv35n91mbcgx4z5jzqdsl40000gn/T//ccsuUsPw.s 			page 23


 180:core/src/kmesg.c **** 	}
 613              		.loc 1 180 3 view .LVU185
 180:core/src/kmesg.c **** 	}
 614              		.loc 1 180 10 is_stmt 0 view .LVU186
 615 002c 6FF06300 		mvn	r0, #99
 616 0030 F4E7     		b	.L38
 617              	.LVL52:
 618              	.L44:
 184:core/src/kmesg.c **** 		RK_CR_EXIT
 619              		.loc 1 184 3 is_stmt 1 view .LVU187
 620 0032 6FF06400 		mvn	r0, #100
 621              	.LVL53:
 184:core/src/kmesg.c **** 		RK_CR_EXIT
 622              		.loc 1 184 3 is_stmt 0 view .LVU188
 623 0036 FFF7FEFF 		bl	kErrHandler
 624              	.LVL54:
 185:core/src/kmesg.c **** 		return (RK_ERR_OBJ_NOT_INIT);
 625              		.loc 1 185 3 is_stmt 1 view .LVU189
 626 003a 3046     		mov	r0, r6
 627 003c FFF7FEFF 		bl	kExitCR
 628              	.LVL55:
 186:core/src/kmesg.c **** 	}
 629              		.loc 1 186 3 view .LVU190
 186:core/src/kmesg.c **** 	}
 630              		.loc 1 186 10 is_stmt 0 view .LVU191
 631 0040 6FF06400 		mvn	r0, #100
 632 0044 EAE7     		b	.L38
 633              		.cfi_endproc
 634              	.LFE57:
 636              		.section	.text.kMboxPend,"ax",%progbits
 637              		.align	1
 638              		.global	kMboxPend
 639              		.syntax unified
 640              		.thumb
 641              		.thumb_func
 643              	kMboxPend:
 644              	.LVL56:
 645              	.LFB58:
 214:core/src/kmesg.c **** #endif
 215:core/src/kmesg.c **** 
 216:core/src/kmesg.c **** RK_ERR kMboxPend( RK_MBOX *const kobj, VOID **recvPPtr, RK_TICK const timeout)
 217:core/src/kmesg.c **** {
 646              		.loc 1 217 1 is_stmt 1 view -0
 647              		.cfi_startproc
 648              		@ args = 0, pretend = 0, frame = 8
 649              		@ frame_needed = 0, uses_anonymous_args = 0
 650              		.loc 1 217 1 is_stmt 0 view .LVU193
 651 0000 2DE9F041 		push	{r4, r5, r6, r7, r8, lr}
 652              		.cfi_def_cfa_offset 24
 653              		.cfi_offset 4, -24
 654              		.cfi_offset 5, -20
 655              		.cfi_offset 6, -16
 656              		.cfi_offset 7, -12
 657              		.cfi_offset 8, -8
 658              		.cfi_offset 14, -4
 659 0004 82B0     		sub	sp, sp, #8
 660              		.cfi_def_cfa_offset 32
ARM GAS  /var/folders/fg/4fzv35n91mbcgx4z5jzqdsl40000gn/T//ccsuUsPw.s 			page 24


 661 0006 0446     		mov	r4, r0
 662 0008 0E46     		mov	r6, r1
 663 000a 1746     		mov	r7, r2
 218:core/src/kmesg.c **** 
 219:core/src/kmesg.c **** 	RK_CR_AREA
 664              		.loc 1 219 2 is_stmt 1 view .LVU194
 220:core/src/kmesg.c **** 	RK_CR_ENTER
 665              		.loc 1 220 2 view .LVU195
 666 000c FFF7FEFF 		bl	kEnterCR
 667              	.LVL57:
 668              		.loc 1 220 2 is_stmt 0 view .LVU196
 669 0010 0546     		mov	r5, r0
 670              	.LVL58:
 221:core/src/kmesg.c **** 	if (RK_IS_BLOCK_ON_ISR( timeout))
 671              		.loc 1 221 2 is_stmt 1 view .LVU197
 672              	.LBB38:
 673              	.LBI38:
 308:arch/armv7m/kernel/inc/kdefs.h **** {
 674              		.loc 3 308 10 view .LVU198
 675              	.LBB39:
 310:arch/armv7m/kernel/inc/kdefs.h ****     __ASM ("MRS %0, IPSR" : "=r"(ipsr_value));
 676              		.loc 3 310 5 view .LVU199
 311:arch/armv7m/kernel/inc/kdefs.h ****     __ASM volatile ("dmb 0xF":::"memory");
 677              		.loc 3 311 5 view .LVU200
 678              		.syntax unified
 679              	@ 311 "arch/armv7m/kernel/inc/kdefs.h" 1
 680 0012 EFF30583 		MRS r3, IPSR
 681              	@ 0 "" 2
 312:arch/armv7m/kernel/inc/kdefs.h ****     return (ipsr_value);
 682              		.loc 3 312 5 view .LVU201
 683              	@ 312 "arch/armv7m/kernel/inc/kdefs.h" 1
 684 0016 BFF35F8F 		dmb 0xF
 685              	@ 0 "" 2
 686              		.loc 3 313 5 view .LVU202
 687              		.thumb
 688              		.syntax unified
 689              	.LBE39:
 690              	.LBE38:
 691              		.loc 1 221 5 is_stmt 0 view .LVU203
 692 001a 0BB1     		cbz	r3, .L46
 693              		.loc 1 221 6 discriminator 1 view .LVU204
 694 001c 002F     		cmp	r7, #0
 695 001e 19DC     		bgt	.L59
 696              	.LVL59:
 697              	.L46:
 222:core/src/kmesg.c **** 	{
 223:core/src/kmesg.c **** 		KERR( RK_FAULT_INVALID_ISR_PRIMITIVE);
 224:core/src/kmesg.c **** 	}
 225:core/src/kmesg.c **** 	if ((kobj == NULL) || (recvPPtr == NULL))
 698              		.loc 1 225 2 is_stmt 1 view .LVU205
 699              		.loc 1 225 5 is_stmt 0 view .LVU206
 700 0020 ECB1     		cbz	r4, .L47
 701              		.loc 1 225 21 discriminator 1 view .LVU207
 702 0022 E6B1     		cbz	r6, .L47
 703              	.L48:
 226:core/src/kmesg.c **** 	{
 227:core/src/kmesg.c **** 		KERR( RK_FAULT_OBJ_NULL);
ARM GAS  /var/folders/fg/4fzv35n91mbcgx4z5jzqdsl40000gn/T//ccsuUsPw.s 			page 25


 228:core/src/kmesg.c **** 	}
 229:core/src/kmesg.c **** 	if (kobj->init == FALSE)
 704              		.loc 1 229 2 is_stmt 1 view .LVU208
 705              		.loc 1 229 10 is_stmt 0 view .LVU209
 706 0024 6368     		ldr	r3, [r4, #4]
 707              		.loc 1 229 5 view .LVU210
 708 0026 FBB1     		cbz	r3, .L60
 709              	.L49:
 230:core/src/kmesg.c **** 	{
 231:core/src/kmesg.c **** 		KERR( RK_FAULT_OBJ_NOT_INIT);
 232:core/src/kmesg.c **** 	}
 233:core/src/kmesg.c **** 	if (kobj->ownerTask && kobj->ownerTask != runPtr)
 710              		.loc 1 233 2 is_stmt 1 view .LVU211
 711              		.loc 1 233 10 is_stmt 0 view .LVU212
 712 0028 236A     		ldr	r3, [r4, #32]
 713              		.loc 1 233 5 view .LVU213
 714 002a 1BB1     		cbz	r3, .L50
 715              		.loc 1 233 41 discriminator 1 view .LVU214
 716 002c 484A     		ldr	r2, .L67
 717 002e 1268     		ldr	r2, [r2]
 718              		.loc 1 233 22 discriminator 1 view .LVU215
 719 0030 9342     		cmp	r3, r2
 720 0032 1ED1     		bne	.L61
 721              	.L50:
 234:core/src/kmesg.c **** 	{
 235:core/src/kmesg.c **** 		RK_CR_EXIT
 236:core/src/kmesg.c **** 		return (RK_ERR_PORT_OWNER);
 237:core/src/kmesg.c **** 	}
 238:core/src/kmesg.c **** 
 239:core/src/kmesg.c **** 	if (kobj->mailPtr == NULL)
 722              		.loc 1 239 2 is_stmt 1 view .LVU216
 723              		.loc 1 239 10 is_stmt 0 view .LVU217
 724 0034 A368     		ldr	r3, [r4, #8]
 725              		.loc 1 239 5 view .LVU218
 726 0036 13B3     		cbz	r3, .L62
 727              	.L52:
 240:core/src/kmesg.c **** 	{
 241:core/src/kmesg.c **** 		if (timeout == 0)
 242:core/src/kmesg.c **** 		{
 243:core/src/kmesg.c **** 			RK_CR_EXIT
 244:core/src/kmesg.c **** 			return (RK_ERR_MBOX_EMPTY);
 245:core/src/kmesg.c **** 		}
 246:core/src/kmesg.c **** 		runPtr->status = RK_RECEIVING;
 247:core/src/kmesg.c **** 		if ((timeout > 0) && (timeout != RK_WAIT_FOREVER))
 248:core/src/kmesg.c **** 		{
 249:core/src/kmesg.c **** 			RK_TASK_TIMEOUT_WAITINGQUEUE_SETUP
 250:core/src/kmesg.c **** 
 251:core/src/kmesg.c **** 			kTimeOut( &runPtr->timeoutNode, timeout);
 252:core/src/kmesg.c **** 		}
 253:core/src/kmesg.c **** 
 254:core/src/kmesg.c **** 		kTCBQEnqByPrio( &kobj->waitingQueue, runPtr);
 255:core/src/kmesg.c **** 
 256:core/src/kmesg.c **** 		RK_PEND_CTXTSWTCH
 257:core/src/kmesg.c **** 		RK_CR_EXIT
 258:core/src/kmesg.c **** 		RK_CR_ENTER
 259:core/src/kmesg.c **** 		if (runPtr->timeOut)
 260:core/src/kmesg.c **** 		{
ARM GAS  /var/folders/fg/4fzv35n91mbcgx4z5jzqdsl40000gn/T//ccsuUsPw.s 			page 26


 261:core/src/kmesg.c **** 			runPtr->timeOut = FALSE;
 262:core/src/kmesg.c **** 			RK_CR_EXIT
 263:core/src/kmesg.c **** 			return (RK_ERR_TIMEOUT);
 264:core/src/kmesg.c **** 		}
 265:core/src/kmesg.c **** 		if ((timeout > RK_NO_WAIT) && (timeout != RK_WAIT_FOREVER))
 266:core/src/kmesg.c **** 			kRemoveTimeoutNode( &runPtr->timeoutNode);
 267:core/src/kmesg.c **** 	}
 268:core/src/kmesg.c **** 
 269:core/src/kmesg.c **** 	*recvPPtr = kobj->mailPtr;
 728              		.loc 1 269 2 is_stmt 1 view .LVU219
 729              		.loc 1 269 18 is_stmt 0 view .LVU220
 730 0038 A368     		ldr	r3, [r4, #8]
 731              		.loc 1 269 12 view .LVU221
 732 003a 3360     		str	r3, [r6]
 270:core/src/kmesg.c **** 	kobj->mailPtr = NULL;
 733              		.loc 1 270 2 is_stmt 1 view .LVU222
 734              		.loc 1 270 16 is_stmt 0 view .LVU223
 735 003c 0023     		movs	r3, #0
 736 003e A360     		str	r3, [r4, #8]
 271:core/src/kmesg.c **** 
 272:core/src/kmesg.c **** 	/* it only makes sense do deq a writer */
 273:core/src/kmesg.c **** 	if (kobj->waitingQueue.size > 0)
 737              		.loc 1 273 2 is_stmt 1 view .LVU224
 738              		.loc 1 273 24 is_stmt 0 view .LVU225
 739 0040 A369     		ldr	r3, [r4, #24]
 740              		.loc 1 273 5 view .LVU226
 741 0042 002B     		cmp	r3, #0
 742 0044 5BD1     		bne	.L63
 743              	.LVL60:
 744              	.L56:
 274:core/src/kmesg.c **** 	{
 275:core/src/kmesg.c **** 		RK_TCB *freeWriterPtr;
 276:core/src/kmesg.c **** 		freeWriterPtr = kTCBQPeek( &kobj->waitingQueue);
 277:core/src/kmesg.c **** 		if (freeWriterPtr->status == RK_SENDING)
 278:core/src/kmesg.c **** 		{
 279:core/src/kmesg.c **** 			kTCBQDeq( &kobj->waitingQueue, &freeWriterPtr);
 280:core/src/kmesg.c **** 			kTCBQEnq( &readyQueue[freeWriterPtr->priority], freeWriterPtr);
 281:core/src/kmesg.c **** 			freeWriterPtr->status = RK_READY;
 282:core/src/kmesg.c **** 			if ((freeWriterPtr->priority < runPtr->priority))
 283:core/src/kmesg.c **** 			{
 284:core/src/kmesg.c **** 				RK_PEND_CTXTSWTCH
 285:core/src/kmesg.c **** 			}
 286:core/src/kmesg.c **** 		}
 287:core/src/kmesg.c **** 
 288:core/src/kmesg.c **** 	}
 289:core/src/kmesg.c **** 	RK_CR_EXIT
 745              		.loc 1 289 2 is_stmt 1 view .LVU227
 746 0046 2846     		mov	r0, r5
 747 0048 FFF7FEFF 		bl	kExitCR
 748              	.LVL61:
 290:core/src/kmesg.c **** 	return (RK_SUCCESS);
 749              		.loc 1 290 2 view .LVU228
 750              		.loc 1 290 9 is_stmt 0 view .LVU229
 751 004c 0020     		movs	r0, #0
 752              	.L45:
 291:core/src/kmesg.c **** }
 753              		.loc 1 291 1 view .LVU230
ARM GAS  /var/folders/fg/4fzv35n91mbcgx4z5jzqdsl40000gn/T//ccsuUsPw.s 			page 27


 754 004e 02B0     		add	sp, sp, #8
 755              		.cfi_remember_state
 756              		.cfi_def_cfa_offset 24
 757              		@ sp needed
 758 0050 BDE8F081 		pop	{r4, r5, r6, r7, r8, pc}
 759              	.LVL62:
 760              	.L59:
 761              		.cfi_restore_state
 223:core/src/kmesg.c **** 	}
 762              		.loc 1 223 3 is_stmt 1 view .LVU231
 763 0054 6FF06E00 		mvn	r0, #110
 764              	.LVL63:
 223:core/src/kmesg.c **** 	}
 765              		.loc 1 223 3 is_stmt 0 view .LVU232
 766 0058 FFF7FEFF 		bl	kErrHandler
 767              	.LVL64:
 768 005c E0E7     		b	.L46
 769              	.L47:
 227:core/src/kmesg.c **** 	}
 770              		.loc 1 227 3 is_stmt 1 view .LVU233
 771 005e 6FF06300 		mvn	r0, #99
 772 0062 FFF7FEFF 		bl	kErrHandler
 773              	.LVL65:
 774 0066 DDE7     		b	.L48
 775              	.L60:
 231:core/src/kmesg.c **** 	}
 776              		.loc 1 231 3 view .LVU234
 777 0068 6FF06400 		mvn	r0, #100
 778 006c FFF7FEFF 		bl	kErrHandler
 779              	.LVL66:
 780 0070 DAE7     		b	.L49
 781              	.L61:
 235:core/src/kmesg.c **** 		return (RK_ERR_PORT_OWNER);
 782              		.loc 1 235 3 view .LVU235
 783 0072 2846     		mov	r0, r5
 784 0074 FFF7FEFF 		bl	kExitCR
 785              	.LVL67:
 236:core/src/kmesg.c **** 	}
 786              		.loc 1 236 3 view .LVU236
 236:core/src/kmesg.c **** 	}
 787              		.loc 1 236 10 is_stmt 0 view .LVU237
 788 0078 6FF4CF70 		mvn	r0, #414
 789 007c E7E7     		b	.L45
 790              	.L62:
 241:core/src/kmesg.c **** 		{
 791              		.loc 1 241 3 is_stmt 1 view .LVU238
 241:core/src/kmesg.c **** 		{
 792              		.loc 1 241 6 is_stmt 0 view .LVU239
 793 007e 37B3     		cbz	r7, .L64
 246:core/src/kmesg.c **** 		if ((timeout > 0) && (timeout != RK_WAIT_FOREVER))
 794              		.loc 1 246 3 is_stmt 1 view .LVU240
 246:core/src/kmesg.c **** 		if ((timeout > 0) && (timeout != RK_WAIT_FOREVER))
 795              		.loc 1 246 9 is_stmt 0 view .LVU241
 796 0080 334B     		ldr	r3, .L67
 797 0082 1868     		ldr	r0, [r3]
 246:core/src/kmesg.c **** 		if ((timeout > 0) && (timeout != RK_WAIT_FOREVER))
 798              		.loc 1 246 18 view .LVU242
ARM GAS  /var/folders/fg/4fzv35n91mbcgx4z5jzqdsl40000gn/T//ccsuUsPw.s 			page 28


 799 0084 3423     		movs	r3, #52
 800 0086 4360     		str	r3, [r0, #4]
 247:core/src/kmesg.c **** 		{
 801              		.loc 1 247 3 is_stmt 1 view .LVU243
 247:core/src/kmesg.c **** 		{
 802              		.loc 1 247 6 is_stmt 0 view .LVU244
 803 0088 002F     		cmp	r7, #0
 804 008a 26DC     		bgt	.L65
 805              	.L54:
 254:core/src/kmesg.c **** 
 806              		.loc 1 254 3 is_stmt 1 view .LVU245
 807 008c DFF8C080 		ldr	r8, .L67
 808 0090 D8F80010 		ldr	r1, [r8]
 809 0094 04F10C00 		add	r0, r4, #12
 810 0098 FFF7FEFF 		bl	kTCBQEnqByPrio
 811              	.LVL68:
 256:core/src/kmesg.c **** 		RK_CR_EXIT
 812              		.loc 1 256 3 view .LVU246
 813 009c 2D4A     		ldr	r2, .L67+4
 814 009e 5368     		ldr	r3, [r2, #4]
 815 00a0 43F08053 		orr	r3, r3, #268435456
 816 00a4 5360     		str	r3, [r2, #4]
 256:core/src/kmesg.c **** 		RK_CR_EXIT
 817              		.loc 1 256 3 view .LVU247
 818              		.syntax unified
 819              	@ 256 "core/src/kmesg.c" 1
 820 00a6 BFF34F8F 		dsb 0xF
 821              	@ 0 "" 2
 256:core/src/kmesg.c **** 		RK_CR_EXIT
 822              		.loc 1 256 3 view .LVU248
 823              	@ 256 "core/src/kmesg.c" 1
 824 00aa BFF36F8F 		isb 0xF
 825              	@ 0 "" 2
 257:core/src/kmesg.c **** 		RK_CR_ENTER
 826              		.loc 1 257 3 view .LVU249
 827              		.thumb
 828              		.syntax unified
 829 00ae 2846     		mov	r0, r5
 830 00b0 FFF7FEFF 		bl	kExitCR
 831              	.LVL69:
 258:core/src/kmesg.c **** 		if (runPtr->timeOut)
 832              		.loc 1 258 3 view .LVU250
 833 00b4 FFF7FEFF 		bl	kEnterCR
 834              	.LVL70:
 835 00b8 0546     		mov	r5, r0
 836              	.LVL71:
 259:core/src/kmesg.c **** 		{
 837              		.loc 1 259 3 view .LVU251
 259:core/src/kmesg.c **** 		{
 838              		.loc 1 259 13 is_stmt 0 view .LVU252
 839 00ba D8F80000 		ldr	r0, [r8]
 840              	.LVL72:
 259:core/src/kmesg.c **** 		{
 841              		.loc 1 259 13 view .LVU253
 842 00be 836B     		ldr	r3, [r0, #56]
 259:core/src/kmesg.c **** 		{
 843              		.loc 1 259 6 view .LVU254
ARM GAS  /var/folders/fg/4fzv35n91mbcgx4z5jzqdsl40000gn/T//ccsuUsPw.s 			page 29


 844 00c0 ABB9     		cbnz	r3, .L66
 265:core/src/kmesg.c **** 			kRemoveTimeoutNode( &runPtr->timeoutNode);
 845              		.loc 1 265 3 is_stmt 1 view .LVU255
 265:core/src/kmesg.c **** 			kRemoveTimeoutNode( &runPtr->timeoutNode);
 846              		.loc 1 265 6 is_stmt 0 view .LVU256
 847 00c2 002F     		cmp	r7, #0
 848 00c4 B8DD     		ble	.L52
 266:core/src/kmesg.c **** 	}
 849              		.loc 1 266 4 is_stmt 1 view .LVU257
 850 00c6 4430     		adds	r0, r0, #68
 851 00c8 FFF7FEFF 		bl	kRemoveTimeoutNode
 852              	.LVL73:
 853 00cc B4E7     		b	.L52
 854              	.L64:
 243:core/src/kmesg.c **** 			return (RK_ERR_MBOX_EMPTY);
 855              		.loc 1 243 4 view .LVU258
 856 00ce 2846     		mov	r0, r5
 857 00d0 FFF7FEFF 		bl	kExitCR
 858              	.LVL74:
 244:core/src/kmesg.c **** 		}
 859              		.loc 1 244 4 view .LVU259
 244:core/src/kmesg.c **** 		}
 860              		.loc 1 244 11 is_stmt 0 view .LVU260
 861 00d4 6FF4CC70 		mvn	r0, #408
 862 00d8 B9E7     		b	.L45
 863              	.L65:
 249:core/src/kmesg.c **** 
 864              		.loc 1 249 4 is_stmt 1 view .LVU261
 865 00da 0123     		movs	r3, #1
 866 00dc C364     		str	r3, [r0, #76]
 249:core/src/kmesg.c **** 
 867              		.loc 1 249 4 view .LVU262
 868 00de 04F10C03 		add	r3, r4, #12
 869 00e2 8365     		str	r3, [r0, #88]
 251:core/src/kmesg.c **** 		}
 870              		.loc 1 251 4 view .LVU263
 871 00e4 3946     		mov	r1, r7
 872 00e6 4430     		adds	r0, r0, #68
 873 00e8 FFF7FEFF 		bl	kTimeOut
 874              	.LVL75:
 875 00ec CEE7     		b	.L54
 876              	.L66:
 261:core/src/kmesg.c **** 			RK_CR_EXIT
 877              		.loc 1 261 4 view .LVU264
 261:core/src/kmesg.c **** 			RK_CR_EXIT
 878              		.loc 1 261 20 is_stmt 0 view .LVU265
 879 00ee 0023     		movs	r3, #0
 880 00f0 8363     		str	r3, [r0, #56]
 262:core/src/kmesg.c **** 			return (RK_ERR_TIMEOUT);
 881              		.loc 1 262 4 is_stmt 1 view .LVU266
 882 00f2 2846     		mov	r0, r5
 883 00f4 FFF7FEFF 		bl	kExitCR
 884              	.LVL76:
 263:core/src/kmesg.c **** 		}
 885              		.loc 1 263 4 view .LVU267
 263:core/src/kmesg.c **** 		}
 886              		.loc 1 263 11 is_stmt 0 view .LVU268
ARM GAS  /var/folders/fg/4fzv35n91mbcgx4z5jzqdsl40000gn/T//ccsuUsPw.s 			page 30


 887 00f8 6FF06B00 		mvn	r0, #107
 888 00fc A7E7     		b	.L45
 889              	.L63:
 890              	.LBB40:
 275:core/src/kmesg.c **** 		freeWriterPtr = kTCBQPeek( &kobj->waitingQueue);
 891              		.loc 1 275 3 is_stmt 1 view .LVU269
 276:core/src/kmesg.c **** 		if (freeWriterPtr->status == RK_SENDING)
 892              		.loc 1 276 3 view .LVU270
 276:core/src/kmesg.c **** 		if (freeWriterPtr->status == RK_SENDING)
 893              		.loc 1 276 30 is_stmt 0 view .LVU271
 894 00fe 0C34     		adds	r4, r4, #12
 895              	.LVL77:
 276:core/src/kmesg.c **** 		if (freeWriterPtr->status == RK_SENDING)
 896              		.loc 1 276 19 view .LVU272
 897 0100 2046     		mov	r0, r4
 898 0102 FFF7FEFF 		bl	kTCBQPeek
 899              	.LVL78:
 276:core/src/kmesg.c **** 		if (freeWriterPtr->status == RK_SENDING)
 900              		.loc 1 276 17 view .LVU273
 901 0106 0190     		str	r0, [sp, #4]
 277:core/src/kmesg.c **** 		{
 902              		.loc 1 277 3 is_stmt 1 view .LVU274
 277:core/src/kmesg.c **** 		{
 903              		.loc 1 277 20 is_stmt 0 view .LVU275
 904 0108 4368     		ldr	r3, [r0, #4]
 277:core/src/kmesg.c **** 		{
 905              		.loc 1 277 6 view .LVU276
 906 010a 332B     		cmp	r3, #51
 907 010c 9BD1     		bne	.L56
 279:core/src/kmesg.c **** 			kTCBQEnq( &readyQueue[freeWriterPtr->priority], freeWriterPtr);
 908              		.loc 1 279 4 is_stmt 1 view .LVU277
 909 010e 01A9     		add	r1, sp, #4
 910 0110 2046     		mov	r0, r4
 911 0112 FFF7FEFF 		bl	kTCBQDeq
 912              	.LVL79:
 280:core/src/kmesg.c **** 			freeWriterPtr->status = RK_READY;
 913              		.loc 1 280 4 view .LVU278
 280:core/src/kmesg.c **** 			freeWriterPtr->status = RK_READY;
 914              		.loc 1 280 39 is_stmt 0 view .LVU279
 915 0116 0199     		ldr	r1, [sp, #4]
 916 0118 487F     		ldrb	r0, [r1, #29]	@ zero_extendqisi2
 280:core/src/kmesg.c **** 			freeWriterPtr->status = RK_READY;
 917              		.loc 1 280 14 view .LVU280
 918 011a 00EB8000 		add	r0, r0, r0, lsl #2
 280:core/src/kmesg.c **** 			freeWriterPtr->status = RK_READY;
 919              		.loc 1 280 4 view .LVU281
 920 011e 0E4B     		ldr	r3, .L67+8
 921 0120 03EB8000 		add	r0, r3, r0, lsl #2
 922 0124 FFF7FEFF 		bl	kTCBQEnq
 923              	.LVL80:
 281:core/src/kmesg.c **** 			if ((freeWriterPtr->priority < runPtr->priority))
 924              		.loc 1 281 4 is_stmt 1 view .LVU282
 281:core/src/kmesg.c **** 			if ((freeWriterPtr->priority < runPtr->priority))
 925              		.loc 1 281 17 is_stmt 0 view .LVU283
 926 0128 019B     		ldr	r3, [sp, #4]
 281:core/src/kmesg.c **** 			if ((freeWriterPtr->priority < runPtr->priority))
 927              		.loc 1 281 26 view .LVU284
ARM GAS  /var/folders/fg/4fzv35n91mbcgx4z5jzqdsl40000gn/T//ccsuUsPw.s 			page 31


 928 012a 1022     		movs	r2, #16
 929 012c 5A60     		str	r2, [r3, #4]
 282:core/src/kmesg.c **** 			{
 930              		.loc 1 282 4 is_stmt 1 view .LVU285
 282:core/src/kmesg.c **** 			{
 931              		.loc 1 282 22 is_stmt 0 view .LVU286
 932 012e 5A7F     		ldrb	r2, [r3, #29]	@ zero_extendqisi2
 282:core/src/kmesg.c **** 			{
 933              		.loc 1 282 41 view .LVU287
 934 0130 074B     		ldr	r3, .L67
 935 0132 1B68     		ldr	r3, [r3]
 936 0134 5B7F     		ldrb	r3, [r3, #29]	@ zero_extendqisi2
 282:core/src/kmesg.c **** 			{
 937              		.loc 1 282 7 view .LVU288
 938 0136 9A42     		cmp	r2, r3
 939 0138 85D2     		bcs	.L56
 284:core/src/kmesg.c **** 			}
 940              		.loc 1 284 5 is_stmt 1 view .LVU289
 941 013a 064A     		ldr	r2, .L67+4
 942 013c 5368     		ldr	r3, [r2, #4]
 943 013e 43F08053 		orr	r3, r3, #268435456
 944 0142 5360     		str	r3, [r2, #4]
 284:core/src/kmesg.c **** 			}
 945              		.loc 1 284 5 view .LVU290
 946              		.syntax unified
 947              	@ 284 "core/src/kmesg.c" 1
 948 0144 BFF34F8F 		dsb 0xF
 949              	@ 0 "" 2
 284:core/src/kmesg.c **** 			}
 950              		.loc 1 284 5 view .LVU291
 951              	@ 284 "core/src/kmesg.c" 1
 952 0148 BFF36F8F 		isb 0xF
 953              	@ 0 "" 2
 954              		.thumb
 955              		.syntax unified
 956 014c 7BE7     		b	.L56
 957              	.L68:
 958 014e 00BF     		.align	2
 959              	.L67:
 960 0150 00000000 		.word	runPtr
 961 0154 00ED00E0 		.word	-536810240
 962 0158 00000000 		.word	readyQueue
 963              	.LBE40:
 964              		.cfi_endproc
 965              	.LFE58:
 967              		.section	.text.kMboxQuery,"ax",%progbits
 968              		.align	1
 969              		.global	kMboxQuery
 970              		.syntax unified
 971              		.thumb
 972              		.thumb_func
 974              	kMboxQuery:
 975              	.LVL81:
 976              	.LFB59:
 292:core/src/kmesg.c **** #if (RK_CONF_FUNC_MBOX_QUERY==ON)
 293:core/src/kmesg.c **** ULONG kMboxQuery( RK_MBOX *const kobj)
 294:core/src/kmesg.c **** {
ARM GAS  /var/folders/fg/4fzv35n91mbcgx4z5jzqdsl40000gn/T//ccsuUsPw.s 			page 32


 977              		.loc 1 294 1 view -0
 978              		.cfi_startproc
 979              		@ args = 0, pretend = 0, frame = 0
 980              		@ frame_needed = 0, uses_anonymous_args = 0
 981              		@ link register save eliminated.
 295:core/src/kmesg.c **** 	return ((kobj->mailPtr == NULL) ? 0UL : 1UL);
 982              		.loc 1 295 2 view .LVU293
 983              		.loc 1 295 15 is_stmt 0 view .LVU294
 984 0000 8068     		ldr	r0, [r0, #8]
 985              	.LVL82:
 296:core/src/kmesg.c **** }
 986              		.loc 1 296 1 view .LVU295
 987 0002 0038     		subs	r0, r0, #0
 988 0004 18BF     		it	ne
 989 0006 0120     		movne	r0, #1
 990 0008 7047     		bx	lr
 991              		.cfi_endproc
 992              	.LFE59:
 994              		.section	.text.kMboxPeek,"ax",%progbits
 995              		.align	1
 996              		.global	kMboxPeek
 997              		.syntax unified
 998              		.thumb
 999              		.thumb_func
 1001              	kMboxPeek:
 1002              	.LVL83:
 1003              	.LFB60:
 297:core/src/kmesg.c **** #endif
 298:core/src/kmesg.c **** 
 299:core/src/kmesg.c **** #if (RK_CONF_FUNC_MBOX_PEEK==ON)
 300:core/src/kmesg.c **** RK_ERR kMboxPeek( RK_MBOX *const kobj, VOID **peekPPtr)
 301:core/src/kmesg.c **** {
 1004              		.loc 1 301 1 is_stmt 1 view -0
 1005              		.cfi_startproc
 1006              		@ args = 0, pretend = 0, frame = 0
 1007              		@ frame_needed = 0, uses_anonymous_args = 0
 1008              		.loc 1 301 1 is_stmt 0 view .LVU297
 1009 0000 70B5     		push	{r4, r5, r6, lr}
 1010              		.cfi_def_cfa_offset 16
 1011              		.cfi_offset 4, -16
 1012              		.cfi_offset 5, -12
 1013              		.cfi_offset 6, -8
 1014              		.cfi_offset 14, -4
 1015 0002 0446     		mov	r4, r0
 1016 0004 0D46     		mov	r5, r1
 302:core/src/kmesg.c **** 	RK_CR_AREA
 1017              		.loc 1 302 2 is_stmt 1 view .LVU298
 303:core/src/kmesg.c **** 	RK_CR_ENTER
 1018              		.loc 1 303 2 view .LVU299
 1019 0006 FFF7FEFF 		bl	kEnterCR
 1020              	.LVL84:
 1021              		.loc 1 303 2 is_stmt 0 view .LVU300
 1022 000a 0646     		mov	r6, r0
 1023              	.LVL85:
 304:core/src/kmesg.c **** 	if (kobj == NULL || peekPPtr == NULL)
 1024              		.loc 1 304 2 is_stmt 1 view .LVU301
 1025              		.loc 1 304 5 is_stmt 0 view .LVU302
ARM GAS  /var/folders/fg/4fzv35n91mbcgx4z5jzqdsl40000gn/T//ccsuUsPw.s 			page 33


 1026 000c 4CB1     		cbz	r4, .L71
 1027              		.loc 1 304 19 discriminator 1 view .LVU303
 1028 000e 45B1     		cbz	r5, .L71
 305:core/src/kmesg.c **** 	{
 306:core/src/kmesg.c **** 		KERR( RK_FAULT_OBJ_NULL);
 307:core/src/kmesg.c **** 		RK_CR_EXIT
 308:core/src/kmesg.c **** 		return (RK_ERROR);
 309:core/src/kmesg.c **** 	}
 310:core/src/kmesg.c **** 	if (!kobj->init)
 1029              		.loc 1 310 2 is_stmt 1 view .LVU304
 1030              		.loc 1 310 11 is_stmt 0 view .LVU305
 1031 0010 6368     		ldr	r3, [r4, #4]
 1032              		.loc 1 310 5 view .LVU306
 1033 0012 83B1     		cbz	r3, .L77
 311:core/src/kmesg.c **** 	{
 312:core/src/kmesg.c **** 		KERR( RK_FAULT_OBJ_NOT_INIT);
 313:core/src/kmesg.c **** 		RK_CR_EXIT
 314:core/src/kmesg.c **** 		return (RK_ERROR);
 315:core/src/kmesg.c **** 	}
 316:core/src/kmesg.c **** 	if (kobj->mailPtr == NULL)
 1034              		.loc 1 316 2 is_stmt 1 view .LVU307
 1035              		.loc 1 316 10 is_stmt 0 view .LVU308
 1036 0014 A368     		ldr	r3, [r4, #8]
 1037              		.loc 1 316 5 view .LVU309
 1038 0016 C3B1     		cbz	r3, .L78
 317:core/src/kmesg.c **** 	{
 318:core/src/kmesg.c **** 		RK_CR_EXIT
 319:core/src/kmesg.c **** 		return (RK_ERR_MBOX_EMPTY);
 320:core/src/kmesg.c **** 	}
 321:core/src/kmesg.c **** 	*peekPPtr = kobj->mailPtr;
 1039              		.loc 1 321 2 is_stmt 1 view .LVU310
 1040              		.loc 1 321 12 is_stmt 0 view .LVU311
 1041 0018 2B60     		str	r3, [r5]
 322:core/src/kmesg.c **** 	RK_CR_EXIT
 1042              		.loc 1 322 2 is_stmt 1 view .LVU312
 1043 001a FFF7FEFF 		bl	kExitCR
 1044              	.LVL86:
 323:core/src/kmesg.c **** 	return (RK_SUCCESS);
 1045              		.loc 1 323 2 view .LVU313
 1046              		.loc 1 323 9 is_stmt 0 view .LVU314
 1047 001e 0020     		movs	r0, #0
 1048              	.L70:
 324:core/src/kmesg.c **** }
 1049              		.loc 1 324 1 view .LVU315
 1050 0020 70BD     		pop	{r4, r5, r6, pc}
 1051              	.LVL87:
 1052              	.L71:
 306:core/src/kmesg.c **** 		RK_CR_EXIT
 1053              		.loc 1 306 3 is_stmt 1 view .LVU316
 1054 0022 6FF06300 		mvn	r0, #99
 1055              	.LVL88:
 306:core/src/kmesg.c **** 		RK_CR_EXIT
 1056              		.loc 1 306 3 is_stmt 0 view .LVU317
 1057 0026 FFF7FEFF 		bl	kErrHandler
 1058              	.LVL89:
 307:core/src/kmesg.c **** 		return (RK_ERROR);
 1059              		.loc 1 307 3 is_stmt 1 view .LVU318
ARM GAS  /var/folders/fg/4fzv35n91mbcgx4z5jzqdsl40000gn/T//ccsuUsPw.s 			page 34


 1060 002a 3046     		mov	r0, r6
 1061 002c FFF7FEFF 		bl	kExitCR
 1062              	.LVL90:
 308:core/src/kmesg.c **** 	}
 1063              		.loc 1 308 3 view .LVU319
 308:core/src/kmesg.c **** 	}
 1064              		.loc 1 308 10 is_stmt 0 view .LVU320
 1065 0030 4FF0FF30 		mov	r0, #-1
 1066 0034 F4E7     		b	.L70
 1067              	.LVL91:
 1068              	.L77:
 312:core/src/kmesg.c **** 		RK_CR_EXIT
 1069              		.loc 1 312 3 is_stmt 1 view .LVU321
 1070 0036 6FF06400 		mvn	r0, #100
 1071              	.LVL92:
 312:core/src/kmesg.c **** 		RK_CR_EXIT
 1072              		.loc 1 312 3 is_stmt 0 view .LVU322
 1073 003a FFF7FEFF 		bl	kErrHandler
 1074              	.LVL93:
 313:core/src/kmesg.c **** 		return (RK_ERROR);
 1075              		.loc 1 313 3 is_stmt 1 view .LVU323
 1076 003e 3046     		mov	r0, r6
 1077 0040 FFF7FEFF 		bl	kExitCR
 1078              	.LVL94:
 314:core/src/kmesg.c **** 	}
 1079              		.loc 1 314 3 view .LVU324
 314:core/src/kmesg.c **** 	}
 1080              		.loc 1 314 10 is_stmt 0 view .LVU325
 1081 0044 4FF0FF30 		mov	r0, #-1
 1082 0048 EAE7     		b	.L70
 1083              	.LVL95:
 1084              	.L78:
 318:core/src/kmesg.c **** 		return (RK_ERR_MBOX_EMPTY);
 1085              		.loc 1 318 3 is_stmt 1 view .LVU326
 1086 004a FFF7FEFF 		bl	kExitCR
 1087              	.LVL96:
 319:core/src/kmesg.c **** 	}
 1088              		.loc 1 319 3 view .LVU327
 319:core/src/kmesg.c **** 	}
 1089              		.loc 1 319 10 is_stmt 0 view .LVU328
 1090 004e 6FF4CC70 		mvn	r0, #408
 1091 0052 E5E7     		b	.L70
 1092              		.cfi_endproc
 1093              	.LFE60:
 1095              		.section	.rodata.kQueueInit.str1.4,"aMS",%progbits,1
 1096              		.align	2
 1097              	.LC1:
 1098 0000 717100   		.ascii	"qq\000"
 1099              		.section	.text.kQueueInit,"ax",%progbits
 1100              		.align	1
 1101              		.global	kQueueInit
 1102              		.syntax unified
 1103              		.thumb
 1104              		.thumb_func
 1106              	kQueueInit:
 1107              	.LVL97:
 1108              	.LFB61:
ARM GAS  /var/folders/fg/4fzv35n91mbcgx4z5jzqdsl40000gn/T//ccsuUsPw.s 			page 35


 325:core/src/kmesg.c **** #endif
 326:core/src/kmesg.c **** 
 327:core/src/kmesg.c **** #endif /* mailbox */
 328:core/src/kmesg.c **** 
 329:core/src/kmesg.c **** /*******************************************************************************
 330:core/src/kmesg.c ****  * MAIL QUEUE
 331:core/src/kmesg.c ****  ******************************************************************************/
 332:core/src/kmesg.c **** #if (RK_CONF_QUEUE==ON)
 333:core/src/kmesg.c **** 
 334:core/src/kmesg.c **** RK_ERR kQueueInit( RK_QUEUE *const kobj, VOID *memPtr,
 335:core/src/kmesg.c **** 		ULONG const maxItems)
 336:core/src/kmesg.c **** {
 1109              		.loc 1 336 1 is_stmt 1 view -0
 1110              		.cfi_startproc
 1111              		@ args = 0, pretend = 0, frame = 0
 1112              		@ frame_needed = 0, uses_anonymous_args = 0
 1113              		.loc 1 336 1 is_stmt 0 view .LVU330
 1114 0000 F8B5     		push	{r3, r4, r5, r6, r7, lr}
 1115              		.cfi_def_cfa_offset 24
 1116              		.cfi_offset 3, -24
 1117              		.cfi_offset 4, -20
 1118              		.cfi_offset 5, -16
 1119              		.cfi_offset 6, -12
 1120              		.cfi_offset 7, -8
 1121              		.cfi_offset 14, -4
 1122 0002 0446     		mov	r4, r0
 1123 0004 0D46     		mov	r5, r1
 1124 0006 1646     		mov	r6, r2
 337:core/src/kmesg.c **** 	RK_CR_AREA
 1125              		.loc 1 337 2 is_stmt 1 view .LVU331
 338:core/src/kmesg.c **** 	RK_CR_ENTER
 1126              		.loc 1 338 2 view .LVU332
 1127 0008 FFF7FEFF 		bl	kEnterCR
 1128              	.LVL98:
 1129              		.loc 1 338 2 is_stmt 0 view .LVU333
 1130 000c 0746     		mov	r7, r0
 1131              	.LVL99:
 339:core/src/kmesg.c **** 
 340:core/src/kmesg.c **** 	if (kobj == NULL || memPtr == NULL || maxItems == 0)
 1132              		.loc 1 340 2 is_stmt 1 view .LVU334
 1133              		.loc 1 340 5 is_stmt 0 view .LVU335
 1134 000e 1CB3     		cbz	r4, .L80
 1135              		.loc 1 340 19 discriminator 1 view .LVU336
 1136 0010 15B3     		cbz	r5, .L80
 1137              		.loc 1 340 37 discriminator 2 view .LVU337
 1138 0012 0EB3     		cbz	r6, .L80
 341:core/src/kmesg.c **** 	{
 342:core/src/kmesg.c **** 		KERR( RK_FAULT_OBJ_NULL);
 343:core/src/kmesg.c **** 		RK_CR_EXIT
 344:core/src/kmesg.c **** 		return (RK_ERROR);
 345:core/src/kmesg.c **** 	}
 346:core/src/kmesg.c **** 
 347:core/src/kmesg.c **** 	kobj->mailQPtr = (VOID **) memPtr;
 1139              		.loc 1 347 2 is_stmt 1 view .LVU338
 1140              		.loc 1 347 17 is_stmt 0 view .LVU339
 1141 0014 A560     		str	r5, [r4, #8]
 348:core/src/kmesg.c **** 	kobj->bufEndPtr = kobj->mailQPtr + maxItems;
ARM GAS  /var/folders/fg/4fzv35n91mbcgx4z5jzqdsl40000gn/T//ccsuUsPw.s 			page 36


 1142              		.loc 1 348 2 is_stmt 1 view .LVU340
 1143              		.loc 1 348 35 is_stmt 0 view .LVU341
 1144 0016 05EB8603 		add	r3, r5, r6, lsl #2
 1145              		.loc 1 348 18 view .LVU342
 1146 001a E360     		str	r3, [r4, #12]
 349:core/src/kmesg.c **** 	kobj->headPtr = kobj->mailQPtr;
 1147              		.loc 1 349 2 is_stmt 1 view .LVU343
 1148              		.loc 1 349 16 is_stmt 0 view .LVU344
 1149 001c 2561     		str	r5, [r4, #16]
 350:core/src/kmesg.c **** 	kobj->tailPtr = kobj->mailQPtr;
 1150              		.loc 1 350 2 is_stmt 1 view .LVU345
 1151              		.loc 1 350 16 is_stmt 0 view .LVU346
 1152 001e 6561     		str	r5, [r4, #20]
 351:core/src/kmesg.c **** 	kobj->maxItems = maxItems;
 1153              		.loc 1 351 2 is_stmt 1 view .LVU347
 1154              		.loc 1 351 17 is_stmt 0 view .LVU348
 1155 0020 A661     		str	r6, [r4, #24]
 352:core/src/kmesg.c **** 	kobj->countItems = 0;
 1156              		.loc 1 352 2 is_stmt 1 view .LVU349
 1157              		.loc 1 352 19 is_stmt 0 view .LVU350
 1158 0022 0023     		movs	r3, #0
 1159 0024 E361     		str	r3, [r4, #28]
 353:core/src/kmesg.c **** 	kobj->init = TRUE;
 1160              		.loc 1 353 2 is_stmt 1 view .LVU351
 1161              		.loc 1 353 13 is_stmt 0 view .LVU352
 1162 0026 0122     		movs	r2, #1
 1163 0028 6260     		str	r2, [r4, #4]
 354:core/src/kmesg.c **** 	kobj->objID = RK_MAILQUEUE_KOBJ_ID;
 1164              		.loc 1 354 2 is_stmt 1 view .LVU353
 1165              		.loc 1 354 14 is_stmt 0 view .LVU354
 1166 002a 0522     		movs	r2, #5
 1167 002c 2260     		str	r2, [r4]
 355:core/src/kmesg.c **** 	kobj->ownerTask = NULL;
 1168              		.loc 1 355 2 is_stmt 1 view .LVU355
 1169              		.loc 1 355 18 is_stmt 0 view .LVU356
 1170 002e 2362     		str	r3, [r4, #32]
 356:core/src/kmesg.c **** 
 357:core/src/kmesg.c **** 	RK_ERR listerr = kListInit( &kobj->waitingQueue, "qq");
 1171              		.loc 1 357 2 is_stmt 1 view .LVU357
 1172              	.LVL100:
 1173              	.LBB41:
 1174              	.LBI41:
  60:arch/armv7m/kernel/inc/ksch.h ****         CHAR* listName)
 1175              		.loc 2 60 53 view .LVU358
 1176              	.LBB42:
  63:arch/armv7m/kernel/inc/ksch.h ****     {
 1177              		.loc 2 63 5 view .LVU359
  63:arch/armv7m/kernel/inc/ksch.h ****     {
 1178              		.loc 2 63 8 is_stmt 0 view .LVU360
 1179 0030 14F1240F 		cmn	r4, #36
 1180 0034 1AD0     		beq	.L86
  67:arch/armv7m/kernel/inc/ksch.h ****     kobj->listDummy.prevPtr = & (kobj->listDummy);
 1181              		.loc 2 67 5 is_stmt 1 view .LVU361
  67:arch/armv7m/kernel/inc/ksch.h ****     kobj->listDummy.prevPtr = & (kobj->listDummy);
 1182              		.loc 2 67 31 is_stmt 0 view .LVU362
 1183 0036 04F12403 		add	r3, r4, #36
 1184              	.LVL101:
ARM GAS  /var/folders/fg/4fzv35n91mbcgx4z5jzqdsl40000gn/T//ccsuUsPw.s 			page 37


  67:arch/armv7m/kernel/inc/ksch.h ****     kobj->listDummy.prevPtr = & (kobj->listDummy);
 1185              		.loc 2 67 29 view .LVU363
 1186 003a 6362     		str	r3, [r4, #36]
  68:arch/armv7m/kernel/inc/ksch.h ****     kobj->listName = listName;
 1187              		.loc 2 68 5 is_stmt 1 view .LVU364
  68:arch/armv7m/kernel/inc/ksch.h ****     kobj->listName = listName;
 1188              		.loc 2 68 29 is_stmt 0 view .LVU365
 1189 003c A362     		str	r3, [r4, #40]
  69:arch/armv7m/kernel/inc/ksch.h ****     kobj->size = 0U;
 1190              		.loc 2 69 5 is_stmt 1 view .LVU366
  69:arch/armv7m/kernel/inc/ksch.h ****     kobj->size = 0U;
 1191              		.loc 2 69 20 is_stmt 0 view .LVU367
 1192 003e 0D4B     		ldr	r3, .L87
 1193              	.LVL102:
  69:arch/armv7m/kernel/inc/ksch.h ****     kobj->size = 0U;
 1194              		.loc 2 69 20 view .LVU368
 1195 0040 E362     		str	r3, [r4, #44]
  70:arch/armv7m/kernel/inc/ksch.h ****     kobj->init=TRUE;
 1196              		.loc 2 70 5 is_stmt 1 view .LVU369
  70:arch/armv7m/kernel/inc/ksch.h ****     kobj->init=TRUE;
 1197              		.loc 2 70 16 is_stmt 0 view .LVU370
 1198 0042 0023     		movs	r3, #0
 1199 0044 2363     		str	r3, [r4, #48]
  71:arch/armv7m/kernel/inc/ksch.h ****     _RK_DMB/*guarantee data is updated before going*/
 1200              		.loc 2 71 5 is_stmt 1 view .LVU371
  71:arch/armv7m/kernel/inc/ksch.h ****     _RK_DMB/*guarantee data is updated before going*/
 1201              		.loc 2 71 15 is_stmt 0 view .LVU372
 1202 0046 0123     		movs	r3, #1
 1203 0048 6363     		str	r3, [r4, #52]
  72:arch/armv7m/kernel/inc/ksch.h ****     return (RK_SUCCESS);
 1204              		.loc 2 72 5 is_stmt 1 view .LVU373
 1205              		.syntax unified
 1206              	@ 72 "arch/armv7m/kernel/inc/ksch.h" 1
 1207 004a BFF35F8F 		dmb 0xF
 1208              	@ 0 "" 2
 1209              		.loc 2 73 5 view .LVU374
 1210              	.LVL103:
 1211              		.loc 2 73 5 is_stmt 0 view .LVU375
 1212              		.thumb
 1213              		.syntax unified
 1214              	.LBE42:
 1215              	.LBE41:
 358:core/src/kmesg.c **** 	kassert( listerr == 0);
 1216              		.loc 1 358 2 is_stmt 1 view .LVU376
 1217              	.L84:
 359:core/src/kmesg.c **** 
 360:core/src/kmesg.c **** 	RK_CR_EXIT
 1218              		.loc 1 360 2 view .LVU377
 1219 004e 3846     		mov	r0, r7
 1220 0050 FFF7FEFF 		bl	kExitCR
 1221              	.LVL104:
 361:core/src/kmesg.c **** 	return (RK_SUCCESS);
 1222              		.loc 1 361 2 view .LVU378
 1223              		.loc 1 361 9 is_stmt 0 view .LVU379
 1224 0054 0020     		movs	r0, #0
 1225              	.L79:
 362:core/src/kmesg.c **** }
ARM GAS  /var/folders/fg/4fzv35n91mbcgx4z5jzqdsl40000gn/T//ccsuUsPw.s 			page 38


 1226              		.loc 1 362 1 view .LVU380
 1227 0056 F8BD     		pop	{r3, r4, r5, r6, r7, pc}
 1228              	.LVL105:
 1229              	.L80:
 342:core/src/kmesg.c **** 		RK_CR_EXIT
 1230              		.loc 1 342 3 is_stmt 1 view .LVU381
 1231 0058 6FF06300 		mvn	r0, #99
 1232              	.LVL106:
 342:core/src/kmesg.c **** 		RK_CR_EXIT
 1233              		.loc 1 342 3 is_stmt 0 view .LVU382
 1234 005c FFF7FEFF 		bl	kErrHandler
 1235              	.LVL107:
 343:core/src/kmesg.c **** 		return (RK_ERROR);
 1236              		.loc 1 343 3 is_stmt 1 view .LVU383
 1237 0060 3846     		mov	r0, r7
 1238 0062 FFF7FEFF 		bl	kExitCR
 1239              	.LVL108:
 344:core/src/kmesg.c **** 	}
 1240              		.loc 1 344 3 view .LVU384
 344:core/src/kmesg.c **** 	}
 1241              		.loc 1 344 10 is_stmt 0 view .LVU385
 1242 0066 4FF0FF30 		mov	r0, #-1
 1243 006a F4E7     		b	.L79
 1244              	.LVL109:
 1245              	.L86:
 358:core/src/kmesg.c **** 
 1246              		.loc 1 358 2 is_stmt 1 view .LVU386
 1247 006c 1846     		mov	r0, r3
 1248              	.LVL110:
 358:core/src/kmesg.c **** 
 1249              		.loc 1 358 2 is_stmt 0 view .LVU387
 1250 006e FFF7FEFF 		bl	kErrHandler
 1251              	.LVL111:
 1252 0072 ECE7     		b	.L84
 1253              	.L88:
 1254              		.align	2
 1255              	.L87:
 1256 0074 00000000 		.word	.LC1
 1257              		.cfi_endproc
 1258              	.LFE61:
 1260              		.section	.text.kQueueSetOwner,"ax",%progbits
 1261              		.align	1
 1262              		.global	kQueueSetOwner
 1263              		.syntax unified
 1264              		.thumb
 1265              		.thumb_func
 1267              	kQueueSetOwner:
 1268              	.LVL112:
 1269              	.LFB62:
 363:core/src/kmesg.c **** 
 364:core/src/kmesg.c **** RK_ERR kQueueSetOwner( RK_QUEUE *const kobj, RK_TASK_HANDLE const taskHandle)
 365:core/src/kmesg.c **** {
 1270              		.loc 1 365 1 is_stmt 1 view -0
 1271              		.cfi_startproc
 1272              		@ args = 0, pretend = 0, frame = 0
 1273              		@ frame_needed = 0, uses_anonymous_args = 0
 1274              		.loc 1 365 1 is_stmt 0 view .LVU389
ARM GAS  /var/folders/fg/4fzv35n91mbcgx4z5jzqdsl40000gn/T//ccsuUsPw.s 			page 39


 1275 0000 38B5     		push	{r3, r4, r5, lr}
 1276              		.cfi_def_cfa_offset 16
 1277              		.cfi_offset 3, -16
 1278              		.cfi_offset 4, -12
 1279              		.cfi_offset 5, -8
 1280              		.cfi_offset 14, -4
 1281 0002 0446     		mov	r4, r0
 1282 0004 0D46     		mov	r5, r1
 366:core/src/kmesg.c **** 	RK_CR_AREA
 1283              		.loc 1 366 2 is_stmt 1 view .LVU390
 367:core/src/kmesg.c **** 	RK_CR_ENTER
 1284              		.loc 1 367 2 view .LVU391
 1285 0006 FFF7FEFF 		bl	kEnterCR
 1286              	.LVL113:
 368:core/src/kmesg.c **** 
 369:core/src/kmesg.c **** 	if (kobj == NULL || taskHandle == NULL)
 1287              		.loc 1 369 2 view .LVU392
 1288              		.loc 1 369 5 is_stmt 0 view .LVU393
 1289 000a 2CB1     		cbz	r4, .L90
 1290              		.loc 1 369 19 discriminator 1 view .LVU394
 1291 000c 25B1     		cbz	r5, .L90
 370:core/src/kmesg.c **** 	{
 371:core/src/kmesg.c **** 		RK_CR_EXIT
 372:core/src/kmesg.c **** 		return (RK_ERR_OBJ_NULL);
 373:core/src/kmesg.c **** 	}
 374:core/src/kmesg.c **** 
 375:core/src/kmesg.c **** 	kobj->ownerTask = taskHandle;
 1292              		.loc 1 375 2 is_stmt 1 view .LVU395
 1293              		.loc 1 375 18 is_stmt 0 view .LVU396
 1294 000e 2562     		str	r5, [r4, #32]
 376:core/src/kmesg.c **** 
 377:core/src/kmesg.c **** 	RK_CR_EXIT
 1295              		.loc 1 377 2 is_stmt 1 view .LVU397
 1296 0010 FFF7FEFF 		bl	kExitCR
 1297              	.LVL114:
 378:core/src/kmesg.c **** 	return (RK_SUCCESS);
 1298              		.loc 1 378 2 view .LVU398
 1299              		.loc 1 378 9 is_stmt 0 view .LVU399
 1300 0014 0020     		movs	r0, #0
 1301              	.L89:
 379:core/src/kmesg.c **** }
 1302              		.loc 1 379 1 view .LVU400
 1303 0016 38BD     		pop	{r3, r4, r5, pc}
 1304              	.LVL115:
 1305              	.L90:
 371:core/src/kmesg.c **** 		return (RK_ERR_OBJ_NULL);
 1306              		.loc 1 371 3 is_stmt 1 view .LVU401
 1307 0018 FFF7FEFF 		bl	kExitCR
 1308              	.LVL116:
 372:core/src/kmesg.c **** 	}
 1309              		.loc 1 372 3 view .LVU402
 372:core/src/kmesg.c **** 	}
 1310              		.loc 1 372 10 is_stmt 0 view .LVU403
 1311 001c 6FF06300 		mvn	r0, #99
 1312 0020 F9E7     		b	.L89
 1313              		.cfi_endproc
 1314              	.LFE62:
ARM GAS  /var/folders/fg/4fzv35n91mbcgx4z5jzqdsl40000gn/T//ccsuUsPw.s 			page 40


 1316              		.section	.text.kQueuePost,"ax",%progbits
 1317              		.align	1
 1318              		.global	kQueuePost
 1319              		.syntax unified
 1320              		.thumb
 1321              		.thumb_func
 1323              	kQueuePost:
 1324              	.LVL117:
 1325              	.LFB63:
 380:core/src/kmesg.c **** 
 381:core/src/kmesg.c **** RK_ERR kQueuePost( RK_QUEUE *const kobj, VOID *sendPtr,
 382:core/src/kmesg.c **** 		RK_TICK const timeout)
 383:core/src/kmesg.c **** {
 1326              		.loc 1 383 1 is_stmt 1 view -0
 1327              		.cfi_startproc
 1328              		@ args = 0, pretend = 0, frame = 8
 1329              		@ frame_needed = 0, uses_anonymous_args = 0
 1330              		.loc 1 383 1 is_stmt 0 view .LVU405
 1331 0000 2DE9F041 		push	{r4, r5, r6, r7, r8, lr}
 1332              		.cfi_def_cfa_offset 24
 1333              		.cfi_offset 4, -24
 1334              		.cfi_offset 5, -20
 1335              		.cfi_offset 6, -16
 1336              		.cfi_offset 7, -12
 1337              		.cfi_offset 8, -8
 1338              		.cfi_offset 14, -4
 1339 0004 82B0     		sub	sp, sp, #8
 1340              		.cfi_def_cfa_offset 32
 1341 0006 0446     		mov	r4, r0
 1342 0008 0E46     		mov	r6, r1
 1343 000a 1746     		mov	r7, r2
 384:core/src/kmesg.c **** 	RK_CR_AREA
 1344              		.loc 1 384 2 is_stmt 1 view .LVU406
 385:core/src/kmesg.c **** 	RK_CR_ENTER
 1345              		.loc 1 385 2 view .LVU407
 1346 000c FFF7FEFF 		bl	kEnterCR
 1347              	.LVL118:
 1348              		.loc 1 385 2 is_stmt 0 view .LVU408
 1349 0010 0546     		mov	r5, r0
 1350              	.LVL119:
 386:core/src/kmesg.c **** 
 387:core/src/kmesg.c **** 	if (kobj == NULL || sendPtr == NULL)
 1351              		.loc 1 387 2 is_stmt 1 view .LVU409
 1352              		.loc 1 387 5 is_stmt 0 view .LVU410
 1353 0012 4CB3     		cbz	r4, .L95
 1354              		.loc 1 387 19 discriminator 1 view .LVU411
 1355 0014 46B3     		cbz	r6, .L95
 388:core/src/kmesg.c **** 	{
 389:core/src/kmesg.c **** 		KERR( RK_FAULT_OBJ_NULL);
 390:core/src/kmesg.c **** 		RK_CR_EXIT
 391:core/src/kmesg.c **** 		return (RK_ERROR);
 392:core/src/kmesg.c **** 	}
 393:core/src/kmesg.c **** 
 394:core/src/kmesg.c **** 	if (!kobj->init)
 1356              		.loc 1 394 2 is_stmt 1 view .LVU412
 1357              		.loc 1 394 11 is_stmt 0 view .LVU413
 1358 0016 6368     		ldr	r3, [r4, #4]
ARM GAS  /var/folders/fg/4fzv35n91mbcgx4z5jzqdsl40000gn/T//ccsuUsPw.s 			page 41


 1359              		.loc 1 394 5 view .LVU414
 1360 0018 002B     		cmp	r3, #0
 1361 001a 2FD0     		beq	.L110
 395:core/src/kmesg.c **** 	{
 396:core/src/kmesg.c **** 		KERR( RK_FAULT_OBJ_NOT_INIT);
 397:core/src/kmesg.c **** 		RK_CR_EXIT
 398:core/src/kmesg.c **** 		return (RK_ERROR);
 399:core/src/kmesg.c **** 	}
 400:core/src/kmesg.c **** 
 401:core/src/kmesg.c **** 	if (RK_IS_BLOCK_ON_ISR( timeout))
 1362              		.loc 1 401 2 is_stmt 1 view .LVU415
 1363              	.LBB43:
 1364              	.LBI43:
 308:arch/armv7m/kernel/inc/kdefs.h **** {
 1365              		.loc 3 308 10 view .LVU416
 1366              	.LBB44:
 310:arch/armv7m/kernel/inc/kdefs.h ****     __ASM ("MRS %0, IPSR" : "=r"(ipsr_value));
 1367              		.loc 3 310 5 view .LVU417
 311:arch/armv7m/kernel/inc/kdefs.h ****     __ASM volatile ("dmb 0xF":::"memory");
 1368              		.loc 3 311 5 view .LVU418
 1369              		.syntax unified
 1370              	@ 311 "arch/armv7m/kernel/inc/kdefs.h" 1
 1371 001c EFF30583 		MRS r3, IPSR
 1372              	@ 0 "" 2
 312:arch/armv7m/kernel/inc/kdefs.h ****     return (ipsr_value);
 1373              		.loc 3 312 5 view .LVU419
 1374              	@ 312 "arch/armv7m/kernel/inc/kdefs.h" 1
 1375 0020 BFF35F8F 		dmb 0xF
 1376              	@ 0 "" 2
 1377              		.loc 3 313 5 view .LVU420
 1378              		.thumb
 1379              		.syntax unified
 1380              	.LBE44:
 1381              	.LBE43:
 1382              		.loc 1 401 5 is_stmt 0 view .LVU421
 1383 0024 0BB1     		cbz	r3, .L99
 1384              		.loc 1 401 6 discriminator 1 view .LVU422
 1385 0026 002F     		cmp	r7, #0
 1386 0028 32DC     		bgt	.L111
 1387              	.L99:
 402:core/src/kmesg.c **** 	{
 403:core/src/kmesg.c **** 		KERR( RK_FAULT_INVALID_ISR_PRIMITIVE);
 404:core/src/kmesg.c **** 		RK_CR_EXIT
 405:core/src/kmesg.c **** 		return (RK_ERROR);
 406:core/src/kmesg.c **** 	}
 407:core/src/kmesg.c **** 
 408:core/src/kmesg.c **** 	/*   if queue is full */
 409:core/src/kmesg.c **** 	if (kobj->countItems == kobj->maxItems)
 1388              		.loc 1 409 2 is_stmt 1 view .LVU423
 1389              		.loc 1 409 10 is_stmt 0 view .LVU424
 1390 002a E269     		ldr	r2, [r4, #28]
 1391              		.loc 1 409 30 view .LVU425
 1392 002c A369     		ldr	r3, [r4, #24]
 1393              		.loc 1 409 5 view .LVU426
 1394 002e 9A42     		cmp	r2, r3
 1395 0030 38D0     		beq	.L112
 1396              	.LVL120:
ARM GAS  /var/folders/fg/4fzv35n91mbcgx4z5jzqdsl40000gn/T//ccsuUsPw.s 			page 42


 1397              	.L100:
 410:core/src/kmesg.c **** 	{
 411:core/src/kmesg.c **** 		if (timeout == 0)
 412:core/src/kmesg.c **** 		{
 413:core/src/kmesg.c **** 			RK_CR_EXIT
 414:core/src/kmesg.c **** 			return (RK_ERR_QUEUE_FULL);
 415:core/src/kmesg.c **** 		}
 416:core/src/kmesg.c **** 
 417:core/src/kmesg.c **** 		if (kobj->ownerTask)
 418:core/src/kmesg.c **** 		{
 419:core/src/kmesg.c **** 			if (kobj->ownerTask->priority > runPtr->priority)
 420:core/src/kmesg.c **** 			{
 421:core/src/kmesg.c **** 				kobj->ownerTask->priority = runPtr->priority;
 422:core/src/kmesg.c **** 			}
 423:core/src/kmesg.c **** 		}
 424:core/src/kmesg.c **** 
 425:core/src/kmesg.c **** 		if ((timeout > 0) && (timeout != RK_WAIT_FOREVER))
 426:core/src/kmesg.c **** 		{
 427:core/src/kmesg.c **** 			RK_TASK_TIMEOUT_WAITINGQUEUE_SETUP
 428:core/src/kmesg.c **** 			kTimeOut( &runPtr->timeoutNode, timeout);
 429:core/src/kmesg.c **** 		}
 430:core/src/kmesg.c **** 
 431:core/src/kmesg.c **** 		kTCBQEnqByPrio( &kobj->waitingQueue, runPtr);
 432:core/src/kmesg.c **** 		runPtr->status = RK_SENDING;
 433:core/src/kmesg.c **** 		RK_PEND_CTXTSWTCH
 434:core/src/kmesg.c **** 
 435:core/src/kmesg.c **** 		RK_CR_EXIT
 436:core/src/kmesg.c **** 		RK_CR_ENTER
 437:core/src/kmesg.c **** 
 438:core/src/kmesg.c **** 		if (runPtr->timeOut)
 439:core/src/kmesg.c **** 		{
 440:core/src/kmesg.c **** 			runPtr->timeOut = FALSE;
 441:core/src/kmesg.c **** 			RK_CR_EXIT
 442:core/src/kmesg.c **** 			return (RK_ERR_TIMEOUT);
 443:core/src/kmesg.c **** 		}
 444:core/src/kmesg.c **** 
 445:core/src/kmesg.c **** 		if ((timeout > RK_NO_WAIT) && (timeout != RK_WAIT_FOREVER))
 446:core/src/kmesg.c **** 		{
 447:core/src/kmesg.c **** 			kRemoveTimeoutNode( &runPtr->timeoutNode);
 448:core/src/kmesg.c **** 		}
 449:core/src/kmesg.c **** 	}
 450:core/src/kmesg.c **** 
 451:core/src/kmesg.c **** 	*(VOID ***) (kobj->tailPtr) = sendPtr;
 1398              		.loc 1 451 2 is_stmt 1 view .LVU427
 1399              		.loc 1 451 19 is_stmt 0 view .LVU428
 1400 0032 6369     		ldr	r3, [r4, #20]
 1401              		.loc 1 451 30 view .LVU429
 1402 0034 1E60     		str	r6, [r3]
 452:core/src/kmesg.c **** 
 453:core/src/kmesg.c **** 	if (kobj->ownerTask != NULL)
 1403              		.loc 1 453 2 is_stmt 1 view .LVU430
 1404              		.loc 1 453 10 is_stmt 0 view .LVU431
 1405 0036 236A     		ldr	r3, [r4, #32]
 1406              		.loc 1 453 5 view .LVU432
 1407 0038 0BB1     		cbz	r3, .L105
 454:core/src/kmesg.c **** 		kobj->ownerTask->priority = kobj->ownerTask->realPrio;
 1408              		.loc 1 454 3 is_stmt 1 view .LVU433
ARM GAS  /var/folders/fg/4fzv35n91mbcgx4z5jzqdsl40000gn/T//ccsuUsPw.s 			page 43


 1409              		.loc 1 454 46 is_stmt 0 view .LVU434
 1410 003a 9A7F     		ldrb	r2, [r3, #30]	@ zero_extendqisi2
 1411              		.loc 1 454 29 view .LVU435
 1412 003c 5A77     		strb	r2, [r3, #29]
 1413              	.L105:
 455:core/src/kmesg.c **** 
 456:core/src/kmesg.c **** 	kobj->tailPtr++;
 1414              		.loc 1 456 2 is_stmt 1 view .LVU436
 1415              		.loc 1 456 6 is_stmt 0 view .LVU437
 1416 003e 6369     		ldr	r3, [r4, #20]
 1417              		.loc 1 456 15 view .LVU438
 1418 0040 0433     		adds	r3, r3, #4
 1419 0042 6361     		str	r3, [r4, #20]
 457:core/src/kmesg.c **** 	if (kobj->tailPtr >= kobj->bufEndPtr)
 1420              		.loc 1 457 2 is_stmt 1 view .LVU439
 1421              		.loc 1 457 27 is_stmt 0 view .LVU440
 1422 0044 E268     		ldr	r2, [r4, #12]
 1423              		.loc 1 457 5 view .LVU441
 1424 0046 9342     		cmp	r3, r2
 1425 0048 01D3     		bcc	.L106
 458:core/src/kmesg.c **** 	{
 459:core/src/kmesg.c **** 		kobj->tailPtr = kobj->mailQPtr;
 1426              		.loc 1 459 3 is_stmt 1 view .LVU442
 1427              		.loc 1 459 23 is_stmt 0 view .LVU443
 1428 004a A368     		ldr	r3, [r4, #8]
 1429              		.loc 1 459 17 view .LVU444
 1430 004c 6361     		str	r3, [r4, #20]
 1431              	.L106:
 460:core/src/kmesg.c **** 	}
 461:core/src/kmesg.c **** 
 462:core/src/kmesg.c **** 	kobj->countItems++;
 1432              		.loc 1 462 2 is_stmt 1 view .LVU445
 1433              		.loc 1 462 6 is_stmt 0 view .LVU446
 1434 004e E369     		ldr	r3, [r4, #28]
 1435              		.loc 1 462 18 view .LVU447
 1436 0050 0133     		adds	r3, r3, #1
 1437 0052 E361     		str	r3, [r4, #28]
 463:core/src/kmesg.c **** 
 464:core/src/kmesg.c **** 	if (kobj->waitingQueue.size > 0)
 1438              		.loc 1 464 2 is_stmt 1 view .LVU448
 1439              		.loc 1 464 24 is_stmt 0 view .LVU449
 1440 0054 236B     		ldr	r3, [r4, #48]
 1441              		.loc 1 464 5 view .LVU450
 1442 0056 002B     		cmp	r3, #0
 1443 0058 6ED1     		bne	.L113
 1444              	.LVL121:
 1445              	.L107:
 465:core/src/kmesg.c **** 	{
 466:core/src/kmesg.c **** 		RK_TCB *freeReadPtr = kTCBQPeek( &kobj->waitingQueue);
 467:core/src/kmesg.c **** 		if (freeReadPtr->status == RK_RECEIVING)
 468:core/src/kmesg.c **** 		{
 469:core/src/kmesg.c **** 			kTCBQDeq( &kobj->waitingQueue, &freeReadPtr);
 470:core/src/kmesg.c **** 			kTCBQEnq( &readyQueue[freeReadPtr->priority], freeReadPtr);
 471:core/src/kmesg.c **** 			freeReadPtr->status = RK_READY;
 472:core/src/kmesg.c **** 
 473:core/src/kmesg.c **** 			if (freeReadPtr->priority < runPtr->priority)
 474:core/src/kmesg.c **** 			{
ARM GAS  /var/folders/fg/4fzv35n91mbcgx4z5jzqdsl40000gn/T//ccsuUsPw.s 			page 44


 475:core/src/kmesg.c **** 				RK_PEND_CTXTSWTCH
 476:core/src/kmesg.c **** 			}
 477:core/src/kmesg.c **** 		}
 478:core/src/kmesg.c **** 	}
 479:core/src/kmesg.c **** 
 480:core/src/kmesg.c **** 	RK_CR_EXIT
 1446              		.loc 1 480 2 is_stmt 1 view .LVU451
 1447 005a 2846     		mov	r0, r5
 1448 005c FFF7FEFF 		bl	kExitCR
 1449              	.LVL122:
 481:core/src/kmesg.c **** 	return (RK_SUCCESS);
 1450              		.loc 1 481 2 view .LVU452
 1451              		.loc 1 481 9 is_stmt 0 view .LVU453
 1452 0060 0020     		movs	r0, #0
 1453              	.L94:
 482:core/src/kmesg.c **** }
 1454              		.loc 1 482 1 view .LVU454
 1455 0062 02B0     		add	sp, sp, #8
 1456              		.cfi_remember_state
 1457              		.cfi_def_cfa_offset 24
 1458              		@ sp needed
 1459 0064 BDE8F081 		pop	{r4, r5, r6, r7, r8, pc}
 1460              	.LVL123:
 1461              	.L95:
 1462              		.cfi_restore_state
 389:core/src/kmesg.c **** 		RK_CR_EXIT
 1463              		.loc 1 389 3 is_stmt 1 view .LVU455
 1464 0068 6FF06300 		mvn	r0, #99
 1465              	.LVL124:
 389:core/src/kmesg.c **** 		RK_CR_EXIT
 1466              		.loc 1 389 3 is_stmt 0 view .LVU456
 1467 006c FFF7FEFF 		bl	kErrHandler
 1468              	.LVL125:
 390:core/src/kmesg.c **** 		return (RK_ERROR);
 1469              		.loc 1 390 3 is_stmt 1 view .LVU457
 1470 0070 2846     		mov	r0, r5
 1471 0072 FFF7FEFF 		bl	kExitCR
 1472              	.LVL126:
 391:core/src/kmesg.c **** 	}
 1473              		.loc 1 391 3 view .LVU458
 391:core/src/kmesg.c **** 	}
 1474              		.loc 1 391 10 is_stmt 0 view .LVU459
 1475 0076 4FF0FF30 		mov	r0, #-1
 1476 007a F2E7     		b	.L94
 1477              	.LVL127:
 1478              	.L110:
 396:core/src/kmesg.c **** 		RK_CR_EXIT
 1479              		.loc 1 396 3 is_stmt 1 view .LVU460
 1480 007c 6FF06400 		mvn	r0, #100
 1481              	.LVL128:
 396:core/src/kmesg.c **** 		RK_CR_EXIT
 1482              		.loc 1 396 3 is_stmt 0 view .LVU461
 1483 0080 FFF7FEFF 		bl	kErrHandler
 1484              	.LVL129:
 397:core/src/kmesg.c **** 		return (RK_ERROR);
 1485              		.loc 1 397 3 is_stmt 1 view .LVU462
 1486 0084 2846     		mov	r0, r5
ARM GAS  /var/folders/fg/4fzv35n91mbcgx4z5jzqdsl40000gn/T//ccsuUsPw.s 			page 45


 1487 0086 FFF7FEFF 		bl	kExitCR
 1488              	.LVL130:
 398:core/src/kmesg.c **** 	}
 1489              		.loc 1 398 3 view .LVU463
 398:core/src/kmesg.c **** 	}
 1490              		.loc 1 398 10 is_stmt 0 view .LVU464
 1491 008a 4FF0FF30 		mov	r0, #-1
 1492 008e E8E7     		b	.L94
 1493              	.LVL131:
 1494              	.L111:
 403:core/src/kmesg.c **** 		RK_CR_EXIT
 1495              		.loc 1 403 3 is_stmt 1 view .LVU465
 1496 0090 6FF06E00 		mvn	r0, #110
 1497              	.LVL132:
 403:core/src/kmesg.c **** 		RK_CR_EXIT
 1498              		.loc 1 403 3 is_stmt 0 view .LVU466
 1499 0094 FFF7FEFF 		bl	kErrHandler
 1500              	.LVL133:
 404:core/src/kmesg.c **** 		return (RK_ERROR);
 1501              		.loc 1 404 3 is_stmt 1 view .LVU467
 1502 0098 2846     		mov	r0, r5
 1503 009a FFF7FEFF 		bl	kExitCR
 1504              	.LVL134:
 405:core/src/kmesg.c **** 	}
 1505              		.loc 1 405 3 view .LVU468
 405:core/src/kmesg.c **** 	}
 1506              		.loc 1 405 10 is_stmt 0 view .LVU469
 1507 009e 4FF0FF30 		mov	r0, #-1
 1508 00a2 DEE7     		b	.L94
 1509              	.LVL135:
 1510              	.L112:
 411:core/src/kmesg.c **** 		{
 1511              		.loc 1 411 3 is_stmt 1 view .LVU470
 411:core/src/kmesg.c **** 		{
 1512              		.loc 1 411 6 is_stmt 0 view .LVU471
 1513 00a4 7FB3     		cbz	r7, .L114
 417:core/src/kmesg.c **** 		{
 1514              		.loc 1 417 3 is_stmt 1 view .LVU472
 417:core/src/kmesg.c **** 		{
 1515              		.loc 1 417 11 is_stmt 0 view .LVU473
 1516 00a6 236A     		ldr	r3, [r4, #32]
 417:core/src/kmesg.c **** 		{
 1517              		.loc 1 417 6 view .LVU474
 1518 00a8 33B1     		cbz	r3, .L102
 419:core/src/kmesg.c **** 			{
 1519              		.loc 1 419 4 is_stmt 1 view .LVU475
 419:core/src/kmesg.c **** 			{
 1520              		.loc 1 419 23 is_stmt 0 view .LVU476
 1521 00aa 597F     		ldrb	r1, [r3, #29]	@ zero_extendqisi2
 419:core/src/kmesg.c **** 			{
 1522              		.loc 1 419 42 view .LVU477
 1523 00ac 374A     		ldr	r2, .L117
 1524 00ae 1268     		ldr	r2, [r2]
 1525 00b0 527F     		ldrb	r2, [r2, #29]	@ zero_extendqisi2
 419:core/src/kmesg.c **** 			{
 1526              		.loc 1 419 7 view .LVU478
 1527 00b2 9142     		cmp	r1, r2
ARM GAS  /var/folders/fg/4fzv35n91mbcgx4z5jzqdsl40000gn/T//ccsuUsPw.s 			page 46


 1528 00b4 00D9     		bls	.L102
 421:core/src/kmesg.c **** 			}
 1529              		.loc 1 421 5 is_stmt 1 view .LVU479
 421:core/src/kmesg.c **** 			}
 1530              		.loc 1 421 31 is_stmt 0 view .LVU480
 1531 00b6 5A77     		strb	r2, [r3, #29]
 1532              	.L102:
 425:core/src/kmesg.c **** 		{
 1533              		.loc 1 425 3 is_stmt 1 view .LVU481
 425:core/src/kmesg.c **** 		{
 1534              		.loc 1 425 6 is_stmt 0 view .LVU482
 1535 00b8 002F     		cmp	r7, #0
 1536 00ba 29DC     		bgt	.L115
 1537              	.LVL136:
 1538              	.L103:
 431:core/src/kmesg.c **** 		runPtr->status = RK_SENDING;
 1539              		.loc 1 431 3 is_stmt 1 view .LVU483
 1540 00bc DFF8CC80 		ldr	r8, .L117
 1541 00c0 D8F80010 		ldr	r1, [r8]
 1542 00c4 04F12400 		add	r0, r4, #36
 1543 00c8 FFF7FEFF 		bl	kTCBQEnqByPrio
 1544              	.LVL137:
 432:core/src/kmesg.c **** 		RK_PEND_CTXTSWTCH
 1545              		.loc 1 432 3 view .LVU484
 432:core/src/kmesg.c **** 		RK_PEND_CTXTSWTCH
 1546              		.loc 1 432 9 is_stmt 0 view .LVU485
 1547 00cc D8F80030 		ldr	r3, [r8]
 432:core/src/kmesg.c **** 		RK_PEND_CTXTSWTCH
 1548              		.loc 1 432 18 view .LVU486
 1549 00d0 3322     		movs	r2, #51
 1550 00d2 5A60     		str	r2, [r3, #4]
 433:core/src/kmesg.c **** 
 1551              		.loc 1 433 3 is_stmt 1 view .LVU487
 1552 00d4 2E4A     		ldr	r2, .L117+4
 1553 00d6 5368     		ldr	r3, [r2, #4]
 1554 00d8 43F08053 		orr	r3, r3, #268435456
 1555 00dc 5360     		str	r3, [r2, #4]
 433:core/src/kmesg.c **** 
 1556              		.loc 1 433 3 view .LVU488
 1557              		.syntax unified
 1558              	@ 433 "core/src/kmesg.c" 1
 1559 00de BFF34F8F 		dsb 0xF
 1560              	@ 0 "" 2
 433:core/src/kmesg.c **** 
 1561              		.loc 1 433 3 view .LVU489
 1562              	@ 433 "core/src/kmesg.c" 1
 1563 00e2 BFF36F8F 		isb 0xF
 1564              	@ 0 "" 2
 435:core/src/kmesg.c **** 		RK_CR_ENTER
 1565              		.loc 1 435 3 view .LVU490
 1566              		.thumb
 1567              		.syntax unified
 1568 00e6 2846     		mov	r0, r5
 1569 00e8 FFF7FEFF 		bl	kExitCR
 1570              	.LVL138:
 436:core/src/kmesg.c **** 
 1571              		.loc 1 436 3 view .LVU491
ARM GAS  /var/folders/fg/4fzv35n91mbcgx4z5jzqdsl40000gn/T//ccsuUsPw.s 			page 47


 1572 00ec FFF7FEFF 		bl	kEnterCR
 1573              	.LVL139:
 1574 00f0 0546     		mov	r5, r0
 1575              	.LVL140:
 438:core/src/kmesg.c **** 		{
 1576              		.loc 1 438 3 view .LVU492
 438:core/src/kmesg.c **** 		{
 1577              		.loc 1 438 13 is_stmt 0 view .LVU493
 1578 00f2 D8F80000 		ldr	r0, [r8]
 1579              	.LVL141:
 438:core/src/kmesg.c **** 		{
 1580              		.loc 1 438 13 view .LVU494
 1581 00f6 836B     		ldr	r3, [r0, #56]
 438:core/src/kmesg.c **** 		{
 1582              		.loc 1 438 6 view .LVU495
 1583 00f8 B3B9     		cbnz	r3, .L116
 445:core/src/kmesg.c **** 		{
 1584              		.loc 1 445 3 is_stmt 1 view .LVU496
 445:core/src/kmesg.c **** 		{
 1585              		.loc 1 445 6 is_stmt 0 view .LVU497
 1586 00fa 002F     		cmp	r7, #0
 1587 00fc 99DD     		ble	.L100
 447:core/src/kmesg.c **** 		}
 1588              		.loc 1 447 4 is_stmt 1 view .LVU498
 1589 00fe 4430     		adds	r0, r0, #68
 1590 0100 FFF7FEFF 		bl	kRemoveTimeoutNode
 1591              	.LVL142:
 1592 0104 95E7     		b	.L100
 1593              	.LVL143:
 1594              	.L114:
 413:core/src/kmesg.c **** 			return (RK_ERR_QUEUE_FULL);
 1595              		.loc 1 413 4 view .LVU499
 1596 0106 2846     		mov	r0, r5
 1597              	.LVL144:
 413:core/src/kmesg.c **** 			return (RK_ERR_QUEUE_FULL);
 1598              		.loc 1 413 4 is_stmt 0 view .LVU500
 1599 0108 FFF7FEFF 		bl	kExitCR
 1600              	.LVL145:
 414:core/src/kmesg.c **** 		}
 1601              		.loc 1 414 4 is_stmt 1 view .LVU501
 414:core/src/kmesg.c **** 		}
 1602              		.loc 1 414 11 is_stmt 0 view .LVU502
 1603 010c 2148     		ldr	r0, .L117+8
 1604 010e A8E7     		b	.L94
 1605              	.LVL146:
 1606              	.L115:
 427:core/src/kmesg.c **** 			kTimeOut( &runPtr->timeoutNode, timeout);
 1607              		.loc 1 427 4 is_stmt 1 view .LVU503
 1608 0110 1E4B     		ldr	r3, .L117
 1609 0112 1868     		ldr	r0, [r3]
 1610              	.LVL147:
 427:core/src/kmesg.c **** 			kTimeOut( &runPtr->timeoutNode, timeout);
 1611              		.loc 1 427 4 is_stmt 0 view .LVU504
 1612 0114 0123     		movs	r3, #1
 1613 0116 C364     		str	r3, [r0, #76]
 427:core/src/kmesg.c **** 			kTimeOut( &runPtr->timeoutNode, timeout);
 1614              		.loc 1 427 4 is_stmt 1 view .LVU505
ARM GAS  /var/folders/fg/4fzv35n91mbcgx4z5jzqdsl40000gn/T//ccsuUsPw.s 			page 48


 1615 0118 04F12403 		add	r3, r4, #36
 1616 011c 8365     		str	r3, [r0, #88]
 428:core/src/kmesg.c **** 		}
 1617              		.loc 1 428 4 view .LVU506
 1618 011e 3946     		mov	r1, r7
 1619 0120 4430     		adds	r0, r0, #68
 1620 0122 FFF7FEFF 		bl	kTimeOut
 1621              	.LVL148:
 1622 0126 C9E7     		b	.L103
 1623              	.L116:
 440:core/src/kmesg.c **** 			RK_CR_EXIT
 1624              		.loc 1 440 4 view .LVU507
 440:core/src/kmesg.c **** 			RK_CR_EXIT
 1625              		.loc 1 440 20 is_stmt 0 view .LVU508
 1626 0128 0023     		movs	r3, #0
 1627 012a 8363     		str	r3, [r0, #56]
 441:core/src/kmesg.c **** 			return (RK_ERR_TIMEOUT);
 1628              		.loc 1 441 4 is_stmt 1 view .LVU509
 1629 012c 2846     		mov	r0, r5
 1630 012e FFF7FEFF 		bl	kExitCR
 1631              	.LVL149:
 442:core/src/kmesg.c **** 		}
 1632              		.loc 1 442 4 view .LVU510
 442:core/src/kmesg.c **** 		}
 1633              		.loc 1 442 11 is_stmt 0 view .LVU511
 1634 0132 6FF06B00 		mvn	r0, #107
 1635 0136 94E7     		b	.L94
 1636              	.L113:
 1637              	.LBB45:
 466:core/src/kmesg.c **** 		if (freeReadPtr->status == RK_RECEIVING)
 1638              		.loc 1 466 3 is_stmt 1 view .LVU512
 466:core/src/kmesg.c **** 		if (freeReadPtr->status == RK_RECEIVING)
 1639              		.loc 1 466 36 is_stmt 0 view .LVU513
 1640 0138 2434     		adds	r4, r4, #36
 1641              	.LVL150:
 466:core/src/kmesg.c **** 		if (freeReadPtr->status == RK_RECEIVING)
 1642              		.loc 1 466 25 view .LVU514
 1643 013a 2046     		mov	r0, r4
 1644 013c FFF7FEFF 		bl	kTCBQPeek
 1645              	.LVL151:
 466:core/src/kmesg.c **** 		if (freeReadPtr->status == RK_RECEIVING)
 1646              		.loc 1 466 11 view .LVU515
 1647 0140 0190     		str	r0, [sp, #4]
 467:core/src/kmesg.c **** 		{
 1648              		.loc 1 467 3 is_stmt 1 view .LVU516
 467:core/src/kmesg.c **** 		{
 1649              		.loc 1 467 18 is_stmt 0 view .LVU517
 1650 0142 4368     		ldr	r3, [r0, #4]
 467:core/src/kmesg.c **** 		{
 1651              		.loc 1 467 6 view .LVU518
 1652 0144 342B     		cmp	r3, #52
 1653 0146 88D1     		bne	.L107
 469:core/src/kmesg.c **** 			kTCBQEnq( &readyQueue[freeReadPtr->priority], freeReadPtr);
 1654              		.loc 1 469 4 is_stmt 1 view .LVU519
 1655 0148 01A9     		add	r1, sp, #4
 1656 014a 2046     		mov	r0, r4
 1657 014c FFF7FEFF 		bl	kTCBQDeq
ARM GAS  /var/folders/fg/4fzv35n91mbcgx4z5jzqdsl40000gn/T//ccsuUsPw.s 			page 49


 1658              	.LVL152:
 470:core/src/kmesg.c **** 			freeReadPtr->status = RK_READY;
 1659              		.loc 1 470 4 view .LVU520
 470:core/src/kmesg.c **** 			freeReadPtr->status = RK_READY;
 1660              		.loc 1 470 37 is_stmt 0 view .LVU521
 1661 0150 0199     		ldr	r1, [sp, #4]
 1662 0152 487F     		ldrb	r0, [r1, #29]	@ zero_extendqisi2
 470:core/src/kmesg.c **** 			freeReadPtr->status = RK_READY;
 1663              		.loc 1 470 14 view .LVU522
 1664 0154 00EB8000 		add	r0, r0, r0, lsl #2
 470:core/src/kmesg.c **** 			freeReadPtr->status = RK_READY;
 1665              		.loc 1 470 4 view .LVU523
 1666 0158 0F4B     		ldr	r3, .L117+12
 1667 015a 03EB8000 		add	r0, r3, r0, lsl #2
 1668 015e FFF7FEFF 		bl	kTCBQEnq
 1669              	.LVL153:
 471:core/src/kmesg.c **** 
 1670              		.loc 1 471 4 is_stmt 1 view .LVU524
 471:core/src/kmesg.c **** 
 1671              		.loc 1 471 15 is_stmt 0 view .LVU525
 1672 0162 019B     		ldr	r3, [sp, #4]
 471:core/src/kmesg.c **** 
 1673              		.loc 1 471 24 view .LVU526
 1674 0164 1022     		movs	r2, #16
 1675 0166 5A60     		str	r2, [r3, #4]
 473:core/src/kmesg.c **** 			{
 1676              		.loc 1 473 4 is_stmt 1 view .LVU527
 473:core/src/kmesg.c **** 			{
 1677              		.loc 1 473 19 is_stmt 0 view .LVU528
 1678 0168 5A7F     		ldrb	r2, [r3, #29]	@ zero_extendqisi2
 473:core/src/kmesg.c **** 			{
 1679              		.loc 1 473 38 view .LVU529
 1680 016a 084B     		ldr	r3, .L117
 1681 016c 1B68     		ldr	r3, [r3]
 1682 016e 5B7F     		ldrb	r3, [r3, #29]	@ zero_extendqisi2
 473:core/src/kmesg.c **** 			{
 1683              		.loc 1 473 7 view .LVU530
 1684 0170 9A42     		cmp	r2, r3
 1685 0172 BFF472AF 		bcs	.L107
 475:core/src/kmesg.c **** 			}
 1686              		.loc 1 475 5 is_stmt 1 view .LVU531
 1687 0176 064A     		ldr	r2, .L117+4
 1688 0178 5368     		ldr	r3, [r2, #4]
 1689 017a 43F08053 		orr	r3, r3, #268435456
 1690 017e 5360     		str	r3, [r2, #4]
 475:core/src/kmesg.c **** 			}
 1691              		.loc 1 475 5 view .LVU532
 1692              		.syntax unified
 1693              	@ 475 "core/src/kmesg.c" 1
 1694 0180 BFF34F8F 		dsb 0xF
 1695              	@ 0 "" 2
 475:core/src/kmesg.c **** 			}
 1696              		.loc 1 475 5 view .LVU533
 1697              	@ 475 "core/src/kmesg.c" 1
 1698 0184 BFF36F8F 		isb 0xF
 1699              	@ 0 "" 2
 1700              		.thumb
ARM GAS  /var/folders/fg/4fzv35n91mbcgx4z5jzqdsl40000gn/T//ccsuUsPw.s 			page 50


 1701              		.syntax unified
 1702 0188 67E7     		b	.L107
 1703              	.L118:
 1704 018a 00BF     		.align	2
 1705              	.L117:
 1706 018c 00000000 		.word	runPtr
 1707 0190 00ED00E0 		.word	-536810240
 1708 0194 64FEFFFF 		.word	-412
 1709 0198 00000000 		.word	readyQueue
 1710              	.LBE45:
 1711              		.cfi_endproc
 1712              	.LFE63:
 1714              		.section	.text.kQueuePend,"ax",%progbits
 1715              		.align	1
 1716              		.global	kQueuePend
 1717              		.syntax unified
 1718              		.thumb
 1719              		.thumb_func
 1721              	kQueuePend:
 1722              	.LVL154:
 1723              	.LFB64:
 483:core/src/kmesg.c **** 
 484:core/src/kmesg.c **** RK_ERR kQueuePend( RK_QUEUE *const kobj, VOID **recvPPtr, RK_TICK timeout)
 485:core/src/kmesg.c **** {
 1724              		.loc 1 485 1 view -0
 1725              		.cfi_startproc
 1726              		@ args = 0, pretend = 0, frame = 8
 1727              		@ frame_needed = 0, uses_anonymous_args = 0
 1728              		.loc 1 485 1 is_stmt 0 view .LVU535
 1729 0000 2DE9F041 		push	{r4, r5, r6, r7, r8, lr}
 1730              		.cfi_def_cfa_offset 24
 1731              		.cfi_offset 4, -24
 1732              		.cfi_offset 5, -20
 1733              		.cfi_offset 6, -16
 1734              		.cfi_offset 7, -12
 1735              		.cfi_offset 8, -8
 1736              		.cfi_offset 14, -4
 1737 0004 82B0     		sub	sp, sp, #8
 1738              		.cfi_def_cfa_offset 32
 1739 0006 0446     		mov	r4, r0
 1740 0008 0F46     		mov	r7, r1
 1741 000a 1646     		mov	r6, r2
 486:core/src/kmesg.c **** 	RK_CR_AREA
 1742              		.loc 1 486 2 is_stmt 1 view .LVU536
 487:core/src/kmesg.c **** 	RK_CR_ENTER
 1743              		.loc 1 487 2 view .LVU537
 1744 000c FFF7FEFF 		bl	kEnterCR
 1745              	.LVL155:
 1746              		.loc 1 487 2 is_stmt 0 view .LVU538
 1747 0010 0546     		mov	r5, r0
 1748              	.LVL156:
 488:core/src/kmesg.c **** 
 489:core/src/kmesg.c **** 	if (kobj == NULL || recvPPtr == NULL)
 1749              		.loc 1 489 2 is_stmt 1 view .LVU539
 1750              		.loc 1 489 5 is_stmt 0 view .LVU540
 1751 0012 002C     		cmp	r4, #0
 1752 0014 4BD0     		beq	.L120
ARM GAS  /var/folders/fg/4fzv35n91mbcgx4z5jzqdsl40000gn/T//ccsuUsPw.s 			page 51


 1753              		.loc 1 489 19 discriminator 1 view .LVU541
 1754 0016 002F     		cmp	r7, #0
 1755 0018 49D0     		beq	.L120
 490:core/src/kmesg.c **** 	{
 491:core/src/kmesg.c **** 		KERR( RK_FAULT_OBJ_NULL);
 492:core/src/kmesg.c **** 		RK_CR_EXIT
 493:core/src/kmesg.c **** 		return (RK_ERROR);
 494:core/src/kmesg.c **** 	}
 495:core/src/kmesg.c **** 
 496:core/src/kmesg.c **** 	if (!kobj->init)
 1756              		.loc 1 496 2 is_stmt 1 view .LVU542
 1757              		.loc 1 496 11 is_stmt 0 view .LVU543
 1758 001a 6368     		ldr	r3, [r4, #4]
 1759              		.loc 1 496 5 view .LVU544
 1760 001c 002B     		cmp	r3, #0
 1761 001e 50D0     		beq	.L133
 497:core/src/kmesg.c **** 	{
 498:core/src/kmesg.c **** 		KERR( RK_FAULT_OBJ_NOT_INIT);
 499:core/src/kmesg.c **** 		RK_CR_EXIT
 500:core/src/kmesg.c **** 		return (RK_ERROR);
 501:core/src/kmesg.c **** 	}
 502:core/src/kmesg.c **** 
 503:core/src/kmesg.c **** 	if (RK_IS_BLOCK_ON_ISR( timeout))
 1762              		.loc 1 503 2 is_stmt 1 view .LVU545
 1763              	.LBB46:
 1764              	.LBI46:
 308:arch/armv7m/kernel/inc/kdefs.h **** {
 1765              		.loc 3 308 10 view .LVU546
 1766              	.LBB47:
 310:arch/armv7m/kernel/inc/kdefs.h ****     __ASM ("MRS %0, IPSR" : "=r"(ipsr_value));
 1767              		.loc 3 310 5 view .LVU547
 311:arch/armv7m/kernel/inc/kdefs.h ****     __ASM volatile ("dmb 0xF":::"memory");
 1768              		.loc 3 311 5 view .LVU548
 1769              		.syntax unified
 1770              	@ 311 "arch/armv7m/kernel/inc/kdefs.h" 1
 1771 0020 EFF30583 		MRS r3, IPSR
 1772              	@ 0 "" 2
 312:arch/armv7m/kernel/inc/kdefs.h ****     return (ipsr_value);
 1773              		.loc 3 312 5 view .LVU549
 1774              	@ 312 "arch/armv7m/kernel/inc/kdefs.h" 1
 1775 0024 BFF35F8F 		dmb 0xF
 1776              	@ 0 "" 2
 1777              		.loc 3 313 5 view .LVU550
 1778              		.thumb
 1779              		.syntax unified
 1780              	.LBE47:
 1781              	.LBE46:
 1782              		.loc 1 503 5 is_stmt 0 view .LVU551
 1783 0028 0BB1     		cbz	r3, .L124
 1784              		.loc 1 503 6 discriminator 1 view .LVU552
 1785 002a 002E     		cmp	r6, #0
 1786 002c 53DC     		bgt	.L134
 1787              	.L124:
 504:core/src/kmesg.c **** 	{
 505:core/src/kmesg.c **** 		KERR( RK_FAULT_INVALID_ISR_PRIMITIVE);
 506:core/src/kmesg.c **** 		RK_CR_EXIT
 507:core/src/kmesg.c **** 		return (RK_ERROR);
ARM GAS  /var/folders/fg/4fzv35n91mbcgx4z5jzqdsl40000gn/T//ccsuUsPw.s 			page 52


 508:core/src/kmesg.c **** 	}
 509:core/src/kmesg.c **** 
 510:core/src/kmesg.c **** 	/*   if queue is empty */
 511:core/src/kmesg.c **** 	if (kobj->countItems == 0)
 1788              		.loc 1 511 2 is_stmt 1 view .LVU553
 1789              		.loc 1 511 10 is_stmt 0 view .LVU554
 1790 002e E369     		ldr	r3, [r4, #28]
 1791              		.loc 1 511 5 view .LVU555
 1792 0030 2BBB     		cbnz	r3, .L125
 512:core/src/kmesg.c **** 	{
 513:core/src/kmesg.c **** 		if (timeout == 0)
 1793              		.loc 1 513 3 is_stmt 1 view .LVU556
 1794              		.loc 1 513 6 is_stmt 0 view .LVU557
 1795 0032 002E     		cmp	r6, #0
 1796 0034 59D0     		beq	.L135
 514:core/src/kmesg.c **** 		{
 515:core/src/kmesg.c **** 			RK_CR_EXIT
 516:core/src/kmesg.c **** 			return (RK_ERR_QUEUE_EMPTY);
 517:core/src/kmesg.c **** 		}
 518:core/src/kmesg.c **** 
 519:core/src/kmesg.c **** 		if ((timeout > 0) && (timeout != RK_WAIT_FOREVER))
 1797              		.loc 1 519 3 is_stmt 1 view .LVU558
 1798              		.loc 1 519 6 is_stmt 0 view .LVU559
 1799 0036 002E     		cmp	r6, #0
 1800 0038 5DDC     		bgt	.L136
 1801              	.LVL157:
 1802              	.L127:
 520:core/src/kmesg.c **** 		{
 521:core/src/kmesg.c **** 			RK_TASK_TIMEOUT_WAITINGQUEUE_SETUP
 522:core/src/kmesg.c **** 			kTimeOut( &runPtr->timeoutNode, timeout);
 523:core/src/kmesg.c **** 		}
 524:core/src/kmesg.c **** 
 525:core/src/kmesg.c **** 		kTCBQEnqByPrio( &kobj->waitingQueue, runPtr);
 1803              		.loc 1 525 3 is_stmt 1 view .LVU560
 1804 003a DFF83C81 		ldr	r8, .L140
 1805 003e D8F80010 		ldr	r1, [r8]
 1806 0042 04F12400 		add	r0, r4, #36
 1807 0046 FFF7FEFF 		bl	kTCBQEnqByPrio
 1808              	.LVL158:
 526:core/src/kmesg.c **** 		runPtr->status = RK_RECEIVING;
 1809              		.loc 1 526 3 view .LVU561
 1810              		.loc 1 526 9 is_stmt 0 view .LVU562
 1811 004a D8F80030 		ldr	r3, [r8]
 1812              		.loc 1 526 18 view .LVU563
 1813 004e 3422     		movs	r2, #52
 1814 0050 5A60     		str	r2, [r3, #4]
 527:core/src/kmesg.c **** 		RK_PEND_CTXTSWTCH
 1815              		.loc 1 527 3 is_stmt 1 view .LVU564
 1816 0052 4A4A     		ldr	r2, .L140+4
 1817 0054 5368     		ldr	r3, [r2, #4]
 1818 0056 43F08053 		orr	r3, r3, #268435456
 1819 005a 5360     		str	r3, [r2, #4]
 1820              		.loc 1 527 3 view .LVU565
 1821              		.syntax unified
 1822              	@ 527 "core/src/kmesg.c" 1
 1823 005c BFF34F8F 		dsb 0xF
 1824              	@ 0 "" 2
ARM GAS  /var/folders/fg/4fzv35n91mbcgx4z5jzqdsl40000gn/T//ccsuUsPw.s 			page 53


 1825              		.loc 1 527 3 view .LVU566
 1826              	@ 527 "core/src/kmesg.c" 1
 1827 0060 BFF36F8F 		isb 0xF
 1828              	@ 0 "" 2
 528:core/src/kmesg.c **** 
 529:core/src/kmesg.c **** 		RK_CR_EXIT
 1829              		.loc 1 529 3 view .LVU567
 1830              		.thumb
 1831              		.syntax unified
 1832 0064 2846     		mov	r0, r5
 1833 0066 FFF7FEFF 		bl	kExitCR
 1834              	.LVL159:
 530:core/src/kmesg.c **** 		RK_CR_ENTER
 1835              		.loc 1 530 3 view .LVU568
 1836 006a FFF7FEFF 		bl	kEnterCR
 1837              	.LVL160:
 1838 006e 0546     		mov	r5, r0
 1839              	.LVL161:
 531:core/src/kmesg.c **** 
 532:core/src/kmesg.c **** 		if (runPtr->timeOut)
 1840              		.loc 1 532 3 view .LVU569
 1841              		.loc 1 532 13 is_stmt 0 view .LVU570
 1842 0070 D8F80000 		ldr	r0, [r8]
 1843              	.LVL162:
 1844              		.loc 1 532 13 view .LVU571
 1845 0074 836B     		ldr	r3, [r0, #56]
 1846              		.loc 1 532 6 view .LVU572
 1847 0076 002B     		cmp	r3, #0
 1848 0078 49D1     		bne	.L137
 533:core/src/kmesg.c **** 		{
 534:core/src/kmesg.c **** 			runPtr->timeOut = FALSE;
 535:core/src/kmesg.c **** 			RK_CR_EXIT
 536:core/src/kmesg.c **** 			return (RK_ERR_TIMEOUT);
 537:core/src/kmesg.c **** 		}
 538:core/src/kmesg.c **** 
 539:core/src/kmesg.c **** 		if ((timeout > RK_NO_WAIT) && (timeout != RK_WAIT_FOREVER))
 1849              		.loc 1 539 3 is_stmt 1 view .LVU573
 1850              		.loc 1 539 6 is_stmt 0 view .LVU574
 1851 007a 002E     		cmp	r6, #0
 1852 007c 4FDC     		bgt	.L138
 1853              	.L125:
 540:core/src/kmesg.c **** 		{
 541:core/src/kmesg.c **** 			kRemoveTimeoutNode( &runPtr->timeoutNode);
 542:core/src/kmesg.c **** 		}
 543:core/src/kmesg.c **** 	}
 544:core/src/kmesg.c **** 
 545:core/src/kmesg.c **** 	/* get the message from the head position */
 546:core/src/kmesg.c **** 	*recvPPtr = *(VOID ***) (kobj->headPtr);
 1854              		.loc 1 546 2 is_stmt 1 view .LVU575
 1855              		.loc 1 546 31 is_stmt 0 view .LVU576
 1856 007e 2369     		ldr	r3, [r4, #16]
 1857              		.loc 1 546 14 view .LVU577
 1858 0080 1B68     		ldr	r3, [r3]
 1859              		.loc 1 546 12 view .LVU578
 1860 0082 3B60     		str	r3, [r7]
 547:core/src/kmesg.c **** 
 548:core/src/kmesg.c **** 	kobj->headPtr++;
ARM GAS  /var/folders/fg/4fzv35n91mbcgx4z5jzqdsl40000gn/T//ccsuUsPw.s 			page 54


 1861              		.loc 1 548 2 is_stmt 1 view .LVU579
 1862              		.loc 1 548 6 is_stmt 0 view .LVU580
 1863 0084 2369     		ldr	r3, [r4, #16]
 1864              		.loc 1 548 15 view .LVU581
 1865 0086 0433     		adds	r3, r3, #4
 1866 0088 2361     		str	r3, [r4, #16]
 549:core/src/kmesg.c **** 	if (kobj->headPtr >= kobj->bufEndPtr)
 1867              		.loc 1 549 2 is_stmt 1 view .LVU582
 1868              		.loc 1 549 27 is_stmt 0 view .LVU583
 1869 008a E268     		ldr	r2, [r4, #12]
 1870              		.loc 1 549 5 view .LVU584
 1871 008c 9342     		cmp	r3, r2
 1872 008e 01D3     		bcc	.L129
 550:core/src/kmesg.c **** 	{
 551:core/src/kmesg.c **** 		kobj->headPtr = kobj->mailQPtr;
 1873              		.loc 1 551 3 is_stmt 1 view .LVU585
 1874              		.loc 1 551 23 is_stmt 0 view .LVU586
 1875 0090 A368     		ldr	r3, [r4, #8]
 1876              		.loc 1 551 17 view .LVU587
 1877 0092 2361     		str	r3, [r4, #16]
 1878              	.L129:
 552:core/src/kmesg.c **** 	}
 553:core/src/kmesg.c **** 
 554:core/src/kmesg.c **** 	kobj->countItems--;
 1879              		.loc 1 554 2 is_stmt 1 view .LVU588
 1880              		.loc 1 554 6 is_stmt 0 view .LVU589
 1881 0094 E369     		ldr	r3, [r4, #28]
 1882              		.loc 1 554 18 view .LVU590
 1883 0096 013B     		subs	r3, r3, #1
 1884 0098 E361     		str	r3, [r4, #28]
 555:core/src/kmesg.c **** 
 556:core/src/kmesg.c **** 	if (kobj->waitingQueue.size > 0)
 1885              		.loc 1 556 2 is_stmt 1 view .LVU591
 1886              		.loc 1 556 24 is_stmt 0 view .LVU592
 1887 009a 236B     		ldr	r3, [r4, #48]
 1888              		.loc 1 556 5 view .LVU593
 1889 009c 002B     		cmp	r3, #0
 1890 009e 42D1     		bne	.L139
 1891              	.LVL163:
 1892              	.L130:
 557:core/src/kmesg.c **** 	{
 558:core/src/kmesg.c **** 		RK_TCB *freeSendPtr = kTCBQPeek( &kobj->waitingQueue);
 559:core/src/kmesg.c **** 		if (freeSendPtr->status == RK_SENDING)
 560:core/src/kmesg.c **** 		{
 561:core/src/kmesg.c **** 			kTCBQDeq( &kobj->waitingQueue, &freeSendPtr);
 562:core/src/kmesg.c **** 			kTCBQEnq( &readyQueue[freeSendPtr->priority], freeSendPtr);
 563:core/src/kmesg.c **** 			freeSendPtr->status = RK_READY;
 564:core/src/kmesg.c **** 
 565:core/src/kmesg.c **** 			if (freeSendPtr->priority < runPtr->priority)
 566:core/src/kmesg.c **** 			{
 567:core/src/kmesg.c **** 				RK_PEND_CTXTSWTCH
 568:core/src/kmesg.c **** 			}
 569:core/src/kmesg.c **** 		}
 570:core/src/kmesg.c **** 	}
 571:core/src/kmesg.c **** 
 572:core/src/kmesg.c **** 	RK_CR_EXIT
 1893              		.loc 1 572 2 is_stmt 1 view .LVU594
ARM GAS  /var/folders/fg/4fzv35n91mbcgx4z5jzqdsl40000gn/T//ccsuUsPw.s 			page 55


 1894 00a0 2846     		mov	r0, r5
 1895 00a2 FFF7FEFF 		bl	kExitCR
 1896              	.LVL164:
 573:core/src/kmesg.c **** 	return (RK_SUCCESS);
 1897              		.loc 1 573 2 view .LVU595
 1898              		.loc 1 573 9 is_stmt 0 view .LVU596
 1899 00a6 0020     		movs	r0, #0
 1900              	.L119:
 574:core/src/kmesg.c **** }
 1901              		.loc 1 574 1 view .LVU597
 1902 00a8 02B0     		add	sp, sp, #8
 1903              		.cfi_remember_state
 1904              		.cfi_def_cfa_offset 24
 1905              		@ sp needed
 1906 00aa BDE8F081 		pop	{r4, r5, r6, r7, r8, pc}
 1907              	.LVL165:
 1908              	.L120:
 1909              		.cfi_restore_state
 491:core/src/kmesg.c **** 		RK_CR_EXIT
 1910              		.loc 1 491 3 is_stmt 1 view .LVU598
 1911 00ae 6FF06300 		mvn	r0, #99
 1912              	.LVL166:
 491:core/src/kmesg.c **** 		RK_CR_EXIT
 1913              		.loc 1 491 3 is_stmt 0 view .LVU599
 1914 00b2 FFF7FEFF 		bl	kErrHandler
 1915              	.LVL167:
 492:core/src/kmesg.c **** 		return (RK_ERROR);
 1916              		.loc 1 492 3 is_stmt 1 view .LVU600
 1917 00b6 2846     		mov	r0, r5
 1918 00b8 FFF7FEFF 		bl	kExitCR
 1919              	.LVL168:
 493:core/src/kmesg.c **** 	}
 1920              		.loc 1 493 3 view .LVU601
 493:core/src/kmesg.c **** 	}
 1921              		.loc 1 493 10 is_stmt 0 view .LVU602
 1922 00bc 4FF0FF30 		mov	r0, #-1
 1923 00c0 F2E7     		b	.L119
 1924              	.LVL169:
 1925              	.L133:
 498:core/src/kmesg.c **** 		RK_CR_EXIT
 1926              		.loc 1 498 3 is_stmt 1 view .LVU603
 1927 00c2 6FF06400 		mvn	r0, #100
 1928              	.LVL170:
 498:core/src/kmesg.c **** 		RK_CR_EXIT
 1929              		.loc 1 498 3 is_stmt 0 view .LVU604
 1930 00c6 FFF7FEFF 		bl	kErrHandler
 1931              	.LVL171:
 499:core/src/kmesg.c **** 		return (RK_ERROR);
 1932              		.loc 1 499 3 is_stmt 1 view .LVU605
 1933 00ca 2846     		mov	r0, r5
 1934 00cc FFF7FEFF 		bl	kExitCR
 1935              	.LVL172:
 500:core/src/kmesg.c **** 	}
 1936              		.loc 1 500 3 view .LVU606
 500:core/src/kmesg.c **** 	}
 1937              		.loc 1 500 10 is_stmt 0 view .LVU607
 1938 00d0 4FF0FF30 		mov	r0, #-1
ARM GAS  /var/folders/fg/4fzv35n91mbcgx4z5jzqdsl40000gn/T//ccsuUsPw.s 			page 56


 1939 00d4 E8E7     		b	.L119
 1940              	.LVL173:
 1941              	.L134:
 505:core/src/kmesg.c **** 		RK_CR_EXIT
 1942              		.loc 1 505 3 is_stmt 1 view .LVU608
 1943 00d6 6FF06E00 		mvn	r0, #110
 1944              	.LVL174:
 505:core/src/kmesg.c **** 		RK_CR_EXIT
 1945              		.loc 1 505 3 is_stmt 0 view .LVU609
 1946 00da FFF7FEFF 		bl	kErrHandler
 1947              	.LVL175:
 506:core/src/kmesg.c **** 		return (RK_ERROR);
 1948              		.loc 1 506 3 is_stmt 1 view .LVU610
 1949 00de 2846     		mov	r0, r5
 1950 00e0 FFF7FEFF 		bl	kExitCR
 1951              	.LVL176:
 507:core/src/kmesg.c **** 	}
 1952              		.loc 1 507 3 view .LVU611
 507:core/src/kmesg.c **** 	}
 1953              		.loc 1 507 10 is_stmt 0 view .LVU612
 1954 00e4 4FF0FF30 		mov	r0, #-1
 1955 00e8 DEE7     		b	.L119
 1956              	.LVL177:
 1957              	.L135:
 515:core/src/kmesg.c **** 			return (RK_ERR_QUEUE_EMPTY);
 1958              		.loc 1 515 4 is_stmt 1 view .LVU613
 1959 00ea 2846     		mov	r0, r5
 1960              	.LVL178:
 515:core/src/kmesg.c **** 			return (RK_ERR_QUEUE_EMPTY);
 1961              		.loc 1 515 4 is_stmt 0 view .LVU614
 1962 00ec FFF7FEFF 		bl	kExitCR
 1963              	.LVL179:
 516:core/src/kmesg.c **** 		}
 1964              		.loc 1 516 4 is_stmt 1 view .LVU615
 516:core/src/kmesg.c **** 		}
 1965              		.loc 1 516 11 is_stmt 0 view .LVU616
 1966 00f0 6FF4CE70 		mvn	r0, #412
 1967 00f4 D8E7     		b	.L119
 1968              	.LVL180:
 1969              	.L136:
 521:core/src/kmesg.c **** 			kTimeOut( &runPtr->timeoutNode, timeout);
 1970              		.loc 1 521 4 is_stmt 1 view .LVU617
 1971 00f6 204B     		ldr	r3, .L140
 1972 00f8 1868     		ldr	r0, [r3]
 1973              	.LVL181:
 521:core/src/kmesg.c **** 			kTimeOut( &runPtr->timeoutNode, timeout);
 1974              		.loc 1 521 4 is_stmt 0 view .LVU618
 1975 00fa 0123     		movs	r3, #1
 1976 00fc C364     		str	r3, [r0, #76]
 521:core/src/kmesg.c **** 			kTimeOut( &runPtr->timeoutNode, timeout);
 1977              		.loc 1 521 4 is_stmt 1 view .LVU619
 1978 00fe 04F12403 		add	r3, r4, #36
 1979 0102 8365     		str	r3, [r0, #88]
 522:core/src/kmesg.c **** 		}
 1980              		.loc 1 522 4 view .LVU620
 1981 0104 3146     		mov	r1, r6
 1982 0106 4430     		adds	r0, r0, #68
ARM GAS  /var/folders/fg/4fzv35n91mbcgx4z5jzqdsl40000gn/T//ccsuUsPw.s 			page 57


 1983 0108 FFF7FEFF 		bl	kTimeOut
 1984              	.LVL182:
 1985 010c 95E7     		b	.L127
 1986              	.L137:
 534:core/src/kmesg.c **** 			RK_CR_EXIT
 1987              		.loc 1 534 4 view .LVU621
 534:core/src/kmesg.c **** 			RK_CR_EXIT
 1988              		.loc 1 534 20 is_stmt 0 view .LVU622
 1989 010e 0023     		movs	r3, #0
 1990 0110 8363     		str	r3, [r0, #56]
 535:core/src/kmesg.c **** 			return (RK_ERR_TIMEOUT);
 1991              		.loc 1 535 4 is_stmt 1 view .LVU623
 1992 0112 2846     		mov	r0, r5
 1993 0114 FFF7FEFF 		bl	kExitCR
 1994              	.LVL183:
 536:core/src/kmesg.c **** 		}
 1995              		.loc 1 536 4 view .LVU624
 536:core/src/kmesg.c **** 		}
 1996              		.loc 1 536 11 is_stmt 0 view .LVU625
 1997 0118 6FF06B00 		mvn	r0, #107
 1998 011c C4E7     		b	.L119
 1999              	.L138:
 541:core/src/kmesg.c **** 		}
 2000              		.loc 1 541 4 is_stmt 1 view .LVU626
 2001 011e 4430     		adds	r0, r0, #68
 2002 0120 FFF7FEFF 		bl	kRemoveTimeoutNode
 2003              	.LVL184:
 2004 0124 ABE7     		b	.L125
 2005              	.L139:
 2006              	.LBB48:
 558:core/src/kmesg.c **** 		if (freeSendPtr->status == RK_SENDING)
 2007              		.loc 1 558 3 view .LVU627
 558:core/src/kmesg.c **** 		if (freeSendPtr->status == RK_SENDING)
 2008              		.loc 1 558 36 is_stmt 0 view .LVU628
 2009 0126 2434     		adds	r4, r4, #36
 2010              	.LVL185:
 558:core/src/kmesg.c **** 		if (freeSendPtr->status == RK_SENDING)
 2011              		.loc 1 558 25 view .LVU629
 2012 0128 2046     		mov	r0, r4
 2013 012a FFF7FEFF 		bl	kTCBQPeek
 2014              	.LVL186:
 558:core/src/kmesg.c **** 		if (freeSendPtr->status == RK_SENDING)
 2015              		.loc 1 558 11 view .LVU630
 2016 012e 0190     		str	r0, [sp, #4]
 559:core/src/kmesg.c **** 		{
 2017              		.loc 1 559 3 is_stmt 1 view .LVU631
 559:core/src/kmesg.c **** 		{
 2018              		.loc 1 559 18 is_stmt 0 view .LVU632
 2019 0130 4368     		ldr	r3, [r0, #4]
 559:core/src/kmesg.c **** 		{
 2020              		.loc 1 559 6 view .LVU633
 2021 0132 332B     		cmp	r3, #51
 2022 0134 B4D1     		bne	.L130
 561:core/src/kmesg.c **** 			kTCBQEnq( &readyQueue[freeSendPtr->priority], freeSendPtr);
 2023              		.loc 1 561 4 is_stmt 1 view .LVU634
 2024 0136 01A9     		add	r1, sp, #4
 2025 0138 2046     		mov	r0, r4
ARM GAS  /var/folders/fg/4fzv35n91mbcgx4z5jzqdsl40000gn/T//ccsuUsPw.s 			page 58


 2026 013a FFF7FEFF 		bl	kTCBQDeq
 2027              	.LVL187:
 562:core/src/kmesg.c **** 			freeSendPtr->status = RK_READY;
 2028              		.loc 1 562 4 view .LVU635
 562:core/src/kmesg.c **** 			freeSendPtr->status = RK_READY;
 2029              		.loc 1 562 37 is_stmt 0 view .LVU636
 2030 013e 0199     		ldr	r1, [sp, #4]
 2031 0140 487F     		ldrb	r0, [r1, #29]	@ zero_extendqisi2
 562:core/src/kmesg.c **** 			freeSendPtr->status = RK_READY;
 2032              		.loc 1 562 14 view .LVU637
 2033 0142 00EB8000 		add	r0, r0, r0, lsl #2
 562:core/src/kmesg.c **** 			freeSendPtr->status = RK_READY;
 2034              		.loc 1 562 4 view .LVU638
 2035 0146 0E4B     		ldr	r3, .L140+8
 2036 0148 03EB8000 		add	r0, r3, r0, lsl #2
 2037 014c FFF7FEFF 		bl	kTCBQEnq
 2038              	.LVL188:
 563:core/src/kmesg.c **** 
 2039              		.loc 1 563 4 is_stmt 1 view .LVU639
 563:core/src/kmesg.c **** 
 2040              		.loc 1 563 15 is_stmt 0 view .LVU640
 2041 0150 019B     		ldr	r3, [sp, #4]
 563:core/src/kmesg.c **** 
 2042              		.loc 1 563 24 view .LVU641
 2043 0152 1022     		movs	r2, #16
 2044 0154 5A60     		str	r2, [r3, #4]
 565:core/src/kmesg.c **** 			{
 2045              		.loc 1 565 4 is_stmt 1 view .LVU642
 565:core/src/kmesg.c **** 			{
 2046              		.loc 1 565 19 is_stmt 0 view .LVU643
 2047 0156 5A7F     		ldrb	r2, [r3, #29]	@ zero_extendqisi2
 565:core/src/kmesg.c **** 			{
 2048              		.loc 1 565 38 view .LVU644
 2049 0158 074B     		ldr	r3, .L140
 2050 015a 1B68     		ldr	r3, [r3]
 2051 015c 5B7F     		ldrb	r3, [r3, #29]	@ zero_extendqisi2
 565:core/src/kmesg.c **** 			{
 2052              		.loc 1 565 7 view .LVU645
 2053 015e 9A42     		cmp	r2, r3
 2054 0160 9ED2     		bcs	.L130
 567:core/src/kmesg.c **** 			}
 2055              		.loc 1 567 5 is_stmt 1 view .LVU646
 2056 0162 064A     		ldr	r2, .L140+4
 2057 0164 5368     		ldr	r3, [r2, #4]
 2058 0166 43F08053 		orr	r3, r3, #268435456
 2059 016a 5360     		str	r3, [r2, #4]
 567:core/src/kmesg.c **** 			}
 2060              		.loc 1 567 5 view .LVU647
 2061              		.syntax unified
 2062              	@ 567 "core/src/kmesg.c" 1
 2063 016c BFF34F8F 		dsb 0xF
 2064              	@ 0 "" 2
 567:core/src/kmesg.c **** 			}
 2065              		.loc 1 567 5 view .LVU648
 2066              	@ 567 "core/src/kmesg.c" 1
 2067 0170 BFF36F8F 		isb 0xF
 2068              	@ 0 "" 2
ARM GAS  /var/folders/fg/4fzv35n91mbcgx4z5jzqdsl40000gn/T//ccsuUsPw.s 			page 59


 2069              		.thumb
 2070              		.syntax unified
 2071 0174 94E7     		b	.L130
 2072              	.L141:
 2073 0176 00BF     		.align	2
 2074              	.L140:
 2075 0178 00000000 		.word	runPtr
 2076 017c 00ED00E0 		.word	-536810240
 2077 0180 00000000 		.word	readyQueue
 2078              	.LBE48:
 2079              		.cfi_endproc
 2080              	.LFE64:
 2082              		.section	.text.kQueueJam,"ax",%progbits
 2083              		.align	1
 2084              		.global	kQueueJam
 2085              		.syntax unified
 2086              		.thumb
 2087              		.thumb_func
 2089              	kQueueJam:
 2090              	.LVL189:
 2091              	.LFB65:
 575:core/src/kmesg.c **** 
 576:core/src/kmesg.c **** #if (RK_CONF_FUNC_QUEUE_JAM==ON)
 577:core/src/kmesg.c **** 
 578:core/src/kmesg.c **** RK_ERR kQueueJam( RK_QUEUE *const kobj, VOID *sendPtr, RK_TICK timeout)
 579:core/src/kmesg.c **** {
 2092              		.loc 1 579 1 view -0
 2093              		.cfi_startproc
 2094              		@ args = 0, pretend = 0, frame = 8
 2095              		@ frame_needed = 0, uses_anonymous_args = 0
 2096              		.loc 1 579 1 is_stmt 0 view .LVU650
 2097 0000 2DE9F041 		push	{r4, r5, r6, r7, r8, lr}
 2098              		.cfi_def_cfa_offset 24
 2099              		.cfi_offset 4, -24
 2100              		.cfi_offset 5, -20
 2101              		.cfi_offset 6, -16
 2102              		.cfi_offset 7, -12
 2103              		.cfi_offset 8, -8
 2104              		.cfi_offset 14, -4
 2105 0004 82B0     		sub	sp, sp, #8
 2106              		.cfi_def_cfa_offset 32
 2107 0006 0446     		mov	r4, r0
 2108 0008 0E46     		mov	r6, r1
 2109 000a 1746     		mov	r7, r2
 580:core/src/kmesg.c **** 	RK_CR_AREA
 2110              		.loc 1 580 2 is_stmt 1 view .LVU651
 581:core/src/kmesg.c **** 	RK_CR_ENTER
 2111              		.loc 1 581 2 view .LVU652
 2112 000c FFF7FEFF 		bl	kEnterCR
 2113              	.LVL190:
 2114              		.loc 1 581 2 is_stmt 0 view .LVU653
 2115 0010 0546     		mov	r5, r0
 2116              	.LVL191:
 582:core/src/kmesg.c **** 
 583:core/src/kmesg.c **** 	if (kobj == NULL || sendPtr == NULL)
 2117              		.loc 1 583 2 is_stmt 1 view .LVU654
 2118              		.loc 1 583 5 is_stmt 0 view .LVU655
ARM GAS  /var/folders/fg/4fzv35n91mbcgx4z5jzqdsl40000gn/T//ccsuUsPw.s 			page 60


 2119 0012 2CB3     		cbz	r4, .L143
 2120              		.loc 1 583 19 discriminator 1 view .LVU656
 2121 0014 26B3     		cbz	r6, .L143
 584:core/src/kmesg.c **** 	{
 585:core/src/kmesg.c **** 		KERR( RK_FAULT_OBJ_NULL);
 586:core/src/kmesg.c **** 		RK_CR_EXIT
 587:core/src/kmesg.c **** 		return (RK_ERROR);
 588:core/src/kmesg.c **** 	}
 589:core/src/kmesg.c **** 
 590:core/src/kmesg.c **** 	if (!kobj->init)
 2122              		.loc 1 590 2 is_stmt 1 view .LVU657
 2123              		.loc 1 590 11 is_stmt 0 view .LVU658
 2124 0016 6368     		ldr	r3, [r4, #4]
 2125              		.loc 1 590 5 view .LVU659
 2126 0018 63B3     		cbz	r3, .L159
 591:core/src/kmesg.c **** 	{
 592:core/src/kmesg.c **** 		KERR( RK_FAULT_OBJ_NOT_INIT);
 593:core/src/kmesg.c **** 		RK_CR_EXIT
 594:core/src/kmesg.c **** 		return (RK_ERROR);
 595:core/src/kmesg.c **** 	}
 596:core/src/kmesg.c **** 
 597:core/src/kmesg.c **** 	if (RK_IS_BLOCK_ON_ISR( timeout))
 2127              		.loc 1 597 2 is_stmt 1 view .LVU660
 2128              	.LBB49:
 2129              	.LBI49:
 308:arch/armv7m/kernel/inc/kdefs.h **** {
 2130              		.loc 3 308 10 view .LVU661
 2131              	.LBB50:
 310:arch/armv7m/kernel/inc/kdefs.h ****     __ASM ("MRS %0, IPSR" : "=r"(ipsr_value));
 2132              		.loc 3 310 5 view .LVU662
 311:arch/armv7m/kernel/inc/kdefs.h ****     __ASM volatile ("dmb 0xF":::"memory");
 2133              		.loc 3 311 5 view .LVU663
 2134              		.syntax unified
 2135              	@ 311 "arch/armv7m/kernel/inc/kdefs.h" 1
 2136 001a EFF30583 		MRS r3, IPSR
 2137              	@ 0 "" 2
 312:arch/armv7m/kernel/inc/kdefs.h ****     return (ipsr_value);
 2138              		.loc 3 312 5 view .LVU664
 2139              	@ 312 "arch/armv7m/kernel/inc/kdefs.h" 1
 2140 001e BFF35F8F 		dmb 0xF
 2141              	@ 0 "" 2
 2142              		.loc 3 313 5 view .LVU665
 2143              		.thumb
 2144              		.syntax unified
 2145              	.LBE50:
 2146              	.LBE49:
 2147              		.loc 1 597 5 is_stmt 0 view .LVU666
 2148 0022 0BB1     		cbz	r3, .L147
 2149              		.loc 1 597 6 discriminator 1 view .LVU667
 2150 0024 002F     		cmp	r7, #0
 2151 0026 2FDC     		bgt	.L160
 2152              	.L147:
 598:core/src/kmesg.c **** 	{
 599:core/src/kmesg.c **** 		KERR( RK_FAULT_INVALID_ISR_PRIMITIVE);
 600:core/src/kmesg.c **** 		RK_CR_EXIT
 601:core/src/kmesg.c **** 		return (RK_ERROR);
 602:core/src/kmesg.c **** 	}
ARM GAS  /var/folders/fg/4fzv35n91mbcgx4z5jzqdsl40000gn/T//ccsuUsPw.s 			page 61


 603:core/src/kmesg.c **** 
 604:core/src/kmesg.c **** 	/*   if queue is full */
 605:core/src/kmesg.c **** 	if (kobj->countItems == kobj->maxItems)
 2153              		.loc 1 605 2 is_stmt 1 view .LVU668
 2154              		.loc 1 605 10 is_stmt 0 view .LVU669
 2155 0028 E269     		ldr	r2, [r4, #28]
 2156              		.loc 1 605 30 view .LVU670
 2157 002a A369     		ldr	r3, [r4, #24]
 2158              		.loc 1 605 5 view .LVU671
 2159 002c 9A42     		cmp	r2, r3
 2160 002e 35D0     		beq	.L161
 2161              	.LVL192:
 2162              	.L148:
 606:core/src/kmesg.c **** 	{
 607:core/src/kmesg.c **** 		if (timeout == 0)
 608:core/src/kmesg.c **** 		{
 609:core/src/kmesg.c **** 			RK_CR_EXIT
 610:core/src/kmesg.c **** 			return (RK_ERR_QUEUE_FULL);
 611:core/src/kmesg.c **** 		}
 612:core/src/kmesg.c **** 
 613:core/src/kmesg.c **** 		if (kobj->ownerTask)
 614:core/src/kmesg.c **** 		{
 615:core/src/kmesg.c **** 			if (kobj->ownerTask->priority > runPtr->priority)
 616:core/src/kmesg.c **** 			{
 617:core/src/kmesg.c **** 				runPtr->priority = kobj->ownerTask->priority;
 618:core/src/kmesg.c **** 			}
 619:core/src/kmesg.c **** 		}
 620:core/src/kmesg.c **** 
 621:core/src/kmesg.c **** 		if ((timeout > 0) && (timeout != RK_WAIT_FOREVER))
 622:core/src/kmesg.c **** 		{
 623:core/src/kmesg.c **** 			RK_TASK_TIMEOUT_WAITINGQUEUE_SETUP
 624:core/src/kmesg.c **** 			kTimeOut( &runPtr->timeoutNode, timeout);
 625:core/src/kmesg.c **** 		}
 626:core/src/kmesg.c **** 
 627:core/src/kmesg.c **** 		kTCBQEnqByPrio( &kobj->waitingQueue, runPtr);
 628:core/src/kmesg.c **** 		runPtr->status = RK_SENDING;
 629:core/src/kmesg.c **** 		RK_PEND_CTXTSWTCH
 630:core/src/kmesg.c **** 
 631:core/src/kmesg.c **** 		RK_CR_EXIT
 632:core/src/kmesg.c **** 		RK_CR_ENTER
 633:core/src/kmesg.c **** 
 634:core/src/kmesg.c **** 		if (runPtr->timeOut)
 635:core/src/kmesg.c **** 		{
 636:core/src/kmesg.c **** 			runPtr->timeOut = FALSE;
 637:core/src/kmesg.c **** 			RK_CR_EXIT
 638:core/src/kmesg.c **** 			return (RK_ERR_TIMEOUT);
 639:core/src/kmesg.c **** 		}
 640:core/src/kmesg.c **** 
 641:core/src/kmesg.c **** 		if ((timeout > RK_NO_WAIT) && (timeout != RK_WAIT_FOREVER))
 642:core/src/kmesg.c **** 		{
 643:core/src/kmesg.c **** 			kRemoveTimeoutNode( &runPtr->timeoutNode);
 644:core/src/kmesg.c **** 		}
 645:core/src/kmesg.c **** 	}
 646:core/src/kmesg.c **** 
 647:core/src/kmesg.c **** 	/*  jam position (one before head) */
 648:core/src/kmesg.c **** 	VOID **jamPtr;
 2163              		.loc 1 648 2 is_stmt 1 view .LVU672
ARM GAS  /var/folders/fg/4fzv35n91mbcgx4z5jzqdsl40000gn/T//ccsuUsPw.s 			page 62


 649:core/src/kmesg.c **** 	if (kobj->headPtr == kobj->mailQPtr)
 2164              		.loc 1 649 2 view .LVU673
 2165              		.loc 1 649 10 is_stmt 0 view .LVU674
 2166 0030 2369     		ldr	r3, [r4, #16]
 2167              		.loc 1 649 27 view .LVU675
 2168 0032 A268     		ldr	r2, [r4, #8]
 2169              		.loc 1 649 5 view .LVU676
 2170 0034 9342     		cmp	r3, r2
 2171 0036 7BD0     		beq	.L162
 650:core/src/kmesg.c **** 	{
 651:core/src/kmesg.c **** 		/* head is at the start, get back 1 sizeof(VOID **) */
 652:core/src/kmesg.c **** 		jamPtr = kobj->bufEndPtr - 1;
 653:core/src/kmesg.c **** 	}
 654:core/src/kmesg.c **** 	else
 655:core/src/kmesg.c **** 	{
 656:core/src/kmesg.c **** 		jamPtr = kobj->headPtr - 1;
 2172              		.loc 1 656 3 is_stmt 1 view .LVU677
 2173              		.loc 1 656 10 is_stmt 0 view .LVU678
 2174 0038 043B     		subs	r3, r3, #4
 2175              	.LVL193:
 2176              	.L154:
 657:core/src/kmesg.c **** 	}
 658:core/src/kmesg.c **** 
 659:core/src/kmesg.c **** 	/* store the message at the jam position */
 660:core/src/kmesg.c **** 	*(VOID ***) jamPtr = sendPtr;
 2177              		.loc 1 660 2 is_stmt 1 view .LVU679
 2178              		.loc 1 660 21 is_stmt 0 view .LVU680
 2179 003a 1E60     		str	r6, [r3]
 661:core/src/kmesg.c **** 
 662:core/src/kmesg.c **** 	/*  head pointer <- jam position */
 663:core/src/kmesg.c **** 	kobj->headPtr = jamPtr;
 2180              		.loc 1 663 2 is_stmt 1 view .LVU681
 2181              		.loc 1 663 16 is_stmt 0 view .LVU682
 2182 003c 2361     		str	r3, [r4, #16]
 664:core/src/kmesg.c **** 
 665:core/src/kmesg.c **** 	kobj->countItems++;
 2183              		.loc 1 665 2 is_stmt 1 view .LVU683
 2184              		.loc 1 665 6 is_stmt 0 view .LVU684
 2185 003e E369     		ldr	r3, [r4, #28]
 2186              	.LVL194:
 2187              		.loc 1 665 18 view .LVU685
 2188 0040 0133     		adds	r3, r3, #1
 2189 0042 E361     		str	r3, [r4, #28]
 666:core/src/kmesg.c **** 
 667:core/src/kmesg.c **** 	if (kobj->ownerTask != NULL)
 2190              		.loc 1 667 2 is_stmt 1 view .LVU686
 2191              		.loc 1 667 10 is_stmt 0 view .LVU687
 2192 0044 236A     		ldr	r3, [r4, #32]
 2193              		.loc 1 667 5 view .LVU688
 2194 0046 0BB1     		cbz	r3, .L155
 668:core/src/kmesg.c **** 		kobj->ownerTask->priority = kobj->ownerTask->realPrio;
 2195              		.loc 1 668 3 is_stmt 1 view .LVU689
 2196              		.loc 1 668 46 is_stmt 0 view .LVU690
 2197 0048 9A7F     		ldrb	r2, [r3, #30]	@ zero_extendqisi2
 2198              		.loc 1 668 29 view .LVU691
 2199 004a 5A77     		strb	r2, [r3, #29]
 2200              	.LVL195:
ARM GAS  /var/folders/fg/4fzv35n91mbcgx4z5jzqdsl40000gn/T//ccsuUsPw.s 			page 63


 2201              	.L155:
 669:core/src/kmesg.c **** 
 670:core/src/kmesg.c **** 	if (kobj->waitingQueue.size > 0)
 2202              		.loc 1 670 2 is_stmt 1 view .LVU692
 2203              		.loc 1 670 24 is_stmt 0 view .LVU693
 2204 004c 236B     		ldr	r3, [r4, #48]
 2205              		.loc 1 670 5 view .LVU694
 2206 004e 002B     		cmp	r3, #0
 2207 0050 71D1     		bne	.L163
 2208              	.LVL196:
 2209              	.L156:
 671:core/src/kmesg.c **** 	{
 672:core/src/kmesg.c **** 		RK_TCB *freeReadPtr = kTCBQPeek( &kobj->waitingQueue);
 673:core/src/kmesg.c **** 		if (freeReadPtr->status == RK_RECEIVING)
 674:core/src/kmesg.c **** 		{
 675:core/src/kmesg.c **** 			kTCBQDeq( &kobj->waitingQueue, &freeReadPtr);
 676:core/src/kmesg.c **** 			kTCBQEnq( &readyQueue[freeReadPtr->priority], freeReadPtr);
 677:core/src/kmesg.c **** 			freeReadPtr->status = RK_READY;
 678:core/src/kmesg.c **** 
 679:core/src/kmesg.c **** 			if (freeReadPtr->priority < runPtr->priority)
 680:core/src/kmesg.c **** 			{
 681:core/src/kmesg.c **** 				RK_PEND_CTXTSWTCH
 682:core/src/kmesg.c **** 			}
 683:core/src/kmesg.c **** 		}
 684:core/src/kmesg.c **** 	}
 685:core/src/kmesg.c **** 
 686:core/src/kmesg.c **** 	RK_CR_EXIT
 2210              		.loc 1 686 2 is_stmt 1 view .LVU695
 2211 0052 2846     		mov	r0, r5
 2212 0054 FFF7FEFF 		bl	kExitCR
 2213              	.LVL197:
 687:core/src/kmesg.c **** 	return (RK_SUCCESS);
 2214              		.loc 1 687 2 view .LVU696
 2215              		.loc 1 687 9 is_stmt 0 view .LVU697
 2216 0058 0020     		movs	r0, #0
 2217              	.LVL198:
 2218              	.L142:
 688:core/src/kmesg.c **** }
 2219              		.loc 1 688 1 view .LVU698
 2220 005a 02B0     		add	sp, sp, #8
 2221              		.cfi_remember_state
 2222              		.cfi_def_cfa_offset 24
 2223              		@ sp needed
 2224 005c BDE8F081 		pop	{r4, r5, r6, r7, r8, pc}
 2225              	.LVL199:
 2226              	.L143:
 2227              		.cfi_restore_state
 585:core/src/kmesg.c **** 		RK_CR_EXIT
 2228              		.loc 1 585 3 is_stmt 1 view .LVU699
 2229 0060 6FF06300 		mvn	r0, #99
 2230              	.LVL200:
 585:core/src/kmesg.c **** 		RK_CR_EXIT
 2231              		.loc 1 585 3 is_stmt 0 view .LVU700
 2232 0064 FFF7FEFF 		bl	kErrHandler
 2233              	.LVL201:
 586:core/src/kmesg.c **** 		return (RK_ERROR);
 2234              		.loc 1 586 3 is_stmt 1 view .LVU701
ARM GAS  /var/folders/fg/4fzv35n91mbcgx4z5jzqdsl40000gn/T//ccsuUsPw.s 			page 64


 2235 0068 2846     		mov	r0, r5
 2236 006a FFF7FEFF 		bl	kExitCR
 2237              	.LVL202:
 587:core/src/kmesg.c **** 	}
 2238              		.loc 1 587 3 view .LVU702
 587:core/src/kmesg.c **** 	}
 2239              		.loc 1 587 10 is_stmt 0 view .LVU703
 2240 006e 4FF0FF30 		mov	r0, #-1
 2241 0072 F2E7     		b	.L142
 2242              	.LVL203:
 2243              	.L159:
 592:core/src/kmesg.c **** 		RK_CR_EXIT
 2244              		.loc 1 592 3 is_stmt 1 view .LVU704
 2245 0074 6FF06400 		mvn	r0, #100
 2246              	.LVL204:
 592:core/src/kmesg.c **** 		RK_CR_EXIT
 2247              		.loc 1 592 3 is_stmt 0 view .LVU705
 2248 0078 FFF7FEFF 		bl	kErrHandler
 2249              	.LVL205:
 593:core/src/kmesg.c **** 		return (RK_ERROR);
 2250              		.loc 1 593 3 is_stmt 1 view .LVU706
 2251 007c 2846     		mov	r0, r5
 2252 007e FFF7FEFF 		bl	kExitCR
 2253              	.LVL206:
 594:core/src/kmesg.c **** 	}
 2254              		.loc 1 594 3 view .LVU707
 594:core/src/kmesg.c **** 	}
 2255              		.loc 1 594 10 is_stmt 0 view .LVU708
 2256 0082 4FF0FF30 		mov	r0, #-1
 2257 0086 E8E7     		b	.L142
 2258              	.LVL207:
 2259              	.L160:
 599:core/src/kmesg.c **** 		RK_CR_EXIT
 2260              		.loc 1 599 3 is_stmt 1 view .LVU709
 2261 0088 6FF06E00 		mvn	r0, #110
 2262              	.LVL208:
 599:core/src/kmesg.c **** 		RK_CR_EXIT
 2263              		.loc 1 599 3 is_stmt 0 view .LVU710
 2264 008c FFF7FEFF 		bl	kErrHandler
 2265              	.LVL209:
 600:core/src/kmesg.c **** 		return (RK_ERROR);
 2266              		.loc 1 600 3 is_stmt 1 view .LVU711
 2267 0090 2846     		mov	r0, r5
 2268 0092 FFF7FEFF 		bl	kExitCR
 2269              	.LVL210:
 601:core/src/kmesg.c **** 	}
 2270              		.loc 1 601 3 view .LVU712
 601:core/src/kmesg.c **** 	}
 2271              		.loc 1 601 10 is_stmt 0 view .LVU713
 2272 0096 4FF0FF30 		mov	r0, #-1
 2273 009a DEE7     		b	.L142
 2274              	.LVL211:
 2275              	.L161:
 607:core/src/kmesg.c **** 		{
 2276              		.loc 1 607 3 is_stmt 1 view .LVU714
 607:core/src/kmesg.c **** 		{
 2277              		.loc 1 607 6 is_stmt 0 view .LVU715
ARM GAS  /var/folders/fg/4fzv35n91mbcgx4z5jzqdsl40000gn/T//ccsuUsPw.s 			page 65


 2278 009c 7FB3     		cbz	r7, .L164
 613:core/src/kmesg.c **** 		{
 2279              		.loc 1 613 3 is_stmt 1 view .LVU716
 613:core/src/kmesg.c **** 		{
 2280              		.loc 1 613 11 is_stmt 0 view .LVU717
 2281 009e 236A     		ldr	r3, [r4, #32]
 613:core/src/kmesg.c **** 		{
 2282              		.loc 1 613 6 view .LVU718
 2283 00a0 33B1     		cbz	r3, .L150
 615:core/src/kmesg.c **** 			{
 2284              		.loc 1 615 4 is_stmt 1 view .LVU719
 615:core/src/kmesg.c **** 			{
 2285              		.loc 1 615 23 is_stmt 0 view .LVU720
 2286 00a2 5A7F     		ldrb	r2, [r3, #29]	@ zero_extendqisi2
 615:core/src/kmesg.c **** 			{
 2287              		.loc 1 615 42 view .LVU721
 2288 00a4 384B     		ldr	r3, .L167
 2289 00a6 1B68     		ldr	r3, [r3]
 2290 00a8 597F     		ldrb	r1, [r3, #29]	@ zero_extendqisi2
 615:core/src/kmesg.c **** 			{
 2291              		.loc 1 615 7 view .LVU722
 2292 00aa 8A42     		cmp	r2, r1
 2293 00ac 00D9     		bls	.L150
 617:core/src/kmesg.c **** 			}
 2294              		.loc 1 617 5 is_stmt 1 view .LVU723
 617:core/src/kmesg.c **** 			}
 2295              		.loc 1 617 22 is_stmt 0 view .LVU724
 2296 00ae 5A77     		strb	r2, [r3, #29]
 2297              	.L150:
 621:core/src/kmesg.c **** 		{
 2298              		.loc 1 621 3 is_stmt 1 view .LVU725
 621:core/src/kmesg.c **** 		{
 2299              		.loc 1 621 6 is_stmt 0 view .LVU726
 2300 00b0 002F     		cmp	r7, #0
 2301 00b2 29DC     		bgt	.L165
 2302              	.LVL212:
 2303              	.L151:
 627:core/src/kmesg.c **** 		runPtr->status = RK_SENDING;
 2304              		.loc 1 627 3 is_stmt 1 view .LVU727
 2305 00b4 DFF8D080 		ldr	r8, .L167
 2306 00b8 D8F80010 		ldr	r1, [r8]
 2307 00bc 04F12400 		add	r0, r4, #36
 2308 00c0 FFF7FEFF 		bl	kTCBQEnqByPrio
 2309              	.LVL213:
 628:core/src/kmesg.c **** 		RK_PEND_CTXTSWTCH
 2310              		.loc 1 628 3 view .LVU728
 628:core/src/kmesg.c **** 		RK_PEND_CTXTSWTCH
 2311              		.loc 1 628 9 is_stmt 0 view .LVU729
 2312 00c4 D8F80030 		ldr	r3, [r8]
 628:core/src/kmesg.c **** 		RK_PEND_CTXTSWTCH
 2313              		.loc 1 628 18 view .LVU730
 2314 00c8 3322     		movs	r2, #51
 2315 00ca 5A60     		str	r2, [r3, #4]
 629:core/src/kmesg.c **** 
 2316              		.loc 1 629 3 is_stmt 1 view .LVU731
 2317 00cc 2F4A     		ldr	r2, .L167+4
 2318 00ce 5368     		ldr	r3, [r2, #4]
ARM GAS  /var/folders/fg/4fzv35n91mbcgx4z5jzqdsl40000gn/T//ccsuUsPw.s 			page 66


 2319 00d0 43F08053 		orr	r3, r3, #268435456
 2320 00d4 5360     		str	r3, [r2, #4]
 629:core/src/kmesg.c **** 
 2321              		.loc 1 629 3 view .LVU732
 2322              		.syntax unified
 2323              	@ 629 "core/src/kmesg.c" 1
 2324 00d6 BFF34F8F 		dsb 0xF
 2325              	@ 0 "" 2
 629:core/src/kmesg.c **** 
 2326              		.loc 1 629 3 view .LVU733
 2327              	@ 629 "core/src/kmesg.c" 1
 2328 00da BFF36F8F 		isb 0xF
 2329              	@ 0 "" 2
 631:core/src/kmesg.c **** 		RK_CR_ENTER
 2330              		.loc 1 631 3 view .LVU734
 2331              		.thumb
 2332              		.syntax unified
 2333 00de 2846     		mov	r0, r5
 2334 00e0 FFF7FEFF 		bl	kExitCR
 2335              	.LVL214:
 632:core/src/kmesg.c **** 
 2336              		.loc 1 632 3 view .LVU735
 2337 00e4 FFF7FEFF 		bl	kEnterCR
 2338              	.LVL215:
 2339 00e8 0546     		mov	r5, r0
 2340              	.LVL216:
 634:core/src/kmesg.c **** 		{
 2341              		.loc 1 634 3 view .LVU736
 634:core/src/kmesg.c **** 		{
 2342              		.loc 1 634 13 is_stmt 0 view .LVU737
 2343 00ea D8F80000 		ldr	r0, [r8]
 2344              	.LVL217:
 634:core/src/kmesg.c **** 		{
 2345              		.loc 1 634 13 view .LVU738
 2346 00ee 836B     		ldr	r3, [r0, #56]
 634:core/src/kmesg.c **** 		{
 2347              		.loc 1 634 6 view .LVU739
 2348 00f0 B3B9     		cbnz	r3, .L166
 641:core/src/kmesg.c **** 		{
 2349              		.loc 1 641 3 is_stmt 1 view .LVU740
 641:core/src/kmesg.c **** 		{
 2350              		.loc 1 641 6 is_stmt 0 view .LVU741
 2351 00f2 002F     		cmp	r7, #0
 2352 00f4 9CDD     		ble	.L148
 643:core/src/kmesg.c **** 		}
 2353              		.loc 1 643 4 is_stmt 1 view .LVU742
 2354 00f6 4430     		adds	r0, r0, #68
 2355 00f8 FFF7FEFF 		bl	kRemoveTimeoutNode
 2356              	.LVL218:
 2357 00fc 98E7     		b	.L148
 2358              	.LVL219:
 2359              	.L164:
 609:core/src/kmesg.c **** 			return (RK_ERR_QUEUE_FULL);
 2360              		.loc 1 609 4 view .LVU743
 2361 00fe 2846     		mov	r0, r5
 2362              	.LVL220:
 609:core/src/kmesg.c **** 			return (RK_ERR_QUEUE_FULL);
ARM GAS  /var/folders/fg/4fzv35n91mbcgx4z5jzqdsl40000gn/T//ccsuUsPw.s 			page 67


 2363              		.loc 1 609 4 is_stmt 0 view .LVU744
 2364 0100 FFF7FEFF 		bl	kExitCR
 2365              	.LVL221:
 610:core/src/kmesg.c **** 		}
 2366              		.loc 1 610 4 is_stmt 1 view .LVU745
 610:core/src/kmesg.c **** 		}
 2367              		.loc 1 610 11 is_stmt 0 view .LVU746
 2368 0104 2248     		ldr	r0, .L167+8
 2369 0106 A8E7     		b	.L142
 2370              	.LVL222:
 2371              	.L165:
 623:core/src/kmesg.c **** 			kTimeOut( &runPtr->timeoutNode, timeout);
 2372              		.loc 1 623 4 is_stmt 1 view .LVU747
 2373 0108 1F4B     		ldr	r3, .L167
 2374 010a 1868     		ldr	r0, [r3]
 2375              	.LVL223:
 623:core/src/kmesg.c **** 			kTimeOut( &runPtr->timeoutNode, timeout);
 2376              		.loc 1 623 4 is_stmt 0 view .LVU748
 2377 010c 0123     		movs	r3, #1
 2378 010e C364     		str	r3, [r0, #76]
 623:core/src/kmesg.c **** 			kTimeOut( &runPtr->timeoutNode, timeout);
 2379              		.loc 1 623 4 is_stmt 1 view .LVU749
 2380 0110 04F12403 		add	r3, r4, #36
 2381 0114 8365     		str	r3, [r0, #88]
 624:core/src/kmesg.c **** 		}
 2382              		.loc 1 624 4 view .LVU750
 2383 0116 3946     		mov	r1, r7
 2384 0118 4430     		adds	r0, r0, #68
 2385 011a FFF7FEFF 		bl	kTimeOut
 2386              	.LVL224:
 2387 011e C9E7     		b	.L151
 2388              	.L166:
 636:core/src/kmesg.c **** 			RK_CR_EXIT
 2389              		.loc 1 636 4 view .LVU751
 636:core/src/kmesg.c **** 			RK_CR_EXIT
 2390              		.loc 1 636 20 is_stmt 0 view .LVU752
 2391 0120 0023     		movs	r3, #0
 2392 0122 8363     		str	r3, [r0, #56]
 637:core/src/kmesg.c **** 			return (RK_ERR_TIMEOUT);
 2393              		.loc 1 637 4 is_stmt 1 view .LVU753
 2394 0124 2846     		mov	r0, r5
 2395 0126 FFF7FEFF 		bl	kExitCR
 2396              	.LVL225:
 638:core/src/kmesg.c **** 		}
 2397              		.loc 1 638 4 view .LVU754
 638:core/src/kmesg.c **** 		}
 2398              		.loc 1 638 11 is_stmt 0 view .LVU755
 2399 012a 6FF06B00 		mvn	r0, #107
 2400 012e 94E7     		b	.L142
 2401              	.L162:
 652:core/src/kmesg.c **** 	}
 2402              		.loc 1 652 3 is_stmt 1 view .LVU756
 652:core/src/kmesg.c **** 	}
 2403              		.loc 1 652 16 is_stmt 0 view .LVU757
 2404 0130 E368     		ldr	r3, [r4, #12]
 652:core/src/kmesg.c **** 	}
 2405              		.loc 1 652 10 view .LVU758
ARM GAS  /var/folders/fg/4fzv35n91mbcgx4z5jzqdsl40000gn/T//ccsuUsPw.s 			page 68


 2406 0132 043B     		subs	r3, r3, #4
 2407              	.LVL226:
 652:core/src/kmesg.c **** 	}
 2408              		.loc 1 652 10 view .LVU759
 2409 0134 81E7     		b	.L154
 2410              	.LVL227:
 2411              	.L163:
 2412              	.LBB51:
 672:core/src/kmesg.c **** 		if (freeReadPtr->status == RK_RECEIVING)
 2413              		.loc 1 672 3 is_stmt 1 view .LVU760
 672:core/src/kmesg.c **** 		if (freeReadPtr->status == RK_RECEIVING)
 2414              		.loc 1 672 36 is_stmt 0 view .LVU761
 2415 0136 2434     		adds	r4, r4, #36
 2416              	.LVL228:
 672:core/src/kmesg.c **** 		if (freeReadPtr->status == RK_RECEIVING)
 2417              		.loc 1 672 25 view .LVU762
 2418 0138 2046     		mov	r0, r4
 2419 013a FFF7FEFF 		bl	kTCBQPeek
 2420              	.LVL229:
 672:core/src/kmesg.c **** 		if (freeReadPtr->status == RK_RECEIVING)
 2421              		.loc 1 672 11 view .LVU763
 2422 013e 0190     		str	r0, [sp, #4]
 673:core/src/kmesg.c **** 		{
 2423              		.loc 1 673 3 is_stmt 1 view .LVU764
 673:core/src/kmesg.c **** 		{
 2424              		.loc 1 673 18 is_stmt 0 view .LVU765
 2425 0140 4368     		ldr	r3, [r0, #4]
 673:core/src/kmesg.c **** 		{
 2426              		.loc 1 673 6 view .LVU766
 2427 0142 342B     		cmp	r3, #52
 2428 0144 85D1     		bne	.L156
 675:core/src/kmesg.c **** 			kTCBQEnq( &readyQueue[freeReadPtr->priority], freeReadPtr);
 2429              		.loc 1 675 4 is_stmt 1 view .LVU767
 2430 0146 01A9     		add	r1, sp, #4
 2431 0148 2046     		mov	r0, r4
 2432 014a FFF7FEFF 		bl	kTCBQDeq
 2433              	.LVL230:
 676:core/src/kmesg.c **** 			freeReadPtr->status = RK_READY;
 2434              		.loc 1 676 4 view .LVU768
 676:core/src/kmesg.c **** 			freeReadPtr->status = RK_READY;
 2435              		.loc 1 676 37 is_stmt 0 view .LVU769
 2436 014e 0199     		ldr	r1, [sp, #4]
 2437 0150 487F     		ldrb	r0, [r1, #29]	@ zero_extendqisi2
 676:core/src/kmesg.c **** 			freeReadPtr->status = RK_READY;
 2438              		.loc 1 676 14 view .LVU770
 2439 0152 00EB8000 		add	r0, r0, r0, lsl #2
 676:core/src/kmesg.c **** 			freeReadPtr->status = RK_READY;
 2440              		.loc 1 676 4 view .LVU771
 2441 0156 0F4B     		ldr	r3, .L167+12
 2442 0158 03EB8000 		add	r0, r3, r0, lsl #2
 2443 015c FFF7FEFF 		bl	kTCBQEnq
 2444              	.LVL231:
 677:core/src/kmesg.c **** 
 2445              		.loc 1 677 4 is_stmt 1 view .LVU772
 677:core/src/kmesg.c **** 
 2446              		.loc 1 677 15 is_stmt 0 view .LVU773
 2447 0160 019B     		ldr	r3, [sp, #4]
ARM GAS  /var/folders/fg/4fzv35n91mbcgx4z5jzqdsl40000gn/T//ccsuUsPw.s 			page 69


 677:core/src/kmesg.c **** 
 2448              		.loc 1 677 24 view .LVU774
 2449 0162 1022     		movs	r2, #16
 2450 0164 5A60     		str	r2, [r3, #4]
 679:core/src/kmesg.c **** 			{
 2451              		.loc 1 679 4 is_stmt 1 view .LVU775
 679:core/src/kmesg.c **** 			{
 2452              		.loc 1 679 19 is_stmt 0 view .LVU776
 2453 0166 5A7F     		ldrb	r2, [r3, #29]	@ zero_extendqisi2
 679:core/src/kmesg.c **** 			{
 2454              		.loc 1 679 38 view .LVU777
 2455 0168 074B     		ldr	r3, .L167
 2456 016a 1B68     		ldr	r3, [r3]
 2457 016c 5B7F     		ldrb	r3, [r3, #29]	@ zero_extendqisi2
 679:core/src/kmesg.c **** 			{
 2458              		.loc 1 679 7 view .LVU778
 2459 016e 9A42     		cmp	r2, r3
 2460 0170 BFF46FAF 		bcs	.L156
 681:core/src/kmesg.c **** 			}
 2461              		.loc 1 681 5 is_stmt 1 view .LVU779
 2462 0174 054A     		ldr	r2, .L167+4
 2463 0176 5368     		ldr	r3, [r2, #4]
 2464 0178 43F08053 		orr	r3, r3, #268435456
 2465 017c 5360     		str	r3, [r2, #4]
 681:core/src/kmesg.c **** 			}
 2466              		.loc 1 681 5 view .LVU780
 2467              		.syntax unified
 2468              	@ 681 "core/src/kmesg.c" 1
 2469 017e BFF34F8F 		dsb 0xF
 2470              	@ 0 "" 2
 681:core/src/kmesg.c **** 			}
 2471              		.loc 1 681 5 view .LVU781
 2472              	@ 681 "core/src/kmesg.c" 1
 2473 0182 BFF36F8F 		isb 0xF
 2474              	@ 0 "" 2
 2475              		.thumb
 2476              		.syntax unified
 2477 0186 64E7     		b	.L156
 2478              	.L168:
 2479              		.align	2
 2480              	.L167:
 2481 0188 00000000 		.word	runPtr
 2482 018c 00ED00E0 		.word	-536810240
 2483 0190 64FEFFFF 		.word	-412
 2484 0194 00000000 		.word	readyQueue
 2485              	.LBE51:
 2486              		.cfi_endproc
 2487              	.LFE65:
 2489              		.section	.text.kQueuePeek,"ax",%progbits
 2490              		.align	1
 2491              		.global	kQueuePeek
 2492              		.syntax unified
 2493              		.thumb
 2494              		.thumb_func
 2496              	kQueuePeek:
 2497              	.LVL232:
 2498              	.LFB66:
ARM GAS  /var/folders/fg/4fzv35n91mbcgx4z5jzqdsl40000gn/T//ccsuUsPw.s 			page 70


 689:core/src/kmesg.c **** #endif
 690:core/src/kmesg.c **** 
 691:core/src/kmesg.c **** #if (RK_CONF_FUNC_QUEUE_PEEK==ON)
 692:core/src/kmesg.c **** 
 693:core/src/kmesg.c **** RK_ERR kQueuePeek( RK_QUEUE *const kobj, VOID **peekPPtr)
 694:core/src/kmesg.c **** {
 2499              		.loc 1 694 1 view -0
 2500              		.cfi_startproc
 2501              		@ args = 0, pretend = 0, frame = 0
 2502              		@ frame_needed = 0, uses_anonymous_args = 0
 2503              		.loc 1 694 1 is_stmt 0 view .LVU783
 2504 0000 70B5     		push	{r4, r5, r6, lr}
 2505              		.cfi_def_cfa_offset 16
 2506              		.cfi_offset 4, -16
 2507              		.cfi_offset 5, -12
 2508              		.cfi_offset 6, -8
 2509              		.cfi_offset 14, -4
 2510 0002 0446     		mov	r4, r0
 2511 0004 0D46     		mov	r5, r1
 695:core/src/kmesg.c **** 	RK_CR_AREA
 2512              		.loc 1 695 2 is_stmt 1 view .LVU784
 696:core/src/kmesg.c **** 	RK_CR_ENTER
 2513              		.loc 1 696 2 view .LVU785
 2514 0006 FFF7FEFF 		bl	kEnterCR
 2515              	.LVL233:
 2516              		.loc 1 696 2 is_stmt 0 view .LVU786
 2517 000a 0646     		mov	r6, r0
 2518              	.LVL234:
 697:core/src/kmesg.c **** 
 698:core/src/kmesg.c **** 	if (kobj == NULL || peekPPtr == NULL)
 2519              		.loc 1 698 2 is_stmt 1 view .LVU787
 2520              		.loc 1 698 5 is_stmt 0 view .LVU788
 2521 000c 5CB1     		cbz	r4, .L170
 2522              		.loc 1 698 19 discriminator 1 view .LVU789
 2523 000e 55B1     		cbz	r5, .L170
 699:core/src/kmesg.c **** 	{
 700:core/src/kmesg.c **** 		KERR( RK_FAULT_OBJ_NULL);
 701:core/src/kmesg.c **** 		RK_CR_EXIT
 702:core/src/kmesg.c **** 		return (RK_ERROR);
 703:core/src/kmesg.c **** 	}
 704:core/src/kmesg.c **** 
 705:core/src/kmesg.c **** 	if (!kobj->init)
 2524              		.loc 1 705 2 is_stmt 1 view .LVU790
 2525              		.loc 1 705 11 is_stmt 0 view .LVU791
 2526 0010 6368     		ldr	r3, [r4, #4]
 2527              		.loc 1 705 5 view .LVU792
 2528 0012 93B1     		cbz	r3, .L176
 706:core/src/kmesg.c **** 	{
 707:core/src/kmesg.c **** 		KERR( RK_FAULT_OBJ_NOT_INIT);
 708:core/src/kmesg.c **** 		RK_CR_EXIT
 709:core/src/kmesg.c **** 		return (RK_ERROR);
 710:core/src/kmesg.c **** 	}
 711:core/src/kmesg.c **** 
 712:core/src/kmesg.c **** 	/*   if queue is empty */
 713:core/src/kmesg.c **** 	if (kobj->countItems == 0)
 2529              		.loc 1 713 2 is_stmt 1 view .LVU793
 2530              		.loc 1 713 10 is_stmt 0 view .LVU794
ARM GAS  /var/folders/fg/4fzv35n91mbcgx4z5jzqdsl40000gn/T//ccsuUsPw.s 			page 71


 2531 0014 E369     		ldr	r3, [r4, #28]
 2532              		.loc 1 713 5 view .LVU795
 2533 0016 D3B1     		cbz	r3, .L177
 714:core/src/kmesg.c **** 	{
 715:core/src/kmesg.c **** 		RK_CR_EXIT
 716:core/src/kmesg.c **** 		return (RK_ERR_QUEUE_EMPTY);
 717:core/src/kmesg.c **** 	}
 718:core/src/kmesg.c **** 
 719:core/src/kmesg.c **** 	/* get the message at the head without removing it */
 720:core/src/kmesg.c **** 	*peekPPtr = *(VOID ***) (kobj->headPtr);
 2534              		.loc 1 720 2 is_stmt 1 view .LVU796
 2535              		.loc 1 720 31 is_stmt 0 view .LVU797
 2536 0018 2369     		ldr	r3, [r4, #16]
 2537              		.loc 1 720 14 view .LVU798
 2538 001a 1B68     		ldr	r3, [r3]
 2539              		.loc 1 720 12 view .LVU799
 2540 001c 2B60     		str	r3, [r5]
 721:core/src/kmesg.c **** 
 722:core/src/kmesg.c **** 	RK_CR_EXIT
 2541              		.loc 1 722 2 is_stmt 1 view .LVU800
 2542 001e FFF7FEFF 		bl	kExitCR
 2543              	.LVL235:
 723:core/src/kmesg.c **** 	return (RK_SUCCESS);
 2544              		.loc 1 723 2 view .LVU801
 2545              		.loc 1 723 9 is_stmt 0 view .LVU802
 2546 0022 0020     		movs	r0, #0
 2547              	.L169:
 724:core/src/kmesg.c **** }
 2548              		.loc 1 724 1 view .LVU803
 2549 0024 70BD     		pop	{r4, r5, r6, pc}
 2550              	.LVL236:
 2551              	.L170:
 700:core/src/kmesg.c **** 		RK_CR_EXIT
 2552              		.loc 1 700 3 is_stmt 1 view .LVU804
 2553 0026 6FF06300 		mvn	r0, #99
 2554              	.LVL237:
 700:core/src/kmesg.c **** 		RK_CR_EXIT
 2555              		.loc 1 700 3 is_stmt 0 view .LVU805
 2556 002a FFF7FEFF 		bl	kErrHandler
 2557              	.LVL238:
 701:core/src/kmesg.c **** 		return (RK_ERROR);
 2558              		.loc 1 701 3 is_stmt 1 view .LVU806
 2559 002e 3046     		mov	r0, r6
 2560 0030 FFF7FEFF 		bl	kExitCR
 2561              	.LVL239:
 702:core/src/kmesg.c **** 	}
 2562              		.loc 1 702 3 view .LVU807
 702:core/src/kmesg.c **** 	}
 2563              		.loc 1 702 10 is_stmt 0 view .LVU808
 2564 0034 4FF0FF30 		mov	r0, #-1
 2565 0038 F4E7     		b	.L169
 2566              	.LVL240:
 2567              	.L176:
 707:core/src/kmesg.c **** 		RK_CR_EXIT
 2568              		.loc 1 707 3 is_stmt 1 view .LVU809
 2569 003a 6FF06400 		mvn	r0, #100
 2570              	.LVL241:
ARM GAS  /var/folders/fg/4fzv35n91mbcgx4z5jzqdsl40000gn/T//ccsuUsPw.s 			page 72


 707:core/src/kmesg.c **** 		RK_CR_EXIT
 2571              		.loc 1 707 3 is_stmt 0 view .LVU810
 2572 003e FFF7FEFF 		bl	kErrHandler
 2573              	.LVL242:
 708:core/src/kmesg.c **** 		return (RK_ERROR);
 2574              		.loc 1 708 3 is_stmt 1 view .LVU811
 2575 0042 3046     		mov	r0, r6
 2576 0044 FFF7FEFF 		bl	kExitCR
 2577              	.LVL243:
 709:core/src/kmesg.c **** 	}
 2578              		.loc 1 709 3 view .LVU812
 709:core/src/kmesg.c **** 	}
 2579              		.loc 1 709 10 is_stmt 0 view .LVU813
 2580 0048 4FF0FF30 		mov	r0, #-1
 2581 004c EAE7     		b	.L169
 2582              	.LVL244:
 2583              	.L177:
 715:core/src/kmesg.c **** 		return (RK_ERR_QUEUE_EMPTY);
 2584              		.loc 1 715 3 is_stmt 1 view .LVU814
 2585 004e FFF7FEFF 		bl	kExitCR
 2586              	.LVL245:
 716:core/src/kmesg.c **** 	}
 2587              		.loc 1 716 3 view .LVU815
 716:core/src/kmesg.c **** 	}
 2588              		.loc 1 716 10 is_stmt 0 view .LVU816
 2589 0052 6FF4CE70 		mvn	r0, #412
 2590 0056 E5E7     		b	.L169
 2591              		.cfi_endproc
 2592              	.LFE66:
 2594              		.section	.text.kQueueQuery,"ax",%progbits
 2595              		.align	1
 2596              		.global	kQueueQuery
 2597              		.syntax unified
 2598              		.thumb
 2599              		.thumb_func
 2601              	kQueueQuery:
 2602              	.LVL246:
 2603              	.LFB67:
 725:core/src/kmesg.c **** #endif
 726:core/src/kmesg.c **** 
 727:core/src/kmesg.c **** #if (RK_CONF_FUNC_QUEUE_QUERY==ON)
 728:core/src/kmesg.c **** 
 729:core/src/kmesg.c **** ULONG kQueueQuery( RK_QUEUE *const kobj)
 730:core/src/kmesg.c **** {
 2604              		.loc 1 730 1 is_stmt 1 view -0
 2605              		.cfi_startproc
 2606              		@ args = 0, pretend = 0, frame = 0
 2607              		@ frame_needed = 0, uses_anonymous_args = 0
 2608              		@ link register save eliminated.
 731:core/src/kmesg.c **** 	if (kobj == NULL || !kobj->init)
 2609              		.loc 1 731 2 view .LVU818
 2610              		.loc 1 731 5 is_stmt 0 view .LVU819
 2611 0000 0346     		mov	r3, r0
 2612 0002 18B1     		cbz	r0, .L180
 2613              		.loc 1 731 27 discriminator 1 view .LVU820
 2614 0004 4068     		ldr	r0, [r0, #4]
 2615              	.LVL247:
ARM GAS  /var/folders/fg/4fzv35n91mbcgx4z5jzqdsl40000gn/T//ccsuUsPw.s 			page 73


 2616              		.loc 1 731 19 discriminator 1 view .LVU821
 2617 0006 10B1     		cbz	r0, .L178
 732:core/src/kmesg.c **** 	{
 733:core/src/kmesg.c **** 		return 0;
 734:core/src/kmesg.c **** 	}
 735:core/src/kmesg.c **** 
 736:core/src/kmesg.c **** 	return kobj->countItems;
 2618              		.loc 1 736 2 is_stmt 1 view .LVU822
 2619              		.loc 1 736 13 is_stmt 0 view .LVU823
 2620 0008 D869     		ldr	r0, [r3, #28]
 2621 000a 7047     		bx	lr
 2622              	.LVL248:
 2623              	.L180:
 733:core/src/kmesg.c **** 	}
 2624              		.loc 1 733 10 view .LVU824
 2625 000c 0020     		movs	r0, #0
 2626              	.LVL249:
 2627              	.L178:
 737:core/src/kmesg.c **** }
 2628              		.loc 1 737 1 view .LVU825
 2629 000e 7047     		bx	lr
 2630              		.cfi_endproc
 2631              	.LFE67:
 2633              		.section	.rodata.kStreamInit.str1.4,"aMS",%progbits,1
 2634              		.align	2
 2635              	.LC2:
 2636 0000 77616974 		.ascii	"waitingQueue\000"
 2636      696E6751 
 2636      75657565 
 2636      00
 2637              		.section	.text.kStreamInit,"ax",%progbits
 2638              		.align	1
 2639              		.global	kStreamInit
 2640              		.syntax unified
 2641              		.thumb
 2642              		.thumb_func
 2644              	kStreamInit:
 2645              	.LVL250:
 2646              	.LFB68:
 738:core/src/kmesg.c **** #endif
 739:core/src/kmesg.c **** 
 740:core/src/kmesg.c **** #endif /* RK_CONF_QUEUE */
 741:core/src/kmesg.c **** 
 742:core/src/kmesg.c **** /******************************************************************************/
 743:core/src/kmesg.c **** /* STREAM QUEUE                                                               */
 744:core/src/kmesg.c **** /******************************************************************************/
 745:core/src/kmesg.c **** #if (RK_CONF_STREAM==ON)
 746:core/src/kmesg.c **** #ifndef RK_CPYQ
 747:core/src/kmesg.c **** #define RK_CPYQ(s,d,z)                     \
 748:core/src/kmesg.c ****      do {                               \
 749:core/src/kmesg.c ****         while (--(z))                   \
 750:core/src/kmesg.c ****         {                               \
 751:core/src/kmesg.c ****              *(d)++ = *(s)++;           \
 752:core/src/kmesg.c ****         }                               \
 753:core/src/kmesg.c ****         *(d)++ = *(s)++;                \
 754:core/src/kmesg.c ****         _RK_DMB                             \
 755:core/src/kmesg.c ****  } while(0)
ARM GAS  /var/folders/fg/4fzv35n91mbcgx4z5jzqdsl40000gn/T//ccsuUsPw.s 			page 74


 756:core/src/kmesg.c **** #endif
 757:core/src/kmesg.c **** RK_ERR kStreamInit( RK_STREAM *const kobj, VOID *buf,
 758:core/src/kmesg.c **** 		const ULONG mesgSizeInWords, ULONG const nMesg)
 759:core/src/kmesg.c **** {
 2647              		.loc 1 759 1 is_stmt 1 view -0
 2648              		.cfi_startproc
 2649              		@ args = 0, pretend = 0, frame = 0
 2650              		@ frame_needed = 0, uses_anonymous_args = 0
 2651              		.loc 1 759 1 is_stmt 0 view .LVU827
 2652 0000 F8B5     		push	{r3, r4, r5, r6, r7, lr}
 2653              		.cfi_def_cfa_offset 24
 2654              		.cfi_offset 3, -24
 2655              		.cfi_offset 4, -20
 2656              		.cfi_offset 5, -16
 2657              		.cfi_offset 6, -12
 2658              		.cfi_offset 7, -8
 2659              		.cfi_offset 14, -4
 2660 0002 0446     		mov	r4, r0
 2661 0004 0D46     		mov	r5, r1
 2662 0006 1646     		mov	r6, r2
 2663 0008 1F46     		mov	r7, r3
 760:core/src/kmesg.c **** 	RK_CR_AREA
 2664              		.loc 1 760 2 is_stmt 1 view .LVU828
 761:core/src/kmesg.c **** 
 762:core/src/kmesg.c **** 	RK_CR_ENTER
 2665              		.loc 1 762 2 view .LVU829
 2666 000a FFF7FEFF 		bl	kEnterCR
 2667              	.LVL251:
 763:core/src/kmesg.c **** 
 764:core/src/kmesg.c **** 	if ((kobj == NULL) || (buf == NULL))
 2668              		.loc 1 764 2 view .LVU830
 2669              		.loc 1 764 5 is_stmt 0 view .LVU831
 2670 000e 002C     		cmp	r4, #0
 2671 0010 2ED0     		beq	.L182
 2672              		.loc 1 764 21 discriminator 1 view .LVU832
 2673 0012 002D     		cmp	r5, #0
 2674 0014 2CD0     		beq	.L182
 765:core/src/kmesg.c **** 	{
 766:core/src/kmesg.c **** 		RK_CR_EXIT
 767:core/src/kmesg.c **** 		return (RK_ERR_OBJ_NULL);
 768:core/src/kmesg.c **** 	}
 769:core/src/kmesg.c **** 	if (mesgSizeInWords == 0)
 2675              		.loc 1 769 2 is_stmt 1 view .LVU833
 2676              		.loc 1 769 5 is_stmt 0 view .LVU834
 2677 0016 002E     		cmp	r6, #0
 2678 0018 2FD0     		beq	.L190
 770:core/src/kmesg.c **** 	{
 771:core/src/kmesg.c **** 		RK_CR_EXIT
 772:core/src/kmesg.c **** 		return (RK_ERR_INVALID_MESG_SIZE);
 773:core/src/kmesg.c **** 	}
 774:core/src/kmesg.c **** 	if ((mesgSizeInWords != 1UL) && (mesgSizeInWords != 2UL))
 2679              		.loc 1 774 2 is_stmt 1 view .LVU835
 2680              		.loc 1 774 31 is_stmt 0 view .LVU836
 2681 001a 731E     		subs	r3, r6, #1
 2682              		.loc 1 774 5 view .LVU837
 2683 001c 012B     		cmp	r3, #1
 2684 001e 02D9     		bls	.L186
ARM GAS  /var/folders/fg/4fzv35n91mbcgx4z5jzqdsl40000gn/T//ccsuUsPw.s 			page 75


 775:core/src/kmesg.c **** 	{
 776:core/src/kmesg.c **** 		/* allowed sizes, 1, 2, 4, 8... 2^N */
 777:core/src/kmesg.c **** 		if (mesgSizeInWords % 4UL != 0UL)
 2685              		.loc 1 777 3 is_stmt 1 view .LVU838
 2686              		.loc 1 777 6 is_stmt 0 view .LVU839
 2687 0020 16F0030F 		tst	r6, #3
 2688 0024 2ED1     		bne	.L191
 2689              	.L186:
 778:core/src/kmesg.c **** 		{
 779:core/src/kmesg.c **** 			RK_CR_EXIT
 780:core/src/kmesg.c **** 			return (RK_ERR_INVALID_MESG_SIZE);
 781:core/src/kmesg.c **** 
 782:core/src/kmesg.c **** 		}
 783:core/src/kmesg.c **** 	}
 784:core/src/kmesg.c **** 
 785:core/src/kmesg.c **** 	if (nMesg == 0)
 2690              		.loc 1 785 2 is_stmt 1 view .LVU840
 2691              		.loc 1 785 5 is_stmt 0 view .LVU841
 2692 0026 002F     		cmp	r7, #0
 2693 0028 31D0     		beq	.L192
 786:core/src/kmesg.c **** 	{
 787:core/src/kmesg.c **** 		RK_CR_EXIT
 788:core/src/kmesg.c **** 		return (RK_ERR_INVALID_QUEUE_SIZE);
 789:core/src/kmesg.c **** 	}
 790:core/src/kmesg.c **** 	ULONG queueCapacityWords = nMesg * mesgSizeInWords;
 2694              		.loc 1 790 2 is_stmt 1 view .LVU842
 2695              		.loc 1 790 8 is_stmt 0 view .LVU843
 2696 002a 07FB06F2 		mul	r2, r7, r6
 2697              	.LVL252:
 791:core/src/kmesg.c **** 
 792:core/src/kmesg.c **** 	kobj->bufPtr = (ULONG*) buf;/* base pointer to the buffer */
 2698              		.loc 1 792 2 is_stmt 1 view .LVU844
 2699              		.loc 1 792 15 is_stmt 0 view .LVU845
 2700 002e 6561     		str	r5, [r4, #20]
 793:core/src/kmesg.c **** 	kobj->mesgSize = mesgSizeInWords;/* message size in words */
 2701              		.loc 1 793 2 is_stmt 1 view .LVU846
 2702              		.loc 1 793 17 is_stmt 0 view .LVU847
 2703 0030 A660     		str	r6, [r4, #8]
 794:core/src/kmesg.c **** 	kobj->maxMesg = nMesg;/* maximum number of messages */
 2704              		.loc 1 794 2 is_stmt 1 view .LVU848
 2705              		.loc 1 794 16 is_stmt 0 view .LVU849
 2706 0032 E760     		str	r7, [r4, #12]
 795:core/src/kmesg.c **** 	kobj->mesgCnt = 0;
 2707              		.loc 1 795 2 is_stmt 1 view .LVU850
 2708              		.loc 1 795 16 is_stmt 0 view .LVU851
 2709 0034 0023     		movs	r3, #0
 2710 0036 2361     		str	r3, [r4, #16]
 796:core/src/kmesg.c **** 	kobj->writePtr = kobj->bufPtr;/* start write pointer */
 2711              		.loc 1 796 2 is_stmt 1 view .LVU852
 2712              		.loc 1 796 17 is_stmt 0 view .LVU853
 2713 0038 A561     		str	r5, [r4, #24]
 797:core/src/kmesg.c **** 	kobj->readPtr = kobj->bufPtr;/* start read pointer (same as wrt) */
 2714              		.loc 1 797 2 is_stmt 1 view .LVU854
 2715              		.loc 1 797 16 is_stmt 0 view .LVU855
 2716 003a E561     		str	r5, [r4, #28]
 798:core/src/kmesg.c **** 	kobj->ownerTask = NULL;
 2717              		.loc 1 798 2 is_stmt 1 view .LVU856
ARM GAS  /var/folders/fg/4fzv35n91mbcgx4z5jzqdsl40000gn/T//ccsuUsPw.s 			page 76


 2718              		.loc 1 798 18 is_stmt 0 view .LVU857
 2719 003c 6362     		str	r3, [r4, #36]
 799:core/src/kmesg.c **** 	/* end of the buffer in word units */
 800:core/src/kmesg.c **** 	kobj->bufEndPtr = kobj->bufPtr + queueCapacityWords;
 2720              		.loc 1 800 2 is_stmt 1 view .LVU858
 2721              		.loc 1 800 33 is_stmt 0 view .LVU859
 2722 003e 05EB8205 		add	r5, r5, r2, lsl #2
 2723              	.LVL253:
 2724              		.loc 1 800 18 view .LVU860
 2725 0042 2562     		str	r5, [r4, #32]
 801:core/src/kmesg.c **** 
 802:core/src/kmesg.c **** 	RK_ERR err = kListInit( &kobj->waitingQueue, "waitingQueue");
 2726              		.loc 1 802 2 is_stmt 1 view .LVU861
 2727              	.LVL254:
 2728              	.LBB52:
 2729              	.LBI52:
  60:arch/armv7m/kernel/inc/ksch.h ****         CHAR* listName)
 2730              		.loc 2 60 53 view .LVU862
 2731              	.LBB53:
  63:arch/armv7m/kernel/inc/ksch.h ****     {
 2732              		.loc 2 63 5 view .LVU863
  63:arch/armv7m/kernel/inc/ksch.h ****     {
 2733              		.loc 2 63 8 is_stmt 0 view .LVU864
 2734 0044 14F1280F 		cmn	r4, #40
 2735 0048 25D0     		beq	.L193
  67:arch/armv7m/kernel/inc/ksch.h ****     kobj->listDummy.prevPtr = & (kobj->listDummy);
 2736              		.loc 2 67 5 is_stmt 1 view .LVU865
  67:arch/armv7m/kernel/inc/ksch.h ****     kobj->listDummy.prevPtr = & (kobj->listDummy);
 2737              		.loc 2 67 31 is_stmt 0 view .LVU866
 2738 004a 04F12803 		add	r3, r4, #40
 2739              	.LVL255:
  67:arch/armv7m/kernel/inc/ksch.h ****     kobj->listDummy.prevPtr = & (kobj->listDummy);
 2740              		.loc 2 67 29 view .LVU867
 2741 004e A362     		str	r3, [r4, #40]
  68:arch/armv7m/kernel/inc/ksch.h ****     kobj->listName = listName;
 2742              		.loc 2 68 5 is_stmt 1 view .LVU868
  68:arch/armv7m/kernel/inc/ksch.h ****     kobj->listName = listName;
 2743              		.loc 2 68 29 is_stmt 0 view .LVU869
 2744 0050 E362     		str	r3, [r4, #44]
  69:arch/armv7m/kernel/inc/ksch.h ****     kobj->size = 0U;
 2745              		.loc 2 69 5 is_stmt 1 view .LVU870
  69:arch/armv7m/kernel/inc/ksch.h ****     kobj->size = 0U;
 2746              		.loc 2 69 20 is_stmt 0 view .LVU871
 2747 0052 134B     		ldr	r3, .L194
 2748              	.LVL256:
  69:arch/armv7m/kernel/inc/ksch.h ****     kobj->size = 0U;
 2749              		.loc 2 69 20 view .LVU872
 2750 0054 2363     		str	r3, [r4, #48]
  70:arch/armv7m/kernel/inc/ksch.h ****     kobj->init=TRUE;
 2751              		.loc 2 70 5 is_stmt 1 view .LVU873
  70:arch/armv7m/kernel/inc/ksch.h ****     kobj->init=TRUE;
 2752              		.loc 2 70 16 is_stmt 0 view .LVU874
 2753 0056 0025     		movs	r5, #0
 2754 0058 6563     		str	r5, [r4, #52]
  71:arch/armv7m/kernel/inc/ksch.h ****     _RK_DMB/*guarantee data is updated before going*/
 2755              		.loc 2 71 5 is_stmt 1 view .LVU875
  71:arch/armv7m/kernel/inc/ksch.h ****     _RK_DMB/*guarantee data is updated before going*/
ARM GAS  /var/folders/fg/4fzv35n91mbcgx4z5jzqdsl40000gn/T//ccsuUsPw.s 			page 77


 2756              		.loc 2 71 15 is_stmt 0 view .LVU876
 2757 005a 0123     		movs	r3, #1
 2758 005c A363     		str	r3, [r4, #56]
  72:arch/armv7m/kernel/inc/ksch.h ****     return (RK_SUCCESS);
 2759              		.loc 2 72 5 is_stmt 1 view .LVU877
 2760              		.syntax unified
 2761              	@ 72 "arch/armv7m/kernel/inc/ksch.h" 1
 2762 005e BFF35F8F 		dmb 0xF
 2763              	@ 0 "" 2
 2764              		.loc 2 73 5 view .LVU878
 2765              	.LVL257:
 2766              		.loc 2 73 5 is_stmt 0 view .LVU879
 2767              		.thumb
 2768              		.syntax unified
 2769              	.LBE53:
 2770              	.LBE52:
 803:core/src/kmesg.c **** 	if (err != 0)
 2771              		.loc 1 803 2 is_stmt 1 view .LVU880
 804:core/src/kmesg.c **** 	{
 805:core/src/kmesg.c **** 		RK_CR_EXIT
 806:core/src/kmesg.c **** 		return RK_ERROR;
 807:core/src/kmesg.c **** 	}
 808:core/src/kmesg.c **** 
 809:core/src/kmesg.c **** 	kobj->init = 1;
 2772              		.loc 1 809 2 view .LVU881
 2773              		.loc 1 809 13 is_stmt 0 view .LVU882
 2774 0062 6360     		str	r3, [r4, #4]
 810:core/src/kmesg.c **** 	kobj->objID = RK_STREAMQUEUE_KOBJ_ID;
 2775              		.loc 1 810 2 is_stmt 1 view .LVU883
 2776              		.loc 1 810 14 is_stmt 0 view .LVU884
 2777 0064 0623     		movs	r3, #6
 2778 0066 2360     		str	r3, [r4]
 811:core/src/kmesg.c **** 	RK_CR_EXIT
 2779              		.loc 1 811 2 is_stmt 1 view .LVU885
 2780 0068 FFF7FEFF 		bl	kExitCR
 2781              	.LVL258:
 812:core/src/kmesg.c **** 
 813:core/src/kmesg.c **** 	return RK_SUCCESS;
 2782              		.loc 1 813 2 view .LVU886
 2783              		.loc 1 813 9 is_stmt 0 view .LVU887
 2784 006c 2846     		mov	r0, r5
 2785              	.LVL259:
 2786              	.L181:
 814:core/src/kmesg.c **** }
 2787              		.loc 1 814 1 view .LVU888
 2788 006e F8BD     		pop	{r3, r4, r5, r6, r7, pc}
 2789              	.LVL260:
 2790              	.L182:
 766:core/src/kmesg.c **** 		return (RK_ERR_OBJ_NULL);
 2791              		.loc 1 766 3 is_stmt 1 view .LVU889
 2792 0070 FFF7FEFF 		bl	kExitCR
 2793              	.LVL261:
 767:core/src/kmesg.c **** 	}
 2794              		.loc 1 767 3 view .LVU890
 767:core/src/kmesg.c **** 	}
 2795              		.loc 1 767 10 is_stmt 0 view .LVU891
 2796 0074 6FF06300 		mvn	r0, #99
ARM GAS  /var/folders/fg/4fzv35n91mbcgx4z5jzqdsl40000gn/T//ccsuUsPw.s 			page 78


 2797 0078 F9E7     		b	.L181
 2798              	.LVL262:
 2799              	.L190:
 771:core/src/kmesg.c **** 		return (RK_ERR_INVALID_MESG_SIZE);
 2800              		.loc 1 771 3 is_stmt 1 view .LVU892
 2801 007a FFF7FEFF 		bl	kExitCR
 2802              	.LVL263:
 772:core/src/kmesg.c **** 	}
 2803              		.loc 1 772 3 view .LVU893
 772:core/src/kmesg.c **** 	}
 2804              		.loc 1 772 10 is_stmt 0 view .LVU894
 2805 007e 6FF4CB70 		mvn	r0, #406
 2806 0082 F4E7     		b	.L181
 2807              	.LVL264:
 2808              	.L191:
 779:core/src/kmesg.c **** 			return (RK_ERR_INVALID_MESG_SIZE);
 2809              		.loc 1 779 4 is_stmt 1 view .LVU895
 2810 0084 FFF7FEFF 		bl	kExitCR
 2811              	.LVL265:
 780:core/src/kmesg.c **** 
 2812              		.loc 1 780 4 view .LVU896
 780:core/src/kmesg.c **** 
 2813              		.loc 1 780 11 is_stmt 0 view .LVU897
 2814 0088 6FF4CB70 		mvn	r0, #406
 2815 008c EFE7     		b	.L181
 2816              	.LVL266:
 2817              	.L192:
 787:core/src/kmesg.c **** 		return (RK_ERR_INVALID_QUEUE_SIZE);
 2818              		.loc 1 787 3 is_stmt 1 view .LVU898
 2819 008e FFF7FEFF 		bl	kExitCR
 2820              	.LVL267:
 788:core/src/kmesg.c **** 	}
 2821              		.loc 1 788 3 view .LVU899
 788:core/src/kmesg.c **** 	}
 2822              		.loc 1 788 10 is_stmt 0 view .LVU900
 2823 0092 0448     		ldr	r0, .L194+4
 2824 0094 EBE7     		b	.L181
 2825              	.LVL268:
 2826              	.L193:
 803:core/src/kmesg.c **** 	{
 2827              		.loc 1 803 2 is_stmt 1 view .LVU901
 805:core/src/kmesg.c **** 		return RK_ERROR;
 2828              		.loc 1 805 3 view .LVU902
 2829 0096 FFF7FEFF 		bl	kExitCR
 2830              	.LVL269:
 806:core/src/kmesg.c **** 	}
 2831              		.loc 1 806 3 view .LVU903
 806:core/src/kmesg.c **** 	}
 2832              		.loc 1 806 10 is_stmt 0 view .LVU904
 2833 009a 4FF0FF30 		mov	r0, #-1
 2834 009e E6E7     		b	.L181
 2835              	.L195:
 2836              		.align	2
 2837              	.L194:
 2838 00a0 00000000 		.word	.LC2
 2839 00a4 70FEFFFF 		.word	-400
 2840              		.cfi_endproc
ARM GAS  /var/folders/fg/4fzv35n91mbcgx4z5jzqdsl40000gn/T//ccsuUsPw.s 			page 79


 2841              	.LFE68:
 2843              		.section	.text.kStreamSetOwner,"ax",%progbits
 2844              		.align	1
 2845              		.global	kStreamSetOwner
 2846              		.syntax unified
 2847              		.thumb
 2848              		.thumb_func
 2850              	kStreamSetOwner:
 2851              	.LVL270:
 2852              	.LFB69:
 815:core/src/kmesg.c **** 
 816:core/src/kmesg.c **** RK_ERR kStreamSetOwner( RK_STREAM *const kobj, RK_TASK_HANDLE const taskHandle)
 817:core/src/kmesg.c **** {
 2853              		.loc 1 817 1 is_stmt 1 view -0
 2854              		.cfi_startproc
 2855              		@ args = 0, pretend = 0, frame = 0
 2856              		@ frame_needed = 0, uses_anonymous_args = 0
 2857              		.loc 1 817 1 is_stmt 0 view .LVU906
 2858 0000 38B5     		push	{r3, r4, r5, lr}
 2859              		.cfi_def_cfa_offset 16
 2860              		.cfi_offset 3, -16
 2861              		.cfi_offset 4, -12
 2862              		.cfi_offset 5, -8
 2863              		.cfi_offset 14, -4
 2864 0002 0446     		mov	r4, r0
 2865 0004 0D46     		mov	r5, r1
 818:core/src/kmesg.c **** 	RK_CR_AREA
 2866              		.loc 1 818 2 is_stmt 1 view .LVU907
 819:core/src/kmesg.c **** 	RK_CR_ENTER
 2867              		.loc 1 819 2 view .LVU908
 2868 0006 FFF7FEFF 		bl	kEnterCR
 2869              	.LVL271:
 820:core/src/kmesg.c **** 	if (kobj && taskHandle)
 2870              		.loc 1 820 2 view .LVU909
 2871              		.loc 1 820 5 is_stmt 0 view .LVU910
 2872 000a 2CB1     		cbz	r4, .L197
 2873              		.loc 1 820 11 discriminator 1 view .LVU911
 2874 000c 25B1     		cbz	r5, .L197
 821:core/src/kmesg.c **** 	{
 822:core/src/kmesg.c **** 		kobj->ownerTask = taskHandle;
 2875              		.loc 1 822 3 is_stmt 1 view .LVU912
 2876              		.loc 1 822 19 is_stmt 0 view .LVU913
 2877 000e 6562     		str	r5, [r4, #36]
 823:core/src/kmesg.c **** 		RK_CR_EXIT
 2878              		.loc 1 823 3 is_stmt 1 view .LVU914
 2879 0010 FFF7FEFF 		bl	kExitCR
 2880              	.LVL272:
 824:core/src/kmesg.c **** 		return (RK_SUCCESS);
 2881              		.loc 1 824 3 view .LVU915
 2882              		.loc 1 824 10 is_stmt 0 view .LVU916
 2883 0014 0020     		movs	r0, #0
 2884              	.L196:
 825:core/src/kmesg.c **** 	}
 826:core/src/kmesg.c **** 	RK_CR_EXIT
 827:core/src/kmesg.c **** 	return (RK_ERR_OBJ_NULL);
 828:core/src/kmesg.c **** }
 2885              		.loc 1 828 1 view .LVU917
ARM GAS  /var/folders/fg/4fzv35n91mbcgx4z5jzqdsl40000gn/T//ccsuUsPw.s 			page 80


 2886 0016 38BD     		pop	{r3, r4, r5, pc}
 2887              	.LVL273:
 2888              	.L197:
 826:core/src/kmesg.c **** 	return (RK_ERR_OBJ_NULL);
 2889              		.loc 1 826 2 is_stmt 1 view .LVU918
 2890 0018 FFF7FEFF 		bl	kExitCR
 2891              	.LVL274:
 827:core/src/kmesg.c **** }
 2892              		.loc 1 827 2 view .LVU919
 827:core/src/kmesg.c **** }
 2893              		.loc 1 827 9 is_stmt 0 view .LVU920
 2894 001c 6FF06300 		mvn	r0, #99
 2895 0020 F9E7     		b	.L196
 2896              		.cfi_endproc
 2897              	.LFE69:
 2899              		.section	.text.kStreamSend,"ax",%progbits
 2900              		.align	1
 2901              		.global	kStreamSend
 2902              		.syntax unified
 2903              		.thumb
 2904              		.thumb_func
 2906              	kStreamSend:
 2907              	.LVL275:
 2908              	.LFB70:
 829:core/src/kmesg.c **** 
 830:core/src/kmesg.c **** RK_ERR kStreamSend( RK_STREAM *const kobj, VOID *sendPtr,
 831:core/src/kmesg.c **** 		const RK_TICK timeout)
 832:core/src/kmesg.c **** {
 2909              		.loc 1 832 1 is_stmt 1 view -0
 2910              		.cfi_startproc
 2911              		@ args = 0, pretend = 0, frame = 8
 2912              		@ frame_needed = 0, uses_anonymous_args = 0
 2913              		.loc 1 832 1 is_stmt 0 view .LVU922
 2914 0000 2DE9F041 		push	{r4, r5, r6, r7, r8, lr}
 2915              		.cfi_def_cfa_offset 24
 2916              		.cfi_offset 4, -24
 2917              		.cfi_offset 5, -20
 2918              		.cfi_offset 6, -16
 2919              		.cfi_offset 7, -12
 2920              		.cfi_offset 8, -8
 2921              		.cfi_offset 14, -4
 2922 0004 82B0     		sub	sp, sp, #8
 2923              		.cfi_def_cfa_offset 32
 2924 0006 0546     		mov	r5, r0
 2925 0008 0C46     		mov	r4, r1
 2926 000a 1746     		mov	r7, r2
 833:core/src/kmesg.c **** 	RK_CR_AREA
 2927              		.loc 1 833 2 is_stmt 1 view .LVU923
 834:core/src/kmesg.c **** 	RK_CR_ENTER
 2928              		.loc 1 834 2 view .LVU924
 2929 000c FFF7FEFF 		bl	kEnterCR
 2930              	.LVL276:
 2931              		.loc 1 834 2 is_stmt 0 view .LVU925
 2932 0010 0646     		mov	r6, r0
 2933              	.LVL277:
 835:core/src/kmesg.c **** 	if ((kobj == NULL) || (sendPtr == NULL) || (kobj->init == 0))
 2934              		.loc 1 835 2 is_stmt 1 view .LVU926
ARM GAS  /var/folders/fg/4fzv35n91mbcgx4z5jzqdsl40000gn/T//ccsuUsPw.s 			page 81


 2935              		.loc 1 835 5 is_stmt 0 view .LVU927
 2936 0012 002D     		cmp	r5, #0
 2937 0014 3DD0     		beq	.L201
 2938              		.loc 1 835 21 discriminator 1 view .LVU928
 2939 0016 002C     		cmp	r4, #0
 2940 0018 3BD0     		beq	.L201
 2941              		.loc 1 835 50 discriminator 2 view .LVU929
 2942 001a 6B68     		ldr	r3, [r5, #4]
 2943              		.loc 1 835 42 discriminator 2 view .LVU930
 2944 001c 002B     		cmp	r3, #0
 2945 001e 38D0     		beq	.L201
 836:core/src/kmesg.c **** 	{
 837:core/src/kmesg.c **** 		RK_CR_EXIT
 838:core/src/kmesg.c **** 		return (RK_ERR_OBJ_NULL);
 839:core/src/kmesg.c **** 	}
 840:core/src/kmesg.c **** 	if (RK_IS_BLOCK_ON_ISR( timeout))
 2946              		.loc 1 840 2 is_stmt 1 view .LVU931
 2947              	.LBB54:
 2948              	.LBI54:
 308:arch/armv7m/kernel/inc/kdefs.h **** {
 2949              		.loc 3 308 10 view .LVU932
 2950              	.LBB55:
 310:arch/armv7m/kernel/inc/kdefs.h ****     __ASM ("MRS %0, IPSR" : "=r"(ipsr_value));
 2951              		.loc 3 310 5 view .LVU933
 311:arch/armv7m/kernel/inc/kdefs.h ****     __ASM volatile ("dmb 0xF":::"memory");
 2952              		.loc 3 311 5 view .LVU934
 2953              		.syntax unified
 2954              	@ 311 "arch/armv7m/kernel/inc/kdefs.h" 1
 2955 0020 EFF30583 		MRS r3, IPSR
 2956              	@ 0 "" 2
 312:arch/armv7m/kernel/inc/kdefs.h ****     return (ipsr_value);
 2957              		.loc 3 312 5 view .LVU935
 2958              	@ 312 "arch/armv7m/kernel/inc/kdefs.h" 1
 2959 0024 BFF35F8F 		dmb 0xF
 2960              	@ 0 "" 2
 2961              		.loc 3 313 5 view .LVU936
 2962              		.thumb
 2963              		.syntax unified
 2964              	.LBE55:
 2965              	.LBE54:
 2966              		.loc 1 840 5 is_stmt 0 view .LVU937
 2967 0028 0BB1     		cbz	r3, .L204
 2968              		.loc 1 840 6 discriminator 1 view .LVU938
 2969 002a 002F     		cmp	r7, #0
 2970 002c 37DC     		bgt	.L217
 2971              	.LVL278:
 2972              	.L204:
 841:core/src/kmesg.c **** 	{
 842:core/src/kmesg.c **** 		RK_CR_EXIT
 843:core/src/kmesg.c **** 		KERR( RK_FAULT_INVALID_ISR_PRIMITIVE);
 844:core/src/kmesg.c **** 	}
 845:core/src/kmesg.c **** 	if (kobj->mesgCnt >= kobj->maxMesg)
 2973              		.loc 1 845 2 is_stmt 1 view .LVU939
 2974              		.loc 1 845 10 is_stmt 0 view .LVU940
 2975 002e 2A69     		ldr	r2, [r5, #16]
 2976              		.loc 1 845 27 view .LVU941
 2977 0030 EB68     		ldr	r3, [r5, #12]
ARM GAS  /var/folders/fg/4fzv35n91mbcgx4z5jzqdsl40000gn/T//ccsuUsPw.s 			page 82


 2978              		.loc 1 845 5 view .LVU942
 2979 0032 9A42     		cmp	r2, r3
 2980 0034 2AD3     		bcc	.L205
 846:core/src/kmesg.c **** 	{/* Stream full */
 847:core/src/kmesg.c **** 		if (timeout == RK_NO_WAIT)
 2981              		.loc 1 847 3 is_stmt 1 view .LVU943
 2982              		.loc 1 847 6 is_stmt 0 view .LVU944
 2983 0036 002F     		cmp	r7, #0
 2984 0038 38D0     		beq	.L218
 848:core/src/kmesg.c **** 		{
 849:core/src/kmesg.c **** 			RK_CR_EXIT
 850:core/src/kmesg.c **** 			return (RK_ERR_STREAM_FULL);
 851:core/src/kmesg.c **** 		}
 852:core/src/kmesg.c **** 		runPtr->status = RK_SENDING;
 2985              		.loc 1 852 3 is_stmt 1 view .LVU945
 2986              		.loc 1 852 9 is_stmt 0 view .LVU946
 2987 003a 4D4B     		ldr	r3, .L224
 2988 003c 1868     		ldr	r0, [r3]
 2989              		.loc 1 852 18 view .LVU947
 2990 003e 3323     		movs	r3, #51
 2991 0040 4360     		str	r3, [r0, #4]
 853:core/src/kmesg.c **** 
 854:core/src/kmesg.c **** 		if (kobj->ownerTask->priority > runPtr->priority)
 2992              		.loc 1 854 3 is_stmt 1 view .LVU948
 2993              		.loc 1 854 11 is_stmt 0 view .LVU949
 2994 0042 6B6A     		ldr	r3, [r5, #36]
 2995              		.loc 1 854 22 view .LVU950
 2996 0044 597F     		ldrb	r1, [r3, #29]	@ zero_extendqisi2
 2997              		.loc 1 854 41 view .LVU951
 2998 0046 427F     		ldrb	r2, [r0, #29]	@ zero_extendqisi2
 2999              		.loc 1 854 6 view .LVU952
 3000 0048 9142     		cmp	r1, r2
 3001 004a 00D9     		bls	.L207
 855:core/src/kmesg.c **** 		{
 856:core/src/kmesg.c **** 			kobj->ownerTask->priority = runPtr->priority;
 3002              		.loc 1 856 4 is_stmt 1 view .LVU953
 3003              		.loc 1 856 30 is_stmt 0 view .LVU954
 3004 004c 5A77     		strb	r2, [r3, #29]
 3005              	.L207:
 857:core/src/kmesg.c **** 		}
 858:core/src/kmesg.c **** 		if ((timeout > RK_NO_WAIT) && (timeout != RK_WAIT_FOREVER))
 3006              		.loc 1 858 3 is_stmt 1 view .LVU955
 3007              		.loc 1 858 6 is_stmt 0 view .LVU956
 3008 004e 002F     		cmp	r7, #0
 3009 0050 31DC     		bgt	.L219
 3010              	.L208:
 859:core/src/kmesg.c **** 		{
 860:core/src/kmesg.c **** 			RK_TASK_TIMEOUT_WAITINGQUEUE_SETUP
 861:core/src/kmesg.c **** 
 862:core/src/kmesg.c **** 			kTimeOut( &runPtr->timeoutNode, timeout);
 863:core/src/kmesg.c **** 
 864:core/src/kmesg.c **** 		}
 865:core/src/kmesg.c **** 		kTCBQEnqByPrio( &kobj->waitingQueue, runPtr);
 3011              		.loc 1 865 3 is_stmt 1 view .LVU957
 3012 0052 DFF81C81 		ldr	r8, .L224
 3013 0056 D8F80010 		ldr	r1, [r8]
 3014 005a 05F12800 		add	r0, r5, #40
ARM GAS  /var/folders/fg/4fzv35n91mbcgx4z5jzqdsl40000gn/T//ccsuUsPw.s 			page 83


 3015 005e FFF7FEFF 		bl	kTCBQEnqByPrio
 3016              	.LVL279:
 866:core/src/kmesg.c **** 		RK_PEND_CTXTSWTCH
 3017              		.loc 1 866 3 view .LVU958
 3018 0062 444A     		ldr	r2, .L224+4
 3019 0064 5368     		ldr	r3, [r2, #4]
 3020 0066 43F08053 		orr	r3, r3, #268435456
 3021 006a 5360     		str	r3, [r2, #4]
 3022              		.loc 1 866 3 view .LVU959
 3023              		.syntax unified
 3024              	@ 866 "core/src/kmesg.c" 1
 3025 006c BFF34F8F 		dsb 0xF
 3026              	@ 0 "" 2
 3027              		.loc 1 866 3 view .LVU960
 3028              	@ 866 "core/src/kmesg.c" 1
 3029 0070 BFF36F8F 		isb 0xF
 3030              	@ 0 "" 2
 867:core/src/kmesg.c **** 		RK_CR_EXIT
 3031              		.loc 1 867 3 view .LVU961
 3032              		.thumb
 3033              		.syntax unified
 3034 0074 3046     		mov	r0, r6
 3035 0076 FFF7FEFF 		bl	kExitCR
 3036              	.LVL280:
 868:core/src/kmesg.c **** 		RK_CR_ENTER
 3037              		.loc 1 868 3 view .LVU962
 3038 007a FFF7FEFF 		bl	kEnterCR
 3039              	.LVL281:
 3040 007e 0646     		mov	r6, r0
 3041              	.LVL282:
 869:core/src/kmesg.c **** 		if (runPtr->timeOut)
 3042              		.loc 1 869 3 view .LVU963
 3043              		.loc 1 869 13 is_stmt 0 view .LVU964
 3044 0080 D8F80000 		ldr	r0, [r8]
 3045              	.LVL283:
 3046              		.loc 1 869 13 view .LVU965
 3047 0084 836B     		ldr	r3, [r0, #56]
 3048              		.loc 1 869 6 view .LVU966
 3049 0086 03BB     		cbnz	r3, .L220
 870:core/src/kmesg.c **** 		{
 871:core/src/kmesg.c **** 			runPtr->timeOut = FALSE;
 872:core/src/kmesg.c **** 			RK_CR_EXIT
 873:core/src/kmesg.c **** 			return (RK_ERR_TIMEOUT);
 874:core/src/kmesg.c **** 		}
 875:core/src/kmesg.c **** 		if ((timeout > RK_NO_WAIT) && (timeout != RK_WAIT_FOREVER))
 3050              		.loc 1 875 3 is_stmt 1 view .LVU967
 3051              		.loc 1 875 6 is_stmt 0 view .LVU968
 3052 0088 002F     		cmp	r7, #0
 3053 008a 26DC     		bgt	.L221
 3054              	.L205:
 876:core/src/kmesg.c **** 			kRemoveTimeoutNode( &runPtr->timeoutNode);
 877:core/src/kmesg.c **** 	}
 878:core/src/kmesg.c **** 
 879:core/src/kmesg.c **** 	ULONG size = kobj->mesgSize;/* number of words to copy */
 3055              		.loc 1 879 2 is_stmt 1 view .LVU969
 3056              		.loc 1 879 8 is_stmt 0 view .LVU970
 3057 008c AA68     		ldr	r2, [r5, #8]
ARM GAS  /var/folders/fg/4fzv35n91mbcgx4z5jzqdsl40000gn/T//ccsuUsPw.s 			page 84


 3058              	.LVL284:
 880:core/src/kmesg.c **** 	ULONG *srcPtr = (ULONG*) sendPtr;
 3059              		.loc 1 880 2 is_stmt 1 view .LVU971
 881:core/src/kmesg.c **** 	ULONG *dstPtr = kobj->writePtr;
 3060              		.loc 1 881 2 view .LVU972
 3061              		.loc 1 881 9 is_stmt 0 view .LVU973
 3062 008e AB69     		ldr	r3, [r5, #24]
 3063              	.LVL285:
 882:core/src/kmesg.c **** 	RK_CPYQ( srcPtr, dstPtr, size);
 3064              		.loc 1 882 2 is_stmt 1 view .LVU974
 3065              		.loc 1 882 2 view .LVU975
 3066 0090 2DE0     		b	.L210
 3067              	.LVL286:
 3068              	.L201:
 837:core/src/kmesg.c **** 		return (RK_ERR_OBJ_NULL);
 3069              		.loc 1 837 3 view .LVU976
 3070 0092 3046     		mov	r0, r6
 3071              	.LVL287:
 837:core/src/kmesg.c **** 		return (RK_ERR_OBJ_NULL);
 3072              		.loc 1 837 3 is_stmt 0 view .LVU977
 3073 0094 FFF7FEFF 		bl	kExitCR
 3074              	.LVL288:
 838:core/src/kmesg.c **** 	}
 3075              		.loc 1 838 3 is_stmt 1 view .LVU978
 838:core/src/kmesg.c **** 	}
 3076              		.loc 1 838 10 is_stmt 0 view .LVU979
 3077 0098 6FF06300 		mvn	r0, #99
 3078 009c 41E0     		b	.L200
 3079              	.LVL289:
 3080              	.L217:
 842:core/src/kmesg.c **** 		KERR( RK_FAULT_INVALID_ISR_PRIMITIVE);
 3081              		.loc 1 842 3 is_stmt 1 view .LVU980
 3082 009e FFF7FEFF 		bl	kExitCR
 3083              	.LVL290:
 843:core/src/kmesg.c **** 	}
 3084              		.loc 1 843 3 view .LVU981
 3085 00a2 6FF06E00 		mvn	r0, #110
 3086 00a6 FFF7FEFF 		bl	kErrHandler
 3087              	.LVL291:
 3088 00aa C0E7     		b	.L204
 3089              	.L218:
 849:core/src/kmesg.c **** 			return (RK_ERR_STREAM_FULL);
 3090              		.loc 1 849 4 view .LVU982
 3091 00ac 3046     		mov	r0, r6
 3092 00ae FFF7FEFF 		bl	kExitCR
 3093              	.LVL292:
 850:core/src/kmesg.c **** 		}
 3094              		.loc 1 850 4 view .LVU983
 850:core/src/kmesg.c **** 		}
 3095              		.loc 1 850 11 is_stmt 0 view .LVU984
 3096 00b2 3148     		ldr	r0, .L224+8
 3097 00b4 35E0     		b	.L200
 3098              	.L219:
 860:core/src/kmesg.c **** 
 3099              		.loc 1 860 4 is_stmt 1 view .LVU985
 3100 00b6 0123     		movs	r3, #1
 3101 00b8 C364     		str	r3, [r0, #76]
ARM GAS  /var/folders/fg/4fzv35n91mbcgx4z5jzqdsl40000gn/T//ccsuUsPw.s 			page 85


 860:core/src/kmesg.c **** 
 3102              		.loc 1 860 4 view .LVU986
 3103 00ba 05F12803 		add	r3, r5, #40
 3104 00be 8365     		str	r3, [r0, #88]
 862:core/src/kmesg.c **** 
 3105              		.loc 1 862 4 view .LVU987
 3106 00c0 3946     		mov	r1, r7
 3107 00c2 4430     		adds	r0, r0, #68
 3108 00c4 FFF7FEFF 		bl	kTimeOut
 3109              	.LVL293:
 3110 00c8 C3E7     		b	.L208
 3111              	.L220:
 871:core/src/kmesg.c **** 			RK_CR_EXIT
 3112              		.loc 1 871 4 view .LVU988
 871:core/src/kmesg.c **** 			RK_CR_EXIT
 3113              		.loc 1 871 20 is_stmt 0 view .LVU989
 3114 00ca 0023     		movs	r3, #0
 3115 00cc 8363     		str	r3, [r0, #56]
 872:core/src/kmesg.c **** 			return (RK_ERR_TIMEOUT);
 3116              		.loc 1 872 4 is_stmt 1 view .LVU990
 3117 00ce 3046     		mov	r0, r6
 3118 00d0 FFF7FEFF 		bl	kExitCR
 3119              	.LVL294:
 873:core/src/kmesg.c **** 		}
 3120              		.loc 1 873 4 view .LVU991
 873:core/src/kmesg.c **** 		}
 3121              		.loc 1 873 11 is_stmt 0 view .LVU992
 3122 00d4 6FF06B00 		mvn	r0, #107
 3123 00d8 23E0     		b	.L200
 3124              	.L221:
 876:core/src/kmesg.c **** 	}
 3125              		.loc 1 876 4 is_stmt 1 view .LVU993
 3126 00da 4430     		adds	r0, r0, #68
 3127 00dc FFF7FEFF 		bl	kRemoveTimeoutNode
 3128              	.LVL295:
 3129 00e0 D4E7     		b	.L205
 3130              	.LVL296:
 3131              	.L211:
 3132              		.loc 1 882 2 discriminator 2 view .LVU994
 3133 00e2 2146     		mov	r1, r4
 3134              	.LVL297:
 3135              		.loc 1 882 2 is_stmt 0 discriminator 2 view .LVU995
 3136 00e4 51F8040B 		ldr	r0, [r1], #4
 3137              	.LVL298:
 3138              		.loc 1 882 2 discriminator 2 view .LVU996
 3139 00e8 43F8040B 		str	r0, [r3], #4
 3140              	.LVL299:
 3141              		.loc 1 882 2 discriminator 2 view .LVU997
 3142 00ec 0C46     		mov	r4, r1
 3143              	.LVL300:
 3144              	.L210:
 3145              		.loc 1 882 2 is_stmt 1 discriminator 1 view .LVU998
 3146              		.loc 1 882 2 is_stmt 0 discriminator 1 view .LVU999
 3147 00ee 013A     		subs	r2, r2, #1
 3148              	.LVL301:
 3149              		.loc 1 882 2 discriminator 1 view .LVU1000
 3150 00f0 F7D1     		bne	.L211
ARM GAS  /var/folders/fg/4fzv35n91mbcgx4z5jzqdsl40000gn/T//ccsuUsPw.s 			page 86


 3151              		.loc 1 882 2 is_stmt 1 discriminator 3 view .LVU1001
 3152              	.LVL302:
 3153              		.loc 1 882 2 is_stmt 0 discriminator 3 view .LVU1002
 3154 00f2 2268     		ldr	r2, [r4]
 3155              	.LVL303:
 3156              		.loc 1 882 2 discriminator 3 view .LVU1003
 3157 00f4 43F8042B 		str	r2, [r3], #4
 3158              	.LVL304:
 3159              		.loc 1 882 2 is_stmt 1 discriminator 3 view .LVU1004
 3160              		.syntax unified
 3161              	@ 882 "core/src/kmesg.c" 1
 3162 00f8 BFF35F8F 		dmb 0xF
 3163              	@ 0 "" 2
 3164              		.loc 1 882 2 discriminator 3 view .LVU1005
 883:core/src/kmesg.c **** 	/*  wrap-around */
 884:core/src/kmesg.c **** 	if (dstPtr == kobj->bufEndPtr)
 3165              		.loc 1 884 2 discriminator 3 view .LVU1006
 3166              		.loc 1 884 20 is_stmt 0 discriminator 3 view .LVU1007
 3167              		.thumb
 3168              		.syntax unified
 3169 00fc 2A6A     		ldr	r2, [r5, #32]
 3170              		.loc 1 884 5 discriminator 3 view .LVU1008
 3171 00fe 9A42     		cmp	r2, r3
 3172 0100 12D0     		beq	.L222
 3173              	.L212:
 885:core/src/kmesg.c **** 	{
 886:core/src/kmesg.c **** 		dstPtr = kobj->bufPtr;
 887:core/src/kmesg.c **** 	}
 888:core/src/kmesg.c **** 
 889:core/src/kmesg.c **** 	kobj->writePtr = dstPtr;
 3174              		.loc 1 889 2 is_stmt 1 view .LVU1009
 3175              		.loc 1 889 17 is_stmt 0 view .LVU1010
 3176 0102 AB61     		str	r3, [r5, #24]
 890:core/src/kmesg.c **** 
 891:core/src/kmesg.c **** 	if (kobj->ownerTask != NULL)
 3177              		.loc 1 891 2 is_stmt 1 view .LVU1011
 3178              		.loc 1 891 10 is_stmt 0 view .LVU1012
 3179 0104 6B6A     		ldr	r3, [r5, #36]
 3180              	.LVL305:
 3181              		.loc 1 891 5 view .LVU1013
 3182 0106 0BB1     		cbz	r3, .L213
 892:core/src/kmesg.c **** 		kobj->ownerTask->priority = kobj->ownerTask->realPrio;
 3183              		.loc 1 892 3 is_stmt 1 view .LVU1014
 3184              		.loc 1 892 46 is_stmt 0 view .LVU1015
 3185 0108 9A7F     		ldrb	r2, [r3, #30]	@ zero_extendqisi2
 3186              		.loc 1 892 29 view .LVU1016
 3187 010a 5A77     		strb	r2, [r3, #29]
 3188              	.LVL306:
 3189              	.L213:
 893:core/src/kmesg.c **** 
 894:core/src/kmesg.c **** 	kobj->mesgCnt++;
 3190              		.loc 1 894 2 is_stmt 1 view .LVU1017
 3191              		.loc 1 894 6 is_stmt 0 view .LVU1018
 3192 010c 2B69     		ldr	r3, [r5, #16]
 3193              		.loc 1 894 15 view .LVU1019
 3194 010e 0133     		adds	r3, r3, #1
 3195 0110 2B61     		str	r3, [r5, #16]
ARM GAS  /var/folders/fg/4fzv35n91mbcgx4z5jzqdsl40000gn/T//ccsuUsPw.s 			page 87


 895:core/src/kmesg.c **** 
 896:core/src/kmesg.c **** 	/* unblock a reader, if any */
 897:core/src/kmesg.c **** 	if ((kobj->waitingQueue.size > 0) && (kobj->mesgCnt == 1))
 3196              		.loc 1 897 2 is_stmt 1 view .LVU1020
 3197              		.loc 1 897 25 is_stmt 0 view .LVU1021
 3198 0112 6A6B     		ldr	r2, [r5, #52]
 3199              		.loc 1 897 5 view .LVU1022
 3200 0114 0AB1     		cbz	r2, .L214
 3201              		.loc 1 897 36 discriminator 1 view .LVU1023
 3202 0116 012B     		cmp	r3, #1
 3203 0118 08D0     		beq	.L223
 3204              	.L214:
 898:core/src/kmesg.c **** 	{
 899:core/src/kmesg.c **** 		RK_TCB *freeTaskPtr;
 900:core/src/kmesg.c **** 		kTCBQDeq( &kobj->waitingQueue, &freeTaskPtr);
 901:core/src/kmesg.c **** 		kTCBQEnq( &readyQueue[freeTaskPtr->priority], freeTaskPtr);
 902:core/src/kmesg.c **** 
 903:core/src/kmesg.c **** 		freeTaskPtr->status = RK_READY;
 904:core/src/kmesg.c **** 		if (freeTaskPtr->priority < runPtr->priority)
 905:core/src/kmesg.c **** 			RK_PEND_CTXTSWTCH
 906:core/src/kmesg.c **** 	}
 907:core/src/kmesg.c **** 	RK_CR_EXIT
 3205              		.loc 1 907 2 is_stmt 1 view .LVU1024
 3206 011a 3046     		mov	r0, r6
 3207 011c FFF7FEFF 		bl	kExitCR
 3208              	.LVL307:
 908:core/src/kmesg.c **** 	return (RK_SUCCESS);
 3209              		.loc 1 908 2 view .LVU1025
 3210              		.loc 1 908 9 is_stmt 0 view .LVU1026
 3211 0120 0020     		movs	r0, #0
 3212              	.LVL308:
 3213              	.L200:
 909:core/src/kmesg.c **** }
 3214              		.loc 1 909 1 view .LVU1027
 3215 0122 02B0     		add	sp, sp, #8
 3216              		.cfi_remember_state
 3217              		.cfi_def_cfa_offset 24
 3218              		@ sp needed
 3219 0124 BDE8F081 		pop	{r4, r5, r6, r7, r8, pc}
 3220              	.LVL309:
 3221              	.L222:
 3222              		.cfi_restore_state
 886:core/src/kmesg.c **** 	}
 3223              		.loc 1 886 3 is_stmt 1 view .LVU1028
 886:core/src/kmesg.c **** 	}
 3224              		.loc 1 886 10 is_stmt 0 view .LVU1029
 3225 0128 6B69     		ldr	r3, [r5, #20]
 3226              	.LVL310:
 886:core/src/kmesg.c **** 	}
 3227              		.loc 1 886 10 view .LVU1030
 3228 012a EAE7     		b	.L212
 3229              	.LVL311:
 3230              	.L223:
 3231              	.LBB56:
 899:core/src/kmesg.c **** 		kTCBQDeq( &kobj->waitingQueue, &freeTaskPtr);
 3232              		.loc 1 899 3 is_stmt 1 view .LVU1031
 900:core/src/kmesg.c **** 		kTCBQEnq( &readyQueue[freeTaskPtr->priority], freeTaskPtr);
ARM GAS  /var/folders/fg/4fzv35n91mbcgx4z5jzqdsl40000gn/T//ccsuUsPw.s 			page 88


 3233              		.loc 1 900 3 view .LVU1032
 3234 012c 01A9     		add	r1, sp, #4
 3235 012e 05F12800 		add	r0, r5, #40
 3236 0132 FFF7FEFF 		bl	kTCBQDeq
 3237              	.LVL312:
 901:core/src/kmesg.c **** 
 3238              		.loc 1 901 3 view .LVU1033
 901:core/src/kmesg.c **** 
 3239              		.loc 1 901 36 is_stmt 0 view .LVU1034
 3240 0136 0199     		ldr	r1, [sp, #4]
 3241 0138 487F     		ldrb	r0, [r1, #29]	@ zero_extendqisi2
 901:core/src/kmesg.c **** 
 3242              		.loc 1 901 13 view .LVU1035
 3243 013a 00EB8000 		add	r0, r0, r0, lsl #2
 901:core/src/kmesg.c **** 
 3244              		.loc 1 901 3 view .LVU1036
 3245 013e 0F4B     		ldr	r3, .L224+12
 3246 0140 03EB8000 		add	r0, r3, r0, lsl #2
 3247 0144 FFF7FEFF 		bl	kTCBQEnq
 3248              	.LVL313:
 903:core/src/kmesg.c **** 		if (freeTaskPtr->priority < runPtr->priority)
 3249              		.loc 1 903 3 is_stmt 1 view .LVU1037
 903:core/src/kmesg.c **** 		if (freeTaskPtr->priority < runPtr->priority)
 3250              		.loc 1 903 14 is_stmt 0 view .LVU1038
 3251 0148 019B     		ldr	r3, [sp, #4]
 903:core/src/kmesg.c **** 		if (freeTaskPtr->priority < runPtr->priority)
 3252              		.loc 1 903 23 view .LVU1039
 3253 014a 1022     		movs	r2, #16
 3254 014c 5A60     		str	r2, [r3, #4]
 904:core/src/kmesg.c **** 			RK_PEND_CTXTSWTCH
 3255              		.loc 1 904 3 is_stmt 1 view .LVU1040
 904:core/src/kmesg.c **** 			RK_PEND_CTXTSWTCH
 3256              		.loc 1 904 18 is_stmt 0 view .LVU1041
 3257 014e 5A7F     		ldrb	r2, [r3, #29]	@ zero_extendqisi2
 904:core/src/kmesg.c **** 			RK_PEND_CTXTSWTCH
 3258              		.loc 1 904 37 view .LVU1042
 3259 0150 074B     		ldr	r3, .L224
 3260 0152 1B68     		ldr	r3, [r3]
 3261 0154 5B7F     		ldrb	r3, [r3, #29]	@ zero_extendqisi2
 904:core/src/kmesg.c **** 			RK_PEND_CTXTSWTCH
 3262              		.loc 1 904 6 view .LVU1043
 3263 0156 9A42     		cmp	r2, r3
 3264 0158 04D2     		bcs	.L215
 905:core/src/kmesg.c **** 	}
 3265              		.loc 1 905 4 is_stmt 1 view .LVU1044
 3266 015a 064A     		ldr	r2, .L224+4
 3267 015c 5368     		ldr	r3, [r2, #4]
 3268 015e 43F08053 		orr	r3, r3, #268435456
 3269 0162 5360     		str	r3, [r2, #4]
 3270              	.L215:
 905:core/src/kmesg.c **** 	}
 3271              		.loc 1 905 4 discriminator 1 view .LVU1045
 3272              		.syntax unified
 3273              	@ 905 "core/src/kmesg.c" 1
 3274 0164 BFF34F8F 		dsb 0xF
 3275              	@ 0 "" 2
 905:core/src/kmesg.c **** 	}
ARM GAS  /var/folders/fg/4fzv35n91mbcgx4z5jzqdsl40000gn/T//ccsuUsPw.s 			page 89


 3276              		.loc 1 905 4 discriminator 1 view .LVU1046
 3277              	@ 905 "core/src/kmesg.c" 1
 3278 0168 BFF36F8F 		isb 0xF
 3279              	@ 0 "" 2
 3280              		.thumb
 3281              		.syntax unified
 3282 016c D5E7     		b	.L214
 3283              	.L225:
 3284 016e 00BF     		.align	2
 3285              	.L224:
 3286 0170 00000000 		.word	runPtr
 3287 0174 00ED00E0 		.word	-536810240
 3288 0178 66FEFFFF 		.word	-410
 3289 017c 00000000 		.word	readyQueue
 3290              	.LBE56:
 3291              		.cfi_endproc
 3292              	.LFE70:
 3294              		.section	.text.kStreamRecv,"ax",%progbits
 3295              		.align	1
 3296              		.global	kStreamRecv
 3297              		.syntax unified
 3298              		.thumb
 3299              		.thumb_func
 3301              	kStreamRecv:
 3302              	.LVL314:
 3303              	.LFB71:
 910:core/src/kmesg.c **** 
 911:core/src/kmesg.c **** RK_ERR kStreamRecv( RK_STREAM *const kobj, VOID *recvPtr,
 912:core/src/kmesg.c **** 		const RK_TICK timeout)
 913:core/src/kmesg.c **** {
 3304              		.loc 1 913 1 view -0
 3305              		.cfi_startproc
 3306              		@ args = 0, pretend = 0, frame = 8
 3307              		@ frame_needed = 0, uses_anonymous_args = 0
 3308              		.loc 1 913 1 is_stmt 0 view .LVU1048
 3309 0000 2DE9F041 		push	{r4, r5, r6, r7, r8, lr}
 3310              		.cfi_def_cfa_offset 24
 3311              		.cfi_offset 4, -24
 3312              		.cfi_offset 5, -20
 3313              		.cfi_offset 6, -16
 3314              		.cfi_offset 7, -12
 3315              		.cfi_offset 8, -8
 3316              		.cfi_offset 14, -4
 3317 0004 82B0     		sub	sp, sp, #8
 3318              		.cfi_def_cfa_offset 32
 3319 0006 0546     		mov	r5, r0
 3320 0008 0C46     		mov	r4, r1
 3321 000a 1746     		mov	r7, r2
 914:core/src/kmesg.c **** 	RK_CR_AREA
 3322              		.loc 1 914 2 is_stmt 1 view .LVU1049
 915:core/src/kmesg.c **** 	RK_CR_ENTER
 3323              		.loc 1 915 2 view .LVU1050
 3324 000c FFF7FEFF 		bl	kEnterCR
 3325              	.LVL315:
 3326              		.loc 1 915 2 is_stmt 0 view .LVU1051
 3327 0010 0646     		mov	r6, r0
 3328              	.LVL316:
ARM GAS  /var/folders/fg/4fzv35n91mbcgx4z5jzqdsl40000gn/T//ccsuUsPw.s 			page 90


 916:core/src/kmesg.c **** 	if ((kobj == NULL) || (recvPtr == NULL) || (kobj->init == 0))
 3329              		.loc 1 916 2 is_stmt 1 view .LVU1052
 3330              		.loc 1 916 5 is_stmt 0 view .LVU1053
 3331 0012 002D     		cmp	r5, #0
 3332 0014 3BD0     		beq	.L227
 3333              		.loc 1 916 21 discriminator 1 view .LVU1054
 3334 0016 002C     		cmp	r4, #0
 3335 0018 39D0     		beq	.L227
 3336              		.loc 1 916 50 discriminator 2 view .LVU1055
 3337 001a 6B68     		ldr	r3, [r5, #4]
 3338              		.loc 1 916 42 discriminator 2 view .LVU1056
 3339 001c 002B     		cmp	r3, #0
 3340 001e 36D0     		beq	.L227
 917:core/src/kmesg.c **** 	{
 918:core/src/kmesg.c **** 		RK_CR_EXIT
 919:core/src/kmesg.c **** 		return (RK_ERR_OBJ_NULL);
 920:core/src/kmesg.c **** 	}
 921:core/src/kmesg.c **** 	if (RK_IS_BLOCK_ON_ISR( timeout))
 3341              		.loc 1 921 2 is_stmt 1 view .LVU1057
 3342              	.LBB57:
 3343              	.LBI57:
 308:arch/armv7m/kernel/inc/kdefs.h **** {
 3344              		.loc 3 308 10 view .LVU1058
 3345              	.LBB58:
 310:arch/armv7m/kernel/inc/kdefs.h ****     __ASM ("MRS %0, IPSR" : "=r"(ipsr_value));
 3346              		.loc 3 310 5 view .LVU1059
 311:arch/armv7m/kernel/inc/kdefs.h ****     __ASM volatile ("dmb 0xF":::"memory");
 3347              		.loc 3 311 5 view .LVU1060
 3348              		.syntax unified
 3349              	@ 311 "arch/armv7m/kernel/inc/kdefs.h" 1
 3350 0020 EFF30583 		MRS r3, IPSR
 3351              	@ 0 "" 2
 312:arch/armv7m/kernel/inc/kdefs.h ****     return (ipsr_value);
 3352              		.loc 3 312 5 view .LVU1061
 3353              	@ 312 "arch/armv7m/kernel/inc/kdefs.h" 1
 3354 0024 BFF35F8F 		dmb 0xF
 3355              	@ 0 "" 2
 3356              		.loc 3 313 5 view .LVU1062
 3357              		.thumb
 3358              		.syntax unified
 3359              	.LBE58:
 3360              	.LBE57:
 3361              		.loc 1 921 5 is_stmt 0 view .LVU1063
 3362 0028 0BB1     		cbz	r3, .L230
 3363              		.loc 1 921 6 discriminator 1 view .LVU1064
 3364 002a 002F     		cmp	r7, #0
 3365 002c 35DC     		bgt	.L242
 3366              	.LVL317:
 3367              	.L230:
 922:core/src/kmesg.c **** 	{
 923:core/src/kmesg.c **** 		RK_CR_EXIT
 924:core/src/kmesg.c **** 		KERR( RK_FAULT_INVALID_ISR_PRIMITIVE);
 925:core/src/kmesg.c **** 	}
 926:core/src/kmesg.c **** 	if (kobj->ownerTask && kobj->ownerTask != runPtr)
 3368              		.loc 1 926 2 is_stmt 1 view .LVU1065
 3369              		.loc 1 926 10 is_stmt 0 view .LVU1066
 3370 002e 6B6A     		ldr	r3, [r5, #36]
ARM GAS  /var/folders/fg/4fzv35n91mbcgx4z5jzqdsl40000gn/T//ccsuUsPw.s 			page 91


 3371              		.loc 1 926 5 view .LVU1067
 3372 0030 1BB1     		cbz	r3, .L231
 3373              		.loc 1 926 41 discriminator 1 view .LVU1068
 3374 0032 504A     		ldr	r2, .L250
 3375 0034 1268     		ldr	r2, [r2]
 3376              		.loc 1 926 22 discriminator 1 view .LVU1069
 3377 0036 9342     		cmp	r3, r2
 3378 0038 36D1     		bne	.L243
 3379              	.L231:
 927:core/src/kmesg.c **** 	{
 928:core/src/kmesg.c **** 		RK_CR_EXIT
 929:core/src/kmesg.c **** 		return (RK_ERR_PORT_OWNER);
 930:core/src/kmesg.c **** 	}
 931:core/src/kmesg.c **** 	if (kobj->mesgCnt == 0)
 3380              		.loc 1 931 2 is_stmt 1 view .LVU1070
 3381              		.loc 1 931 10 is_stmt 0 view .LVU1071
 3382 003a 2B69     		ldr	r3, [r5, #16]
 3383              		.loc 1 931 5 view .LVU1072
 3384 003c 23BB     		cbnz	r3, .L232
 932:core/src/kmesg.c **** 	{
 933:core/src/kmesg.c **** 		if (timeout == RK_NO_WAIT)
 3385              		.loc 1 933 3 is_stmt 1 view .LVU1073
 3386              		.loc 1 933 6 is_stmt 0 view .LVU1074
 3387 003e 002F     		cmp	r7, #0
 3388 0040 38D0     		beq	.L244
 934:core/src/kmesg.c **** 		{
 935:core/src/kmesg.c **** 			RK_CR_EXIT
 936:core/src/kmesg.c **** 			return (RK_ERR_STREAM_EMPTY);
 937:core/src/kmesg.c **** 		}
 938:core/src/kmesg.c **** 
 939:core/src/kmesg.c **** 		runPtr->status = RK_RECEIVING;
 3389              		.loc 1 939 3 is_stmt 1 view .LVU1075
 3390              		.loc 1 939 9 is_stmt 0 view .LVU1076
 3391 0042 4C4B     		ldr	r3, .L250
 3392 0044 1868     		ldr	r0, [r3]
 3393              		.loc 1 939 18 view .LVU1077
 3394 0046 3423     		movs	r3, #52
 3395 0048 4360     		str	r3, [r0, #4]
 940:core/src/kmesg.c **** 
 941:core/src/kmesg.c **** 		if ((timeout > RK_NO_WAIT) && (timeout != RK_WAIT_FOREVER))
 3396              		.loc 1 941 3 is_stmt 1 view .LVU1078
 3397              		.loc 1 941 6 is_stmt 0 view .LVU1079
 3398 004a 002F     		cmp	r7, #0
 3399 004c 38DC     		bgt	.L245
 3400              	.L234:
 942:core/src/kmesg.c **** 		{
 943:core/src/kmesg.c **** 			RK_TASK_TIMEOUT_WAITINGQUEUE_SETUP
 944:core/src/kmesg.c **** 
 945:core/src/kmesg.c **** 			kTimeOut( &runPtr->timeoutNode, timeout);
 946:core/src/kmesg.c **** 		}
 947:core/src/kmesg.c **** 		kTCBQEnqByPrio( &kobj->waitingQueue, runPtr);
 3401              		.loc 1 947 3 is_stmt 1 view .LVU1080
 3402 004e DFF82481 		ldr	r8, .L250
 3403 0052 D8F80010 		ldr	r1, [r8]
 3404 0056 05F12800 		add	r0, r5, #40
 3405 005a FFF7FEFF 		bl	kTCBQEnqByPrio
 3406              	.LVL318:
ARM GAS  /var/folders/fg/4fzv35n91mbcgx4z5jzqdsl40000gn/T//ccsuUsPw.s 			page 92


 948:core/src/kmesg.c **** 		RK_PEND_CTXTSWTCH
 3407              		.loc 1 948 3 view .LVU1081
 3408 005e 464A     		ldr	r2, .L250+4
 3409 0060 5368     		ldr	r3, [r2, #4]
 3410 0062 43F08053 		orr	r3, r3, #268435456
 3411 0066 5360     		str	r3, [r2, #4]
 3412              		.loc 1 948 3 view .LVU1082
 3413              		.syntax unified
 3414              	@ 948 "core/src/kmesg.c" 1
 3415 0068 BFF34F8F 		dsb 0xF
 3416              	@ 0 "" 2
 3417              		.loc 1 948 3 view .LVU1083
 3418              	@ 948 "core/src/kmesg.c" 1
 3419 006c BFF36F8F 		isb 0xF
 3420              	@ 0 "" 2
 949:core/src/kmesg.c **** 		RK_CR_EXIT
 3421              		.loc 1 949 3 view .LVU1084
 3422              		.thumb
 3423              		.syntax unified
 3424 0070 3046     		mov	r0, r6
 3425 0072 FFF7FEFF 		bl	kExitCR
 3426              	.LVL319:
 950:core/src/kmesg.c **** 		RK_CR_ENTER
 3427              		.loc 1 950 3 view .LVU1085
 3428 0076 FFF7FEFF 		bl	kEnterCR
 3429              	.LVL320:
 3430 007a 0646     		mov	r6, r0
 3431              	.LVL321:
 951:core/src/kmesg.c **** 		if (runPtr->timeOut)
 3432              		.loc 1 951 3 view .LVU1086
 3433              		.loc 1 951 13 is_stmt 0 view .LVU1087
 3434 007c D8F80000 		ldr	r0, [r8]
 3435              	.LVL322:
 3436              		.loc 1 951 13 view .LVU1088
 3437 0080 836B     		ldr	r3, [r0, #56]
 3438              		.loc 1 951 6 view .LVU1089
 3439 0082 3BBB     		cbnz	r3, .L246
 952:core/src/kmesg.c **** 		{
 953:core/src/kmesg.c **** 			runPtr->timeOut = FALSE;
 954:core/src/kmesg.c **** 			RK_CR_EXIT
 955:core/src/kmesg.c **** 			return (RK_ERR_TIMEOUT);
 956:core/src/kmesg.c **** 		}
 957:core/src/kmesg.c **** 		if ((timeout > RK_NO_WAIT) && (timeout != RK_WAIT_FOREVER))
 3440              		.loc 1 957 3 is_stmt 1 view .LVU1090
 3441              		.loc 1 957 6 is_stmt 0 view .LVU1091
 3442 0084 002F     		cmp	r7, #0
 3443 0086 2DDC     		bgt	.L247
 3444              	.L232:
 958:core/src/kmesg.c **** 			kRemoveTimeoutNode( &runPtr->timeoutNode);
 959:core/src/kmesg.c **** 	}
 960:core/src/kmesg.c **** 	ULONG size = kobj->mesgSize;/* number of words to copy */
 3445              		.loc 1 960 2 is_stmt 1 view .LVU1092
 3446              		.loc 1 960 8 is_stmt 0 view .LVU1093
 3447 0088 AA68     		ldr	r2, [r5, #8]
 3448              	.LVL323:
 961:core/src/kmesg.c **** 	ULONG *destPtr = (ULONG*) recvPtr;
 3449              		.loc 1 961 2 is_stmt 1 view .LVU1094
ARM GAS  /var/folders/fg/4fzv35n91mbcgx4z5jzqdsl40000gn/T//ccsuUsPw.s 			page 93


 962:core/src/kmesg.c **** 	ULONG *srcPtr = kobj->readPtr;
 3450              		.loc 1 962 2 view .LVU1095
 3451              		.loc 1 962 9 is_stmt 0 view .LVU1096
 3452 008a EB69     		ldr	r3, [r5, #28]
 3453              	.LVL324:
 963:core/src/kmesg.c **** 	RK_CPYQ( srcPtr, destPtr, size);
 3454              		.loc 1 963 2 is_stmt 1 view .LVU1097
 3455              		.loc 1 963 2 view .LVU1098
 3456 008c 34E0     		b	.L236
 3457              	.LVL325:
 3458              	.L227:
 918:core/src/kmesg.c **** 		return (RK_ERR_OBJ_NULL);
 3459              		.loc 1 918 3 view .LVU1099
 3460 008e 3046     		mov	r0, r6
 3461              	.LVL326:
 918:core/src/kmesg.c **** 		return (RK_ERR_OBJ_NULL);
 3462              		.loc 1 918 3 is_stmt 0 view .LVU1100
 3463 0090 FFF7FEFF 		bl	kExitCR
 3464              	.LVL327:
 919:core/src/kmesg.c **** 	}
 3465              		.loc 1 919 3 is_stmt 1 view .LVU1101
 919:core/src/kmesg.c **** 	}
 3466              		.loc 1 919 10 is_stmt 0 view .LVU1102
 3467 0094 6FF06300 		mvn	r0, #99
 3468 0098 45E0     		b	.L226
 3469              	.LVL328:
 3470              	.L242:
 923:core/src/kmesg.c **** 		KERR( RK_FAULT_INVALID_ISR_PRIMITIVE);
 3471              		.loc 1 923 3 is_stmt 1 view .LVU1103
 3472 009a FFF7FEFF 		bl	kExitCR
 3473              	.LVL329:
 924:core/src/kmesg.c **** 	}
 3474              		.loc 1 924 3 view .LVU1104
 3475 009e 6FF06E00 		mvn	r0, #110
 3476 00a2 FFF7FEFF 		bl	kErrHandler
 3477              	.LVL330:
 3478 00a6 C2E7     		b	.L230
 3479              	.L243:
 928:core/src/kmesg.c **** 		return (RK_ERR_PORT_OWNER);
 3480              		.loc 1 928 3 view .LVU1105
 3481 00a8 3046     		mov	r0, r6
 3482 00aa FFF7FEFF 		bl	kExitCR
 3483              	.LVL331:
 929:core/src/kmesg.c **** 	}
 3484              		.loc 1 929 3 view .LVU1106
 929:core/src/kmesg.c **** 	}
 3485              		.loc 1 929 10 is_stmt 0 view .LVU1107
 3486 00ae 6FF4CF70 		mvn	r0, #414
 3487 00b2 38E0     		b	.L226
 3488              	.L244:
 935:core/src/kmesg.c **** 			return (RK_ERR_STREAM_EMPTY);
 3489              		.loc 1 935 4 is_stmt 1 view .LVU1108
 3490 00b4 3046     		mov	r0, r6
 3491 00b6 FFF7FEFF 		bl	kExitCR
 3492              	.LVL332:
 936:core/src/kmesg.c **** 		}
 3493              		.loc 1 936 4 view .LVU1109
ARM GAS  /var/folders/fg/4fzv35n91mbcgx4z5jzqdsl40000gn/T//ccsuUsPw.s 			page 94


 936:core/src/kmesg.c **** 		}
 3494              		.loc 1 936 11 is_stmt 0 view .LVU1110
 3495 00ba 6FF4CD70 		mvn	r0, #410
 3496 00be 32E0     		b	.L226
 3497              	.L245:
 943:core/src/kmesg.c **** 
 3498              		.loc 1 943 4 is_stmt 1 view .LVU1111
 3499 00c0 0123     		movs	r3, #1
 3500 00c2 C364     		str	r3, [r0, #76]
 943:core/src/kmesg.c **** 
 3501              		.loc 1 943 4 view .LVU1112
 3502 00c4 05F12803 		add	r3, r5, #40
 3503 00c8 8365     		str	r3, [r0, #88]
 945:core/src/kmesg.c **** 		}
 3504              		.loc 1 945 4 view .LVU1113
 3505 00ca 3946     		mov	r1, r7
 3506 00cc 4430     		adds	r0, r0, #68
 3507 00ce FFF7FEFF 		bl	kTimeOut
 3508              	.LVL333:
 3509 00d2 BCE7     		b	.L234
 3510              	.L246:
 953:core/src/kmesg.c **** 			RK_CR_EXIT
 3511              		.loc 1 953 4 view .LVU1114
 953:core/src/kmesg.c **** 			RK_CR_EXIT
 3512              		.loc 1 953 20 is_stmt 0 view .LVU1115
 3513 00d4 0023     		movs	r3, #0
 3514 00d6 8363     		str	r3, [r0, #56]
 954:core/src/kmesg.c **** 			return (RK_ERR_TIMEOUT);
 3515              		.loc 1 954 4 is_stmt 1 view .LVU1116
 3516 00d8 3046     		mov	r0, r6
 3517 00da FFF7FEFF 		bl	kExitCR
 3518              	.LVL334:
 955:core/src/kmesg.c **** 		}
 3519              		.loc 1 955 4 view .LVU1117
 955:core/src/kmesg.c **** 		}
 3520              		.loc 1 955 11 is_stmt 0 view .LVU1118
 3521 00de 6FF06B00 		mvn	r0, #107
 3522 00e2 20E0     		b	.L226
 3523              	.L247:
 958:core/src/kmesg.c **** 	}
 3524              		.loc 1 958 4 is_stmt 1 view .LVU1119
 3525 00e4 4430     		adds	r0, r0, #68
 3526 00e6 FFF7FEFF 		bl	kRemoveTimeoutNode
 3527              	.LVL335:
 3528 00ea CDE7     		b	.L232
 3529              	.LVL336:
 3530              	.L237:
 3531              		.loc 1 963 2 discriminator 2 view .LVU1120
 3532              		.loc 1 963 2 is_stmt 0 discriminator 2 view .LVU1121
 3533 00ec 2146     		mov	r1, r4
 3534              	.LVL337:
 3535              		.loc 1 963 2 discriminator 2 view .LVU1122
 3536 00ee 53F8040B 		ldr	r0, [r3], #4
 3537              	.LVL338:
 3538              		.loc 1 963 2 discriminator 2 view .LVU1123
 3539 00f2 41F8040B 		str	r0, [r1], #4
 3540              	.LVL339:
ARM GAS  /var/folders/fg/4fzv35n91mbcgx4z5jzqdsl40000gn/T//ccsuUsPw.s 			page 95


 3541              		.loc 1 963 2 discriminator 2 view .LVU1124
 3542 00f6 0C46     		mov	r4, r1
 3543              	.LVL340:
 3544              	.L236:
 3545              		.loc 1 963 2 is_stmt 1 discriminator 1 view .LVU1125
 3546              		.loc 1 963 2 is_stmt 0 discriminator 1 view .LVU1126
 3547 00f8 013A     		subs	r2, r2, #1
 3548              	.LVL341:
 3549              		.loc 1 963 2 discriminator 1 view .LVU1127
 3550 00fa F7D1     		bne	.L237
 3551              		.loc 1 963 2 is_stmt 1 discriminator 3 view .LVU1128
 3552              	.LVL342:
 3553              		.loc 1 963 2 is_stmt 0 discriminator 3 view .LVU1129
 3554 00fc 53F8042B 		ldr	r2, [r3], #4
 3555              	.LVL343:
 3556              		.loc 1 963 2 discriminator 3 view .LVU1130
 3557 0100 2260     		str	r2, [r4]
 3558              		.loc 1 963 2 is_stmt 1 discriminator 3 view .LVU1131
 3559              		.syntax unified
 3560              	@ 963 "core/src/kmesg.c" 1
 3561 0102 BFF35F8F 		dmb 0xF
 3562              	@ 0 "" 2
 3563              		.loc 1 963 2 discriminator 3 view .LVU1132
 964:core/src/kmesg.c **** 	/* Check for wrap-around on read pointer */
 965:core/src/kmesg.c **** 	if (srcPtr == kobj->bufEndPtr)
 3564              		.loc 1 965 2 discriminator 3 view .LVU1133
 3565              		.loc 1 965 20 is_stmt 0 discriminator 3 view .LVU1134
 3566              		.thumb
 3567              		.syntax unified
 3568 0106 2A6A     		ldr	r2, [r5, #32]
 3569              		.loc 1 965 5 discriminator 3 view .LVU1135
 3570 0108 9A42     		cmp	r2, r3
 3571 010a 0FD0     		beq	.L248
 3572              	.L238:
 966:core/src/kmesg.c **** 	{
 967:core/src/kmesg.c **** 		srcPtr = kobj->bufPtr;
 968:core/src/kmesg.c **** 	}
 969:core/src/kmesg.c **** 	kobj->readPtr = srcPtr;
 3573              		.loc 1 969 2 is_stmt 1 view .LVU1136
 3574              		.loc 1 969 16 is_stmt 0 view .LVU1137
 3575 010c EB61     		str	r3, [r5, #28]
 970:core/src/kmesg.c **** 	kobj->mesgCnt--;
 3576              		.loc 1 970 2 is_stmt 1 view .LVU1138
 3577              		.loc 1 970 6 is_stmt 0 view .LVU1139
