ARM GAS  /var/folders/fg/4fzv35n91mbcgx4z5jzqdsl40000gn/T//cc8adue3.s 			page 1


   1              		.cpu cortex-m3
   2              		.arch armv7-m
   3              		.fpu softvfp
   4              		.eabi_attribute 20, 1
   5              		.eabi_attribute 21, 1
   6              		.eabi_attribute 23, 3
   7              		.eabi_attribute 24, 1
   8              		.eabi_attribute 25, 1
   9              		.eabi_attribute 26, 1
  10              		.eabi_attribute 30, 1
  11              		.eabi_attribute 34, 1
  12              		.eabi_attribute 18, 4
  13              		.file	"ksynch.c"
  14              		.text
  15              	.Ltext0:
  16              		.cfi_sections	.debug_frame
  17              		.file 1 "core/src/ksynch.c"
  18              		.section	.text.kSignalGet,"ax",%progbits
  19              		.align	1
  20              		.global	kSignalGet
  21              		.syntax unified
  22              		.thumb
  23              		.thumb_func
  25              	kSignalGet:
  26              	.LVL0:
  27              	.LFB54:
   1:core/src/ksynch.c **** /******************************************************************************
   2:core/src/ksynch.c ****  *
   3:core/src/ksynch.c ****  *                     [RK0 - Real-Time Kernel '0']
   4:core/src/ksynch.c ****  *
   5:core/src/ksynch.c ****  * Version              :   V0.4.0
   6:core/src/ksynch.c ****  * Architecture         :   ARMv7m
   7:core/src/ksynch.c ****  *
   8:core/src/ksynch.c ****  *
   9:core/src/ksynch.c ****  * Copyright (c) 2025 Antonio Giacomelli
  10:core/src/ksynch.c ****  *
  11:core/src/ksynch.c ****  *
  12:core/src/ksynch.c ****  ******************************************************************************/
  13:core/src/ksynch.c **** /******************************************************************************
  14:core/src/ksynch.c ****  *
  15:core/src/ksynch.c ****  *  Module              : INTER-TASK SYNCHRONISATION
  16:core/src/ksynch.c ****  *  Depends on          : SCHEDULER, TIMER
  17:core/src/ksynch.c ****  *  Provides to         : APPLICATION
  18:core/src/ksynch.c ****  *  Public API  	    : YES
  19:core/src/ksynch.c ****  *
  20:core/src/ksynch.c ****  *****************************************************************************/
  21:core/src/ksynch.c **** 
  22:core/src/ksynch.c **** #define RK_CODE
  23:core/src/ksynch.c **** 
  24:core/src/ksynch.c **** #include "kexecutive.h"
  25:core/src/ksynch.c **** 
  26:core/src/ksynch.c **** /* Timeout Node Setup */
  27:core/src/ksynch.c **** 
  28:core/src/ksynch.c **** #ifndef RK_TASK_TIMEOUT_WAITINGQUEUE_SETUP
  29:core/src/ksynch.c **** #define RK_TASK_TIMEOUT_WAITINGQUEUE_SETUP \
  30:core/src/ksynch.c ****      runPtr->timeoutNode.timeoutType = RK_BLOCKING_TIMEOUT; \
  31:core/src/ksynch.c ****      runPtr->timeoutNode.waitingQueuePtr = &kobj->waitingQueue;
ARM GAS  /var/folders/fg/4fzv35n91mbcgx4z5jzqdsl40000gn/T//cc8adue3.s 			page 2


  32:core/src/ksynch.c **** #endif
  33:core/src/ksynch.c **** #ifndef RK_TASK_TIMEOUT_NOWAITINGQUEUE_SETUP
  34:core/src/ksynch.c **** #define RK_TASK_TIMEOUT_NOWAITINGQUEUE_SETUP \
  35:core/src/ksynch.c ****      runPtr->timeoutNode.timeoutType = RK_ELAPSING_TIMEOUT; \
  36:core/src/ksynch.c ****      runPtr->timeoutNode.waitingQueuePtr = NULL;
  37:core/src/ksynch.c **** #endif
  38:core/src/ksynch.c **** 
  39:core/src/ksynch.c **** /*****************************************************************************/
  40:core/src/ksynch.c **** /* SIGNAL FLAGS                                                              */
  41:core/src/ksynch.c **** /*****************************************************************************/
  42:core/src/ksynch.c **** RK_ERR kSignalGet( ULONG const required, UINT const options,  ULONG *const gotFlagsPtr,
  43:core/src/ksynch.c **** 	 RK_TICK const timeout)
  44:core/src/ksynch.c **** {
  28              		.loc 1 44 1 view -0
  29              		.cfi_startproc
  30              		@ args = 0, pretend = 0, frame = 0
  31              		@ frame_needed = 0, uses_anonymous_args = 0
  32              		.loc 1 44 1 is_stmt 0 view .LVU1
  33 0000 2DE9F041 		push	{r4, r5, r6, r7, r8, lr}
  34              		.cfi_def_cfa_offset 24
  35              		.cfi_offset 4, -24
  36              		.cfi_offset 5, -20
  37              		.cfi_offset 6, -16
  38              		.cfi_offset 7, -12
  39              		.cfi_offset 8, -8
  40              		.cfi_offset 14, -4
  41 0004 0546     		mov	r5, r0
  42 0006 0C46     		mov	r4, r1
  43 0008 1746     		mov	r7, r2
  44 000a 1E46     		mov	r6, r3
  45:core/src/ksynch.c **** 	RK_CR_AREA
  45              		.loc 1 45 2 is_stmt 1 view .LVU2
  46:core/src/ksynch.c **** 	RK_CR_ENTER
  46              		.loc 1 46 2 view .LVU3
  47 000c FFF7FEFF 		bl	kEnterCR
  48              	.LVL1:
  49              		.loc 1 46 2 is_stmt 0 view .LVU4
  50 0010 8046     		mov	r8, r0
  51              	.LVL2:
  47:core/src/ksynch.c **** 
  48:core/src/ksynch.c **** 	if (kIsISR())
  52              		.loc 1 48 2 is_stmt 1 view .LVU5
  53              	.LBB16:
  54              	.LBI16:
  55              		.file 2 "arch/armv7m/kernel/inc/kdefs.h"
   1:arch/armv7m/kernel/inc/kdefs.h **** /******************************************************************************
   2:arch/armv7m/kernel/inc/kdefs.h ****  *
   3:arch/armv7m/kernel/inc/kdefs.h ****  *                     [RK0 - Real-Time Kernel '0']
   4:arch/armv7m/kernel/inc/kdefs.h ****  *
   5:arch/armv7m/kernel/inc/kdefs.h ****  * Version          :   V0.4.0
   6:arch/armv7m/kernel/inc/kdefs.h ****  * Architecture     :   ARMv7m
   7:arch/armv7m/kernel/inc/kdefs.h ****  *
   8:arch/armv7m/kernel/inc/kdefs.h ****  *
   9:arch/armv7m/kernel/inc/kdefs.h ****  * Copyright (c) 2025 Antonio Giacomelli
  10:arch/armv7m/kernel/inc/kdefs.h ****  *
  11:arch/armv7m/kernel/inc/kdefs.h ****  *
  12:arch/armv7m/kernel/inc/kdefs.h ****  ******************************************************************************/
ARM GAS  /var/folders/fg/4fzv35n91mbcgx4z5jzqdsl40000gn/T//cc8adue3.s 			page 3


  13:arch/armv7m/kernel/inc/kdefs.h **** 
  14:arch/armv7m/kernel/inc/kdefs.h **** /******************************************************************************
  15:arch/armv7m/kernel/inc/kdefs.h ****  * 	In this header:
  16:arch/armv7m/kernel/inc/kdefs.h ****  * 					o System defines: code values, typedefs, macro helpers
  17:arch/armv7m/kernel/inc/kdefs.h ****  *
  18:arch/armv7m/kernel/inc/kdefs.h ****  ******************************************************************************/
  19:arch/armv7m/kernel/inc/kdefs.h **** 
  20:arch/armv7m/kernel/inc/kdefs.h **** #ifndef RK_DEFS_H
  21:arch/armv7m/kernel/inc/kdefs.h **** #define RK_DEFS_H
  22:arch/armv7m/kernel/inc/kdefs.h **** 
  23:arch/armv7m/kernel/inc/kdefs.h **** #include <kenv.h>
  24:arch/armv7m/kernel/inc/kdefs.h **** 
  25:arch/armv7m/kernel/inc/kdefs.h **** /* C PROGRAMMING PRIMITIVES */
  26:arch/armv7m/kernel/inc/kdefs.h **** 
  27:arch/armv7m/kernel/inc/kdefs.h **** typedef void VOID;
  28:arch/armv7m/kernel/inc/kdefs.h **** typedef char CHAR;
  29:arch/armv7m/kernel/inc/kdefs.h **** typedef unsigned char BYTE;
  30:arch/armv7m/kernel/inc/kdefs.h **** typedef signed INT;/* stack type */
  31:arch/armv7m/kernel/inc/kdefs.h **** typedef unsigned UINT;
  32:arch/armv7m/kernel/inc/kdefs.h **** typedef unsigned long ULONG;
  33:arch/armv7m/kernel/inc/kdefs.h **** typedef long LONG;
  34:arch/armv7m/kernel/inc/kdefs.h **** 
  35:arch/armv7m/kernel/inc/kdefs.h **** /* if no stdbool.h */
  36:arch/armv7m/kernel/inc/kdefs.h **** #if !defined(bool)
  37:arch/armv7m/kernel/inc/kdefs.h **** typedef unsigned BOOL;
  38:arch/armv7m/kernel/inc/kdefs.h **** #define FALSE (unsigned)(0)
  39:arch/armv7m/kernel/inc/kdefs.h **** #define TRUE  (unsigned)(1)
  40:arch/armv7m/kernel/inc/kdefs.h **** #define bool
  41:arch/armv7m/kernel/inc/kdefs.h **** #else
  42:arch/armv7m/kernel/inc/kdefs.h **** typedef _Bool BOOL;
  43:arch/armv7m/kernel/inc/kdefs.h **** #define TRUE		true
  44:arch/armv7m/kernel/inc/kdefs.h **** #define FALSE	    false
  45:arch/armv7m/kernel/inc/kdefs.h **** #endif
  46:arch/armv7m/kernel/inc/kdefs.h **** 
  47:arch/armv7m/kernel/inc/kdefs.h **** /* Task Initialisation Defines: these values are all subtracted from the
  48:arch/armv7m/kernel/inc/kdefs.h ****      top of the stack */
  49:arch/armv7m/kernel/inc/kdefs.h **** #define PSR_OFFSET  1 /* Program Status Register offset */
  50:arch/armv7m/kernel/inc/kdefs.h **** #define PC_OFFSET   2 /* Program Counter offset */
  51:arch/armv7m/kernel/inc/kdefs.h **** #define LR_OFFSET   3 /* Link Register offset */
  52:arch/armv7m/kernel/inc/kdefs.h **** #define R12_OFFSET  4 /* R12 Register offset */
  53:arch/armv7m/kernel/inc/kdefs.h **** #define R3_OFFSET   5 /* R3 Register offset */
  54:arch/armv7m/kernel/inc/kdefs.h **** #define R2_OFFSET   6 /* R2 Register offset */
  55:arch/armv7m/kernel/inc/kdefs.h **** #define R1_OFFSET   7 /* R1 Register offset */
  56:arch/armv7m/kernel/inc/kdefs.h **** #define R0_OFFSET   8 /* R0 Register offset */
  57:arch/armv7m/kernel/inc/kdefs.h **** #define R11_OFFSET  9 /* R11 Register offset */
  58:arch/armv7m/kernel/inc/kdefs.h **** #define R10_OFFSET  10 /* R10 Register offset */
  59:arch/armv7m/kernel/inc/kdefs.h **** #define R9_OFFSET   11 /* R9 Register offset */
  60:arch/armv7m/kernel/inc/kdefs.h **** #define R8_OFFSET   12 /* R8 Register offset */
  61:arch/armv7m/kernel/inc/kdefs.h **** #define R7_OFFSET   13 /* R7 Register offset */
  62:arch/armv7m/kernel/inc/kdefs.h **** #define R6_OFFSET   14 /* R6 Register offset */
  63:arch/armv7m/kernel/inc/kdefs.h **** #define R5_OFFSET   15 /* R5 Register offset */
  64:arch/armv7m/kernel/inc/kdefs.h **** #define R4_OFFSET   16 /* R4 Register offset */
  65:arch/armv7m/kernel/inc/kdefs.h **** 
  66:arch/armv7m/kernel/inc/kdefs.h **** /*** Configuration Defines for kconfig.h ***/
  67:arch/armv7m/kernel/inc/kdefs.h **** #define RK_TIMHANDLER_ID       ((RK_PID)(0xFF))
  68:arch/armv7m/kernel/inc/kdefs.h **** #define RK_IDLETASK_ID         ((RK_PID)(0x00))
  69:arch/armv7m/kernel/inc/kdefs.h **** #define RK_N_SYSTASKS          2U /*idle task + tim handler*/
ARM GAS  /var/folders/fg/4fzv35n91mbcgx4z5jzqdsl40000gn/T//cc8adue3.s 			page 4


  70:arch/armv7m/kernel/inc/kdefs.h **** #define RK_NTHREADS            (RK_CONF_N_USRTASKS + RK_N_SYSTASKS)
  71:arch/armv7m/kernel/inc/kdefs.h **** #define RK_NPRIO               (RK_CONF_MIN_PRIO + 1U)
  72:arch/armv7m/kernel/inc/kdefs.h **** #ifdef  RK_SYSTEMCORECLOCK
  73:arch/armv7m/kernel/inc/kdefs.h **** #define RK_TICK_10MS           ((RK_SYSTEMCORECLOCK)/100U)  /*  Tick period of 10ms */
  74:arch/armv7m/kernel/inc/kdefs.h **** #define RK_TICK_5MS            ((RK_SYSTEMCORECLOCK)/200U)  /* Tick period of 5ms */
  75:arch/armv7m/kernel/inc/kdefs.h **** #define RK_TICK_1MS            ((RK_SYSTEMCORECLOCK)/1000U) /*  Tick period of 1ms */
  76:arch/armv7m/kernel/inc/kdefs.h **** #endif
  77:arch/armv7m/kernel/inc/kdefs.h **** 
  78:arch/armv7m/kernel/inc/kdefs.h **** 
  79:arch/armv7m/kernel/inc/kdefs.h **** /* Kernel Types Aliases */
  80:arch/armv7m/kernel/inc/kdefs.h **** typedef BYTE          RK_PID; 
  81:arch/armv7m/kernel/inc/kdefs.h **** typedef BYTE          RK_PRIO; 
  82:arch/armv7m/kernel/inc/kdefs.h **** typedef INT           RK_TICK; 
  83:arch/armv7m/kernel/inc/kdefs.h **** typedef INT           RK_ERR;
  84:arch/armv7m/kernel/inc/kdefs.h **** typedef UINT          RK_TASK_STATUS;
  85:arch/armv7m/kernel/inc/kdefs.h **** typedef INT           RK_FAULT;
  86:arch/armv7m/kernel/inc/kdefs.h **** typedef UINT          RK_KOBJ_ID;
  87:arch/armv7m/kernel/inc/kdefs.h **** 
  88:arch/armv7m/kernel/inc/kdefs.h **** /* Function pointers */
  89:arch/armv7m/kernel/inc/kdefs.h **** typedef void (*RK_TASKENTRY)( void*);/* Task entry function pointer */
  90:arch/armv7m/kernel/inc/kdefs.h **** typedef void (*RK_TIMER_CALLOUT)( void*);/* Callout (timers)             */
  91:arch/armv7m/kernel/inc/kdefs.h **** 
  92:arch/armv7m/kernel/inc/kdefs.h **** /* Max and Min Values for C Primitives  */
  93:arch/armv7m/kernel/inc/kdefs.h **** 
  94:arch/armv7m/kernel/inc/kdefs.h **** /* maximum usigned =  N-bit number 2^N - 1
  95:arch/armv7m/kernel/inc/kdefs.h ****    maximum signed  =  N-bit number 2^(N-1) - 1 */
  96:arch/armv7m/kernel/inc/kdefs.h **** 
  97:arch/armv7m/kernel/inc/kdefs.h **** #define RK_PRIO_TYPE_MAX ((1UL << (8UL * sizeof(RK_PRIO))) - 1UL)
  98:arch/armv7m/kernel/inc/kdefs.h **** #define RK_INT_MAX       ((1UL << ((8UL * sizeof(INT)) - 1UL)) - 1UL)
  99:arch/armv7m/kernel/inc/kdefs.h **** #define RK_UINT_MAX      ((1UL << (8UL * sizeof(UINT))) - 1UL)
 100:arch/armv7m/kernel/inc/kdefs.h **** #define RK_ULONG_MAX     ((1UL << (8UL * sizeof(ULONG))) - 1UL)
 101:arch/armv7m/kernel/inc/kdefs.h **** #define RK_LONG_MAX      ((1UL << ((8UL * sizeof(LONG)) - 1UL)) - 1UL)
 102:arch/armv7m/kernel/inc/kdefs.h **** #define RK_TICK_TYPE_MAX  ((1UL << ((8UL * sizeof(RK_TICK)) - 1UL)) - 1UL)
 103:arch/armv7m/kernel/inc/kdefs.h **** 
 104:arch/armv7m/kernel/inc/kdefs.h **** /* KERNEL SERVICES */
 105:arch/armv7m/kernel/inc/kdefs.h **** 
 106:arch/armv7m/kernel/inc/kdefs.h **** /* Task Run-to-completion */
 107:arch/armv7m/kernel/inc/kdefs.h **** #define RK_PREEMPT          0U
 108:arch/armv7m/kernel/inc/kdefs.h **** #define RK_NO_PREEMPT       1U
 109:arch/armv7m/kernel/inc/kdefs.h **** 
 110:arch/armv7m/kernel/inc/kdefs.h **** /* Timeout options */
 111:arch/armv7m/kernel/inc/kdefs.h **** #define RK_WAIT_FOREVER      ((RK_TICK)0xFFFFFFFF)
 112:arch/armv7m/kernel/inc/kdefs.h **** #define RK_NO_WAIT           ((RK_TICK)0x0)
 113:arch/armv7m/kernel/inc/kdefs.h **** 
 114:arch/armv7m/kernel/inc/kdefs.h **** /* Timeout code */
 115:arch/armv7m/kernel/inc/kdefs.h **** #define RK_BLOCKING_TIMEOUT  ((UINT)0x1)
 116:arch/armv7m/kernel/inc/kdefs.h **** #define RK_ELAPSING_TIMEOUT  ((UINT)0x2)
 117:arch/armv7m/kernel/inc/kdefs.h **** #define RK_TIMER_TIMEOUT     ((UINT)0x3)
 118:arch/armv7m/kernel/inc/kdefs.h **** #define RK_SLEEP_TIMEOUT     ((UINT)0x4)
 119:arch/armv7m/kernel/inc/kdefs.h **** #define RK_INVALID_TIMEOUT   ((UINT)0x0)
 120:arch/armv7m/kernel/inc/kdefs.h **** 
 121:arch/armv7m/kernel/inc/kdefs.h **** /* Task Flags Options */
 122:arch/armv7m/kernel/inc/kdefs.h **** #define RK_FLAGS_OR             ((UINT)0x1)
 123:arch/armv7m/kernel/inc/kdefs.h **** #define RK_FLAGS_ANY            ((UINT)0x4)
 124:arch/armv7m/kernel/inc/kdefs.h **** #define RK_FLAGS_ALL            ((UINT)0x8)
 125:arch/armv7m/kernel/inc/kdefs.h **** 
 126:arch/armv7m/kernel/inc/kdefs.h **** /* System Task Signals */
ARM GAS  /var/folders/fg/4fzv35n91mbcgx4z5jzqdsl40000gn/T//cc8adue3.s 			page 5


 127:arch/armv7m/kernel/inc/kdefs.h **** #define RK_SIG_TIMER            ((ULONG)0x2)
 128:arch/armv7m/kernel/inc/kdefs.h **** 
 129:arch/armv7m/kernel/inc/kdefs.h **** 
 130:arch/armv7m/kernel/inc/kdefs.h **** /* Mutex Priority Inh */
 131:arch/armv7m/kernel/inc/kdefs.h **** #define RK_NO_INHERIT           ((UINT)0)
 132:arch/armv7m/kernel/inc/kdefs.h **** #define RK_INHERIT              ((UINT)1)
 133:arch/armv7m/kernel/inc/kdefs.h **** 
 134:arch/armv7m/kernel/inc/kdefs.h **** 
 135:arch/armv7m/kernel/inc/kdefs.h **** /* Kernel Return Values */
 136:arch/armv7m/kernel/inc/kdefs.h **** 
 137:arch/armv7m/kernel/inc/kdefs.h **** #define RK_SUCCESS                   ((RK_ERR)0x0)
 138:arch/armv7m/kernel/inc/kdefs.h **** /* Generic error (-1) */
 139:arch/armv7m/kernel/inc/kdefs.h **** #define RK_ERROR                     ((RK_ERR)0xFFFFFFFF)
 140:arch/armv7m/kernel/inc/kdefs.h **** 
 141:arch/armv7m/kernel/inc/kdefs.h **** /* Non-service specific errors (-100) */
 142:arch/armv7m/kernel/inc/kdefs.h **** #define RK_ERR_OBJ_NULL              ((RK_ERR)0xFFFFFF9C)
 143:arch/armv7m/kernel/inc/kdefs.h **** #define RK_ERR_OBJ_NOT_INIT          ((RK_ERR)0xFFFFFF9B)
 144:arch/armv7m/kernel/inc/kdefs.h **** #define RK_ERR_LIST_EMPTY            ((RK_ERR)0xFFFFFF9A)
 145:arch/armv7m/kernel/inc/kdefs.h **** #define RK_ERR_EMPTY_WAITING_QUEUE   ((RK_ERR)0xFFFFFF99)
 146:arch/armv7m/kernel/inc/kdefs.h **** #define RK_ERR_READY_QUEUE           ((RK_ERR)0xFFFFFF98)
 147:arch/armv7m/kernel/inc/kdefs.h **** #define RK_ERR_INVALID_PRIO          ((RK_ERR)0xFFFFFF97)
 148:arch/armv7m/kernel/inc/kdefs.h **** #define RK_ERR_OVERFLOW              ((RK_ERR)0xFFFFFF96)
 149:arch/armv7m/kernel/inc/kdefs.h **** #define RK_ERR_KERNEL_VERSION        ((RK_ERR)0xFFFFFF95)
 150:arch/armv7m/kernel/inc/kdefs.h **** #define RK_ERR_TIMEOUT               ((RK_ERR)0xFFFFFF94)
 151:arch/armv7m/kernel/inc/kdefs.h **** #define RK_ERR_INVALID_TIMEOUT       ((RK_ERR)0xFFFFFF93)
 152:arch/armv7m/kernel/inc/kdefs.h **** #define RK_ERR_TASK_INVALID_ST       ((RK_ERR)0xFFFFFF92)
 153:arch/armv7m/kernel/inc/kdefs.h **** #define RK_ERR_INVALID_ISR_PRIMITIVE ((RK_ERR)0xFFFFFF91)
 154:arch/armv7m/kernel/inc/kdefs.h **** #define RK_ERR_INVALID_PARAM         ((RK_ERR)0xFFFFFF90)
 155:arch/armv7m/kernel/inc/kdefs.h **** 
 156:arch/armv7m/kernel/inc/kdefs.h **** /* Memory Pool Service errors (-200)*/
 157:arch/armv7m/kernel/inc/kdefs.h **** #define RK_ERR_MEM_FREE              ((RK_ERR)0xFFFFFF38)
 158:arch/armv7m/kernel/inc/kdefs.h **** #define RK_ERR_MEM_INIT              ((RK_ERR)0xFFFFFF37)
 159:arch/armv7m/kernel/inc/kdefs.h **** 
 160:arch/armv7m/kernel/inc/kdefs.h **** /* Synchronisation Services errors (-300) */
 161:arch/armv7m/kernel/inc/kdefs.h **** #define RK_ERR_MUTEX_REC_LOCK        ((RK_ERR)0xFFFFFED4)
 162:arch/armv7m/kernel/inc/kdefs.h **** #define RK_ERR_MUTEX_NOT_OWNER       ((RK_ERR)0xFFFFFED3)
 163:arch/armv7m/kernel/inc/kdefs.h **** #define RK_ERR_MUTEX_LOCKED          ((RK_ERR)0xFFFFFED2)
 164:arch/armv7m/kernel/inc/kdefs.h **** #define RK_ERR_MUTEX_NOT_LOCKED      ((RK_ERR)0xFFFFFED1)
 165:arch/armv7m/kernel/inc/kdefs.h **** #define RK_ERR_FLAGS_NOT_MET         ((RK_ERR)0xFFFFFED0)
 166:arch/armv7m/kernel/inc/kdefs.h **** #define RK_ERR_BLOCKED_SEMA          ((RK_ERR)0xFFFFFECF)
 167:arch/armv7m/kernel/inc/kdefs.h **** 
 168:arch/armv7m/kernel/inc/kdefs.h **** /* Message Passing Services (-400) */
 169:arch/armv7m/kernel/inc/kdefs.h **** #define RK_ERR_INVALID_QUEUE_SIZE    ((RK_ERR)0xFFFFFE70)
 170:arch/armv7m/kernel/inc/kdefs.h **** #define RK_ERR_INVALID_MESG_SIZE     ((RK_ERR)0xFFFFFE69)
 171:arch/armv7m/kernel/inc/kdefs.h **** #define RK_ERR_MBOX_FULL             ((RK_ERR)0xFFFFFE68)
 172:arch/armv7m/kernel/inc/kdefs.h **** #define RK_ERR_MBOX_EMPTY            ((RK_ERR)0xFFFFFE67)
 173:arch/armv7m/kernel/inc/kdefs.h **** #define RK_ERR_STREAM_FULL           ((RK_ERR)0xFFFFFE66)
 174:arch/armv7m/kernel/inc/kdefs.h **** #define RK_ERR_STREAM_EMPTY          ((RK_ERR)0xFFFFFE65)
 175:arch/armv7m/kernel/inc/kdefs.h **** #define RK_ERR_QUEUE_FULL            ((RK_ERR)0xFFFFFE64)
 176:arch/armv7m/kernel/inc/kdefs.h **** #define RK_ERR_QUEUE_EMPTY           ((RK_ERR)0xFFFFFE63)
 177:arch/armv7m/kernel/inc/kdefs.h **** #define RK_ERR_INVALID_RECEIVER      ((RK_ERR)0xFFFFFE62)
 178:arch/armv7m/kernel/inc/kdefs.h **** #define RK_ERR_PORT_OWNER            ((RK_ERR)0xFFFFFE61)
 179:arch/armv7m/kernel/inc/kdefs.h **** 
 180:arch/armv7m/kernel/inc/kdefs.h **** /* Faults */
 181:arch/armv7m/kernel/inc/kdefs.h **** 
 182:arch/armv7m/kernel/inc/kdefs.h **** #define RK_GENERIC_FAULT                 RK_ERROR
 183:arch/armv7m/kernel/inc/kdefs.h **** #define RK_FAULT_READY_QUEUE             RK_ERR_READY_QUEUE
ARM GAS  /var/folders/fg/4fzv35n91mbcgx4z5jzqdsl40000gn/T//cc8adue3.s 			page 6


 184:arch/armv7m/kernel/inc/kdefs.h **** #define RK_FAULT_OBJ_NULL                RK_ERR_OBJ_NULL
 185:arch/armv7m/kernel/inc/kdefs.h **** #define RK_FAULT_KERNEL_VERSION          RK_ERR_KERNEL_VERSION
 186:arch/armv7m/kernel/inc/kdefs.h **** #define RK_FAULT_OBJ_NOT_INIT            RK_ERR_OBJ_NOT_INIT
 187:arch/armv7m/kernel/inc/kdefs.h **** #define RK_FAULT_TASK_INVALID_PRIO       RK_ERR_INVALID_PRIO
 188:arch/armv7m/kernel/inc/kdefs.h **** #define RK_FAULT_UNLOCK_OWNED_MUTEX      RK_ERR_MUTEX_NOT_OWNER
 189:arch/armv7m/kernel/inc/kdefs.h **** #define RK_FAULT_INVALID_ISR_PRIMITIVE   RK_ERR_INVALID_ISR_PRIMITIVE
 190:arch/armv7m/kernel/inc/kdefs.h **** #define RK_FAULT_TASK_INVALID_STATE      RK_ERR_TASK_INVALID_ST
 191:arch/armv7m/kernel/inc/kdefs.h **** 
 192:arch/armv7m/kernel/inc/kdefs.h **** /* Task Status */
 193:arch/armv7m/kernel/inc/kdefs.h **** 
 194:arch/armv7m/kernel/inc/kdefs.h **** 
 195:arch/armv7m/kernel/inc/kdefs.h **** #define RK_INVALID_TASK_STATE     ((RK_TASK_STATUS)0x00)
 196:arch/armv7m/kernel/inc/kdefs.h **** #define RK_READY                  ((RK_TASK_STATUS)0x10)
 197:arch/armv7m/kernel/inc/kdefs.h **** #define RK_RUNNING                ((RK_TASK_STATUS)0x20)
 198:arch/armv7m/kernel/inc/kdefs.h **** #define RK_SLEEPING               ((RK_TASK_STATUS)0x30)
 199:arch/armv7m/kernel/inc/kdefs.h **** #define RK_PENDING_TASK_FLAGS     ((RK_TASK_STATUS)(RK_SLEEPING + 1U))
 200:arch/armv7m/kernel/inc/kdefs.h **** #define RK_BLOCKED                ((RK_TASK_STATUS)(RK_SLEEPING + 2U))
 201:arch/armv7m/kernel/inc/kdefs.h **** #define RK_SENDING                ((RK_TASK_STATUS)(RK_SLEEPING + 3U))
 202:arch/armv7m/kernel/inc/kdefs.h **** #define RK_RECEIVING              ((RK_TASK_STATUS)(RK_SLEEPING + 4U))
 203:arch/armv7m/kernel/inc/kdefs.h **** 
 204:arch/armv7m/kernel/inc/kdefs.h **** 
 205:arch/armv7m/kernel/inc/kdefs.h **** /* Kernel Objects ID */
 206:arch/armv7m/kernel/inc/kdefs.h **** 
 207:arch/armv7m/kernel/inc/kdefs.h **** #define RK_INVALID_KOBJ           ((RK_KOBJ_ID)0x0)
 208:arch/armv7m/kernel/inc/kdefs.h **** 
 209:arch/armv7m/kernel/inc/kdefs.h **** #define RK_SEMAPHORE_KOBJ_ID      ((RK_KOBJ_ID)0x1)
 210:arch/armv7m/kernel/inc/kdefs.h **** #define RK_EVENT_KOBJ_ID          ((RK_KOBJ_ID)0x2)
 211:arch/armv7m/kernel/inc/kdefs.h **** #define RK_MUTEX_KOBJ_ID          ((RK_KOBJ_ID)0x3)
 212:arch/armv7m/kernel/inc/kdefs.h **** #define RK_MAILBOX_KOBJ_ID        ((RK_KOBJ_ID)0x4)
 213:arch/armv7m/kernel/inc/kdefs.h **** #define RK_MAILQUEUE_KOBJ_ID      ((RK_KOBJ_ID)0x5)
 214:arch/armv7m/kernel/inc/kdefs.h **** #define RK_STREAMQUEUE_KOBJ_ID    ((RK_KOBJ_ID)0x6)
 215:arch/armv7m/kernel/inc/kdefs.h **** #define RK_MRM_KOBJ_ID            ((RK_KOBJ_ID)0x7)
 216:arch/armv7m/kernel/inc/kdefs.h **** #define RK_TIMER_KOBJ_ID          ((RK_KOBJ_ID)0x8)
 217:arch/armv7m/kernel/inc/kdefs.h **** #define RK_MEMALLOC_KOBJ_ID       ((RK_KOBJ_ID)0x9)
 218:arch/armv7m/kernel/inc/kdefs.h **** #define RK_TASKHANDLE_KOBJ_ID     ((RK_KOBJ_ID)0xA)
 219:arch/armv7m/kernel/inc/kdefs.h **** #define RK_PORT_KOBJ_ID           ((RK_KOBJ_ID)0xB)
 220:arch/armv7m/kernel/inc/kdefs.h **** 
 221:arch/armv7m/kernel/inc/kdefs.h **** /* Kernel Objects Typedefs */
 222:arch/armv7m/kernel/inc/kdefs.h **** 
 223:arch/armv7m/kernel/inc/kdefs.h **** /* Any typedef _HANDLE is a pointer to an object */
 224:arch/armv7m/kernel/inc/kdefs.h **** 
 225:arch/armv7m/kernel/inc/kdefs.h **** typedef struct kTcb RK_TCB;/* Task Control Block */
 226:arch/armv7m/kernel/inc/kdefs.h **** typedef struct kMemBlock RK_MEM;/* Mem Alloc Control Block */
 227:arch/armv7m/kernel/inc/kdefs.h **** typedef struct kList RK_LIST;/* DList ADT used for TCBs */
 228:arch/armv7m/kernel/inc/kdefs.h **** typedef struct kListNode RK_NODE;/* DList Node */
 229:arch/armv7m/kernel/inc/kdefs.h **** typedef RK_LIST RK_TCBQ;/* Alias for RK_LIST for readability */
 230:arch/armv7m/kernel/inc/kdefs.h **** typedef struct kTcb *RK_TASK_HANDLE;/* Pointer to TCB is a Task Handle */
 231:arch/armv7m/kernel/inc/kdefs.h **** typedef struct kTimeoutNode RK_TIMEOUT_NODE;/* Node for time-out delta list */
 232:arch/armv7m/kernel/inc/kdefs.h **** #if (RK_CONF_CALLOUT_TIMER==ON)
 233:arch/armv7m/kernel/inc/kdefs.h **** typedef struct kTimer RK_TIMER;
 234:arch/armv7m/kernel/inc/kdefs.h **** #endif
 235:arch/armv7m/kernel/inc/kdefs.h **** #if (RK_CONF_EVENT==ON)
 236:arch/armv7m/kernel/inc/kdefs.h **** typedef struct kEvent RK_EVENT;
 237:arch/armv7m/kernel/inc/kdefs.h **** #endif
 238:arch/armv7m/kernel/inc/kdefs.h **** #if (RK_CONF_SEMA == ON)
 239:arch/armv7m/kernel/inc/kdefs.h **** typedef struct kSema RK_SEMA;
 240:arch/armv7m/kernel/inc/kdefs.h **** #endif
ARM GAS  /var/folders/fg/4fzv35n91mbcgx4z5jzqdsl40000gn/T//cc8adue3.s 			page 7


 241:arch/armv7m/kernel/inc/kdefs.h **** #if (RK_CONF_MUTEX == ON)
 242:arch/armv7m/kernel/inc/kdefs.h **** typedef struct kMutex RK_MUTEX;
 243:arch/armv7m/kernel/inc/kdefs.h **** #endif
 244:arch/armv7m/kernel/inc/kdefs.h **** #if (RK_CONF_MBOX == ON)
 245:arch/armv7m/kernel/inc/kdefs.h **** typedef struct kMailbox RK_MBOX;
 246:arch/armv7m/kernel/inc/kdefs.h **** #endif
 247:arch/armv7m/kernel/inc/kdefs.h **** #if (RK_CONF_QUEUE==ON)
 248:arch/armv7m/kernel/inc/kdefs.h **** typedef struct kQ RK_QUEUE;
 249:arch/armv7m/kernel/inc/kdefs.h **** #endif
 250:arch/armv7m/kernel/inc/kdefs.h **** #if (RK_CONF_STREAM == ON)
 251:arch/armv7m/kernel/inc/kdefs.h **** typedef struct kStream RK_STREAM;
 252:arch/armv7m/kernel/inc/kdefs.h **** #endif
 253:arch/armv7m/kernel/inc/kdefs.h **** #if (RK_CONF_MRM == ON)
 254:arch/armv7m/kernel/inc/kdefs.h **** typedef struct kMRMBuf RK_MRM_BUF;
 255:arch/armv7m/kernel/inc/kdefs.h **** typedef struct kMRMMem RK_MRM;
 256:arch/armv7m/kernel/inc/kdefs.h **** #endif
 257:arch/armv7m/kernel/inc/kdefs.h **** 
 258:arch/armv7m/kernel/inc/kdefs.h **** /* Inlined and Macro Helpers */
 259:arch/armv7m/kernel/inc/kdefs.h **** 
 260:arch/armv7m/kernel/inc/kdefs.h **** /* Assembly Helpers */
 261:arch/armv7m/kernel/inc/kdefs.h **** #define _RK_DMB                          __ASM volatile ("dmb 0xF":::"memory");
 262:arch/armv7m/kernel/inc/kdefs.h **** #define _RK_DSB                          __ASM volatile ("dsb 0xF":::"memory");
 263:arch/armv7m/kernel/inc/kdefs.h **** #define _RK_ISB                          __ASM volatile ("isb 0xF":::"memory");
 264:arch/armv7m/kernel/inc/kdefs.h **** #define _RK_NOP                          __ASM volatile ("nop");
 265:arch/armv7m/kernel/inc/kdefs.h **** #define _RK_STUP                         __ASM volatile("svc #0xAA");
 266:arch/armv7m/kernel/inc/kdefs.h **** 
 267:arch/armv7m/kernel/inc/kdefs.h **** /* Processor Core Management  */
 268:arch/armv7m/kernel/inc/kdefs.h **** 
 269:arch/armv7m/kernel/inc/kdefs.h **** #define RK_CR_AREA  UINT crState_;
 270:arch/armv7m/kernel/inc/kdefs.h **** #define RK_CR_ENTER crState_ = kEnterCR();
 271:arch/armv7m/kernel/inc/kdefs.h **** #define RK_CR_EXIT  kExitCR(crState_);
 272:arch/armv7m/kernel/inc/kdefs.h **** #define RK_PEND_CTXTSWTCH RK_TRAP_PENDSV
 273:arch/armv7m/kernel/inc/kdefs.h **** #define RK_READY_HIGHER_PRIO(ptr) ((ptr->priority < nextTaskPrio) ? 1U : 0)
 274:arch/armv7m/kernel/inc/kdefs.h **** #define RK_TRAP_PENDSV  \
 275:arch/armv7m/kernel/inc/kdefs.h ****      RK_CORE_SCB->ICSR |= (1<<28U); \
 276:arch/armv7m/kernel/inc/kdefs.h ****     _RK_DSB \
 277:arch/armv7m/kernel/inc/kdefs.h ****     _RK_ISB
 278:arch/armv7m/kernel/inc/kdefs.h **** 
 279:arch/armv7m/kernel/inc/kdefs.h **** #define RK_TRAP_SVC(N)  \
 280:arch/armv7m/kernel/inc/kdefs.h ****     do { asm volatile ("svc %0" :: "i" (N)); } while(0)
 281:arch/armv7m/kernel/inc/kdefs.h **** 
 282:arch/armv7m/kernel/inc/kdefs.h **** #define RK_TICK_EN  RK_CORE_SYSTICK->CTRL |= 0xFFFFFFFF;
 283:arch/armv7m/kernel/inc/kdefs.h **** #define RK_TICK_DIS RK_CORE_SYSTICK->CTRL &= 0xFFFFFFFE;
 284:arch/armv7m/kernel/inc/kdefs.h **** 
 285:arch/armv7m/kernel/inc/kdefs.h **** /* Misc Helpers */
 286:arch/armv7m/kernel/inc/kdefs.h **** #define KERR                kErrHandler
 287:arch/armv7m/kernel/inc/kdefs.h **** 
 288:arch/armv7m/kernel/inc/kdefs.h **** #define RK_IS_BLOCK_ON_ISR(timeout) ((kIsISR() && (timeout > 0)) ? (1U) : (0))
 289:arch/armv7m/kernel/inc/kdefs.h **** 
 290:arch/armv7m/kernel/inc/kdefs.h **** #define RK_GET_CONTAINER_ADDR(memberPtr, containerType, memberName) \
 291:arch/armv7m/kernel/inc/kdefs.h ****     ((containerType *)((unsigned char *)(memberPtr) - \
 292:arch/armv7m/kernel/inc/kdefs.h ****      offsetof(containerType, memberName)))
 293:arch/armv7m/kernel/inc/kdefs.h **** 
 294:arch/armv7m/kernel/inc/kdefs.h **** #define RK_IS_NULL_PTR(ptr) ((ptr) == NULL ? 1U : 0)
 295:arch/armv7m/kernel/inc/kdefs.h **** 
 296:arch/armv7m/kernel/inc/kdefs.h **** #define RK_NOARGS (NULL)
 297:arch/armv7m/kernel/inc/kdefs.h **** 
ARM GAS  /var/folders/fg/4fzv35n91mbcgx4z5jzqdsl40000gn/T//cc8adue3.s 			page 8


 298:arch/armv7m/kernel/inc/kdefs.h **** #define RK_UNUSEARGS (void)(args);
 299:arch/armv7m/kernel/inc/kdefs.h **** 
 300:arch/armv7m/kernel/inc/kdefs.h **** #ifdef NDEBUG
 301:arch/armv7m/kernel/inc/kdefs.h **** #define kassert(x) ((void)0)
 302:arch/armv7m/kernel/inc/kdefs.h **** #else
 303:arch/armv7m/kernel/inc/kdefs.h **** #define kassert(x) ((x) ? (void)0 : KERR(0))
 304:arch/armv7m/kernel/inc/kdefs.h **** #endif
 305:arch/armv7m/kernel/inc/kdefs.h **** 
 306:arch/armv7m/kernel/inc/kdefs.h **** 
 307:arch/armv7m/kernel/inc/kdefs.h **** __attribute__((always_inline)) static inline
 308:arch/armv7m/kernel/inc/kdefs.h **** unsigned kIsISR( void)
  56              		.loc 2 308 10 view .LVU6
  57              	.LBB17:
 309:arch/armv7m/kernel/inc/kdefs.h **** {
 310:arch/armv7m/kernel/inc/kdefs.h ****     unsigned ipsr_value;
  58              		.loc 2 310 5 view .LVU7
 311:arch/armv7m/kernel/inc/kdefs.h ****     __ASM ("MRS %0, IPSR" : "=r"(ipsr_value));
  59              		.loc 2 311 5 view .LVU8
  60              		.syntax unified
  61              	@ 311 "arch/armv7m/kernel/inc/kdefs.h" 1
  62 0012 EFF30583 		MRS r3, IPSR
  63              	@ 0 "" 2
 312:arch/armv7m/kernel/inc/kdefs.h ****     __ASM volatile ("dmb 0xF":::"memory");
  64              		.loc 2 312 5 view .LVU9
  65              	@ 312 "arch/armv7m/kernel/inc/kdefs.h" 1
  66 0016 BFF35F8F 		dmb 0xF
  67              	@ 0 "" 2
 313:arch/armv7m/kernel/inc/kdefs.h ****     return (ipsr_value);
  68              		.loc 2 313 5 view .LVU10
  69              		.thumb
  70              		.syntax unified
  71              	.LBE17:
  72              	.LBE16:
  73              		.loc 1 48 5 is_stmt 0 view .LVU11
  74 001a 002B     		cmp	r3, #0
  75 001c 42D1     		bne	.L16
  49:core/src/ksynch.c **** 	{
  50:core/src/ksynch.c **** 		RK_CR_EXIT
  51:core/src/ksynch.c **** 		return (RK_ERR_INVALID_ISR_PRIMITIVE);
  52:core/src/ksynch.c **** 	}
  53:core/src/ksynch.c **** 
  54:core/src/ksynch.c **** 	if ((options != RK_FLAGS_ALL && options != RK_FLAGS_ANY) || required == 0UL)
  76              		.loc 1 54 2 is_stmt 1 view .LVU12
  77              		.loc 1 54 5 is_stmt 0 view .LVU13
  78 001e 082C     		cmp	r4, #8
  79 0020 01D0     		beq	.L4
  80              		.loc 1 54 31 discriminator 1 view .LVU14
  81 0022 042C     		cmp	r4, #4
  82 0024 43D1     		bne	.L5
  83              	.L4:
  84              		.loc 1 54 59 discriminator 3 view .LVU15
  85 0026 002D     		cmp	r5, #0
  86 0028 41D0     		beq	.L5
  55:core/src/ksynch.c **** 	{
  56:core/src/ksynch.c **** 		RK_CR_EXIT
  57:core/src/ksynch.c **** 		return (RK_ERR_INVALID_PARAM);
  58:core/src/ksynch.c **** 	}
ARM GAS  /var/folders/fg/4fzv35n91mbcgx4z5jzqdsl40000gn/T//cc8adue3.s 			page 9


  59:core/src/ksynch.c **** 
  60:core/src/ksynch.c **** 	runPtr->requiredTaskFlags = required;
  87              		.loc 1 60 2 is_stmt 1 view .LVU16
  88              		.loc 1 60 8 is_stmt 0 view .LVU17
  89 002a 3C4B     		ldr	r3, .L23
  90 002c 1B68     		ldr	r3, [r3]
  91              		.loc 1 60 28 view .LVU18
  92 002e 1D62     		str	r5, [r3, #32]
  61:core/src/ksynch.c **** 	runPtr->taskFlagsOptions = options;
  93              		.loc 1 61 2 is_stmt 1 view .LVU19
  94              		.loc 1 61 27 is_stmt 0 view .LVU20
  95 0030 9C62     		str	r4, [r3, #40]
  62:core/src/ksynch.c **** 
  63:core/src/ksynch.c **** 	if (gotFlagsPtr != NULL)
  96              		.loc 1 63 2 is_stmt 1 view .LVU21
  97              		.loc 1 63 5 is_stmt 0 view .LVU22
  98 0032 0FB1     		cbz	r7, .L7
  64:core/src/ksynch.c **** 		*gotFlagsPtr = runPtr->currentTaskFlags;
  99              		.loc 1 64 3 is_stmt 1 view .LVU23
 100              		.loc 1 64 24 is_stmt 0 view .LVU24
 101 0034 5B6A     		ldr	r3, [r3, #36]
 102              		.loc 1 64 16 view .LVU25
 103 0036 3B60     		str	r3, [r7]
 104              	.L7:
  65:core/src/ksynch.c **** 
  66:core/src/ksynch.c **** 	BOOL andLogic = (options == RK_FLAGS_ALL);
 105              		.loc 1 66 2 is_stmt 1 view .LVU26
 106              	.LVL3:
  67:core/src/ksynch.c **** 	BOOL conditionMet = 0;
 107              		.loc 1 67 2 view .LVU27
  68:core/src/ksynch.c **** 
  69:core/src/ksynch.c **** 	if (andLogic)
 108              		.loc 1 69 2 view .LVU28
 109              		.loc 1 69 5 is_stmt 0 view .LVU29
 110 0038 082C     		cmp	r4, #8
 111 003a 3ED0     		beq	.L17
  70:core/src/ksynch.c **** 	{
  71:core/src/ksynch.c **** 		conditionMet = ((runPtr->currentTaskFlags & required)
  72:core/src/ksynch.c **** 				== (runPtr->requiredTaskFlags));
  73:core/src/ksynch.c **** 	}
  74:core/src/ksynch.c **** 	else
  75:core/src/ksynch.c **** 	{
  76:core/src/ksynch.c **** 		conditionMet = (runPtr->currentTaskFlags & required);
 112              		.loc 1 76 3 is_stmt 1 view .LVU30
 113              		.loc 1 76 25 is_stmt 0 view .LVU31
 114 003c 374B     		ldr	r3, .L23
 115 003e 1B68     		ldr	r3, [r3]
 116 0040 5B6A     		ldr	r3, [r3, #36]
 117              		.loc 1 76 16 view .LVU32
 118 0042 2B40     		ands	r3, r3, r5
 119              	.LVL4:
 120              	.L9:
  77:core/src/ksynch.c **** 	}
  78:core/src/ksynch.c **** 
  79:core/src/ksynch.c **** 	if (conditionMet)
 121              		.loc 1 79 2 is_stmt 1 view .LVU33
 122              		.loc 1 79 5 is_stmt 0 view .LVU34
ARM GAS  /var/folders/fg/4fzv35n91mbcgx4z5jzqdsl40000gn/T//cc8adue3.s 			page 10


 123 0044 002B     		cmp	r3, #0
 124 0046 42D1     		bne	.L18
  80:core/src/ksynch.c **** 	{
  81:core/src/ksynch.c **** 		runPtr->currentTaskFlags &= ~runPtr->requiredTaskFlags;
  82:core/src/ksynch.c **** 		RK_CR_EXIT
  83:core/src/ksynch.c **** 		return (RK_SUCCESS);
  84:core/src/ksynch.c **** 	}
  85:core/src/ksynch.c **** 	if (timeout == RK_NO_WAIT)
 125              		.loc 1 85 2 is_stmt 1 view .LVU35
 126              		.loc 1 85 5 is_stmt 0 view .LVU36
 127 0048 002E     		cmp	r6, #0
 128 004a 4CD0     		beq	.L19
  86:core/src/ksynch.c **** 	{
  87:core/src/ksynch.c **** 		RK_CR_EXIT
  88:core/src/ksynch.c **** 		return (RK_ERR_FLAGS_NOT_MET);
  89:core/src/ksynch.c **** 	}
  90:core/src/ksynch.c **** 
  91:core/src/ksynch.c **** 	runPtr->status = RK_PENDING_TASK_FLAGS;
 129              		.loc 1 91 2 is_stmt 1 view .LVU37
 130              		.loc 1 91 8 is_stmt 0 view .LVU38
 131 004c 334B     		ldr	r3, .L23
 132              	.LVL5:
 133              		.loc 1 91 8 view .LVU39
 134 004e 1868     		ldr	r0, [r3]
 135              	.LVL6:
 136              		.loc 1 91 17 view .LVU40
 137 0050 3123     		movs	r3, #49
 138 0052 4360     		str	r3, [r0, #4]
  92:core/src/ksynch.c **** 
  93:core/src/ksynch.c **** 	if ((timeout > RK_NO_WAIT) && (timeout != RK_WAIT_FOREVER))
 139              		.loc 1 93 2 is_stmt 1 view .LVU41
 140              		.loc 1 93 5 is_stmt 0 view .LVU42
 141 0054 002E     		cmp	r6, #0
 142 0056 4BDC     		bgt	.L20
 143              	.L12:
  94:core/src/ksynch.c **** 	{
  95:core/src/ksynch.c **** 		RK_TASK_TIMEOUT_NOWAITINGQUEUE_SETUP
  96:core/src/ksynch.c **** 
  97:core/src/ksynch.c **** 		kTimeOut( &runPtr->timeoutNode, timeout);
  98:core/src/ksynch.c **** 	}
  99:core/src/ksynch.c **** 	RK_PEND_CTXTSWTCH
 144              		.loc 1 99 2 is_stmt 1 view .LVU43
 145 0058 314A     		ldr	r2, .L23+4
 146 005a 5368     		ldr	r3, [r2, #4]
 147 005c 43F08053 		orr	r3, r3, #268435456
 148 0060 5360     		str	r3, [r2, #4]
 149              		.loc 1 99 2 view .LVU44
 150              		.syntax unified
 151              	@ 99 "core/src/ksynch.c" 1
 152 0062 BFF34F8F 		dsb 0xF
 153              	@ 0 "" 2
 154              		.loc 1 99 2 view .LVU45
 155              	@ 99 "core/src/ksynch.c" 1
 156 0066 BFF36F8F 		isb 0xF
 157              	@ 0 "" 2
 100:core/src/ksynch.c **** 	RK_CR_EXIT
 158              		.loc 1 100 2 view .LVU46
ARM GAS  /var/folders/fg/4fzv35n91mbcgx4z5jzqdsl40000gn/T//cc8adue3.s 			page 11


 159              		.thumb
 160              		.syntax unified
 161 006a 4046     		mov	r0, r8
 162 006c FFF7FEFF 		bl	kExitCR
 163              	.LVL7:
 101:core/src/ksynch.c **** 	RK_CR_ENTER
 164              		.loc 1 101 2 view .LVU47
 165 0070 FFF7FEFF 		bl	kEnterCR
 166              	.LVL8:
 167 0074 0446     		mov	r4, r0
 168              	.LVL9:
 102:core/src/ksynch.c **** 	if (runPtr->timeOut)
 169              		.loc 1 102 2 view .LVU48
 170              		.loc 1 102 12 is_stmt 0 view .LVU49
 171 0076 294B     		ldr	r3, .L23
 172 0078 1868     		ldr	r0, [r3]
 173              	.LVL10:
 174              		.loc 1 102 12 view .LVU50
 175 007a 836B     		ldr	r3, [r0, #56]
 176              		.loc 1 102 5 view .LVU51
 177 007c 002B     		cmp	r3, #0
 178 007e 40D1     		bne	.L21
 103:core/src/ksynch.c **** 	{
 104:core/src/ksynch.c **** 		runPtr->timeOut = FALSE;
 105:core/src/ksynch.c **** 		RK_CR_EXIT
 106:core/src/ksynch.c **** 		return (RK_ERR_TIMEOUT);
 107:core/src/ksynch.c **** 	}
 108:core/src/ksynch.c **** 	if (timeout > RK_NO_WAIT && timeout != RK_WAIT_FOREVER)
 179              		.loc 1 108 2 is_stmt 1 view .LVU52
 180              		.loc 1 108 5 is_stmt 0 view .LVU53
 181 0080 002E     		cmp	r6, #0
 182 0082 46DC     		bgt	.L22
 183              	.L14:
 109:core/src/ksynch.c **** 		kRemoveTimeoutNode( &runPtr->timeoutNode);
 110:core/src/ksynch.c **** 
 111:core/src/ksynch.c **** 	*gotFlagsPtr = runPtr->currentTaskFlags;
 184              		.loc 1 111 2 is_stmt 1 view .LVU54
 185              		.loc 1 111 23 is_stmt 0 view .LVU55
 186 0084 254B     		ldr	r3, .L23
 187 0086 1A68     		ldr	r2, [r3]
 188 0088 526A     		ldr	r2, [r2, #36]
 189              		.loc 1 111 15 view .LVU56
 190 008a 3A60     		str	r2, [r7]
 112:core/src/ksynch.c **** 
 113:core/src/ksynch.c **** 	runPtr->currentTaskFlags &= ~runPtr->requiredTaskFlags;
 191              		.loc 1 113 2 is_stmt 1 view .LVU57
 192              		.loc 1 113 8 is_stmt 0 view .LVU58
 193 008c 1B68     		ldr	r3, [r3]
 194 008e 5A6A     		ldr	r2, [r3, #36]
 195              		.loc 1 113 37 view .LVU59
 196 0090 196A     		ldr	r1, [r3, #32]
 197              		.loc 1 113 27 view .LVU60
 198 0092 22EA0102 		bic	r2, r2, r1
 199 0096 5A62     		str	r2, [r3, #36]
 114:core/src/ksynch.c **** 
 115:core/src/ksynch.c **** 	RK_CR_EXIT
 200              		.loc 1 115 2 is_stmt 1 view .LVU61
ARM GAS  /var/folders/fg/4fzv35n91mbcgx4z5jzqdsl40000gn/T//cc8adue3.s 			page 12


 201 0098 2046     		mov	r0, r4
 202 009a FFF7FEFF 		bl	kExitCR
 203              	.LVL11:
 116:core/src/ksynch.c **** 
 117:core/src/ksynch.c **** 	return (RK_SUCCESS);
 204              		.loc 1 117 2 view .LVU62
 205              		.loc 1 117 9 is_stmt 0 view .LVU63
 206 009e 0020     		movs	r0, #0
 207              	.LVL12:
 208              	.L1:
 118:core/src/ksynch.c **** 
 119:core/src/ksynch.c **** }
 209              		.loc 1 119 1 view .LVU64
 210 00a0 BDE8F081 		pop	{r4, r5, r6, r7, r8, pc}
 211              	.LVL13:
 212              	.L16:
  50:core/src/ksynch.c **** 		return (RK_ERR_INVALID_ISR_PRIMITIVE);
 213              		.loc 1 50 3 is_stmt 1 view .LVU65
 214 00a4 FFF7FEFF 		bl	kExitCR
 215              	.LVL14:
  51:core/src/ksynch.c **** 	}
 216              		.loc 1 51 3 view .LVU66
  51:core/src/ksynch.c **** 	}
 217              		.loc 1 51 10 is_stmt 0 view .LVU67
 218 00a8 6FF06E00 		mvn	r0, #110
 219 00ac F8E7     		b	.L1
 220              	.LVL15:
 221              	.L5:
  56:core/src/ksynch.c **** 		return (RK_ERR_INVALID_PARAM);
 222              		.loc 1 56 3 is_stmt 1 view .LVU68
 223 00ae 4046     		mov	r0, r8
 224              	.LVL16:
  56:core/src/ksynch.c **** 		return (RK_ERR_INVALID_PARAM);
 225              		.loc 1 56 3 is_stmt 0 view .LVU69
 226 00b0 FFF7FEFF 		bl	kExitCR
 227              	.LVL17:
  57:core/src/ksynch.c **** 	}
 228              		.loc 1 57 3 is_stmt 1 view .LVU70
  57:core/src/ksynch.c **** 	}
 229              		.loc 1 57 10 is_stmt 0 view .LVU71
 230 00b4 6FF06F00 		mvn	r0, #111
 231 00b8 F2E7     		b	.L1
 232              	.LVL18:
 233              	.L17:
  71:core/src/ksynch.c **** 				== (runPtr->requiredTaskFlags));
 234              		.loc 1 71 3 is_stmt 1 view .LVU72
  71:core/src/ksynch.c **** 				== (runPtr->requiredTaskFlags));
 235              		.loc 1 71 26 is_stmt 0 view .LVU73
 236 00ba 184B     		ldr	r3, .L23
 237 00bc 1A68     		ldr	r2, [r3]
 238 00be 536A     		ldr	r3, [r2, #36]
  71:core/src/ksynch.c **** 				== (runPtr->requiredTaskFlags));
 239              		.loc 1 71 45 view .LVU74
 240 00c0 2B40     		ands	r3, r3, r5
  72:core/src/ksynch.c **** 	}
 241              		.loc 1 72 15 view .LVU75
 242 00c2 126A     		ldr	r2, [r2, #32]
ARM GAS  /var/folders/fg/4fzv35n91mbcgx4z5jzqdsl40000gn/T//cc8adue3.s 			page 13


  72:core/src/ksynch.c **** 	}
 243              		.loc 1 72 5 view .LVU76
 244 00c4 9342     		cmp	r3, r2
 245 00c6 14BF     		ite	ne
 246 00c8 0023     		movne	r3, #0
 247 00ca 0123     		moveq	r3, #1
 248              	.LVL19:
  72:core/src/ksynch.c **** 	}
 249              		.loc 1 72 5 view .LVU77
 250 00cc BAE7     		b	.L9
 251              	.L18:
  81:core/src/ksynch.c **** 		RK_CR_EXIT
 252              		.loc 1 81 3 is_stmt 1 view .LVU78
  81:core/src/ksynch.c **** 		RK_CR_EXIT
 253              		.loc 1 81 9 is_stmt 0 view .LVU79
 254 00ce 134B     		ldr	r3, .L23
 255              	.LVL20:
  81:core/src/ksynch.c **** 		RK_CR_EXIT
 256              		.loc 1 81 9 view .LVU80
 257 00d0 1B68     		ldr	r3, [r3]
 258 00d2 5A6A     		ldr	r2, [r3, #36]
  81:core/src/ksynch.c **** 		RK_CR_EXIT
 259              		.loc 1 81 38 view .LVU81
 260 00d4 196A     		ldr	r1, [r3, #32]
  81:core/src/ksynch.c **** 		RK_CR_EXIT
 261              		.loc 1 81 28 view .LVU82
 262 00d6 22EA0102 		bic	r2, r2, r1
 263 00da 5A62     		str	r2, [r3, #36]
  82:core/src/ksynch.c **** 		return (RK_SUCCESS);
 264              		.loc 1 82 3 is_stmt 1 view .LVU83
 265 00dc 4046     		mov	r0, r8
 266              	.LVL21:
  82:core/src/ksynch.c **** 		return (RK_SUCCESS);
 267              		.loc 1 82 3 is_stmt 0 view .LVU84
 268 00de FFF7FEFF 		bl	kExitCR
 269              	.LVL22:
  83:core/src/ksynch.c **** 	}
 270              		.loc 1 83 3 is_stmt 1 view .LVU85
  83:core/src/ksynch.c **** 	}
 271              		.loc 1 83 10 is_stmt 0 view .LVU86
 272 00e2 0020     		movs	r0, #0
 273 00e4 DCE7     		b	.L1
 274              	.LVL23:
 275              	.L19:
  87:core/src/ksynch.c **** 		return (RK_ERR_FLAGS_NOT_MET);
 276              		.loc 1 87 3 is_stmt 1 view .LVU87
 277 00e6 4046     		mov	r0, r8
 278              	.LVL24:
  87:core/src/ksynch.c **** 		return (RK_ERR_FLAGS_NOT_MET);
 279              		.loc 1 87 3 is_stmt 0 view .LVU88
 280 00e8 FFF7FEFF 		bl	kExitCR
 281              	.LVL25:
  88:core/src/ksynch.c **** 	}
 282              		.loc 1 88 3 is_stmt 1 view .LVU89
  88:core/src/ksynch.c **** 	}
 283              		.loc 1 88 10 is_stmt 0 view .LVU90
 284 00ec 0D48     		ldr	r0, .L23+8
ARM GAS  /var/folders/fg/4fzv35n91mbcgx4z5jzqdsl40000gn/T//cc8adue3.s 			page 14


 285 00ee D7E7     		b	.L1
 286              	.L20:
  95:core/src/ksynch.c **** 
 287              		.loc 1 95 3 is_stmt 1 view .LVU91
 288 00f0 0223     		movs	r3, #2
 289 00f2 C364     		str	r3, [r0, #76]
  95:core/src/ksynch.c **** 
 290              		.loc 1 95 3 view .LVU92
 291 00f4 0023     		movs	r3, #0
 292 00f6 8365     		str	r3, [r0, #88]
  97:core/src/ksynch.c **** 	}
 293              		.loc 1 97 3 view .LVU93
 294 00f8 3146     		mov	r1, r6
 295 00fa 4430     		adds	r0, r0, #68
 296 00fc FFF7FEFF 		bl	kTimeOut
 297              	.LVL26:
 298 0100 AAE7     		b	.L12
 299              	.LVL27:
 300              	.L21:
 104:core/src/ksynch.c **** 		RK_CR_EXIT
 301              		.loc 1 104 3 view .LVU94
 104:core/src/ksynch.c **** 		RK_CR_EXIT
 302              		.loc 1 104 19 is_stmt 0 view .LVU95
 303 0102 0023     		movs	r3, #0
 304 0104 8363     		str	r3, [r0, #56]
 105:core/src/ksynch.c **** 		return (RK_ERR_TIMEOUT);
 305              		.loc 1 105 3 is_stmt 1 view .LVU96
 306 0106 2046     		mov	r0, r4
 307 0108 FFF7FEFF 		bl	kExitCR
 308              	.LVL28:
 106:core/src/ksynch.c **** 	}
 309              		.loc 1 106 3 view .LVU97
 106:core/src/ksynch.c **** 	}
 310              		.loc 1 106 10 is_stmt 0 view .LVU98
 311 010c 6FF06B00 		mvn	r0, #107
 312 0110 C6E7     		b	.L1
 313              	.L22:
 109:core/src/ksynch.c **** 
 314              		.loc 1 109 3 is_stmt 1 view .LVU99
 315 0112 4430     		adds	r0, r0, #68
 316 0114 FFF7FEFF 		bl	kRemoveTimeoutNode
 317              	.LVL29:
 318 0118 B4E7     		b	.L14
 319              	.L24:
 320 011a 00BF     		.align	2
 321              	.L23:
 322 011c 00000000 		.word	runPtr
 323 0120 00ED00E0 		.word	-536810240
 324 0124 D0FEFFFF 		.word	-304
 325              		.cfi_endproc
 326              	.LFE54:
 328              		.section	.text.kSignalSet,"ax",%progbits
 329              		.align	1
 330              		.global	kSignalSet
 331              		.syntax unified
 332              		.thumb
 333              		.thumb_func
ARM GAS  /var/folders/fg/4fzv35n91mbcgx4z5jzqdsl40000gn/T//cc8adue3.s 			page 15


 335              	kSignalSet:
 336              	.LVL30:
 337              	.LFB55:
 120:core/src/ksynch.c **** 
 121:core/src/ksynch.c **** RK_ERR kSignalSet( RK_TASK_HANDLE const taskHandle, ULONG const mask)
 122:core/src/ksynch.c **** {
 338              		.loc 1 122 1 view -0
 339              		.cfi_startproc
 340              		@ args = 0, pretend = 0, frame = 0
 341              		@ frame_needed = 0, uses_anonymous_args = 0
 342              		.loc 1 122 1 is_stmt 0 view .LVU101
 343 0000 70B5     		push	{r4, r5, r6, lr}
 344              		.cfi_def_cfa_offset 16
 345              		.cfi_offset 4, -16
 346              		.cfi_offset 5, -12
 347              		.cfi_offset 6, -8
 348              		.cfi_offset 14, -4
 349 0002 0446     		mov	r4, r0
 350 0004 0D46     		mov	r5, r1
 123:core/src/ksynch.c **** 	RK_CR_AREA
 351              		.loc 1 123 2 is_stmt 1 view .LVU102
 124:core/src/ksynch.c **** 	RK_CR_ENTER
 352              		.loc 1 124 2 view .LVU103
 353 0006 FFF7FEFF 		bl	kEnterCR
 354              	.LVL31:
 355              		.loc 1 124 2 is_stmt 0 view .LVU104
 356 000a 0646     		mov	r6, r0
 357              	.LVL32:
 125:core/src/ksynch.c **** 
 126:core/src/ksynch.c **** 	if (taskHandle == NULL)
 358              		.loc 1 126 2 is_stmt 1 view .LVU105
 359              		.loc 1 126 5 is_stmt 0 view .LVU106
 360 000c 94B1     		cbz	r4, .L33
 127:core/src/ksynch.c **** 	{
 128:core/src/ksynch.c **** 		RK_CR_EXIT
 129:core/src/ksynch.c **** 		return (RK_ERR_OBJ_NULL);
 130:core/src/ksynch.c **** 	}
 131:core/src/ksynch.c **** 
 132:core/src/ksynch.c **** 	if (mask == 0UL)
 361              		.loc 1 132 2 is_stmt 1 view .LVU107
 362              		.loc 1 132 5 is_stmt 0 view .LVU108
 363 000e B5B1     		cbz	r5, .L34
 133:core/src/ksynch.c **** 	{
 134:core/src/ksynch.c **** 		RK_CR_EXIT
 135:core/src/ksynch.c **** 		return (RK_ERR_INVALID_PARAM);
 136:core/src/ksynch.c **** 	}
 137:core/src/ksynch.c **** 
 138:core/src/ksynch.c **** 	taskHandle->currentTaskFlags |= mask;
 364              		.loc 1 138 2 is_stmt 1 view .LVU109
 365              		.loc 1 138 12 is_stmt 0 view .LVU110
 366 0010 636A     		ldr	r3, [r4, #36]
 367              		.loc 1 138 31 view .LVU111
 368 0012 2B43     		orrs	r3, r3, r5
 369 0014 6362     		str	r3, [r4, #36]
 139:core/src/ksynch.c **** 
 140:core/src/ksynch.c **** 	BOOL andLogic = 0;
 370              		.loc 1 140 2 is_stmt 1 view .LVU112
ARM GAS  /var/folders/fg/4fzv35n91mbcgx4z5jzqdsl40000gn/T//cc8adue3.s 			page 16


 371              	.LVL33:
 141:core/src/ksynch.c **** 	BOOL conditionMet = 0;
 372              		.loc 1 141 2 view .LVU113
 142:core/src/ksynch.c **** 
 143:core/src/ksynch.c **** 	andLogic = (taskHandle->taskFlagsOptions == RK_FLAGS_ALL);
 373              		.loc 1 143 2 view .LVU114
 374              		.loc 1 143 24 is_stmt 0 view .LVU115
 375 0016 A26A     		ldr	r2, [r4, #40]
 376              	.LVL34:
 144:core/src/ksynch.c **** 
 145:core/src/ksynch.c **** 	if (andLogic)
 377              		.loc 1 145 2 is_stmt 1 view .LVU116
 378              		.loc 1 145 5 is_stmt 0 view .LVU117
 379 0018 082A     		cmp	r2, #8
 380 001a 15D0     		beq	.L35
 146:core/src/ksynch.c **** 	{
 147:core/src/ksynch.c **** 		conditionMet = ((taskHandle->currentTaskFlags
 148:core/src/ksynch.c **** 				& taskHandle->requiredTaskFlags)
 149:core/src/ksynch.c **** 				== (taskHandle->requiredTaskFlags));
 150:core/src/ksynch.c **** 	}
 151:core/src/ksynch.c **** 	else
 152:core/src/ksynch.c **** 	{
 153:core/src/ksynch.c **** 		conditionMet = (taskHandle->currentTaskFlags
 381              		.loc 1 153 3 is_stmt 1 view .LVU118
 154:core/src/ksynch.c **** 				& taskHandle->requiredTaskFlags);
 382              		.loc 1 154 17 is_stmt 0 view .LVU119
 383 001c 226A     		ldr	r2, [r4, #32]
 384              	.LVL35:
 153:core/src/ksynch.c **** 				& taskHandle->requiredTaskFlags);
 385              		.loc 1 153 16 view .LVU120
 386 001e 03EA0201 		and	r1, r3, r2
 387              	.LVL36:
 388              	.L30:
 155:core/src/ksynch.c **** 	}
 156:core/src/ksynch.c **** 
 157:core/src/ksynch.c **** 	if (conditionMet)
 389              		.loc 1 157 2 is_stmt 1 view .LVU121
 390              		.loc 1 157 5 is_stmt 0 view .LVU122
 391 0022 11B1     		cbz	r1, .L31
 158:core/src/ksynch.c **** 	{
 159:core/src/ksynch.c **** 		if (taskHandle->status == RK_PENDING_TASK_FLAGS)
 392              		.loc 1 159 3 is_stmt 1 view .LVU123
 393              		.loc 1 159 17 is_stmt 0 view .LVU124
 394 0024 6368     		ldr	r3, [r4, #4]
 395              		.loc 1 159 6 view .LVU125
 396 0026 312B     		cmp	r3, #49
 397 0028 15D0     		beq	.L36
 398              	.L31:
 160:core/src/ksynch.c **** 		{
 161:core/src/ksynch.c **** 			kReadyCtxtSwtch( &tcbs[taskHandle->pid]);
 162:core/src/ksynch.c **** 			RK_CR_EXIT
 163:core/src/ksynch.c **** 			return (RK_SUCCESS);
 164:core/src/ksynch.c **** 		}
 165:core/src/ksynch.c **** 	}
 166:core/src/ksynch.c **** 	RK_CR_EXIT
 399              		.loc 1 166 2 is_stmt 1 view .LVU126
 400 002a 3046     		mov	r0, r6
ARM GAS  /var/folders/fg/4fzv35n91mbcgx4z5jzqdsl40000gn/T//cc8adue3.s 			page 17


 401              	.LVL37:
 402              		.loc 1 166 2 is_stmt 0 view .LVU127
 403 002c FFF7FEFF 		bl	kExitCR
 404              	.LVL38:
 167:core/src/ksynch.c **** 	return (RK_SUCCESS);
 405              		.loc 1 167 2 is_stmt 1 view .LVU128
 406              		.loc 1 167 9 is_stmt 0 view .LVU129
 407 0030 0020     		movs	r0, #0
 408              	.LVL39:
 409              	.L25:
 168:core/src/ksynch.c **** }
 410              		.loc 1 168 1 view .LVU130
 411 0032 70BD     		pop	{r4, r5, r6, pc}
 412              	.LVL40:
 413              	.L33:
 128:core/src/ksynch.c **** 		return (RK_ERR_OBJ_NULL);
 414              		.loc 1 128 3 is_stmt 1 view .LVU131
 415 0034 FFF7FEFF 		bl	kExitCR
 416              	.LVL41:
 129:core/src/ksynch.c **** 	}
 417              		.loc 1 129 3 view .LVU132
 129:core/src/ksynch.c **** 	}
 418              		.loc 1 129 10 is_stmt 0 view .LVU133
 419 0038 6FF06300 		mvn	r0, #99
 420 003c F9E7     		b	.L25
 421              	.LVL42:
 422              	.L34:
 134:core/src/ksynch.c **** 		return (RK_ERR_INVALID_PARAM);
 423              		.loc 1 134 3 is_stmt 1 view .LVU134
 424 003e FFF7FEFF 		bl	kExitCR
 425              	.LVL43:
 135:core/src/ksynch.c **** 	}
 426              		.loc 1 135 3 view .LVU135
 135:core/src/ksynch.c **** 	}
 427              		.loc 1 135 10 is_stmt 0 view .LVU136
 428 0042 6FF06F00 		mvn	r0, #111
 429 0046 F4E7     		b	.L25
 430              	.LVL44:
 431              	.L35:
 147:core/src/ksynch.c **** 				& taskHandle->requiredTaskFlags)
 432              		.loc 1 147 3 is_stmt 1 view .LVU137
 148:core/src/ksynch.c **** 				== (taskHandle->requiredTaskFlags));
 433              		.loc 1 148 17 is_stmt 0 view .LVU138
 434 0048 226A     		ldr	r2, [r4, #32]
 435              	.LVL45:
 149:core/src/ksynch.c **** 	}
 436              		.loc 1 149 5 view .LVU139
 437 004a 32EA0303 		bics	r3, r2, r3
 438 004e 0CBF     		ite	eq
 439 0050 0121     		moveq	r1, #1
 440 0052 0021     		movne	r1, #0
 441              	.LVL46:
 149:core/src/ksynch.c **** 	}
 442              		.loc 1 149 5 view .LVU140
 443 0054 E5E7     		b	.L30
 444              	.L36:
 161:core/src/ksynch.c **** 			RK_CR_EXIT
ARM GAS  /var/folders/fg/4fzv35n91mbcgx4z5jzqdsl40000gn/T//cc8adue3.s 			page 18


 445              		.loc 1 161 4 is_stmt 1 view .LVU141
 161:core/src/ksynch.c **** 			RK_CR_EXIT
 446              		.loc 1 161 37 is_stmt 0 view .LVU142
 447 0056 227F     		ldrb	r2, [r4, #28]	@ zero_extendqisi2
 161:core/src/ksynch.c **** 			RK_CR_EXIT
 448              		.loc 1 161 4 view .LVU143
 449 0058 6420     		movs	r0, #100
 450              	.LVL47:
 161:core/src/ksynch.c **** 			RK_CR_EXIT
 451              		.loc 1 161 4 view .LVU144
 452 005a 054B     		ldr	r3, .L37
 453 005c 00FB0230 		mla	r0, r0, r2, r3
 454 0060 FFF7FEFF 		bl	kReadyCtxtSwtch
 455              	.LVL48:
 162:core/src/ksynch.c **** 			return (RK_SUCCESS);
 456              		.loc 1 162 4 is_stmt 1 view .LVU145
 457 0064 3046     		mov	r0, r6
 458 0066 FFF7FEFF 		bl	kExitCR
 459              	.LVL49:
 163:core/src/ksynch.c **** 		}
 460              		.loc 1 163 4 view .LVU146
 163:core/src/ksynch.c **** 		}
 461              		.loc 1 163 11 is_stmt 0 view .LVU147
 462 006a 0020     		movs	r0, #0
 463 006c E1E7     		b	.L25
 464              	.L38:
 465 006e 00BF     		.align	2
 466              	.L37:
 467 0070 00000000 		.word	tcbs
 468              		.cfi_endproc
 469              	.LFE55:
 471              		.section	.text.kSignalClear,"ax",%progbits
 472              		.align	1
 473              		.global	kSignalClear
 474              		.syntax unified
 475              		.thumb
 476              		.thumb_func
 478              	kSignalClear:
 479              	.LFB56:
 169:core/src/ksynch.c **** 
 170:core/src/ksynch.c **** RK_ERR kSignalClear( VOID)
 171:core/src/ksynch.c **** {
 480              		.loc 1 171 1 is_stmt 1 view -0
 481              		.cfi_startproc
 482              		@ args = 0, pretend = 0, frame = 0
 483              		@ frame_needed = 0, uses_anonymous_args = 0
 484              		@ link register save eliminated.
 172:core/src/ksynch.c **** 	if (kIsISR())
 485              		.loc 1 172 2 view .LVU149
 486              	.LBB18:
 487              	.LBI18:
 308:arch/armv7m/kernel/inc/kdefs.h **** {
 488              		.loc 2 308 10 view .LVU150
 489              	.LBB19:
 310:arch/armv7m/kernel/inc/kdefs.h ****     __ASM ("MRS %0, IPSR" : "=r"(ipsr_value));
 490              		.loc 2 310 5 view .LVU151
 311:arch/armv7m/kernel/inc/kdefs.h ****     __ASM volatile ("dmb 0xF":::"memory");
ARM GAS  /var/folders/fg/4fzv35n91mbcgx4z5jzqdsl40000gn/T//cc8adue3.s 			page 19


 491              		.loc 2 311 5 view .LVU152
 492              		.syntax unified
 493              	@ 311 "arch/armv7m/kernel/inc/kdefs.h" 1
 494 0000 EFF30583 		MRS r3, IPSR
 495              	@ 0 "" 2
 312:arch/armv7m/kernel/inc/kdefs.h ****     return (ipsr_value);
 496              		.loc 2 312 5 view .LVU153
 497              	@ 312 "arch/armv7m/kernel/inc/kdefs.h" 1
 498 0004 BFF35F8F 		dmb 0xF
 499              	@ 0 "" 2
 500              		.loc 2 313 5 view .LVU154
 501              		.thumb
 502              		.syntax unified
 503              	.LBE19:
 504              	.LBE18:
 505              		.loc 1 172 5 is_stmt 0 view .LVU155
 506 0008 23B9     		cbnz	r3, .L41
 173:core/src/ksynch.c **** 	{
 174:core/src/ksynch.c **** 		return (RK_ERR_INVALID_ISR_PRIMITIVE);
 175:core/src/ksynch.c **** 	}
 176:core/src/ksynch.c **** 	(runPtr->currentTaskFlags = 0UL);
 507              		.loc 1 176 2 is_stmt 1 view .LVU156
 508              		.loc 1 176 9 is_stmt 0 view .LVU157
 509 000a 044B     		ldr	r3, .L42
 510 000c 1B68     		ldr	r3, [r3]
 511              		.loc 1 176 28 view .LVU158
 512 000e 0020     		movs	r0, #0
 513 0010 5862     		str	r0, [r3, #36]
 177:core/src/ksynch.c **** 	return (RK_SUCCESS);
 514              		.loc 1 177 2 is_stmt 1 view .LVU159
 515              		.loc 1 177 9 is_stmt 0 view .LVU160
 516 0012 7047     		bx	lr
 517              	.L41:
 174:core/src/ksynch.c **** 	}
 518              		.loc 1 174 10 view .LVU161
 519 0014 6FF06E00 		mvn	r0, #110
 178:core/src/ksynch.c **** }
 520              		.loc 1 178 1 view .LVU162
 521 0018 7047     		bx	lr
 522              	.L43:
 523 001a 00BF     		.align	2
 524              	.L42:
 525 001c 00000000 		.word	runPtr
 526              		.cfi_endproc
 527              	.LFE56:
 529              		.section	.text.kSignalQuery,"ax",%progbits
 530              		.align	1
 531              		.global	kSignalQuery
 532              		.syntax unified
 533              		.thumb
 534              		.thumb_func
 536              	kSignalQuery:
 537              	.LVL50:
 538              	.LFB57:
 179:core/src/ksynch.c **** 
 180:core/src/ksynch.c **** RK_ERR kSignalQuery( ULONG *const queryFlagsPtr)
 181:core/src/ksynch.c **** {
ARM GAS  /var/folders/fg/4fzv35n91mbcgx4z5jzqdsl40000gn/T//cc8adue3.s 			page 20


 539              		.loc 1 181 1 is_stmt 1 view -0
 540              		.cfi_startproc
 541              		@ args = 0, pretend = 0, frame = 0
 542              		@ frame_needed = 0, uses_anonymous_args = 0
 182:core/src/ksynch.c **** 	if (kIsISR())
 543              		.loc 1 182 2 view .LVU164
 544              	.LBB20:
 545              	.LBI20:
 308:arch/armv7m/kernel/inc/kdefs.h **** {
 546              		.loc 2 308 10 view .LVU165
 547              	.LBB21:
 310:arch/armv7m/kernel/inc/kdefs.h ****     __ASM ("MRS %0, IPSR" : "=r"(ipsr_value));
 548              		.loc 2 310 5 view .LVU166
 311:arch/armv7m/kernel/inc/kdefs.h ****     __ASM volatile ("dmb 0xF":::"memory");
 549              		.loc 2 311 5 view .LVU167
 550              		.syntax unified
 551              	@ 311 "arch/armv7m/kernel/inc/kdefs.h" 1
 552 0000 EFF30583 		MRS r3, IPSR
 553              	@ 0 "" 2
 312:arch/armv7m/kernel/inc/kdefs.h ****     return (ipsr_value);
 554              		.loc 2 312 5 view .LVU168
 555              	@ 312 "arch/armv7m/kernel/inc/kdefs.h" 1
 556 0004 BFF35F8F 		dmb 0xF
 557              	@ 0 "" 2
 558              		.loc 2 313 5 view .LVU169
 559              		.thumb
 560              		.syntax unified
 561              	.LBE21:
 562              	.LBE20:
 563              		.loc 1 182 5 is_stmt 0 view .LVU170
 564 0008 8BB9     		cbnz	r3, .L47
 181:core/src/ksynch.c **** 	if (kIsISR())
 565              		.loc 1 181 1 view .LVU171
 566 000a 10B5     		push	{r4, lr}
 567              		.cfi_def_cfa_offset 8
 568              		.cfi_offset 4, -8
 569              		.cfi_offset 14, -4
 570 000c 0446     		mov	r4, r0
 183:core/src/ksynch.c **** 	{
 184:core/src/ksynch.c **** 		return (RK_ERR_INVALID_ISR_PRIMITIVE);
 185:core/src/ksynch.c **** 	}
 186:core/src/ksynch.c **** 	RK_CR_AREA
 571              		.loc 1 186 2 is_stmt 1 view .LVU172
 187:core/src/ksynch.c **** 	RK_CR_ENTER
 572              		.loc 1 187 2 view .LVU173
 573 000e FFF7FEFF 		bl	kEnterCR
 574              	.LVL51:
 188:core/src/ksynch.c **** 	if (queryFlagsPtr)
 575              		.loc 1 188 2 view .LVU174
 576              		.loc 1 188 5 is_stmt 0 view .LVU175
 577 0012 3CB1     		cbz	r4, .L46
 189:core/src/ksynch.c **** 	{
 190:core/src/ksynch.c **** 		(*queryFlagsPtr = runPtr->currentTaskFlags);
 578              		.loc 1 190 3 is_stmt 1 view .LVU176
 579              		.loc 1 190 27 is_stmt 0 view .LVU177
 580 0014 074B     		ldr	r3, .L52
 581 0016 1B68     		ldr	r3, [r3]
ARM GAS  /var/folders/fg/4fzv35n91mbcgx4z5jzqdsl40000gn/T//cc8adue3.s 			page 21


 582 0018 5B6A     		ldr	r3, [r3, #36]
 583              		.loc 1 190 19 view .LVU178
 584 001a 2360     		str	r3, [r4]
 191:core/src/ksynch.c **** 		RK_CR_EXIT
 585              		.loc 1 191 3 is_stmt 1 view .LVU179
 586 001c FFF7FEFF 		bl	kExitCR
 587              	.LVL52:
 192:core/src/ksynch.c **** 		return (RK_SUCCESS);
 588              		.loc 1 192 3 view .LVU180
 589              		.loc 1 192 10 is_stmt 0 view .LVU181
 590 0020 0020     		movs	r0, #0
 591              	.L44:
 193:core/src/ksynch.c **** 	}
 194:core/src/ksynch.c **** 	RK_CR_EXIT
 195:core/src/ksynch.c **** 	return (RK_ERR_OBJ_NULL);
 196:core/src/ksynch.c **** }
 592              		.loc 1 196 1 view .LVU182
 593 0022 10BD     		pop	{r4, pc}
 594              	.LVL53:
 595              	.L46:
 194:core/src/ksynch.c **** 	return (RK_ERR_OBJ_NULL);
 596              		.loc 1 194 2 is_stmt 1 view .LVU183
 597 0024 FFF7FEFF 		bl	kExitCR
 598              	.LVL54:
 195:core/src/ksynch.c **** }
 599              		.loc 1 195 2 view .LVU184
 195:core/src/ksynch.c **** }
 600              		.loc 1 195 9 is_stmt 0 view .LVU185
 601 0028 6FF06300 		mvn	r0, #99
 602 002c F9E7     		b	.L44
 603              	.LVL55:
 604              	.L47:
 605              		.cfi_def_cfa_offset 0
 606              		.cfi_restore 4
 607              		.cfi_restore 14
 184:core/src/ksynch.c **** 	}
 608              		.loc 1 184 10 view .LVU186
 609 002e 6FF06E00 		mvn	r0, #110
 610              	.LVL56:
 611              		.loc 1 196 1 view .LVU187
 612 0032 7047     		bx	lr
 613              	.L53:
 614              		.align	2
 615              	.L52:
 616 0034 00000000 		.word	runPtr
 617              		.cfi_endproc
 618              	.LFE57:
 620              		.section	.rodata.kEventInit.str1.4,"aMS",%progbits,1
 621              		.align	2
 622              	.LC0:
 623 0000 6576656E 		.ascii	"eventQ\000"
 623      745100
 624              		.section	.text.kEventInit,"ax",%progbits
 625              		.align	1
 626              		.global	kEventInit
 627              		.syntax unified
 628              		.thumb
ARM GAS  /var/folders/fg/4fzv35n91mbcgx4z5jzqdsl40000gn/T//cc8adue3.s 			page 22


 629              		.thumb_func
 631              	kEventInit:
 632              	.LVL57:
 633              	.LFB58:
 197:core/src/ksynch.c **** 
 198:core/src/ksynch.c **** /******************************************************************************/
 199:core/src/ksynch.c **** /* SLEEP/WAKE ON EVENTS                                                       */
 200:core/src/ksynch.c **** /******************************************************************************/
 201:core/src/ksynch.c **** #if (RK_CONF_EVENT==ON)
 202:core/src/ksynch.c **** RK_ERR kEventInit( RK_EVENT *const kobj)
 203:core/src/ksynch.c **** {
 634              		.loc 1 203 1 is_stmt 1 view -0
 635              		.cfi_startproc
 636              		@ args = 0, pretend = 0, frame = 0
 637              		@ frame_needed = 0, uses_anonymous_args = 0
 638              		.loc 1 203 1 is_stmt 0 view .LVU189
 639 0000 38B5     		push	{r3, r4, r5, lr}
 640              		.cfi_def_cfa_offset 16
 641              		.cfi_offset 3, -16
 642              		.cfi_offset 4, -12
 643              		.cfi_offset 5, -8
 644              		.cfi_offset 14, -4
 204:core/src/ksynch.c **** 	if (kobj == NULL)
 645              		.loc 1 204 2 is_stmt 1 view .LVU190
 646              		.loc 1 204 5 is_stmt 0 view .LVU191
 647 0002 0546     		mov	r5, r0
 648 0004 80B1     		cbz	r0, .L58
 649              	.LVL58:
 650              	.L55:
 205:core/src/ksynch.c **** 	{
 206:core/src/ksynch.c **** 		KERR( RK_FAULT_OBJ_NULL);
 207:core/src/ksynch.c **** 	}
 208:core/src/ksynch.c **** 	RK_CR_AREA
 651              		.loc 1 208 2 is_stmt 1 view .LVU192
 209:core/src/ksynch.c **** 	RK_CR_ENTER
 652              		.loc 1 209 2 view .LVU193
 653 0006 FFF7FEFF 		bl	kEnterCR
 654              	.LVL59:
 655 000a 0446     		mov	r4, r0
 656              	.LVL60:
 210:core/src/ksynch.c **** 	kassert( !kTCBQInit( &(kobj->waitingQueue), "eventQ"));
 657              		.loc 1 210 2 view .LVU194
 658 000c 0B49     		ldr	r1, .L60
 659 000e 281D     		adds	r0, r5, #4
 660              	.LVL61:
 661              		.loc 1 210 2 is_stmt 0 view .LVU195
 662 0010 FFF7FEFF 		bl	kTCBQInit
 663              	.LVL62:
 664 0014 68B9     		cbnz	r0, .L59
 665              	.L56:
 211:core/src/ksynch.c **** 	kobj->init = TRUE;
 666              		.loc 1 211 2 is_stmt 1 view .LVU196
 667              		.loc 1 211 13 is_stmt 0 view .LVU197
 668 0016 0123     		movs	r3, #1
 669 0018 AB61     		str	r3, [r5, #24]
 212:core/src/ksynch.c **** 	kobj->objID = RK_EVENT_KOBJ_ID;
 670              		.loc 1 212 2 is_stmt 1 view .LVU198
ARM GAS  /var/folders/fg/4fzv35n91mbcgx4z5jzqdsl40000gn/T//cc8adue3.s 			page 23


 671              		.loc 1 212 14 is_stmt 0 view .LVU199
 672 001a 0223     		movs	r3, #2
 673 001c 2B60     		str	r3, [r5]
 213:core/src/ksynch.c **** 	RK_CR_EXIT
 674              		.loc 1 213 2 is_stmt 1 view .LVU200
 675 001e 2046     		mov	r0, r4
 676 0020 FFF7FEFF 		bl	kExitCR
 677              	.LVL63:
 214:core/src/ksynch.c **** 	return (RK_SUCCESS);
 678              		.loc 1 214 2 view .LVU201
 215:core/src/ksynch.c **** }
 679              		.loc 1 215 1 is_stmt 0 view .LVU202
 680 0024 0020     		movs	r0, #0
 681 0026 38BD     		pop	{r3, r4, r5, pc}
 682              	.LVL64:
 683              	.L58:
 206:core/src/ksynch.c **** 	}
 684              		.loc 1 206 3 is_stmt 1 view .LVU203
 685 0028 6FF06300 		mvn	r0, #99
 686              	.LVL65:
 206:core/src/ksynch.c **** 	}
 687              		.loc 1 206 3 is_stmt 0 view .LVU204
 688 002c FFF7FEFF 		bl	kErrHandler
 689              	.LVL66:
 690 0030 E9E7     		b	.L55
 691              	.LVL67:
 692              	.L59:
 210:core/src/ksynch.c **** 	kobj->init = TRUE;
 693              		.loc 1 210 2 discriminator 1 view .LVU205
 694 0032 0020     		movs	r0, #0
 695 0034 FFF7FEFF 		bl	kErrHandler
 696              	.LVL68:
 697 0038 EDE7     		b	.L56
 698              	.L61:
 699 003a 00BF     		.align	2
 700              	.L60:
 701 003c 00000000 		.word	.LC0
 702              		.cfi_endproc
 703              	.LFE58:
 705              		.section	.text.kEventSleep,"ax",%progbits
 706              		.align	1
 707              		.global	kEventSleep
 708              		.syntax unified
 709              		.thumb
 710              		.thumb_func
 712              	kEventSleep:
 713              	.LVL69:
 714              	.LFB59:
 216:core/src/ksynch.c **** /*
 217:core/src/ksynch.c ****  Sleep for a Signal/Wake Event
 218:core/src/ksynch.c ****  Timeout in ticks.
 219:core/src/ksynch.c ****  */
 220:core/src/ksynch.c **** RK_ERR kEventSleep( RK_EVENT *const kobj, RK_TICK const timeout)
 221:core/src/ksynch.c **** {
 715              		.loc 1 221 1 is_stmt 1 view -0
 716              		.cfi_startproc
 717              		@ args = 0, pretend = 0, frame = 0
ARM GAS  /var/folders/fg/4fzv35n91mbcgx4z5jzqdsl40000gn/T//cc8adue3.s 			page 24


 718              		@ frame_needed = 0, uses_anonymous_args = 0
 719              		.loc 1 221 1 is_stmt 0 view .LVU207
 720 0000 F8B5     		push	{r3, r4, r5, r6, r7, lr}
 721              		.cfi_def_cfa_offset 24
 722              		.cfi_offset 3, -24
 723              		.cfi_offset 4, -20
 724              		.cfi_offset 5, -16
 725              		.cfi_offset 6, -12
 726              		.cfi_offset 7, -8
 727              		.cfi_offset 14, -4
 728 0002 0446     		mov	r4, r0
 729 0004 0D46     		mov	r5, r1
 222:core/src/ksynch.c **** 	RK_CR_AREA
 730              		.loc 1 222 2 is_stmt 1 view .LVU208
 223:core/src/ksynch.c **** 	RK_CR_ENTER
 731              		.loc 1 223 2 view .LVU209
 732 0006 FFF7FEFF 		bl	kEnterCR
 733              	.LVL70:
 734              		.loc 1 223 2 is_stmt 0 view .LVU210
 735 000a 0746     		mov	r7, r0
 736              	.LVL71:
 224:core/src/ksynch.c **** 	RK_ERR err = RK_ERROR;
 737              		.loc 1 224 2 is_stmt 1 view .LVU211
 225:core/src/ksynch.c **** 	if (kIsISR())
 738              		.loc 1 225 2 view .LVU212
 739              	.LBB22:
 740              	.LBI22:
 308:arch/armv7m/kernel/inc/kdefs.h **** {
 741              		.loc 2 308 10 view .LVU213
 742              	.LBB23:
 310:arch/armv7m/kernel/inc/kdefs.h ****     __ASM ("MRS %0, IPSR" : "=r"(ipsr_value));
 743              		.loc 2 310 5 view .LVU214
 311:arch/armv7m/kernel/inc/kdefs.h ****     __ASM volatile ("dmb 0xF":::"memory");
 744              		.loc 2 311 5 view .LVU215
 745              		.syntax unified
 746              	@ 311 "arch/armv7m/kernel/inc/kdefs.h" 1
 747 000c EFF30583 		MRS r3, IPSR
 748              	@ 0 "" 2
 312:arch/armv7m/kernel/inc/kdefs.h ****     return (ipsr_value);
 749              		.loc 2 312 5 view .LVU216
 750              	@ 312 "arch/armv7m/kernel/inc/kdefs.h" 1
 751 0010 BFF35F8F 		dmb 0xF
 752              	@ 0 "" 2
 753              		.loc 2 313 5 view .LVU217
 754              		.thumb
 755              		.syntax unified
 756              	.LBE23:
 757              	.LBE22:
 758              		.loc 1 225 5 is_stmt 0 view .LVU218
 759 0014 002B     		cmp	r3, #0
 760 0016 2FD1     		bne	.L73
 226:core/src/ksynch.c **** 	{
 227:core/src/ksynch.c **** 		KERR( RK_FAULT_INVALID_ISR_PRIMITIVE);
 228:core/src/ksynch.c **** 		RK_CR_EXIT
 229:core/src/ksynch.c **** 		return (RK_ERR_INVALID_ISR_PRIMITIVE);
 230:core/src/ksynch.c **** 	}
 231:core/src/ksynch.c **** 	if (kobj == NULL)
ARM GAS  /var/folders/fg/4fzv35n91mbcgx4z5jzqdsl40000gn/T//cc8adue3.s 			page 25


 761              		.loc 1 231 2 is_stmt 1 view .LVU219
 762              		.loc 1 231 5 is_stmt 0 view .LVU220
 763 0018 002C     		cmp	r4, #0
 764 001a 37D0     		beq	.L74
 232:core/src/ksynch.c **** 	{
 233:core/src/ksynch.c **** 		KERR( RK_FAULT_OBJ_NULL);
 234:core/src/ksynch.c **** 		RK_CR_EXIT
 235:core/src/ksynch.c **** 		return (RK_ERR_OBJ_NULL);
 236:core/src/ksynch.c **** 	}
 237:core/src/ksynch.c **** 	if (kobj->init == FALSE)
 765              		.loc 1 237 2 is_stmt 1 view .LVU221
 766              		.loc 1 237 10 is_stmt 0 view .LVU222
 767 001c A369     		ldr	r3, [r4, #24]
 768              		.loc 1 237 5 view .LVU223
 769 001e 002B     		cmp	r3, #0
 770 0020 3ED0     		beq	.L75
 238:core/src/ksynch.c **** 	{
 239:core/src/ksynch.c **** 		KERR( RK_FAULT_OBJ_NOT_INIT);
 240:core/src/ksynch.c **** 		RK_CR_EXIT
 241:core/src/ksynch.c **** 		return (RK_ERR_OBJ_NULL);
 242:core/src/ksynch.c **** 	}
 243:core/src/ksynch.c **** 	if (timeout == RK_NO_WAIT)
 771              		.loc 1 243 2 is_stmt 1 view .LVU224
 772              		.loc 1 243 5 is_stmt 0 view .LVU225
 773 0022 002D     		cmp	r5, #0
 774 0024 46D0     		beq	.L76
 244:core/src/ksynch.c **** 	{
 245:core/src/ksynch.c **** 		RK_CR_EXIT
 246:core/src/ksynch.c **** 		return (RK_ERR_INVALID_TIMEOUT);
 247:core/src/ksynch.c **** 	}
 248:core/src/ksynch.c **** 	err = kTCBQEnqByPrio( &kobj->waitingQueue, runPtr);
 775              		.loc 1 248 2 is_stmt 1 view .LVU226
 776              		.loc 1 248 24 is_stmt 0 view .LVU227
 777 0026 0434     		adds	r4, r4, #4
 778              	.LVL72:
 779              		.loc 1 248 8 view .LVU228
 780 0028 314B     		ldr	r3, .L81
 781 002a 1968     		ldr	r1, [r3]
 782 002c 2046     		mov	r0, r4
 783              	.LVL73:
 784              		.loc 1 248 8 view .LVU229
 785 002e FFF7FEFF 		bl	kTCBQEnqByPrio
 786              	.LVL74:
 249:core/src/ksynch.c **** 	if (err < 0)
 787              		.loc 1 249 2 is_stmt 1 view .LVU230
 788              		.loc 1 249 5 is_stmt 0 view .LVU231
 789 0032 061E     		subs	r6, r0, #0
 790 0034 43DB     		blt	.L77
 250:core/src/ksynch.c **** 	{
 251:core/src/ksynch.c **** 		RK_CR_EXIT
 252:core/src/ksynch.c **** 		return (err);
 253:core/src/ksynch.c **** 	}
 254:core/src/ksynch.c **** 	runPtr->status = RK_SLEEPING;
 791              		.loc 1 254 2 is_stmt 1 view .LVU232
 792              		.loc 1 254 8 is_stmt 0 view .LVU233
 793 0036 2E4B     		ldr	r3, .L81
 794 0038 1868     		ldr	r0, [r3]
ARM GAS  /var/folders/fg/4fzv35n91mbcgx4z5jzqdsl40000gn/T//cc8adue3.s 			page 26


 795              	.LVL75:
 796              		.loc 1 254 17 view .LVU234
 797 003a 3023     		movs	r3, #48
 798 003c 4360     		str	r3, [r0, #4]
 255:core/src/ksynch.c **** 
 256:core/src/ksynch.c **** 	if ((timeout > 0) && (timeout != RK_WAIT_FOREVER))
 799              		.loc 1 256 2 is_stmt 1 view .LVU235
 800              		.loc 1 256 5 is_stmt 0 view .LVU236
 801 003e 002D     		cmp	r5, #0
 802 0040 41DC     		bgt	.L78
 803              	.L69:
 257:core/src/ksynch.c **** 	{
 258:core/src/ksynch.c **** 		RK_TASK_TIMEOUT_WAITINGQUEUE_SETUP
 259:core/src/ksynch.c **** 
 260:core/src/ksynch.c **** 		kTimeOut( &runPtr->timeoutNode, timeout);
 261:core/src/ksynch.c **** 	}
 262:core/src/ksynch.c **** 	RK_PEND_CTXTSWTCH
 804              		.loc 1 262 2 is_stmt 1 view .LVU237
 805 0042 2C4A     		ldr	r2, .L81+4
 806 0044 5368     		ldr	r3, [r2, #4]
 807 0046 43F08053 		orr	r3, r3, #268435456
 808 004a 5360     		str	r3, [r2, #4]
 809              		.loc 1 262 2 view .LVU238
 810              		.syntax unified
 811              	@ 262 "core/src/ksynch.c" 1
 812 004c BFF34F8F 		dsb 0xF
 813              	@ 0 "" 2
 814              		.loc 1 262 2 view .LVU239
 815              	@ 262 "core/src/ksynch.c" 1
 816 0050 BFF36F8F 		isb 0xF
 817              	@ 0 "" 2
 263:core/src/ksynch.c **** 	RK_CR_EXIT
 818              		.loc 1 263 2 view .LVU240
 819              		.thumb
 820              		.syntax unified
 821 0054 3846     		mov	r0, r7
 822 0056 FFF7FEFF 		bl	kExitCR
 823              	.LVL76:
 264:core/src/ksynch.c **** 	/* resuming here, if time is out, return error */
 265:core/src/ksynch.c **** 	RK_CR_ENTER
 824              		.loc 1 265 2 view .LVU241
 825 005a FFF7FEFF 		bl	kEnterCR
 826              	.LVL77:
 827 005e 0446     		mov	r4, r0
 828              	.LVL78:
 266:core/src/ksynch.c **** 	if (runPtr->timeOut)
 829              		.loc 1 266 2 view .LVU242
 830              		.loc 1 266 12 is_stmt 0 view .LVU243
 831 0060 234B     		ldr	r3, .L81
 832 0062 1868     		ldr	r0, [r3]
 833              	.LVL79:
 834              		.loc 1 266 12 view .LVU244
 835 0064 836B     		ldr	r3, [r0, #56]
 836              		.loc 1 266 5 view .LVU245
 837 0066 B3BB     		cbnz	r3, .L79
 267:core/src/ksynch.c **** 	{
 268:core/src/ksynch.c **** 		runPtr->timeOut = FALSE;
ARM GAS  /var/folders/fg/4fzv35n91mbcgx4z5jzqdsl40000gn/T//cc8adue3.s 			page 27


 269:core/src/ksynch.c **** 		RK_CR_EXIT
 270:core/src/ksynch.c **** 		return (RK_ERR_TIMEOUT);
 271:core/src/ksynch.c **** 	}
 272:core/src/ksynch.c **** 
 273:core/src/ksynch.c **** 	if ((timeout > RK_NO_WAIT) && (timeout != RK_WAIT_FOREVER))
 838              		.loc 1 273 2 is_stmt 1 view .LVU246
 839              		.loc 1 273 5 is_stmt 0 view .LVU247
 840 0068 002D     		cmp	r5, #0
 841 006a 3CDC     		bgt	.L80
 842              	.L71:
 274:core/src/ksynch.c **** 		kRemoveTimeoutNode( &runPtr->timeoutNode);
 275:core/src/ksynch.c **** 
 276:core/src/ksynch.c **** 	RK_CR_EXIT
 843              		.loc 1 276 2 is_stmt 1 view .LVU248
 844 006c 2046     		mov	r0, r4
 845 006e FFF7FEFF 		bl	kExitCR
 846              	.LVL80:
 277:core/src/ksynch.c **** 	return (RK_SUCCESS);
 847              		.loc 1 277 2 view .LVU249
 848              		.loc 1 277 9 is_stmt 0 view .LVU250
 849 0072 0026     		movs	r6, #0
 850              	.LVL81:
 851              	.L62:
 278:core/src/ksynch.c **** }
 852              		.loc 1 278 1 view .LVU251
 853 0074 3046     		mov	r0, r6
 854 0076 F8BD     		pop	{r3, r4, r5, r6, r7, pc}
 855              	.LVL82:
 856              	.L73:
 227:core/src/ksynch.c **** 		RK_CR_EXIT
 857              		.loc 1 227 3 is_stmt 1 view .LVU252
 858 0078 6FF06E00 		mvn	r0, #110
 859              	.LVL83:
 227:core/src/ksynch.c **** 		RK_CR_EXIT
 860              		.loc 1 227 3 is_stmt 0 view .LVU253
 861 007c FFF7FEFF 		bl	kErrHandler
 862              	.LVL84:
 228:core/src/ksynch.c **** 		return (RK_ERR_INVALID_ISR_PRIMITIVE);
 863              		.loc 1 228 3 is_stmt 1 view .LVU254
 864 0080 3846     		mov	r0, r7
 865 0082 FFF7FEFF 		bl	kExitCR
 866              	.LVL85:
 229:core/src/ksynch.c **** 	}
 867              		.loc 1 229 3 view .LVU255
 229:core/src/ksynch.c **** 	}
 868              		.loc 1 229 10 is_stmt 0 view .LVU256
 869 0086 6FF06E06 		mvn	r6, #110
 870 008a F3E7     		b	.L62
 871              	.LVL86:
 872              	.L74:
 233:core/src/ksynch.c **** 		RK_CR_EXIT
 873              		.loc 1 233 3 is_stmt 1 view .LVU257
 874 008c 6FF06300 		mvn	r0, #99
 875              	.LVL87:
 233:core/src/ksynch.c **** 		RK_CR_EXIT
 876              		.loc 1 233 3 is_stmt 0 view .LVU258
 877 0090 FFF7FEFF 		bl	kErrHandler
ARM GAS  /var/folders/fg/4fzv35n91mbcgx4z5jzqdsl40000gn/T//cc8adue3.s 			page 28


 878              	.LVL88:
 234:core/src/ksynch.c **** 		return (RK_ERR_OBJ_NULL);
 879              		.loc 1 234 3 is_stmt 1 view .LVU259
 880 0094 3846     		mov	r0, r7
 881 0096 FFF7FEFF 		bl	kExitCR
 882              	.LVL89:
 235:core/src/ksynch.c **** 	}
 883              		.loc 1 235 3 view .LVU260
 235:core/src/ksynch.c **** 	}
 884              		.loc 1 235 10 is_stmt 0 view .LVU261
 885 009a 6FF06306 		mvn	r6, #99
 886 009e E9E7     		b	.L62
 887              	.LVL90:
 888              	.L75:
 239:core/src/ksynch.c **** 		RK_CR_EXIT
 889              		.loc 1 239 3 is_stmt 1 view .LVU262
 890 00a0 6FF06400 		mvn	r0, #100
 891              	.LVL91:
 239:core/src/ksynch.c **** 		RK_CR_EXIT
 892              		.loc 1 239 3 is_stmt 0 view .LVU263
 893 00a4 FFF7FEFF 		bl	kErrHandler
 894              	.LVL92:
 240:core/src/ksynch.c **** 		return (RK_ERR_OBJ_NULL);
 895              		.loc 1 240 3 is_stmt 1 view .LVU264
 896 00a8 3846     		mov	r0, r7
 897 00aa FFF7FEFF 		bl	kExitCR
 898              	.LVL93:
 241:core/src/ksynch.c **** 	}
 899              		.loc 1 241 3 view .LVU265
 241:core/src/ksynch.c **** 	}
 900              		.loc 1 241 10 is_stmt 0 view .LVU266
 901 00ae 6FF06306 		mvn	r6, #99
 902 00b2 DFE7     		b	.L62
 903              	.LVL94:
 904              	.L76:
 245:core/src/ksynch.c **** 		return (RK_ERR_INVALID_TIMEOUT);
 905              		.loc 1 245 3 is_stmt 1 view .LVU267
 906 00b4 FFF7FEFF 		bl	kExitCR
 907              	.LVL95:
 246:core/src/ksynch.c **** 	}
 908              		.loc 1 246 3 view .LVU268
 246:core/src/ksynch.c **** 	}
 909              		.loc 1 246 10 is_stmt 0 view .LVU269
 910 00b8 6FF06C06 		mvn	r6, #108
 911 00bc DAE7     		b	.L62
 912              	.LVL96:
 913              	.L77:
 251:core/src/ksynch.c **** 		return (err);
 914              		.loc 1 251 3 is_stmt 1 view .LVU270
 915 00be 3846     		mov	r0, r7
 916              	.LVL97:
 251:core/src/ksynch.c **** 		return (err);
 917              		.loc 1 251 3 is_stmt 0 view .LVU271
 918 00c0 FFF7FEFF 		bl	kExitCR
 919              	.LVL98:
 252:core/src/ksynch.c **** 	}
 920              		.loc 1 252 3 is_stmt 1 view .LVU272
ARM GAS  /var/folders/fg/4fzv35n91mbcgx4z5jzqdsl40000gn/T//cc8adue3.s 			page 29


 252:core/src/ksynch.c **** 	}
 921              		.loc 1 252 10 is_stmt 0 view .LVU273
 922 00c4 D6E7     		b	.L62
 923              	.L78:
 258:core/src/ksynch.c **** 
 924              		.loc 1 258 3 is_stmt 1 view .LVU274
 925 00c6 0123     		movs	r3, #1
 926 00c8 C364     		str	r3, [r0, #76]
 258:core/src/ksynch.c **** 
 927              		.loc 1 258 3 view .LVU275
 928 00ca 8465     		str	r4, [r0, #88]
 260:core/src/ksynch.c **** 	}
 929              		.loc 1 260 3 view .LVU276
 930 00cc 2946     		mov	r1, r5
 931 00ce 4430     		adds	r0, r0, #68
 932 00d0 FFF7FEFF 		bl	kTimeOut
 933              	.LVL99:
 934 00d4 B5E7     		b	.L69
 935              	.LVL100:
 936              	.L79:
 268:core/src/ksynch.c **** 		RK_CR_EXIT
 937              		.loc 1 268 3 view .LVU277
 268:core/src/ksynch.c **** 		RK_CR_EXIT
 938              		.loc 1 268 19 is_stmt 0 view .LVU278
 939 00d6 0023     		movs	r3, #0
 940 00d8 8363     		str	r3, [r0, #56]
 269:core/src/ksynch.c **** 		return (RK_ERR_TIMEOUT);
 941              		.loc 1 269 3 is_stmt 1 view .LVU279
 942 00da 2046     		mov	r0, r4
 943 00dc FFF7FEFF 		bl	kExitCR
 944              	.LVL101:
 270:core/src/ksynch.c **** 	}
 945              		.loc 1 270 3 view .LVU280
 270:core/src/ksynch.c **** 	}
 946              		.loc 1 270 10 is_stmt 0 view .LVU281
 947 00e0 6FF06B06 		mvn	r6, #107
 948              	.LVL102:
 270:core/src/ksynch.c **** 	}
 949              		.loc 1 270 10 view .LVU282
 950 00e4 C6E7     		b	.L62
 951              	.LVL103:
 952              	.L80:
 274:core/src/ksynch.c **** 
 953              		.loc 1 274 3 is_stmt 1 view .LVU283
 954 00e6 4430     		adds	r0, r0, #68
 955 00e8 FFF7FEFF 		bl	kRemoveTimeoutNode
 956              	.LVL104:
 957 00ec BEE7     		b	.L71
 958              	.L82:
 959 00ee 00BF     		.align	2
 960              	.L81:
 961 00f0 00000000 		.word	runPtr
 962 00f4 00ED00E0 		.word	-536810240
 963              		.cfi_endproc
 964              	.LFE59:
 966              		.section	.text.kEventWake,"ax",%progbits
 967              		.align	1
ARM GAS  /var/folders/fg/4fzv35n91mbcgx4z5jzqdsl40000gn/T//cc8adue3.s 			page 30


 968              		.global	kEventWake
 969              		.syntax unified
 970              		.thumb
 971              		.thumb_func
 973              	kEventWake:
 974              	.LVL105:
 975              	.LFB60:
 279:core/src/ksynch.c **** /* Broadcast signal to an event - all tasks will switch to READY */
 280:core/src/ksynch.c **** RK_ERR kEventWake( RK_EVENT *const kobj)
 281:core/src/ksynch.c **** {
 976              		.loc 1 281 1 view -0
 977              		.cfi_startproc
 978              		@ args = 0, pretend = 0, frame = 8
 979              		@ frame_needed = 0, uses_anonymous_args = 0
 980              		.loc 1 281 1 is_stmt 0 view .LVU285
 981 0000 30B5     		push	{r4, r5, lr}
 982              		.cfi_def_cfa_offset 12
 983              		.cfi_offset 4, -12
 984              		.cfi_offset 5, -8
 985              		.cfi_offset 14, -4
 986 0002 83B0     		sub	sp, sp, #12
 987              		.cfi_def_cfa_offset 24
 988 0004 0446     		mov	r4, r0
 282:core/src/ksynch.c **** 	RK_CR_AREA
 989              		.loc 1 282 2 is_stmt 1 view .LVU286
 283:core/src/ksynch.c **** 	RK_CR_ENTER
 990              		.loc 1 283 2 view .LVU287
 991 0006 FFF7FEFF 		bl	kEnterCR
 992              	.LVL106:
 993              		.loc 1 283 2 is_stmt 0 view .LVU288
 994 000a 0546     		mov	r5, r0
 995              	.LVL107:
 284:core/src/ksynch.c **** 	if (kobj == NULL)
 996              		.loc 1 284 2 is_stmt 1 view .LVU289
 997              		.loc 1 284 5 is_stmt 0 view .LVU290
 998 000c 44B1     		cbz	r4, .L90
 285:core/src/ksynch.c **** 	{
 286:core/src/ksynch.c **** 		KERR( RK_FAULT_OBJ_NULL);
 287:core/src/ksynch.c **** 		RK_CR_EXIT
 288:core/src/ksynch.c **** 		return (RK_ERR_OBJ_NULL);
 289:core/src/ksynch.c **** 	}
 290:core/src/ksynch.c **** 	if (kobj->init == FALSE)
 999              		.loc 1 290 2 is_stmt 1 view .LVU291
 1000              		.loc 1 290 10 is_stmt 0 view .LVU292
 1001 000e A369     		ldr	r3, [r4, #24]
 1002              		.loc 1 290 5 view .LVU293
 1003 0010 83B1     		cbz	r3, .L91
 291:core/src/ksynch.c **** 	{
 292:core/src/ksynch.c **** 		KERR( RK_FAULT_OBJ_NOT_INIT);
 293:core/src/ksynch.c **** 		RK_CR_EXIT
 294:core/src/ksynch.c **** 		return (RK_ERR_OBJ_NOT_INIT);
 295:core/src/ksynch.c **** 	}
 296:core/src/ksynch.c **** 	if (kobj->waitingQueue.size == 0)
 1004              		.loc 1 296 2 is_stmt 1 view .LVU294
 1005              		.loc 1 296 24 is_stmt 0 view .LVU295
 1006 0012 2369     		ldr	r3, [r4, #16]
 1007              		.loc 1 296 5 view .LVU296
ARM GAS  /var/folders/fg/4fzv35n91mbcgx4z5jzqdsl40000gn/T//cc8adue3.s 			page 31


 1008 0014 0BBB     		cbnz	r3, .L87
 297:core/src/ksynch.c **** 	{
 298:core/src/ksynch.c **** 		RK_CR_EXIT
 1009              		.loc 1 298 3 is_stmt 1 view .LVU297
 1010 0016 FFF7FEFF 		bl	kExitCR
 1011              	.LVL108:
 299:core/src/ksynch.c **** 		return (RK_ERR_EMPTY_WAITING_QUEUE);
 1012              		.loc 1 299 3 view .LVU298
 1013              		.loc 1 299 10 is_stmt 0 view .LVU299
 1014 001a 6FF06600 		mvn	r0, #102
 1015 001e 23E0     		b	.L83
 1016              	.LVL109:
 1017              	.L90:
 286:core/src/ksynch.c **** 		RK_CR_EXIT
 1018              		.loc 1 286 3 is_stmt 1 view .LVU300
 1019 0020 6FF06300 		mvn	r0, #99
 1020              	.LVL110:
 286:core/src/ksynch.c **** 		RK_CR_EXIT
 1021              		.loc 1 286 3 is_stmt 0 view .LVU301
 1022 0024 FFF7FEFF 		bl	kErrHandler
 1023              	.LVL111:
 287:core/src/ksynch.c **** 		return (RK_ERR_OBJ_NULL);
 1024              		.loc 1 287 3 is_stmt 1 view .LVU302
 1025 0028 2846     		mov	r0, r5
 1026 002a FFF7FEFF 		bl	kExitCR
 1027              	.LVL112:
 288:core/src/ksynch.c **** 	}
 1028              		.loc 1 288 3 view .LVU303
 288:core/src/ksynch.c **** 	}
 1029              		.loc 1 288 10 is_stmt 0 view .LVU304
 1030 002e 6FF06300 		mvn	r0, #99
 1031 0032 19E0     		b	.L83
 1032              	.LVL113:
 1033              	.L91:
 292:core/src/ksynch.c **** 		RK_CR_EXIT
 1034              		.loc 1 292 3 is_stmt 1 view .LVU305
 1035 0034 6FF06400 		mvn	r0, #100
 1036              	.LVL114:
 292:core/src/ksynch.c **** 		RK_CR_EXIT
 1037              		.loc 1 292 3 is_stmt 0 view .LVU306
 1038 0038 FFF7FEFF 		bl	kErrHandler
 1039              	.LVL115:
 293:core/src/ksynch.c **** 		return (RK_ERR_OBJ_NOT_INIT);
 1040              		.loc 1 293 3 is_stmt 1 view .LVU307
 1041 003c 2846     		mov	r0, r5
 1042 003e FFF7FEFF 		bl	kExitCR
 1043              	.LVL116:
 294:core/src/ksynch.c **** 	}
 1044              		.loc 1 294 3 view .LVU308
 294:core/src/ksynch.c **** 	}
 1045              		.loc 1 294 10 is_stmt 0 view .LVU309
 1046 0042 6FF06400 		mvn	r0, #100
 1047 0046 0FE0     		b	.L83
 1048              	.L88:
 1049              	.LBB24:
 300:core/src/ksynch.c **** 	}
 301:core/src/ksynch.c **** 	while (kobj->waitingQueue.size)
ARM GAS  /var/folders/fg/4fzv35n91mbcgx4z5jzqdsl40000gn/T//cc8adue3.s 			page 32


 302:core/src/ksynch.c **** 	{
 303:core/src/ksynch.c **** 		RK_TCB *nextTCBPtr = NULL;
 1050              		.loc 1 303 3 is_stmt 1 view .LVU310
 1051              		.loc 1 303 11 is_stmt 0 view .LVU311
 1052 0048 0023     		movs	r3, #0
 1053 004a 0193     		str	r3, [sp, #4]
 304:core/src/ksynch.c **** 		kTCBQDeq( &kobj->waitingQueue, &nextTCBPtr);
 1054              		.loc 1 304 3 is_stmt 1 view .LVU312
 1055 004c 01A9     		add	r1, sp, #4
 1056 004e 201D     		adds	r0, r4, #4
 1057 0050 FFF7FEFF 		bl	kTCBQDeq
 1058              	.LVL117:
 305:core/src/ksynch.c **** 		kReadyCtxtSwtch( nextTCBPtr);
 1059              		.loc 1 305 3 view .LVU313
 1060 0054 0198     		ldr	r0, [sp, #4]
 1061 0056 FFF7FEFF 		bl	kReadyCtxtSwtch
 1062              	.LVL118:
 1063              	.L87:
 1064              		.loc 1 305 3 is_stmt 0 view .LVU314
 1065              	.LBE24:
 301:core/src/ksynch.c **** 	{
 1066              		.loc 1 301 9 is_stmt 1 view .LVU315
 301:core/src/ksynch.c **** 	{
 1067              		.loc 1 301 27 is_stmt 0 view .LVU316
 1068 005a 2369     		ldr	r3, [r4, #16]
 301:core/src/ksynch.c **** 	{
 1069              		.loc 1 301 9 view .LVU317
 1070 005c 002B     		cmp	r3, #0
 1071 005e F3D1     		bne	.L88
 306:core/src/ksynch.c **** 	}
 307:core/src/ksynch.c **** 	RK_CR_EXIT
 1072              		.loc 1 307 2 is_stmt 1 view .LVU318
 1073 0060 2846     		mov	r0, r5
 1074 0062 FFF7FEFF 		bl	kExitCR
 1075              	.LVL119:
 308:core/src/ksynch.c **** 	return (RK_SUCCESS);
 1076              		.loc 1 308 2 view .LVU319
 1077              		.loc 1 308 9 is_stmt 0 view .LVU320
 1078 0066 0020     		movs	r0, #0
 1079              	.L83:
 309:core/src/ksynch.c **** }
 1080              		.loc 1 309 1 view .LVU321
 1081 0068 03B0     		add	sp, sp, #12
 1082              		.cfi_def_cfa_offset 12
 1083              		@ sp needed
 1084 006a 30BD     		pop	{r4, r5, pc}
 1085              		.loc 1 309 1 view .LVU322
 1086              		.cfi_endproc
 1087              	.LFE60:
 1089              		.section	.text.kEventSignal,"ax",%progbits
 1090              		.align	1
 1091              		.global	kEventSignal
 1092              		.syntax unified
 1093              		.thumb
 1094              		.thumb_func
 1096              	kEventSignal:
 1097              	.LVL120:
ARM GAS  /var/folders/fg/4fzv35n91mbcgx4z5jzqdsl40000gn/T//cc8adue3.s 			page 33


 1098              	.LFB61:
 310:core/src/ksynch.c **** 
 311:core/src/ksynch.c **** RK_ERR kEventSignal( RK_EVENT *const kobj)
 312:core/src/ksynch.c **** {
 1099              		.loc 1 312 1 is_stmt 1 view -0
 1100              		.cfi_startproc
 1101              		@ args = 0, pretend = 0, frame = 0
 1102              		@ frame_needed = 0, uses_anonymous_args = 0
 1103              		.loc 1 312 1 is_stmt 0 view .LVU324
 1104 0000 38B5     		push	{r3, r4, r5, lr}
 1105              		.cfi_def_cfa_offset 16
 1106              		.cfi_offset 3, -16
 1107              		.cfi_offset 4, -12
 1108              		.cfi_offset 5, -8
 1109              		.cfi_offset 14, -4
 1110 0002 0446     		mov	r4, r0
 313:core/src/ksynch.c **** 	RK_CR_AREA
 1111              		.loc 1 313 2 is_stmt 1 view .LVU325
 314:core/src/ksynch.c **** 	RK_CR_ENTER
 1112              		.loc 1 314 2 view .LVU326
 1113 0004 FFF7FEFF 		bl	kEnterCR
 1114              	.LVL121:
 1115              		.loc 1 314 2 is_stmt 0 view .LVU327
 1116 0008 0546     		mov	r5, r0
 1117              	.LVL122:
 315:core/src/ksynch.c **** 	RK_ERR err = RK_ERROR;
 1118              		.loc 1 315 2 is_stmt 1 view .LVU328
 316:core/src/ksynch.c **** 	if (kobj == NULL)
 1119              		.loc 1 316 2 view .LVU329
 1120              		.loc 1 316 5 is_stmt 0 view .LVU330
 1121 000a 44B1     		cbz	r4, .L98
 317:core/src/ksynch.c **** 	{
 318:core/src/ksynch.c **** 		KERR( RK_FAULT_OBJ_NULL);
 319:core/src/ksynch.c **** 		RK_CR_EXIT
 320:core/src/ksynch.c **** 		return (RK_ERR_OBJ_NULL);
 321:core/src/ksynch.c **** 	}
 322:core/src/ksynch.c **** 	if (kobj->waitingQueue.size == 0)
 1122              		.loc 1 322 2 is_stmt 1 view .LVU331
 1123              		.loc 1 322 24 is_stmt 0 view .LVU332
 1124 000c 2369     		ldr	r3, [r4, #16]
 1125              		.loc 1 322 5 view .LVU333
 1126 000e 83B1     		cbz	r3, .L96
 315:core/src/ksynch.c **** 	if (kobj == NULL)
 1127              		.loc 1 315 9 view .LVU334
 1128 0010 4FF0FF34 		mov	r4, #-1
 1129              	.LVL123:
 1130              	.L95:
 323:core/src/ksynch.c **** 		err = (RK_ERR_EMPTY_WAITING_QUEUE);
 324:core/src/ksynch.c **** 	RK_CR_EXIT
 1131              		.loc 1 324 2 is_stmt 1 view .LVU335
 1132 0014 2846     		mov	r0, r5
 1133              	.LVL124:
 1134              		.loc 1 324 2 is_stmt 0 view .LVU336
 1135 0016 FFF7FEFF 		bl	kExitCR
 1136              	.LVL125:
 325:core/src/ksynch.c **** 	return (err);
 1137              		.loc 1 325 2 is_stmt 1 view .LVU337
ARM GAS  /var/folders/fg/4fzv35n91mbcgx4z5jzqdsl40000gn/T//cc8adue3.s 			page 34


 1138              	.L92:
 326:core/src/ksynch.c **** 	if (kobj->init == FALSE)
 327:core/src/ksynch.c **** 	{
 328:core/src/ksynch.c **** 		KERR( RK_FAULT_OBJ_NOT_INIT);
 329:core/src/ksynch.c **** 		err = (RK_ERR_OBJ_NOT_INIT);
 330:core/src/ksynch.c **** 		RK_CR_EXIT
 331:core/src/ksynch.c **** 		return (err);
 332:core/src/ksynch.c **** 	}
 333:core/src/ksynch.c **** 	RK_TCB *nextTCBPtr = NULL;
 334:core/src/ksynch.c **** 	kTCBQDeq( &kobj->waitingQueue, &nextTCBPtr);
 335:core/src/ksynch.c **** 	kReadyCtxtSwtch( nextTCBPtr);
 336:core/src/ksynch.c **** 	RK_CR_EXIT
 337:core/src/ksynch.c **** 	return (RK_SUCCESS);
 338:core/src/ksynch.c **** }
 1139              		.loc 1 338 1 is_stmt 0 view .LVU338
 1140 001a 2046     		mov	r0, r4
 1141 001c 38BD     		pop	{r3, r4, r5, pc}
 1142              	.LVL126:
 1143              	.L98:
 318:core/src/ksynch.c **** 		RK_CR_EXIT
 1144              		.loc 1 318 3 is_stmt 1 view .LVU339
 1145 001e 6FF06300 		mvn	r0, #99
 1146              	.LVL127:
 318:core/src/ksynch.c **** 		RK_CR_EXIT
 1147              		.loc 1 318 3 is_stmt 0 view .LVU340
 1148 0022 FFF7FEFF 		bl	kErrHandler
 1149              	.LVL128:
 319:core/src/ksynch.c **** 		return (RK_ERR_OBJ_NULL);
 1150              		.loc 1 319 3 is_stmt 1 view .LVU341
 1151 0026 2846     		mov	r0, r5
 1152 0028 FFF7FEFF 		bl	kExitCR
 1153              	.LVL129:
 320:core/src/ksynch.c **** 	}
 1154              		.loc 1 320 3 view .LVU342
 320:core/src/ksynch.c **** 	}
 1155              		.loc 1 320 10 is_stmt 0 view .LVU343
 1156 002c 6FF06304 		mvn	r4, #99
 1157              	.LVL130:
 320:core/src/ksynch.c **** 	}
 1158              		.loc 1 320 10 view .LVU344
 1159 0030 F3E7     		b	.L92
 1160              	.LVL131:
 1161              	.L96:
 323:core/src/ksynch.c **** 	RK_CR_EXIT
 1162              		.loc 1 323 7 view .LVU345
 1163 0032 6FF06604 		mvn	r4, #102
 1164              	.LVL132:
 323:core/src/ksynch.c **** 	RK_CR_EXIT
 1165              		.loc 1 323 7 view .LVU346
 1166 0036 EDE7     		b	.L95
 1167              		.cfi_endproc
 1168              	.LFE61:
 1170              		.section	.text.kEventQuery,"ax",%progbits
 1171              		.align	1
 1172              		.global	kEventQuery
 1173              		.syntax unified
 1174              		.thumb
ARM GAS  /var/folders/fg/4fzv35n91mbcgx4z5jzqdsl40000gn/T//cc8adue3.s 			page 35


 1175              		.thumb_func
 1177              	kEventQuery:
 1178              	.LVL133:
 1179              	.LFB62:
 339:core/src/ksynch.c **** /* Returns the number of tasks sleeping for an event */
 340:core/src/ksynch.c **** ULONG kEventQuery( RK_EVENT *const kobj)
 341:core/src/ksynch.c **** {
 1180              		.loc 1 341 1 is_stmt 1 view -0
 1181              		.cfi_startproc
 1182              		@ args = 0, pretend = 0, frame = 0
 1183              		@ frame_needed = 0, uses_anonymous_args = 0
 1184              		@ link register save eliminated.
 342:core/src/ksynch.c **** 	if (kobj == NULL)
 1185              		.loc 1 342 2 view .LVU348
 1186              		.loc 1 342 5 is_stmt 0 view .LVU349
 1187 0000 08B1     		cbz	r0, .L101
 343:core/src/ksynch.c **** 	{
 344:core/src/ksynch.c **** 		return (0);
 345:core/src/ksynch.c **** 	}
 346:core/src/ksynch.c **** 	return (kobj->waitingQueue.size);
 1188              		.loc 1 346 2 is_stmt 1 view .LVU350
 1189              		.loc 1 346 28 is_stmt 0 view .LVU351
 1190 0002 0069     		ldr	r0, [r0, #16]
 1191              	.LVL134:
 1192              		.loc 1 346 28 view .LVU352
 1193 0004 7047     		bx	lr
 1194              	.LVL135:
 1195              	.L101:
 344:core/src/ksynch.c **** 	}
 1196              		.loc 1 344 10 view .LVU353
 1197 0006 0020     		movs	r0, #0
 1198              	.LVL136:
 347:core/src/ksynch.c **** }
 1199              		.loc 1 347 1 view .LVU354
 1200 0008 7047     		bx	lr
 1201              		.cfi_endproc
 1202              	.LFE62:
 1204              		.section	.rodata.kSemaInit.str1.4,"aMS",%progbits,1
 1205              		.align	2
 1206              	.LC1:
 1207 0000 73656D61 		.ascii	"semaQ\000"
 1207      5100
 1208              		.section	.text.kSemaInit,"ax",%progbits
 1209              		.align	1
 1210              		.global	kSemaInit
 1211              		.syntax unified
 1212              		.thumb
 1213              		.thumb_func
 1215              	kSemaInit:
 1216              	.LVL137:
 1217              	.LFB63:
 348:core/src/ksynch.c **** 
 349:core/src/ksynch.c **** #endif
 350:core/src/ksynch.c **** 
 351:core/src/ksynch.c **** #if (RK_CONF_SEMA == ON)
 352:core/src/ksynch.c **** /******************************************************************************
 353:core/src/ksynch.c ****  * COUNTER SEMAPHORES
ARM GAS  /var/folders/fg/4fzv35n91mbcgx4z5jzqdsl40000gn/T//cc8adue3.s 			page 36


 354:core/src/ksynch.c ****  ******************************************************************************/
 355:core/src/ksynch.c **** /* counter semaphores cannot initialise with a negative value */
 356:core/src/ksynch.c **** RK_ERR kSemaInit( RK_SEMA *const kobj, const INT value)
 357:core/src/ksynch.c **** {
 1218              		.loc 1 357 1 is_stmt 1 view -0
 1219              		.cfi_startproc
 1220              		@ args = 0, pretend = 0, frame = 0
 1221              		@ frame_needed = 0, uses_anonymous_args = 0
 1222              		.loc 1 357 1 is_stmt 0 view .LVU356
 1223 0000 70B5     		push	{r4, r5, r6, lr}
 1224              		.cfi_def_cfa_offset 16
 1225              		.cfi_offset 4, -16
 1226              		.cfi_offset 5, -12
 1227              		.cfi_offset 6, -8
 1228              		.cfi_offset 14, -4
 1229 0002 0446     		mov	r4, r0
 1230 0004 0D46     		mov	r5, r1
 358:core/src/ksynch.c **** 	RK_CR_AREA
 1231              		.loc 1 358 2 is_stmt 1 view .LVU357
 359:core/src/ksynch.c **** 	RK_CR_ENTER
 1232              		.loc 1 359 2 view .LVU358
 1233 0006 FFF7FEFF 		bl	kEnterCR
 1234              	.LVL138:
 1235              		.loc 1 359 2 is_stmt 0 view .LVU359
 1236 000a 0646     		mov	r6, r0
 1237              	.LVL139:
 360:core/src/ksynch.c **** 	if (kobj == NULL)
 1238              		.loc 1 360 2 is_stmt 1 view .LVU360
 1239              		.loc 1 360 5 is_stmt 0 view .LVU361
 1240 000c 8CB1     		cbz	r4, .L108
 361:core/src/ksynch.c **** 	{
 362:core/src/ksynch.c **** 		KERR( RK_FAULT_OBJ_NULL);
 363:core/src/ksynch.c **** 		RK_CR_EXIT
 364:core/src/ksynch.c **** 		return (RK_ERR_OBJ_NULL);
 365:core/src/ksynch.c **** 	}
 366:core/src/ksynch.c **** 	if (value < 0)
 1241              		.loc 1 366 2 is_stmt 1 view .LVU362
 1242              		.loc 1 366 5 is_stmt 0 view .LVU363
 1243 000e 002D     		cmp	r5, #0
 1244 0010 19DB     		blt	.L109
 1245              	.LVL140:
 1246              	.L105:
 367:core/src/ksynch.c **** 		KERR( RK_GENERIC_FAULT);
 368:core/src/ksynch.c **** 	kobj->value = value;
 1247              		.loc 1 368 2 is_stmt 1 view .LVU364
 1248              		.loc 1 368 14 is_stmt 0 view .LVU365
 1249 0012 A560     		str	r5, [r4, #8]
 369:core/src/ksynch.c **** 	if (kTCBQInit( &(kobj->waitingQueue), "semaQ") != RK_SUCCESS)
 1250              		.loc 1 369 2 is_stmt 1 view .LVU366
 1251              		.loc 1 369 6 is_stmt 0 view .LVU367
 1252 0014 1149     		ldr	r1, .L111
 1253 0016 04F11000 		add	r0, r4, #16
 1254 001a FFF7FEFF 		bl	kTCBQInit
 1255              	.LVL141:
 1256              		.loc 1 369 5 view .LVU368
 1257 001e 0546     		mov	r5, r0
 1258              	.LVL142:
ARM GAS  /var/folders/fg/4fzv35n91mbcgx4z5jzqdsl40000gn/T//cc8adue3.s 			page 37


 1259              		.loc 1 369 5 view .LVU369
 1260 0020 B0B9     		cbnz	r0, .L110
 370:core/src/ksynch.c **** 	{
 371:core/src/ksynch.c **** 		RK_CR_EXIT
 372:core/src/ksynch.c **** 		return (RK_ERROR);
 373:core/src/ksynch.c **** 	}
 374:core/src/ksynch.c **** 	kobj->init = TRUE;
 1261              		.loc 1 374 2 is_stmt 1 view .LVU370
 1262              		.loc 1 374 13 is_stmt 0 view .LVU371
 1263 0022 0123     		movs	r3, #1
 1264 0024 6360     		str	r3, [r4, #4]
 375:core/src/ksynch.c **** 	kobj->objID = RK_SEMAPHORE_KOBJ_ID;
 1265              		.loc 1 375 2 is_stmt 1 view .LVU372
 1266              		.loc 1 375 14 is_stmt 0 view .LVU373
 1267 0026 2360     		str	r3, [r4]
 376:core/src/ksynch.c **** 	RK_CR_EXIT
 1268              		.loc 1 376 2 is_stmt 1 view .LVU374
 1269 0028 3046     		mov	r0, r6
 1270 002a FFF7FEFF 		bl	kExitCR
 1271              	.LVL143:
 377:core/src/ksynch.c **** 	return (RK_SUCCESS);
 1272              		.loc 1 377 2 view .LVU375
 1273              	.L102:
 378:core/src/ksynch.c **** }
 1274              		.loc 1 378 1 is_stmt 0 view .LVU376
 1275 002e 2846     		mov	r0, r5
 1276 0030 70BD     		pop	{r4, r5, r6, pc}
 1277              	.LVL144:
 1278              	.L108:
 362:core/src/ksynch.c **** 		RK_CR_EXIT
 1279              		.loc 1 362 3 is_stmt 1 view .LVU377
 1280 0032 6FF06300 		mvn	r0, #99
 1281              	.LVL145:
 362:core/src/ksynch.c **** 		RK_CR_EXIT
 1282              		.loc 1 362 3 is_stmt 0 view .LVU378
 1283 0036 FFF7FEFF 		bl	kErrHandler
 1284              	.LVL146:
 363:core/src/ksynch.c **** 		return (RK_ERR_OBJ_NULL);
 1285              		.loc 1 363 3 is_stmt 1 view .LVU379
 1286 003a 3046     		mov	r0, r6
 1287 003c FFF7FEFF 		bl	kExitCR
 1288              	.LVL147:
 364:core/src/ksynch.c **** 	}
 1289              		.loc 1 364 3 view .LVU380
 364:core/src/ksynch.c **** 	}
 1290              		.loc 1 364 10 is_stmt 0 view .LVU381
 1291 0040 6FF06305 		mvn	r5, #99
 1292              	.LVL148:
 364:core/src/ksynch.c **** 	}
 1293              		.loc 1 364 10 view .LVU382
 1294 0044 F3E7     		b	.L102
 1295              	.LVL149:
 1296              	.L109:
 367:core/src/ksynch.c **** 	kobj->value = value;
 1297              		.loc 1 367 3 is_stmt 1 view .LVU383
 1298 0046 4FF0FF30 		mov	r0, #-1
 1299              	.LVL150:
ARM GAS  /var/folders/fg/4fzv35n91mbcgx4z5jzqdsl40000gn/T//cc8adue3.s 			page 38


 367:core/src/ksynch.c **** 	kobj->value = value;
 1300              		.loc 1 367 3 is_stmt 0 view .LVU384
 1301 004a FFF7FEFF 		bl	kErrHandler
 1302              	.LVL151:
 1303 004e E0E7     		b	.L105
 1304              	.LVL152:
 1305              	.L110:
 371:core/src/ksynch.c **** 		return (RK_ERROR);
 1306              		.loc 1 371 3 is_stmt 1 view .LVU385
 1307 0050 3046     		mov	r0, r6
 1308 0052 FFF7FEFF 		bl	kExitCR
 1309              	.LVL153:
 372:core/src/ksynch.c **** 	}
 1310              		.loc 1 372 3 view .LVU386
 372:core/src/ksynch.c **** 	}
 1311              		.loc 1 372 10 is_stmt 0 view .LVU387
 1312 0056 4FF0FF35 		mov	r5, #-1
 1313 005a E8E7     		b	.L102
 1314              	.L112:
 1315              		.align	2
 1316              	.L111:
 1317 005c 00000000 		.word	.LC1
 1318              		.cfi_endproc
 1319              	.LFE63:
 1321              		.section	.text.kSemaPend,"ax",%progbits
 1322              		.align	1
 1323              		.global	kSemaPend
 1324              		.syntax unified
 1325              		.thumb
 1326              		.thumb_func
 1328              	kSemaPend:
 1329              	.LVL154:
 1330              	.LFB64:
 379:core/src/ksynch.c **** 
 380:core/src/ksynch.c **** RK_ERR kSemaPend( RK_SEMA *const kobj, const RK_TICK timeout)
 381:core/src/ksynch.c **** {
 1331              		.loc 1 381 1 is_stmt 1 view -0
 1332              		.cfi_startproc
 1333              		@ args = 0, pretend = 0, frame = 0
 1334              		@ frame_needed = 0, uses_anonymous_args = 0
 1335              		.loc 1 381 1 is_stmt 0 view .LVU389
 1336 0000 F8B5     		push	{r3, r4, r5, r6, r7, lr}
 1337              		.cfi_def_cfa_offset 24
 1338              		.cfi_offset 3, -24
 1339              		.cfi_offset 4, -20
 1340              		.cfi_offset 5, -16
 1341              		.cfi_offset 6, -12
 1342              		.cfi_offset 7, -8
 1343              		.cfi_offset 14, -4
 1344 0002 0446     		mov	r4, r0
 1345 0004 0E46     		mov	r6, r1
 382:core/src/ksynch.c **** 	RK_CR_AREA
 1346              		.loc 1 382 2 is_stmt 1 view .LVU390
 383:core/src/ksynch.c **** 	RK_CR_ENTER
 1347              		.loc 1 383 2 view .LVU391
 1348 0006 FFF7FEFF 		bl	kEnterCR
 1349              	.LVL155:
ARM GAS  /var/folders/fg/4fzv35n91mbcgx4z5jzqdsl40000gn/T//cc8adue3.s 			page 39


 1350              		.loc 1 383 2 is_stmt 0 view .LVU392
 1351 000a 0546     		mov	r5, r0
 1352              	.LVL156:
 384:core/src/ksynch.c **** 	if (kIsISR())
 1353              		.loc 1 384 2 is_stmt 1 view .LVU393
 1354              	.LBB25:
 1355              	.LBI25:
 308:arch/armv7m/kernel/inc/kdefs.h **** {
 1356              		.loc 2 308 10 view .LVU394
 1357              	.LBB26:
 310:arch/armv7m/kernel/inc/kdefs.h ****     __ASM ("MRS %0, IPSR" : "=r"(ipsr_value));
 1358              		.loc 2 310 5 view .LVU395
 311:arch/armv7m/kernel/inc/kdefs.h ****     __ASM volatile ("dmb 0xF":::"memory");
 1359              		.loc 2 311 5 view .LVU396
 1360              		.syntax unified
 1361              	@ 311 "arch/armv7m/kernel/inc/kdefs.h" 1
 1362 000c EFF30583 		MRS r3, IPSR
 1363              	@ 0 "" 2
 312:arch/armv7m/kernel/inc/kdefs.h ****     return (ipsr_value);
 1364              		.loc 2 312 5 view .LVU397
 1365              	@ 312 "arch/armv7m/kernel/inc/kdefs.h" 1
 1366 0010 BFF35F8F 		dmb 0xF
 1367              	@ 0 "" 2
 1368              		.loc 2 313 5 view .LVU398
 1369              		.thumb
 1370              		.syntax unified
 1371              	.LBE26:
 1372              	.LBE25:
 1373              		.loc 1 384 5 is_stmt 0 view .LVU399
 1374 0014 002B     		cmp	r3, #0
 1375 0016 31D1     		bne	.L122
 385:core/src/ksynch.c **** 	{
 386:core/src/ksynch.c **** 		KERR( RK_FAULT_INVALID_ISR_PRIMITIVE);
 387:core/src/ksynch.c **** 		RK_CR_EXIT
 388:core/src/ksynch.c **** 		return (RK_ERR_INVALID_ISR_PRIMITIVE);
 389:core/src/ksynch.c **** 	}
 390:core/src/ksynch.c **** 	if (kobj->init == FALSE)
 1376              		.loc 1 390 2 is_stmt 1 view .LVU400
 1377              		.loc 1 390 10 is_stmt 0 view .LVU401
 1378 0018 6368     		ldr	r3, [r4, #4]
 1379              		.loc 1 390 5 view .LVU402
 1380 001a 002B     		cmp	r3, #0
 1381 001c 38D0     		beq	.L123
 391:core/src/ksynch.c **** 	{
 392:core/src/ksynch.c **** 		KERR( RK_FAULT_OBJ_NOT_INIT);
 393:core/src/ksynch.c **** 		RK_CR_EXIT
 394:core/src/ksynch.c **** 		return (RK_ERR_OBJ_NOT_INIT);
 395:core/src/ksynch.c **** 	}
 396:core/src/ksynch.c **** 	if (kobj == NULL)
 1382              		.loc 1 396 2 is_stmt 1 view .LVU403
 397:core/src/ksynch.c **** 	{
 398:core/src/ksynch.c **** 		KERR( RK_FAULT_OBJ_NULL);
 399:core/src/ksynch.c **** 		RK_CR_EXIT
 400:core/src/ksynch.c **** 		return (RK_ERR_OBJ_NULL);
 401:core/src/ksynch.c **** 	}
 402:core/src/ksynch.c **** 	kobj->value--;
 1383              		.loc 1 402 2 view .LVU404
ARM GAS  /var/folders/fg/4fzv35n91mbcgx4z5jzqdsl40000gn/T//cc8adue3.s 			page 40


 1384              		.loc 1 402 6 is_stmt 0 view .LVU405
 1385 001e A368     		ldr	r3, [r4, #8]
 1386              		.loc 1 402 13 view .LVU406
 1387 0020 013B     		subs	r3, r3, #1
 1388 0022 A360     		str	r3, [r4, #8]
 403:core/src/ksynch.c **** 	_RK_DMB
 1389              		.loc 1 403 2 is_stmt 1 view .LVU407
 1390              		.syntax unified
 1391              	@ 403 "core/src/ksynch.c" 1
 1392 0024 BFF35F8F 		dmb 0xF
 1393              	@ 0 "" 2
 404:core/src/ksynch.c **** 	if (kobj->value < 0)
 1394              		.loc 1 404 2 view .LVU408
 1395              		.loc 1 404 10 is_stmt 0 view .LVU409
 1396              		.thumb
 1397              		.syntax unified
 1398 0028 A368     		ldr	r3, [r4, #8]
 1399              		.loc 1 404 5 view .LVU410
 1400 002a 002B     		cmp	r3, #0
 1401 002c 21DA     		bge	.L117
 405:core/src/ksynch.c **** 	{
 406:core/src/ksynch.c **** 		if (timeout == RK_NO_WAIT)
 1402              		.loc 1 406 3 is_stmt 1 view .LVU411
 1403              		.loc 1 406 6 is_stmt 0 view .LVU412
 1404 002e 002E     		cmp	r6, #0
 1405 0030 38D0     		beq	.L124
 407:core/src/ksynch.c **** 		{
 408:core/src/ksynch.c **** 			/* restore value and return */
 409:core/src/ksynch.c **** 			kobj->value++;
 410:core/src/ksynch.c **** 			RK_CR_EXIT
 411:core/src/ksynch.c **** 			return (RK_ERR_BLOCKED_SEMA);
 412:core/src/ksynch.c **** 
 413:core/src/ksynch.c **** 		}
 414:core/src/ksynch.c **** 		runPtr->status = RK_BLOCKED;
 1406              		.loc 1 414 3 is_stmt 1 view .LVU413
 1407              		.loc 1 414 9 is_stmt 0 view .LVU414
 1408 0032 2C4B     		ldr	r3, .L128
 1409 0034 1968     		ldr	r1, [r3]
 1410              		.loc 1 414 18 view .LVU415
 1411 0036 3223     		movs	r3, #50
 1412 0038 4B60     		str	r3, [r1, #4]
 415:core/src/ksynch.c **** 		kTCBQEnqByPrio( &kobj->waitingQueue, runPtr);
 1413              		.loc 1 415 3 is_stmt 1 view .LVU416
 1414              		.loc 1 415 19 is_stmt 0 view .LVU417
 1415 003a 04F11007 		add	r7, r4, #16
 1416              		.loc 1 415 3 view .LVU418
 1417 003e 3846     		mov	r0, r7
 1418              	.LVL157:
 1419              		.loc 1 415 3 view .LVU419
 1420 0040 FFF7FEFF 		bl	kTCBQEnqByPrio
 1421              	.LVL158:
 416:core/src/ksynch.c **** 		if (timeout > RK_NO_WAIT && timeout != RK_WAIT_FOREVER)
 1422              		.loc 1 416 3 is_stmt 1 view .LVU420
 1423              		.loc 1 416 6 is_stmt 0 view .LVU421
 1424 0044 002E     		cmp	r6, #0
 1425 0046 34DC     		bgt	.L125
 1426              	.L119:
ARM GAS  /var/folders/fg/4fzv35n91mbcgx4z5jzqdsl40000gn/T//cc8adue3.s 			page 41


 417:core/src/ksynch.c **** 		{
 418:core/src/ksynch.c **** 			RK_TASK_TIMEOUT_WAITINGQUEUE_SETUP
 419:core/src/ksynch.c **** 
 420:core/src/ksynch.c **** 			kTimeOut( &runPtr->timeoutNode, timeout);
 421:core/src/ksynch.c **** 
 422:core/src/ksynch.c **** 		}
 423:core/src/ksynch.c **** 		RK_PEND_CTXTSWTCH
 1427              		.loc 1 423 3 is_stmt 1 view .LVU422
 1428 0048 274A     		ldr	r2, .L128+4
 1429 004a 5368     		ldr	r3, [r2, #4]
 1430 004c 43F08053 		orr	r3, r3, #268435456
 1431 0050 5360     		str	r3, [r2, #4]
 1432              		.loc 1 423 3 view .LVU423
 1433              		.syntax unified
 1434              	@ 423 "core/src/ksynch.c" 1
 1435 0052 BFF34F8F 		dsb 0xF
 1436              	@ 0 "" 2
 1437              		.loc 1 423 3 view .LVU424
 1438              	@ 423 "core/src/ksynch.c" 1
 1439 0056 BFF36F8F 		isb 0xF
 1440              	@ 0 "" 2
 424:core/src/ksynch.c **** 		RK_CR_EXIT
 1441              		.loc 1 424 3 view .LVU425
 1442              		.thumb
 1443              		.syntax unified
 1444 005a 2846     		mov	r0, r5
 1445 005c FFF7FEFF 		bl	kExitCR
 1446              	.LVL159:
 425:core/src/ksynch.c **** 		RK_CR_ENTER
 1447              		.loc 1 425 3 view .LVU426
 1448 0060 FFF7FEFF 		bl	kEnterCR
 1449              	.LVL160:
 1450 0064 0546     		mov	r5, r0
 1451              	.LVL161:
 426:core/src/ksynch.c **** 		if (runPtr->timeOut)
 1452              		.loc 1 426 3 view .LVU427
 1453              		.loc 1 426 13 is_stmt 0 view .LVU428
 1454 0066 1F4B     		ldr	r3, .L128
 1455 0068 1868     		ldr	r0, [r3]
 1456              	.LVL162:
 1457              		.loc 1 426 13 view .LVU429
 1458 006a 836B     		ldr	r3, [r0, #56]
 1459              		.loc 1 426 6 view .LVU430
 1460 006c 5BBB     		cbnz	r3, .L126
 427:core/src/ksynch.c **** 		{
 428:core/src/ksynch.c **** 			runPtr->timeOut = FALSE;
 429:core/src/ksynch.c **** 			kobj->value += 1;
 430:core/src/ksynch.c **** 			RK_CR_EXIT
 431:core/src/ksynch.c **** 			return (RK_ERR_TIMEOUT);
 432:core/src/ksynch.c **** 		}
 433:core/src/ksynch.c **** 
 434:core/src/ksynch.c **** 		if (timeout > RK_NO_WAIT && timeout != RK_WAIT_FOREVER)
 1461              		.loc 1 434 3 is_stmt 1 view .LVU431
 1462              		.loc 1 434 6 is_stmt 0 view .LVU432
 1463 006e 002E     		cmp	r6, #0
 1464 0070 34DC     		bgt	.L127
 1465              	.L117:
ARM GAS  /var/folders/fg/4fzv35n91mbcgx4z5jzqdsl40000gn/T//cc8adue3.s 			page 42


 435:core/src/ksynch.c **** 			kRemoveTimeoutNode( &runPtr->timeoutNode);
 436:core/src/ksynch.c **** 	}
 437:core/src/ksynch.c **** 	RK_CR_EXIT
 1466              		.loc 1 437 2 is_stmt 1 view .LVU433
 1467 0072 2846     		mov	r0, r5
 1468 0074 FFF7FEFF 		bl	kExitCR
 1469              	.LVL163:
 438:core/src/ksynch.c **** 	return (RK_SUCCESS);
 1470              		.loc 1 438 2 view .LVU434
 1471              		.loc 1 438 9 is_stmt 0 view .LVU435
 1472 0078 0020     		movs	r0, #0
 1473              	.L113:
 439:core/src/ksynch.c **** }
 1474              		.loc 1 439 1 view .LVU436
 1475 007a F8BD     		pop	{r3, r4, r5, r6, r7, pc}
 1476              	.LVL164:
 1477              	.L122:
 386:core/src/ksynch.c **** 		RK_CR_EXIT
 1478              		.loc 1 386 3 is_stmt 1 view .LVU437
 1479 007c 6FF06E00 		mvn	r0, #110
 1480              	.LVL165:
 386:core/src/ksynch.c **** 		RK_CR_EXIT
 1481              		.loc 1 386 3 is_stmt 0 view .LVU438
 1482 0080 FFF7FEFF 		bl	kErrHandler
 1483              	.LVL166:
 387:core/src/ksynch.c **** 		return (RK_ERR_INVALID_ISR_PRIMITIVE);
 1484              		.loc 1 387 3 is_stmt 1 view .LVU439
 1485 0084 2846     		mov	r0, r5
 1486 0086 FFF7FEFF 		bl	kExitCR
 1487              	.LVL167:
 388:core/src/ksynch.c **** 	}
 1488              		.loc 1 388 3 view .LVU440
 388:core/src/ksynch.c **** 	}
 1489              		.loc 1 388 10 is_stmt 0 view .LVU441
 1490 008a 6FF06E00 		mvn	r0, #110
 1491 008e F4E7     		b	.L113
 1492              	.LVL168:
 1493              	.L123:
 392:core/src/ksynch.c **** 		RK_CR_EXIT
 1494              		.loc 1 392 3 is_stmt 1 view .LVU442
 1495 0090 6FF06400 		mvn	r0, #100
 1496              	.LVL169:
 392:core/src/ksynch.c **** 		RK_CR_EXIT
 1497              		.loc 1 392 3 is_stmt 0 view .LVU443
 1498 0094 FFF7FEFF 		bl	kErrHandler
 1499              	.LVL170:
 393:core/src/ksynch.c **** 		return (RK_ERR_OBJ_NOT_INIT);
 1500              		.loc 1 393 3 is_stmt 1 view .LVU444
 1501 0098 2846     		mov	r0, r5
 1502 009a FFF7FEFF 		bl	kExitCR
 1503              	.LVL171:
 394:core/src/ksynch.c **** 	}
 1504              		.loc 1 394 3 view .LVU445
 394:core/src/ksynch.c **** 	}
 1505              		.loc 1 394 10 is_stmt 0 view .LVU446
 1506 009e 6FF06400 		mvn	r0, #100
 1507 00a2 EAE7     		b	.L113
ARM GAS  /var/folders/fg/4fzv35n91mbcgx4z5jzqdsl40000gn/T//cc8adue3.s 			page 43


 1508              	.LVL172:
 1509              	.L124:
 409:core/src/ksynch.c **** 			RK_CR_EXIT
 1510              		.loc 1 409 4 is_stmt 1 view .LVU447
 409:core/src/ksynch.c **** 			RK_CR_EXIT
 1511              		.loc 1 409 15 is_stmt 0 view .LVU448
 1512 00a4 0133     		adds	r3, r3, #1
 1513 00a6 A360     		str	r3, [r4, #8]
 410:core/src/ksynch.c **** 			return (RK_ERR_BLOCKED_SEMA);
 1514              		.loc 1 410 4 is_stmt 1 view .LVU449
 1515 00a8 FFF7FEFF 		bl	kExitCR
 1516              	.LVL173:
 411:core/src/ksynch.c **** 
 1517              		.loc 1 411 4 view .LVU450
 411:core/src/ksynch.c **** 
 1518              		.loc 1 411 11 is_stmt 0 view .LVU451
 1519 00ac 6FF49870 		mvn	r0, #304
 1520 00b0 E3E7     		b	.L113
 1521              	.L125:
 418:core/src/ksynch.c **** 
 1522              		.loc 1 418 4 is_stmt 1 view .LVU452
 1523 00b2 0C4B     		ldr	r3, .L128
 1524 00b4 1868     		ldr	r0, [r3]
 1525 00b6 0123     		movs	r3, #1
 1526 00b8 C364     		str	r3, [r0, #76]
 418:core/src/ksynch.c **** 
 1527              		.loc 1 418 4 view .LVU453
 1528 00ba 8765     		str	r7, [r0, #88]
 420:core/src/ksynch.c **** 
 1529              		.loc 1 420 4 view .LVU454
 1530 00bc 3146     		mov	r1, r6
 1531 00be 4430     		adds	r0, r0, #68
 1532 00c0 FFF7FEFF 		bl	kTimeOut
 1533              	.LVL174:
 1534 00c4 C0E7     		b	.L119
 1535              	.L126:
 428:core/src/ksynch.c **** 			kobj->value += 1;
 1536              		.loc 1 428 4 view .LVU455
 428:core/src/ksynch.c **** 			kobj->value += 1;
 1537              		.loc 1 428 20 is_stmt 0 view .LVU456
 1538 00c6 0023     		movs	r3, #0
 1539 00c8 8363     		str	r3, [r0, #56]
 429:core/src/ksynch.c **** 			RK_CR_EXIT
 1540              		.loc 1 429 4 is_stmt 1 view .LVU457
 429:core/src/ksynch.c **** 			RK_CR_EXIT
 1541              		.loc 1 429 8 is_stmt 0 view .LVU458
 1542 00ca A368     		ldr	r3, [r4, #8]
 429:core/src/ksynch.c **** 			RK_CR_EXIT
 1543              		.loc 1 429 16 view .LVU459
 1544 00cc 0133     		adds	r3, r3, #1
 1545 00ce A360     		str	r3, [r4, #8]
 430:core/src/ksynch.c **** 			return (RK_ERR_TIMEOUT);
 1546              		.loc 1 430 4 is_stmt 1 view .LVU460
 1547 00d0 2846     		mov	r0, r5
 1548 00d2 FFF7FEFF 		bl	kExitCR
 1549              	.LVL175:
 431:core/src/ksynch.c **** 		}
ARM GAS  /var/folders/fg/4fzv35n91mbcgx4z5jzqdsl40000gn/T//cc8adue3.s 			page 44


 1550              		.loc 1 431 4 view .LVU461
 431:core/src/ksynch.c **** 		}
 1551              		.loc 1 431 11 is_stmt 0 view .LVU462
 1552 00d6 6FF06B00 		mvn	r0, #107
 1553 00da CEE7     		b	.L113
 1554              	.L127:
 435:core/src/ksynch.c **** 	}
 1555              		.loc 1 435 4 is_stmt 1 view .LVU463
 1556 00dc 4430     		adds	r0, r0, #68
 1557 00de FFF7FEFF 		bl	kRemoveTimeoutNode
 1558              	.LVL176:
 1559 00e2 C6E7     		b	.L117
 1560              	.L129:
 1561              		.align	2
 1562              	.L128:
 1563 00e4 00000000 		.word	runPtr
 1564 00e8 00ED00E0 		.word	-536810240
 1565              		.cfi_endproc
 1566              	.LFE64:
 1568              		.section	.text.kSemaPost,"ax",%progbits
 1569              		.align	1
 1570              		.global	kSemaPost
 1571              		.syntax unified
 1572              		.thumb
 1573              		.thumb_func
 1575              	kSemaPost:
 1576              	.LVL177:
 1577              	.LFB65:
 440:core/src/ksynch.c **** 
 441:core/src/ksynch.c **** RK_ERR kSemaPost( RK_SEMA *const kobj)
 442:core/src/ksynch.c **** {
 1578              		.loc 1 442 1 view -0
 1579              		.cfi_startproc
 1580              		@ args = 0, pretend = 0, frame = 8
 1581              		@ frame_needed = 0, uses_anonymous_args = 0
 1582              		.loc 1 442 1 is_stmt 0 view .LVU465
 1583 0000 30B5     		push	{r4, r5, lr}
 1584              		.cfi_def_cfa_offset 12
 1585              		.cfi_offset 4, -12
 1586              		.cfi_offset 5, -8
 1587              		.cfi_offset 14, -4
 1588 0002 83B0     		sub	sp, sp, #12
 1589              		.cfi_def_cfa_offset 24
 1590 0004 0446     		mov	r4, r0
 443:core/src/ksynch.c **** 	RK_CR_AREA
 1591              		.loc 1 443 2 is_stmt 1 view .LVU466
 444:core/src/ksynch.c **** 	RK_CR_ENTER
 1592              		.loc 1 444 2 view .LVU467
 1593 0006 FFF7FEFF 		bl	kEnterCR
 1594              	.LVL178:
 1595              		.loc 1 444 2 is_stmt 0 view .LVU468
 1596 000a 0546     		mov	r5, r0
 1597              	.LVL179:
 445:core/src/ksynch.c **** 	if (kobj == NULL)
 1598              		.loc 1 445 2 is_stmt 1 view .LVU469
 1599              		.loc 1 445 5 is_stmt 0 view .LVU470
 1600 000c ACB1     		cbz	r4, .L138
ARM GAS  /var/folders/fg/4fzv35n91mbcgx4z5jzqdsl40000gn/T//cc8adue3.s 			page 45


 446:core/src/ksynch.c **** 	{
 447:core/src/ksynch.c **** 		KERR( RK_FAULT_OBJ_NULL);
 448:core/src/ksynch.c **** 		RK_CR_EXIT
 449:core/src/ksynch.c **** 		return (RK_ERR_OBJ_NULL);
 450:core/src/ksynch.c **** 	}
 451:core/src/ksynch.c **** 	if (kobj->init == FALSE)
 1601              		.loc 1 451 2 is_stmt 1 view .LVU471
 1602              		.loc 1 451 10 is_stmt 0 view .LVU472
 1603 000e 6368     		ldr	r3, [r4, #4]
 1604              		.loc 1 451 5 view .LVU473
 1605 0010 EBB1     		cbz	r3, .L139
 452:core/src/ksynch.c **** 	{
 453:core/src/ksynch.c **** 		KERR( RK_FAULT_OBJ_NOT_INIT);
 454:core/src/ksynch.c **** 		RK_CR_EXIT
 455:core/src/ksynch.c **** 		return (RK_ERR_OBJ_NOT_INIT);
 456:core/src/ksynch.c **** 	}
 457:core/src/ksynch.c **** 	RK_TCB *nextTCBPtr = NULL;
 1606              		.loc 1 457 2 is_stmt 1 view .LVU474
 1607              		.loc 1 457 10 is_stmt 0 view .LVU475
 1608 0012 0023     		movs	r3, #0
 1609 0014 0193     		str	r3, [sp, #4]
 458:core/src/ksynch.c **** 	(kobj->value) = (kobj->value) + 1;
 1610              		.loc 1 458 2 is_stmt 1 view .LVU476
 1611              		.loc 1 458 23 is_stmt 0 view .LVU477
 1612 0016 A368     		ldr	r3, [r4, #8]
 1613              		.loc 1 458 32 view .LVU478
 1614 0018 0133     		adds	r3, r3, #1
 1615              		.loc 1 458 16 view .LVU479
 1616 001a A360     		str	r3, [r4, #8]
 459:core/src/ksynch.c **** 	if (kobj->value == RK_INT_MAX - 1)
 1617              		.loc 1 459 2 is_stmt 1 view .LVU480
 1618              		.loc 1 459 5 is_stmt 0 view .LVU481
 1619 001c 1D4A     		ldr	r2, .L143
 1620 001e 9342     		cmp	r3, r2
 1621 0020 1FD0     		beq	.L140
 460:core/src/ksynch.c **** 	{
 461:core/src/ksynch.c **** 		RK_CR_EXIT
 462:core/src/ksynch.c **** 		return (RK_ERR_OVERFLOW);
 463:core/src/ksynch.c **** 	}
 464:core/src/ksynch.c **** 	_RK_DMB
 1622              		.loc 1 464 2 is_stmt 1 view .LVU482
 1623              		.syntax unified
 1624              	@ 464 "core/src/ksynch.c" 1
 1625 0022 BFF35F8F 		dmb 0xF
 1626              	@ 0 "" 2
 465:core/src/ksynch.c **** 	if ((kobj->value) <= 0)
 1627              		.loc 1 465 2 view .LVU483
 1628              		.loc 1 465 11 is_stmt 0 view .LVU484
 1629              		.thumb
 1630              		.syntax unified
 1631 0026 A368     		ldr	r3, [r4, #8]
 1632              		.loc 1 465 5 view .LVU485
 1633 0028 002B     		cmp	r3, #0
 1634 002a 1FDD     		ble	.L141
 1635              	.LVL180:
 1636              	.L135:
 466:core/src/ksynch.c **** 	{
ARM GAS  /var/folders/fg/4fzv35n91mbcgx4z5jzqdsl40000gn/T//cc8adue3.s 			page 46


 467:core/src/ksynch.c **** 		RK_ERR err = kTCBQDeq( &(kobj->waitingQueue), &nextTCBPtr);
 468:core/src/ksynch.c **** 		if (err < 0)
 469:core/src/ksynch.c **** 		{
 470:core/src/ksynch.c **** 			RK_CR_EXIT
 471:core/src/ksynch.c **** 			return (err);
 472:core/src/ksynch.c **** 		}
 473:core/src/ksynch.c **** 		err = kReadyCtxtSwtch( nextTCBPtr);
 474:core/src/ksynch.c **** 		if (err < 0)
 475:core/src/ksynch.c **** 		{
 476:core/src/ksynch.c **** 			RK_CR_EXIT
 477:core/src/ksynch.c **** 			return (err);
 478:core/src/ksynch.c **** 		}
 479:core/src/ksynch.c **** 	}
 480:core/src/ksynch.c **** 	RK_CR_EXIT
 1637              		.loc 1 480 2 is_stmt 1 view .LVU486
 1638 002c 2846     		mov	r0, r5
 1639 002e FFF7FEFF 		bl	kExitCR
 1640              	.LVL181:
 481:core/src/ksynch.c **** 	return (RK_SUCCESS);
 1641              		.loc 1 481 2 view .LVU487
 1642              		.loc 1 481 9 is_stmt 0 view .LVU488
 1643 0032 0024     		movs	r4, #0
 1644              	.L130:
 482:core/src/ksynch.c **** }
 1645              		.loc 1 482 1 view .LVU489
 1646 0034 2046     		mov	r0, r4
 1647 0036 03B0     		add	sp, sp, #12
 1648              		.cfi_remember_state
 1649              		.cfi_def_cfa_offset 12
 1650              		@ sp needed
 1651 0038 30BD     		pop	{r4, r5, pc}
 1652              	.LVL182:
 1653              	.L138:
 1654              		.cfi_restore_state
 447:core/src/ksynch.c **** 		RK_CR_EXIT
 1655              		.loc 1 447 3 is_stmt 1 view .LVU490
 1656 003a 6FF06300 		mvn	r0, #99
 1657              	.LVL183:
 447:core/src/ksynch.c **** 		RK_CR_EXIT
 1658              		.loc 1 447 3 is_stmt 0 view .LVU491
 1659 003e FFF7FEFF 		bl	kErrHandler
 1660              	.LVL184:
 448:core/src/ksynch.c **** 		return (RK_ERR_OBJ_NULL);
 1661              		.loc 1 448 3 is_stmt 1 view .LVU492
 1662 0042 2846     		mov	r0, r5
 1663 0044 FFF7FEFF 		bl	kExitCR
 1664              	.LVL185:
 449:core/src/ksynch.c **** 	}
 1665              		.loc 1 449 3 view .LVU493
 449:core/src/ksynch.c **** 	}
 1666              		.loc 1 449 10 is_stmt 0 view .LVU494
 1667 0048 6FF06304 		mvn	r4, #99
 1668              	.LVL186:
 449:core/src/ksynch.c **** 	}
 1669              		.loc 1 449 10 view .LVU495
 1670 004c F2E7     		b	.L130
 1671              	.LVL187:
ARM GAS  /var/folders/fg/4fzv35n91mbcgx4z5jzqdsl40000gn/T//cc8adue3.s 			page 47


 1672              	.L139:
 453:core/src/ksynch.c **** 		RK_CR_EXIT
 1673              		.loc 1 453 3 is_stmt 1 view .LVU496
 1674 004e 6FF06400 		mvn	r0, #100
 1675              	.LVL188:
 453:core/src/ksynch.c **** 		RK_CR_EXIT
 1676              		.loc 1 453 3 is_stmt 0 view .LVU497
 1677 0052 FFF7FEFF 		bl	kErrHandler
 1678              	.LVL189:
 454:core/src/ksynch.c **** 		return (RK_ERR_OBJ_NOT_INIT);
 1679              		.loc 1 454 3 is_stmt 1 view .LVU498
 1680 0056 2846     		mov	r0, r5
 1681 0058 FFF7FEFF 		bl	kExitCR
 1682              	.LVL190:
 455:core/src/ksynch.c **** 	}
 1683              		.loc 1 455 3 view .LVU499
 455:core/src/ksynch.c **** 	}
 1684              		.loc 1 455 10 is_stmt 0 view .LVU500
 1685 005c 6FF06404 		mvn	r4, #100
 1686              	.LVL191:
 455:core/src/ksynch.c **** 	}
 1687              		.loc 1 455 10 view .LVU501
 1688 0060 E8E7     		b	.L130
 1689              	.LVL192:
 1690              	.L140:
 461:core/src/ksynch.c **** 		return (RK_ERR_OVERFLOW);
 1691              		.loc 1 461 3 is_stmt 1 view .LVU502
 1692 0062 FFF7FEFF 		bl	kExitCR
 1693              	.LVL193:
 462:core/src/ksynch.c **** 	}
 1694              		.loc 1 462 3 view .LVU503
 462:core/src/ksynch.c **** 	}
 1695              		.loc 1 462 10 is_stmt 0 view .LVU504
 1696 0066 6FF06904 		mvn	r4, #105
 1697              	.LVL194:
 462:core/src/ksynch.c **** 	}
 1698              		.loc 1 462 10 view .LVU505
 1699 006a E3E7     		b	.L130
 1700              	.LVL195:
 1701              	.L141:
 1702              	.LBB27:
 467:core/src/ksynch.c **** 		if (err < 0)
 1703              		.loc 1 467 3 is_stmt 1 view .LVU506
 467:core/src/ksynch.c **** 		if (err < 0)
 1704              		.loc 1 467 16 is_stmt 0 view .LVU507
 1705 006c 01A9     		add	r1, sp, #4
 1706 006e 04F11000 		add	r0, r4, #16
 1707              	.LVL196:
 467:core/src/ksynch.c **** 		if (err < 0)
 1708              		.loc 1 467 16 view .LVU508
 1709 0072 FFF7FEFF 		bl	kTCBQDeq
 1710              	.LVL197:
 468:core/src/ksynch.c **** 		{
 1711              		.loc 1 468 3 is_stmt 1 view .LVU509
 468:core/src/ksynch.c **** 		{
 1712              		.loc 1 468 6 is_stmt 0 view .LVU510
 1713 0076 041E     		subs	r4, r0, #0
ARM GAS  /var/folders/fg/4fzv35n91mbcgx4z5jzqdsl40000gn/T//cc8adue3.s 			page 48


 1714              	.LVL198:
 468:core/src/ksynch.c **** 		{
 1715              		.loc 1 468 6 view .LVU511
 1716 0078 08DB     		blt	.L142
 473:core/src/ksynch.c **** 		if (err < 0)
 1717              		.loc 1 473 3 is_stmt 1 view .LVU512
 473:core/src/ksynch.c **** 		if (err < 0)
 1718              		.loc 1 473 9 is_stmt 0 view .LVU513
 1719 007a 0198     		ldr	r0, [sp, #4]
 1720              	.LVL199:
 473:core/src/ksynch.c **** 		if (err < 0)
 1721              		.loc 1 473 9 view .LVU514
 1722 007c FFF7FEFF 		bl	kReadyCtxtSwtch
 1723              	.LVL200:
 474:core/src/ksynch.c **** 		{
 1724              		.loc 1 474 3 is_stmt 1 view .LVU515
 474:core/src/ksynch.c **** 		{
 1725              		.loc 1 474 6 is_stmt 0 view .LVU516
 1726 0080 041E     		subs	r4, r0, #0
 1727 0082 D3DA     		bge	.L135
 476:core/src/ksynch.c **** 			return (err);
 1728              		.loc 1 476 4 is_stmt 1 view .LVU517
 1729 0084 2846     		mov	r0, r5
 1730              	.LVL201:
 476:core/src/ksynch.c **** 			return (err);
 1731              		.loc 1 476 4 is_stmt 0 view .LVU518
 1732 0086 FFF7FEFF 		bl	kExitCR
 1733              	.LVL202:
 477:core/src/ksynch.c **** 		}
 1734              		.loc 1 477 4 is_stmt 1 view .LVU519
 477:core/src/ksynch.c **** 		}
 1735              		.loc 1 477 11 is_stmt 0 view .LVU520
 1736 008a D3E7     		b	.L130
 1737              	.LVL203:
 1738              	.L142:
 470:core/src/ksynch.c **** 			return (err);
 1739              		.loc 1 470 4 is_stmt 1 view .LVU521
 1740 008c 2846     		mov	r0, r5
 1741              	.LVL204:
 470:core/src/ksynch.c **** 			return (err);
 1742              		.loc 1 470 4 is_stmt 0 view .LVU522
 1743 008e FFF7FEFF 		bl	kExitCR
 1744              	.LVL205:
 471:core/src/ksynch.c **** 		}
 1745              		.loc 1 471 4 is_stmt 1 view .LVU523
 471:core/src/ksynch.c **** 		}
 1746              		.loc 1 471 11 is_stmt 0 view .LVU524
 1747 0092 CFE7     		b	.L130
 1748              	.L144:
 1749              		.align	2
 1750              	.L143:
 1751 0094 FEFFFF7F 		.word	2147483646
 1752              	.LBE27:
 1753              		.cfi_endproc
 1754              	.LFE65:
 1756              		.section	.text.kSemaQuery,"ax",%progbits
 1757              		.align	1
ARM GAS  /var/folders/fg/4fzv35n91mbcgx4z5jzqdsl40000gn/T//cc8adue3.s 			page 49


 1758              		.global	kSemaQuery
 1759              		.syntax unified
 1760              		.thumb
 1761              		.thumb_func
 1763              	kSemaQuery:
 1764              	.LVL206:
 1765              	.LFB66:
 483:core/src/ksynch.c **** 
 484:core/src/ksynch.c **** INT kSemaQuery( RK_SEMA *const kobj)
 485:core/src/ksynch.c **** {
 1766              		.loc 1 485 1 is_stmt 1 view -0
 1767              		.cfi_startproc
 1768              		@ args = 0, pretend = 0, frame = 0
 1769              		@ frame_needed = 0, uses_anonymous_args = 0
 1770              		@ link register save eliminated.
 486:core/src/ksynch.c **** 	if (kobj && kobj->init)
 1771              		.loc 1 486 2 view .LVU526
 1772              		.loc 1 486 5 is_stmt 0 view .LVU527
 1773 0000 30B1     		cbz	r0, .L147
 1774              		.loc 1 486 18 discriminator 1 view .LVU528
 1775 0002 4268     		ldr	r2, [r0, #4]
 1776              		.loc 1 486 11 discriminator 1 view .LVU529
 1777 0004 12B9     		cbnz	r2, .L149
 487:core/src/ksynch.c **** 	{
 488:core/src/ksynch.c **** 		return (kobj->value);
 489:core/src/ksynch.c **** 	}
 490:core/src/ksynch.c **** 	return (RK_INT_MAX);
 1778              		.loc 1 490 9 view .LVU530
 1779 0006 6FF00040 		mvn	r0, #-2147483648
 1780              	.LVL207:
 491:core/src/ksynch.c **** }
 1781              		.loc 1 491 1 view .LVU531
 1782 000a 7047     		bx	lr
 1783              	.LVL208:
 1784              	.L149:
 488:core/src/ksynch.c **** 	}
 1785              		.loc 1 488 3 is_stmt 1 view .LVU532
 488:core/src/ksynch.c **** 	}
 1786              		.loc 1 488 15 is_stmt 0 view .LVU533
 1787 000c 8068     		ldr	r0, [r0, #8]
 1788              	.LVL209:
 488:core/src/ksynch.c **** 	}
 1789              		.loc 1 488 15 view .LVU534
 1790 000e 7047     		bx	lr
 1791              	.LVL210:
 1792              	.L147:
 490:core/src/ksynch.c **** }
 1793              		.loc 1 490 9 view .LVU535
 1794 0010 6FF00040 		mvn	r0, #-2147483648
 1795              	.LVL211:
 490:core/src/ksynch.c **** }
 1796              		.loc 1 490 9 view .LVU536
 1797 0014 7047     		bx	lr
 1798              		.cfi_endproc
 1799              	.LFE66:
 1801              		.section	.rodata.kMutexInit.str1.4,"aMS",%progbits,1
 1802              		.align	2
ARM GAS  /var/folders/fg/4fzv35n91mbcgx4z5jzqdsl40000gn/T//cc8adue3.s 			page 50


 1803              	.LC2:
 1804 0000 6D757465 		.ascii	"mutexQ\000"
 1804      785100
 1805              		.section	.text.kMutexInit,"ax",%progbits
 1806              		.align	1
 1807              		.global	kMutexInit
 1808              		.syntax unified
 1809              		.thumb
 1810              		.thumb_func
 1812              	kMutexInit:
 1813              	.LVL212:
 1814              	.LFB67:
 492:core/src/ksynch.c **** 
 493:core/src/ksynch.c **** #endif
 494:core/src/ksynch.c **** 
 495:core/src/ksynch.c **** #if (RK_CONF_MUTEX == ON)
 496:core/src/ksynch.c **** /*******************************************************************************
 497:core/src/ksynch.c ****  * MUTEX SEMAPHORE
 498:core/src/ksynch.c ****  *******************************************************************************/
 499:core/src/ksynch.c **** /* mutex handle priority inversion by default */
 500:core/src/ksynch.c **** /* there is no recursive lock */
 501:core/src/ksynch.c **** /* unlocking a mutex you do not own leads to hard fault */
 502:core/src/ksynch.c **** /* queue discipline is either priority (default) or fifo */
 503:core/src/ksynch.c **** 
 504:core/src/ksynch.c **** RK_ERR kMutexInit( RK_MUTEX *const kobj)
 505:core/src/ksynch.c **** {
 1815              		.loc 1 505 1 is_stmt 1 view -0
 1816              		.cfi_startproc
 1817              		@ args = 0, pretend = 0, frame = 0
 1818              		@ frame_needed = 0, uses_anonymous_args = 0
 1819              		.loc 1 505 1 is_stmt 0 view .LVU538
 1820 0000 10B5     		push	{r4, lr}
 1821              		.cfi_def_cfa_offset 8
 1822              		.cfi_offset 4, -8
 1823              		.cfi_offset 14, -4
 506:core/src/ksynch.c **** 
 507:core/src/ksynch.c **** 	if (kobj == NULL)
 1824              		.loc 1 507 2 is_stmt 1 view .LVU539
 1825              		.loc 1 507 5 is_stmt 0 view .LVU540
 1826 0002 60B1     		cbz	r0, .L155
 1827 0004 0446     		mov	r4, r0
 508:core/src/ksynch.c **** 	{
 509:core/src/ksynch.c **** 		KERR( RK_FAULT_OBJ_NULL);
 510:core/src/ksynch.c **** 		return (RK_ERROR);
 511:core/src/ksynch.c **** 	}
 512:core/src/ksynch.c **** 	kobj->lock = FALSE;
 1828              		.loc 1 512 2 is_stmt 1 view .LVU541
 1829              		.loc 1 512 13 is_stmt 0 view .LVU542
 1830 0006 0023     		movs	r3, #0
 1831 0008 8361     		str	r3, [r0, #24]
 513:core/src/ksynch.c **** 	if (kTCBQInit( &(kobj->waitingQueue), "mutexQ") != RK_SUCCESS)
 1832              		.loc 1 513 2 is_stmt 1 view .LVU543
 1833              		.loc 1 513 6 is_stmt 0 view .LVU544
 1834 000a 0A49     		ldr	r1, .L156
 1835 000c 0430     		adds	r0, r0, #4
 1836              	.LVL213:
 1837              		.loc 1 513 6 view .LVU545
ARM GAS  /var/folders/fg/4fzv35n91mbcgx4z5jzqdsl40000gn/T//cc8adue3.s 			page 51


 1838 000e FFF7FEFF 		bl	kTCBQInit
 1839              	.LVL214:
 1840              		.loc 1 513 5 view .LVU546
 1841 0012 58B9     		cbnz	r0, .L153
 514:core/src/ksynch.c **** 	{
 515:core/src/ksynch.c **** 		return (RK_ERROR);
 516:core/src/ksynch.c **** 	}
 517:core/src/ksynch.c **** 	kobj->init = TRUE;
 1842              		.loc 1 517 2 is_stmt 1 view .LVU547
 1843              		.loc 1 517 13 is_stmt 0 view .LVU548
 1844 0014 0123     		movs	r3, #1
 1845 0016 2362     		str	r3, [r4, #32]
 518:core/src/ksynch.c **** 	kobj->objID = RK_MUTEX_KOBJ_ID;
 1846              		.loc 1 518 2 is_stmt 1 view .LVU549
 1847              		.loc 1 518 14 is_stmt 0 view .LVU550
 1848 0018 0323     		movs	r3, #3
 1849 001a 2360     		str	r3, [r4]
 519:core/src/ksynch.c **** 	return (RK_SUCCESS);
 1850              		.loc 1 519 2 is_stmt 1 view .LVU551
 1851              	.LVL215:
 1852              	.L150:
 520:core/src/ksynch.c **** }
 1853              		.loc 1 520 1 is_stmt 0 view .LVU552
 1854 001c 10BD     		pop	{r4, pc}
 1855              	.LVL216:
 1856              	.L155:
 509:core/src/ksynch.c **** 		return (RK_ERROR);
 1857              		.loc 1 509 3 is_stmt 1 view .LVU553
 1858 001e 6FF06300 		mvn	r0, #99
 1859              	.LVL217:
 509:core/src/ksynch.c **** 		return (RK_ERROR);
 1860              		.loc 1 509 3 is_stmt 0 view .LVU554
 1861 0022 FFF7FEFF 		bl	kErrHandler
 1862              	.LVL218:
 510:core/src/ksynch.c **** 	}
 1863              		.loc 1 510 3 is_stmt 1 view .LVU555
 510:core/src/ksynch.c **** 	}
 1864              		.loc 1 510 10 is_stmt 0 view .LVU556
 1865 0026 4FF0FF30 		mov	r0, #-1
 1866 002a F7E7     		b	.L150
 1867              	.LVL219:
 1868              	.L153:
 515:core/src/ksynch.c **** 	}
 1869              		.loc 1 515 10 view .LVU557
 1870 002c 4FF0FF30 		mov	r0, #-1
 1871 0030 F4E7     		b	.L150
 1872              	.L157:
 1873 0032 00BF     		.align	2
 1874              	.L156:
 1875 0034 00000000 		.word	.LC2
 1876              		.cfi_endproc
 1877              	.LFE67:
 1879              		.section	.text.kMutexLock,"ax",%progbits
 1880              		.align	1
 1881              		.global	kMutexLock
 1882              		.syntax unified
 1883              		.thumb
ARM GAS  /var/folders/fg/4fzv35n91mbcgx4z5jzqdsl40000gn/T//cc8adue3.s 			page 52


 1884              		.thumb_func
 1886              	kMutexLock:
 1887              	.LVL220:
 1888              	.LFB68:
 521:core/src/ksynch.c **** 
 522:core/src/ksynch.c **** RK_ERR kMutexLock( RK_MUTEX *const kobj, BOOL prioInh, RK_TICK timeout)
 523:core/src/ksynch.c **** {
 1889              		.loc 1 523 1 is_stmt 1 view -0
 1890              		.cfi_startproc
 1891              		@ args = 0, pretend = 0, frame = 0
 1892              		@ frame_needed = 0, uses_anonymous_args = 0
 1893              		.loc 1 523 1 is_stmt 0 view .LVU559
 1894 0000 F8B5     		push	{r3, r4, r5, r6, r7, lr}
 1895              		.cfi_def_cfa_offset 24
 1896              		.cfi_offset 3, -24
 1897              		.cfi_offset 4, -20
 1898              		.cfi_offset 5, -16
 1899              		.cfi_offset 6, -12
 1900              		.cfi_offset 7, -8
 1901              		.cfi_offset 14, -4
 1902 0002 0446     		mov	r4, r0
 1903 0004 0F46     		mov	r7, r1
 1904 0006 1646     		mov	r6, r2
 524:core/src/ksynch.c **** 	RK_CR_AREA
 1905              		.loc 1 524 2 is_stmt 1 view .LVU560
 525:core/src/ksynch.c **** 	RK_CR_ENTER
 1906              		.loc 1 525 2 view .LVU561
 1907 0008 FFF7FEFF 		bl	kEnterCR
 1908              	.LVL221:
 1909              		.loc 1 525 2 is_stmt 0 view .LVU562
 1910 000c 0546     		mov	r5, r0
 1911              	.LVL222:
 526:core/src/ksynch.c **** 	if (kobj->init == FALSE)
 1912              		.loc 1 526 2 is_stmt 1 view .LVU563
 1913              		.loc 1 526 10 is_stmt 0 view .LVU564
 1914 000e 236A     		ldr	r3, [r4, #32]
 1915              		.loc 1 526 5 view .LVU565
 1916 0010 002B     		cmp	r3, #0
 1917 0012 3AD0     		beq	.L170
 1918              	.LVL223:
 1919              	.L159:
 527:core/src/ksynch.c **** 	{
 528:core/src/ksynch.c **** 		kassert( 0);
 529:core/src/ksynch.c **** 	}
 530:core/src/ksynch.c **** 	if (kobj == NULL)
 531:core/src/ksynch.c **** 	{
 532:core/src/ksynch.c **** 		KERR( RK_FAULT_OBJ_NULL);
 533:core/src/ksynch.c **** 	}
 534:core/src/ksynch.c **** 	if (kIsISR())
 1920              		.loc 1 534 2 is_stmt 1 view .LVU566
 1921              	.LBB28:
 1922              	.LBI28:
 308:arch/armv7m/kernel/inc/kdefs.h **** {
 1923              		.loc 2 308 10 view .LVU567
 1924              	.LBB29:
 310:arch/armv7m/kernel/inc/kdefs.h ****     __ASM ("MRS %0, IPSR" : "=r"(ipsr_value));
 1925              		.loc 2 310 5 view .LVU568
ARM GAS  /var/folders/fg/4fzv35n91mbcgx4z5jzqdsl40000gn/T//cc8adue3.s 			page 53


 311:arch/armv7m/kernel/inc/kdefs.h ****     __ASM volatile ("dmb 0xF":::"memory");
 1926              		.loc 2 311 5 view .LVU569
 1927              		.syntax unified
 1928              	@ 311 "arch/armv7m/kernel/inc/kdefs.h" 1
 1929 0014 EFF30583 		MRS r3, IPSR
 1930              	@ 0 "" 2
 312:arch/armv7m/kernel/inc/kdefs.h ****     return (ipsr_value);
 1931              		.loc 2 312 5 view .LVU570
 1932              	@ 312 "arch/armv7m/kernel/inc/kdefs.h" 1
 1933 0018 BFF35F8F 		dmb 0xF
 1934              	@ 0 "" 2
 1935              		.loc 2 313 5 view .LVU571
 1936              		.thumb
 1937              		.syntax unified
 1938              	.LBE29:
 1939              	.LBE28:
 1940              		.loc 1 534 5 is_stmt 0 view .LVU572
 1941 001c 002B     		cmp	r3, #0
 1942 001e 3ED1     		bne	.L171
 1943              	.L160:
 535:core/src/ksynch.c **** 	{
 536:core/src/ksynch.c **** 		KERR( RK_FAULT_INVALID_ISR_PRIMITIVE);
 537:core/src/ksynch.c **** 	}
 538:core/src/ksynch.c **** 	if (kobj->lock == FALSE)
 1944              		.loc 1 538 2 is_stmt 1 view .LVU573
 1945              		.loc 1 538 10 is_stmt 0 view .LVU574
 1946 0020 A369     		ldr	r3, [r4, #24]
 1947              		.loc 1 538 5 view .LVU575
 1948 0022 002B     		cmp	r3, #0
 1949 0024 40D0     		beq	.L172
 539:core/src/ksynch.c **** 	{
 540:core/src/ksynch.c **** 		/* lock mutex and set the owner */
 541:core/src/ksynch.c **** 		kobj->lock = TRUE;
 542:core/src/ksynch.c **** 		kobj->ownerPtr = runPtr;
 543:core/src/ksynch.c **** 		RK_CR_EXIT
 544:core/src/ksynch.c **** 		return (RK_SUCCESS);
 545:core/src/ksynch.c **** 	}
 546:core/src/ksynch.c **** 	if ((kobj->ownerPtr != runPtr) && (kobj->ownerPtr != NULL))
 1950              		.loc 1 546 2 is_stmt 1 view .LVU576
 1951              		.loc 1 546 11 is_stmt 0 view .LVU577
 1952 0026 E369     		ldr	r3, [r4, #28]
 1953              		.loc 1 546 22 view .LVU578
 1954 0028 354A     		ldr	r2, .L177
 1955 002a 1168     		ldr	r1, [r2]
 1956              		.loc 1 546 5 view .LVU579
 1957 002c 8B42     		cmp	r3, r1
 1958 002e 5AD0     		beq	.L163
 1959              		.loc 1 546 33 discriminator 1 view .LVU580
 1960 0030 002B     		cmp	r3, #0
 1961 0032 58D0     		beq	.L163
 547:core/src/ksynch.c **** 	{
 548:core/src/ksynch.c **** 		if (timeout == 0)
 1962              		.loc 1 548 3 is_stmt 1 view .LVU581
 1963              		.loc 1 548 6 is_stmt 0 view .LVU582
 1964 0034 002E     		cmp	r6, #0
 1965 0036 41D0     		beq	.L173
 549:core/src/ksynch.c **** 		{
ARM GAS  /var/folders/fg/4fzv35n91mbcgx4z5jzqdsl40000gn/T//cc8adue3.s 			page 54


 550:core/src/ksynch.c **** 			RK_CR_EXIT
 551:core/src/ksynch.c **** 			return (RK_ERR_MUTEX_LOCKED);
 552:core/src/ksynch.c **** 		}
 553:core/src/ksynch.c **** 		if (prioInh)
 1966              		.loc 1 553 3 is_stmt 1 view .LVU583
 1967              		.loc 1 553 6 is_stmt 0 view .LVU584
 1968 0038 27B1     		cbz	r7, .L165
 554:core/src/ksynch.c **** 		{
 555:core/src/ksynch.c **** 			if (kobj->ownerPtr->priority > runPtr->priority)
 1969              		.loc 1 555 4 is_stmt 1 view .LVU585
 1970              		.loc 1 555 22 is_stmt 0 view .LVU586
 1971 003a 587F     		ldrb	r0, [r3, #29]	@ zero_extendqisi2
 1972              		.loc 1 555 41 view .LVU587
 1973 003c 4A7F     		ldrb	r2, [r1, #29]	@ zero_extendqisi2
 1974              		.loc 1 555 7 view .LVU588
 1975 003e 9042     		cmp	r0, r2
 1976 0040 00D9     		bls	.L165
 556:core/src/ksynch.c **** 			{
 557:core/src/ksynch.c **** 				kobj->ownerPtr->priority = runPtr->priority;
 1977              		.loc 1 557 5 is_stmt 1 view .LVU589
 1978              		.loc 1 557 30 is_stmt 0 view .LVU590
 1979 0042 5A77     		strb	r2, [r3, #29]
 1980              	.L165:
 558:core/src/ksynch.c **** 			}
 559:core/src/ksynch.c **** 		}
 560:core/src/ksynch.c **** 		kTCBQEnqByPrio( &kobj->waitingQueue, runPtr);
 1981              		.loc 1 560 3 is_stmt 1 view .LVU591
 1982              		.loc 1 560 19 is_stmt 0 view .LVU592
 1983 0044 0434     		adds	r4, r4, #4
 1984              	.LVL224:
 1985              		.loc 1 560 3 view .LVU593
 1986 0046 2046     		mov	r0, r4
 1987 0048 FFF7FEFF 		bl	kTCBQEnqByPrio
 1988              	.LVL225:
 561:core/src/ksynch.c **** 		runPtr->status = RK_BLOCKED;
 1989              		.loc 1 561 3 is_stmt 1 view .LVU594
 1990              		.loc 1 561 9 is_stmt 0 view .LVU595
 1991 004c 2C4B     		ldr	r3, .L177
 1992 004e 1868     		ldr	r0, [r3]
 1993              		.loc 1 561 18 view .LVU596
 1994 0050 3223     		movs	r3, #50
 1995 0052 4360     		str	r3, [r0, #4]
 562:core/src/ksynch.c **** 
 563:core/src/ksynch.c **** 		if ((timeout > RK_NO_WAIT) && (timeout != RK_WAIT_FOREVER))
 1996              		.loc 1 563 3 is_stmt 1 view .LVU597
 1997              		.loc 1 563 6 is_stmt 0 view .LVU598
 1998 0054 002E     		cmp	r6, #0
 1999 0056 36DC     		bgt	.L174
 2000              	.L166:
 564:core/src/ksynch.c **** 		{
 565:core/src/ksynch.c **** 
 566:core/src/ksynch.c **** 			RK_TASK_TIMEOUT_WAITINGQUEUE_SETUP
 567:core/src/ksynch.c **** 
 568:core/src/ksynch.c **** 			kTimeOut( &runPtr->timeoutNode, timeout);
 569:core/src/ksynch.c **** 		}
 570:core/src/ksynch.c **** 		RK_PEND_CTXTSWTCH
 2001              		.loc 1 570 3 is_stmt 1 view .LVU599
ARM GAS  /var/folders/fg/4fzv35n91mbcgx4z5jzqdsl40000gn/T//cc8adue3.s 			page 55


 2002 0058 2A4A     		ldr	r2, .L177+4
 2003 005a 5368     		ldr	r3, [r2, #4]
 2004 005c 43F08053 		orr	r3, r3, #268435456
 2005 0060 5360     		str	r3, [r2, #4]
 2006              		.loc 1 570 3 view .LVU600
 2007              		.syntax unified
 2008              	@ 570 "core/src/ksynch.c" 1
 2009 0062 BFF34F8F 		dsb 0xF
 2010              	@ 0 "" 2
 2011              		.loc 1 570 3 view .LVU601
 2012              	@ 570 "core/src/ksynch.c" 1
 2013 0066 BFF36F8F 		isb 0xF
 2014              	@ 0 "" 2
 571:core/src/ksynch.c **** 		RK_CR_EXIT
 2015              		.loc 1 571 3 view .LVU602
 2016              		.thumb
 2017              		.syntax unified
 2018 006a 2846     		mov	r0, r5
 2019 006c FFF7FEFF 		bl	kExitCR
 2020              	.LVL226:
 572:core/src/ksynch.c **** 		RK_CR_ENTER
 2021              		.loc 1 572 3 view .LVU603
 2022 0070 FFF7FEFF 		bl	kEnterCR
 2023              	.LVL227:
 2024 0074 0546     		mov	r5, r0
 2025              	.LVL228:
 573:core/src/ksynch.c **** 		if (runPtr->timeOut)
 2026              		.loc 1 573 3 view .LVU604
 2027              		.loc 1 573 13 is_stmt 0 view .LVU605
 2028 0076 224B     		ldr	r3, .L177
 2029 0078 1868     		ldr	r0, [r3]
 2030              	.LVL229:
 2031              		.loc 1 573 13 view .LVU606
 2032 007a 836B     		ldr	r3, [r0, #56]
 2033              		.loc 1 573 6 view .LVU607
 2034 007c 5BBB     		cbnz	r3, .L175
 574:core/src/ksynch.c **** 		{
 575:core/src/ksynch.c **** 			runPtr->timeOut = FALSE;
 576:core/src/ksynch.c **** 			RK_CR_EXIT
 577:core/src/ksynch.c **** 			return (RK_ERR_TIMEOUT);
 578:core/src/ksynch.c **** 		}
 579:core/src/ksynch.c **** 		if ((timeout > RK_NO_WAIT) && (timeout != RK_WAIT_FOREVER))
 2035              		.loc 1 579 3 is_stmt 1 view .LVU608
 2036              		.loc 1 579 6 is_stmt 0 view .LVU609
 2037 007e 002E     		cmp	r6, #0
 2038 0080 33DD     		ble	.L168
 580:core/src/ksynch.c **** 			kRemoveTimeoutNode( &runPtr->timeoutNode);
 2039              		.loc 1 580 4 is_stmt 1 view .LVU610
 2040 0082 4430     		adds	r0, r0, #68
 2041 0084 FFF7FEFF 		bl	kRemoveTimeoutNode
 2042              	.LVL230:
 2043 0088 2FE0     		b	.L168
 2044              	.LVL231:
 2045              	.L170:
 528:core/src/ksynch.c **** 	}
 2046              		.loc 1 528 3 view .LVU611
 2047 008a 0020     		movs	r0, #0
ARM GAS  /var/folders/fg/4fzv35n91mbcgx4z5jzqdsl40000gn/T//cc8adue3.s 			page 56


 2048              	.LVL232:
 528:core/src/ksynch.c **** 	}
 2049              		.loc 1 528 3 is_stmt 0 view .LVU612
 2050 008c FFF7FEFF 		bl	kErrHandler
 2051              	.LVL233:
 530:core/src/ksynch.c **** 	{
 2052              		.loc 1 530 2 is_stmt 1 view .LVU613
 530:core/src/ksynch.c **** 	{
 2053              		.loc 1 530 5 is_stmt 0 view .LVU614
 2054 0090 002C     		cmp	r4, #0
 2055 0092 BFD1     		bne	.L159
 532:core/src/ksynch.c **** 	}
 2056              		.loc 1 532 3 is_stmt 1 view .LVU615
 2057 0094 6FF06300 		mvn	r0, #99
 2058 0098 FFF7FEFF 		bl	kErrHandler
 2059              	.LVL234:
 2060 009c BAE7     		b	.L159
 2061              	.L171:
 536:core/src/ksynch.c **** 	}
 2062              		.loc 1 536 3 view .LVU616
 2063 009e 6FF06E00 		mvn	r0, #110
 2064 00a2 FFF7FEFF 		bl	kErrHandler
 2065              	.LVL235:
 2066 00a6 BBE7     		b	.L160
 2067              	.L172:
 541:core/src/ksynch.c **** 		kobj->ownerPtr = runPtr;
 2068              		.loc 1 541 3 view .LVU617
 541:core/src/ksynch.c **** 		kobj->ownerPtr = runPtr;
 2069              		.loc 1 541 14 is_stmt 0 view .LVU618
 2070 00a8 0123     		movs	r3, #1
 2071 00aa A361     		str	r3, [r4, #24]
 542:core/src/ksynch.c **** 		RK_CR_EXIT
 2072              		.loc 1 542 3 is_stmt 1 view .LVU619
 542:core/src/ksynch.c **** 		RK_CR_EXIT
 2073              		.loc 1 542 18 is_stmt 0 view .LVU620
 2074 00ac 144B     		ldr	r3, .L177
 2075 00ae 1B68     		ldr	r3, [r3]
 2076 00b0 E361     		str	r3, [r4, #28]
 543:core/src/ksynch.c **** 		return (RK_SUCCESS);
 2077              		.loc 1 543 3 is_stmt 1 view .LVU621
 2078 00b2 2846     		mov	r0, r5
 2079 00b4 FFF7FEFF 		bl	kExitCR
 2080              	.LVL236:
 544:core/src/ksynch.c **** 	}
 2081              		.loc 1 544 3 view .LVU622
 544:core/src/ksynch.c **** 	}
 2082              		.loc 1 544 10 is_stmt 0 view .LVU623
 2083 00b8 0020     		movs	r0, #0
 2084 00ba 1AE0     		b	.L158
 2085              	.L173:
 550:core/src/ksynch.c **** 			return (RK_ERR_MUTEX_LOCKED);
 2086              		.loc 1 550 4 is_stmt 1 view .LVU624
 2087 00bc 2846     		mov	r0, r5
 2088 00be FFF7FEFF 		bl	kExitCR
 2089              	.LVL237:
 551:core/src/ksynch.c **** 		}
 2090              		.loc 1 551 4 view .LVU625
ARM GAS  /var/folders/fg/4fzv35n91mbcgx4z5jzqdsl40000gn/T//cc8adue3.s 			page 57


 551:core/src/ksynch.c **** 		}
 2091              		.loc 1 551 11 is_stmt 0 view .LVU626
 2092 00c2 1148     		ldr	r0, .L177+8
 2093 00c4 15E0     		b	.L158
 2094              	.LVL238:
 2095              	.L174:
 566:core/src/ksynch.c **** 
 2096              		.loc 1 566 4 is_stmt 1 view .LVU627
 2097 00c6 0123     		movs	r3, #1
 2098 00c8 C364     		str	r3, [r0, #76]
 566:core/src/ksynch.c **** 
 2099              		.loc 1 566 4 view .LVU628
 2100 00ca 8465     		str	r4, [r0, #88]
 568:core/src/ksynch.c **** 		}
 2101              		.loc 1 568 4 view .LVU629
 2102 00cc 3146     		mov	r1, r6
 2103 00ce 4430     		adds	r0, r0, #68
 2104 00d0 FFF7FEFF 		bl	kTimeOut
 2105              	.LVL239:
 2106 00d4 C0E7     		b	.L166
 2107              	.L175:
 575:core/src/ksynch.c **** 			RK_CR_EXIT
 2108              		.loc 1 575 4 view .LVU630
 575:core/src/ksynch.c **** 			RK_CR_EXIT
 2109              		.loc 1 575 20 is_stmt 0 view .LVU631
 2110 00d6 0023     		movs	r3, #0
 2111 00d8 8363     		str	r3, [r0, #56]
 576:core/src/ksynch.c **** 			return (RK_ERR_TIMEOUT);
 2112              		.loc 1 576 4 is_stmt 1 view .LVU632
 2113 00da 2846     		mov	r0, r5
 2114 00dc FFF7FEFF 		bl	kExitCR
 2115              	.LVL240:
 577:core/src/ksynch.c **** 		}
 2116              		.loc 1 577 4 view .LVU633
 577:core/src/ksynch.c **** 		}
 2117              		.loc 1 577 11 is_stmt 0 view .LVU634
 2118 00e0 6FF06B00 		mvn	r0, #107
 2119 00e4 05E0     		b	.L158
 2120              	.LVL241:
 2121              	.L163:
 581:core/src/ksynch.c **** 	}
 582:core/src/ksynch.c **** 	else
 583:core/src/ksynch.c **** 	{
 584:core/src/ksynch.c **** 		if (kobj->ownerPtr == runPtr)
 2122              		.loc 1 584 3 is_stmt 1 view .LVU635
 2123              		.loc 1 584 6 is_stmt 0 view .LVU636
 2124 00e6 8B42     		cmp	r3, r1
 2125 00e8 04D0     		beq	.L176
 2126              	.LVL242:
 2127              	.L168:
 585:core/src/ksynch.c **** 		{/* recursive lock ? why ? WHYYYYYYYYYYY*/
 586:core/src/ksynch.c **** 			RK_CR_EXIT
 587:core/src/ksynch.c **** 			return (RK_ERR_MUTEX_REC_LOCK);
 588:core/src/ksynch.c **** 		}
 589:core/src/ksynch.c **** 	}
 590:core/src/ksynch.c **** 	RK_CR_EXIT
 2128              		.loc 1 590 2 is_stmt 1 view .LVU637
ARM GAS  /var/folders/fg/4fzv35n91mbcgx4z5jzqdsl40000gn/T//cc8adue3.s 			page 58


 2129 00ea 2846     		mov	r0, r5
 2130 00ec FFF7FEFF 		bl	kExitCR
 2131              	.LVL243:
 591:core/src/ksynch.c **** 	return (RK_SUCCESS);
 2132              		.loc 1 591 2 view .LVU638
 2133              		.loc 1 591 9 is_stmt 0 view .LVU639
 2134 00f0 0020     		movs	r0, #0
 2135              	.L158:
 592:core/src/ksynch.c **** }
 2136              		.loc 1 592 1 view .LVU640
 2137 00f2 F8BD     		pop	{r3, r4, r5, r6, r7, pc}
 2138              	.LVL244:
 2139              	.L176:
 586:core/src/ksynch.c **** 			return (RK_ERR_MUTEX_REC_LOCK);
 2140              		.loc 1 586 4 is_stmt 1 view .LVU641
 2141 00f4 2846     		mov	r0, r5
 2142 00f6 FFF7FEFF 		bl	kExitCR
 2143              	.LVL245:
 587:core/src/ksynch.c **** 		}
 2144              		.loc 1 587 4 view .LVU642
 587:core/src/ksynch.c **** 		}
 2145              		.loc 1 587 11 is_stmt 0 view .LVU643
 2146 00fa 0448     		ldr	r0, .L177+12
 2147 00fc F9E7     		b	.L158
 2148              	.L178:
 2149 00fe 00BF     		.align	2
 2150              	.L177:
 2151 0100 00000000 		.word	runPtr
 2152 0104 00ED00E0 		.word	-536810240
 2153 0108 D2FEFFFF 		.word	-302
 2154 010c D4FEFFFF 		.word	-300
 2155              		.cfi_endproc
 2156              	.LFE68:
 2158              		.section	.text.kMutexUnlock,"ax",%progbits
 2159              		.align	1
 2160              		.global	kMutexUnlock
 2161              		.syntax unified
 2162              		.thumb
 2163              		.thumb_func
 2165              	kMutexUnlock:
 2166              	.LVL246:
 2167              	.LFB69:
 593:core/src/ksynch.c **** 
 594:core/src/ksynch.c **** RK_ERR kMutexUnlock( RK_MUTEX *const kobj)
 595:core/src/ksynch.c **** {
 2168              		.loc 1 595 1 is_stmt 1 view -0
 2169              		.cfi_startproc
 2170              		@ args = 0, pretend = 0, frame = 8
 2171              		@ frame_needed = 0, uses_anonymous_args = 0
 2172              		.loc 1 595 1 is_stmt 0 view .LVU645
 2173 0000 30B5     		push	{r4, r5, lr}
 2174              		.cfi_def_cfa_offset 12
 2175              		.cfi_offset 4, -12
 2176              		.cfi_offset 5, -8
 2177              		.cfi_offset 14, -4
 2178 0002 83B0     		sub	sp, sp, #12
 2179              		.cfi_def_cfa_offset 24
ARM GAS  /var/folders/fg/4fzv35n91mbcgx4z5jzqdsl40000gn/T//cc8adue3.s 			page 59


 2180 0004 0446     		mov	r4, r0
 596:core/src/ksynch.c **** 	RK_CR_AREA
 2181              		.loc 1 596 2 is_stmt 1 view .LVU646
 597:core/src/ksynch.c **** 	RK_CR_ENTER
 2182              		.loc 1 597 2 view .LVU647
 2183 0006 FFF7FEFF 		bl	kEnterCR
 2184              	.LVL247:
 2185              		.loc 1 597 2 is_stmt 0 view .LVU648
 2186 000a 0546     		mov	r5, r0
 2187              	.LVL248:
 598:core/src/ksynch.c **** 	RK_TCB *tcbPtr;
 2188              		.loc 1 598 2 is_stmt 1 view .LVU649
 599:core/src/ksynch.c **** 	if (kIsISR())
 2189              		.loc 1 599 2 view .LVU650
 2190              	.LBB30:
 2191              	.LBI30:
 308:arch/armv7m/kernel/inc/kdefs.h **** {
 2192              		.loc 2 308 10 view .LVU651
 2193              	.LBB31:
 310:arch/armv7m/kernel/inc/kdefs.h ****     __ASM ("MRS %0, IPSR" : "=r"(ipsr_value));
 2194              		.loc 2 310 5 view .LVU652
 311:arch/armv7m/kernel/inc/kdefs.h ****     __ASM volatile ("dmb 0xF":::"memory");
 2195              		.loc 2 311 5 view .LVU653
 2196              		.syntax unified
 2197              	@ 311 "arch/armv7m/kernel/inc/kdefs.h" 1
 2198 000c EFF30583 		MRS r3, IPSR
 2199              	@ 0 "" 2
 312:arch/armv7m/kernel/inc/kdefs.h ****     return (ipsr_value);
 2200              		.loc 2 312 5 view .LVU654
 2201              	@ 312 "arch/armv7m/kernel/inc/kdefs.h" 1
 2202 0010 BFF35F8F 		dmb 0xF
 2203              	@ 0 "" 2
 2204              		.loc 2 313 5 view .LVU655
 2205              		.thumb
 2206              		.syntax unified
 2207              	.LBE31:
 2208              	.LBE30:
 2209              		.loc 1 599 5 is_stmt 0 view .LVU656
 2210 0014 E3B9     		cbnz	r3, .L193
 600:core/src/ksynch.c **** 	{
 601:core/src/ksynch.c **** 		/* an ISR cannot own anything */
 602:core/src/ksynch.c **** 		RK_CR_EXIT
 603:core/src/ksynch.c **** 		return (RK_ERR_INVALID_ISR_PRIMITIVE);
 604:core/src/ksynch.c **** 	}
 605:core/src/ksynch.c **** 	if (kobj == NULL)
 2211              		.loc 1 605 2 is_stmt 1 view .LVU657
 2212              		.loc 1 605 5 is_stmt 0 view .LVU658
 2213 0016 04B3     		cbz	r4, .L194
 2214              	.LVL249:
 2215              	.L182:
 606:core/src/ksynch.c **** 	{
 607:core/src/ksynch.c **** 		KERR( RK_FAULT_OBJ_NULL);
 608:core/src/ksynch.c **** 	}
 609:core/src/ksynch.c **** 	if (kobj->init == FALSE)
 2216              		.loc 1 609 2 is_stmt 1 view .LVU659
 2217              		.loc 1 609 10 is_stmt 0 view .LVU660
 2218 0018 236A     		ldr	r3, [r4, #32]
ARM GAS  /var/folders/fg/4fzv35n91mbcgx4z5jzqdsl40000gn/T//cc8adue3.s 			page 60


 2219              		.loc 1 609 5 view .LVU661
 2220 001a 1BB3     		cbz	r3, .L195
 2221              	.L183:
 610:core/src/ksynch.c **** 	{
 611:core/src/ksynch.c **** 		KERR( RK_FAULT_OBJ_NOT_INIT);
 612:core/src/ksynch.c **** 	}
 613:core/src/ksynch.c **** 	if ((kobj->lock == FALSE ))
 2222              		.loc 1 613 2 is_stmt 1 view .LVU662
 2223              		.loc 1 613 11 is_stmt 0 view .LVU663
 2224 001c A369     		ldr	r3, [r4, #24]
 2225              		.loc 1 613 5 view .LVU664
 2226 001e 002B     		cmp	r3, #0
 2227 0020 4DD0     		beq	.L191
 614:core/src/ksynch.c **** 	{
 615:core/src/ksynch.c **** 		return (RK_ERR_MUTEX_NOT_LOCKED);
 616:core/src/ksynch.c **** 	}
 617:core/src/ksynch.c **** 	if (kobj->ownerPtr != runPtr)
 2228              		.loc 1 617 2 is_stmt 1 view .LVU665
 2229              		.loc 1 617 10 is_stmt 0 view .LVU666
 2230 0022 E369     		ldr	r3, [r4, #28]
 2231              		.loc 1 617 21 view .LVU667
 2232 0024 274A     		ldr	r2, .L198
 2233 0026 1268     		ldr	r2, [r2]
 2234              		.loc 1 617 5 view .LVU668
 2235 0028 9342     		cmp	r3, r2
 2236 002a 20D1     		bne	.L196
 618:core/src/ksynch.c **** 	{
 619:core/src/ksynch.c **** 		KERR( RK_FAULT_UNLOCK_OWNED_MUTEX);
 620:core/src/ksynch.c **** 		RK_CR_EXIT
 621:core/src/ksynch.c **** 		return (RK_ERR_MUTEX_NOT_OWNER);
 622:core/src/ksynch.c **** 	}
 623:core/src/ksynch.c **** 	/* runPtr is the owner and mutex was locked */
 624:core/src/ksynch.c **** 	if (kobj->waitingQueue.size == 0)
 2237              		.loc 1 624 2 is_stmt 1 view .LVU669
 2238              		.loc 1 624 24 is_stmt 0 view .LVU670
 2239 002c 2269     		ldr	r2, [r4, #16]
 2240              		.loc 1 624 5 view .LVU671
 2241 002e 42BB     		cbnz	r2, .L185
 625:core/src/ksynch.c **** 	{
 626:core/src/ksynch.c **** 		kobj->lock = FALSE;
 2242              		.loc 1 626 3 is_stmt 1 view .LVU672
 2243              		.loc 1 626 14 is_stmt 0 view .LVU673
 2244 0030 A261     		str	r2, [r4, #24]
 627:core/src/ksynch.c **** 		if (kobj->ownerPtr->priority != kobj->ownerPtr->realPrio)
 2245              		.loc 1 627 3 is_stmt 1 view .LVU674
 2246              		.loc 1 627 21 is_stmt 0 view .LVU675
 2247 0032 597F     		ldrb	r1, [r3, #29]	@ zero_extendqisi2
 2248              		.loc 1 627 49 view .LVU676
 2249 0034 9A7F     		ldrb	r2, [r3, #30]	@ zero_extendqisi2
 2250              		.loc 1 627 6 view .LVU677
 2251 0036 9142     		cmp	r1, r2
 2252 0038 00D0     		beq	.L186
 628:core/src/ksynch.c **** 		{
 629:core/src/ksynch.c **** 			/* restore owner priority */
 630:core/src/ksynch.c **** 			kobj->ownerPtr->priority = kobj->ownerPtr->realPrio;
 2253              		.loc 1 630 4 is_stmt 1 view .LVU678
 2254              		.loc 1 630 29 is_stmt 0 view .LVU679
ARM GAS  /var/folders/fg/4fzv35n91mbcgx4z5jzqdsl40000gn/T//cc8adue3.s 			page 61


 2255 003a 5A77     		strb	r2, [r3, #29]
 2256              	.L186:
 631:core/src/ksynch.c **** 		}
 632:core/src/ksynch.c **** 		tcbPtr = kobj->ownerPtr;
 2257              		.loc 1 632 3 is_stmt 1 view .LVU680
 2258              		.loc 1 632 16 is_stmt 0 view .LVU681
 2259 003c E369     		ldr	r3, [r4, #28]
 2260              		.loc 1 632 10 view .LVU682
 2261 003e 0193     		str	r3, [sp, #4]
 633:core/src/ksynch.c **** 		kobj->ownerPtr = NULL;
 2262              		.loc 1 633 3 is_stmt 1 view .LVU683
 2263              		.loc 1 633 18 is_stmt 0 view .LVU684
 2264 0040 0023     		movs	r3, #0
 2265 0042 E361     		str	r3, [r4, #28]
 2266              	.L187:
 634:core/src/ksynch.c **** 	}
 635:core/src/ksynch.c **** 	else
 636:core/src/ksynch.c **** 	{
 637:core/src/ksynch.c **** 		/* there are waiters, unblock a waiter set new mutex owner.
 638:core/src/ksynch.c **** 		 * mutex is still locked */
 639:core/src/ksynch.c **** 		kTCBQDeq( &(kobj->waitingQueue), &tcbPtr);
 640:core/src/ksynch.c **** 		if (RK_IS_NULL_PTR( tcbPtr))
 641:core/src/ksynch.c **** 			KERR( RK_FAULT_OBJ_NULL);
 642:core/src/ksynch.c **** 		/* here only runptr can unlock a mutex*/
 643:core/src/ksynch.c **** 		if (runPtr->priority < runPtr->realPrio)
 644:core/src/ksynch.c **** 		{
 645:core/src/ksynch.c **** 			runPtr->priority = runPtr->realPrio;
 646:core/src/ksynch.c **** 		}
 647:core/src/ksynch.c **** 		if (!kReadyCtxtSwtch( tcbPtr))
 648:core/src/ksynch.c **** 		{
 649:core/src/ksynch.c **** 			kobj->ownerPtr = tcbPtr;
 650:core/src/ksynch.c **** 		}
 651:core/src/ksynch.c **** 		else
 652:core/src/ksynch.c **** 		{
 653:core/src/ksynch.c **** 			KERR( RK_FAULT_READY_QUEUE);
 654:core/src/ksynch.c **** 		}
 655:core/src/ksynch.c **** 	}
 656:core/src/ksynch.c **** 	RK_CR_EXIT
 2267              		.loc 1 656 2 is_stmt 1 view .LVU685
 2268 0044 2846     		mov	r0, r5
 2269 0046 FFF7FEFF 		bl	kExitCR
 2270              	.LVL250:
 657:core/src/ksynch.c **** 	return (RK_SUCCESS);
 2271              		.loc 1 657 2 view .LVU686
 2272              		.loc 1 657 9 is_stmt 0 view .LVU687
 2273 004a 0020     		movs	r0, #0
 2274              	.L179:
 658:core/src/ksynch.c **** }
 2275              		.loc 1 658 1 view .LVU688
 2276 004c 03B0     		add	sp, sp, #12
 2277              		.cfi_remember_state
 2278              		.cfi_def_cfa_offset 12
 2279              		@ sp needed
 2280 004e 30BD     		pop	{r4, r5, pc}
 2281              	.LVL251:
 2282              	.L193:
 2283              		.cfi_restore_state
ARM GAS  /var/folders/fg/4fzv35n91mbcgx4z5jzqdsl40000gn/T//cc8adue3.s 			page 62


 602:core/src/ksynch.c **** 		return (RK_ERR_INVALID_ISR_PRIMITIVE);
 2284              		.loc 1 602 3 is_stmt 1 view .LVU689
 2285 0050 FFF7FEFF 		bl	kExitCR
 2286              	.LVL252:
 603:core/src/ksynch.c **** 	}
 2287              		.loc 1 603 3 view .LVU690
 603:core/src/ksynch.c **** 	}
 2288              		.loc 1 603 10 is_stmt 0 view .LVU691
 2289 0054 6FF06E00 		mvn	r0, #110
 2290 0058 F8E7     		b	.L179
 2291              	.LVL253:
 2292              	.L194:
 607:core/src/ksynch.c **** 	}
 2293              		.loc 1 607 3 is_stmt 1 view .LVU692
 2294 005a 6FF06300 		mvn	r0, #99
 2295              	.LVL254:
 607:core/src/ksynch.c **** 	}
 2296              		.loc 1 607 3 is_stmt 0 view .LVU693
 2297 005e FFF7FEFF 		bl	kErrHandler
 2298              	.LVL255:
 2299 0062 D9E7     		b	.L182
 2300              	.L195:
 611:core/src/ksynch.c **** 	}
 2301              		.loc 1 611 3 is_stmt 1 view .LVU694
 2302 0064 6FF06400 		mvn	r0, #100
 2303 0068 FFF7FEFF 		bl	kErrHandler
 2304              	.LVL256:
 2305 006c D6E7     		b	.L183
 2306              	.L196:
 619:core/src/ksynch.c **** 		RK_CR_EXIT
 2307              		.loc 1 619 3 view .LVU695
 2308 006e 6FF49670 		mvn	r0, #300
 2309 0072 FFF7FEFF 		bl	kErrHandler
 2310              	.LVL257:
 620:core/src/ksynch.c **** 		return (RK_ERR_MUTEX_NOT_OWNER);
 2311              		.loc 1 620 3 view .LVU696
 2312 0076 2846     		mov	r0, r5
 2313 0078 FFF7FEFF 		bl	kExitCR
 2314              	.LVL258:
 621:core/src/ksynch.c **** 	}
 2315              		.loc 1 621 3 view .LVU697
 621:core/src/ksynch.c **** 	}
 2316              		.loc 1 621 10 is_stmt 0 view .LVU698
 2317 007c 6FF49670 		mvn	r0, #300
 2318 0080 E4E7     		b	.L179
 2319              	.L185:
 639:core/src/ksynch.c **** 		if (RK_IS_NULL_PTR( tcbPtr))
 2320              		.loc 1 639 3 is_stmt 1 view .LVU699
 2321 0082 01A9     		add	r1, sp, #4
 2322 0084 201D     		adds	r0, r4, #4
 2323 0086 FFF7FEFF 		bl	kTCBQDeq
 2324              	.LVL259:
 640:core/src/ksynch.c **** 			KERR( RK_FAULT_OBJ_NULL);
 2325              		.loc 1 640 3 view .LVU700
 640:core/src/ksynch.c **** 			KERR( RK_FAULT_OBJ_NULL);
 2326              		.loc 1 640 7 is_stmt 0 view .LVU701
 2327 008a 019B     		ldr	r3, [sp, #4]
ARM GAS  /var/folders/fg/4fzv35n91mbcgx4z5jzqdsl40000gn/T//cc8adue3.s 			page 63


 640:core/src/ksynch.c **** 			KERR( RK_FAULT_OBJ_NULL);
 2328              		.loc 1 640 6 view .LVU702
 2329 008c 6BB1     		cbz	r3, .L197
 2330              	.L188:
 643:core/src/ksynch.c **** 		{
 2331              		.loc 1 643 3 is_stmt 1 view .LVU703
 643:core/src/ksynch.c **** 		{
 2332              		.loc 1 643 13 is_stmt 0 view .LVU704
 2333 008e 0D4B     		ldr	r3, .L198
 2334 0090 1B68     		ldr	r3, [r3]
 2335 0092 597F     		ldrb	r1, [r3, #29]	@ zero_extendqisi2
 643:core/src/ksynch.c **** 		{
 2336              		.loc 1 643 32 view .LVU705
 2337 0094 9A7F     		ldrb	r2, [r3, #30]	@ zero_extendqisi2
 643:core/src/ksynch.c **** 		{
 2338              		.loc 1 643 6 view .LVU706
 2339 0096 9142     		cmp	r1, r2
 2340 0098 00D2     		bcs	.L189
 645:core/src/ksynch.c **** 		}
 2341              		.loc 1 645 4 is_stmt 1 view .LVU707
 645:core/src/ksynch.c **** 		}
 2342              		.loc 1 645 21 is_stmt 0 view .LVU708
 2343 009a 5A77     		strb	r2, [r3, #29]
 2344              	.L189:
 647:core/src/ksynch.c **** 		{
 2345              		.loc 1 647 3 is_stmt 1 view .LVU709
 647:core/src/ksynch.c **** 		{
 2346              		.loc 1 647 8 is_stmt 0 view .LVU710
 2347 009c 0198     		ldr	r0, [sp, #4]
 2348 009e FFF7FEFF 		bl	kReadyCtxtSwtch
 2349              	.LVL260:
 647:core/src/ksynch.c **** 		{
 2350              		.loc 1 647 6 view .LVU711
 2351 00a2 38B9     		cbnz	r0, .L190
 649:core/src/ksynch.c **** 		}
 2352              		.loc 1 649 4 is_stmt 1 view .LVU712
 649:core/src/ksynch.c **** 		}
 2353              		.loc 1 649 19 is_stmt 0 view .LVU713
 2354 00a4 019B     		ldr	r3, [sp, #4]
 2355 00a6 E361     		str	r3, [r4, #28]
 2356 00a8 CCE7     		b	.L187
 2357              	.L197:
 641:core/src/ksynch.c **** 		/* here only runptr can unlock a mutex*/
 2358              		.loc 1 641 4 is_stmt 1 view .LVU714
 2359 00aa 6FF06300 		mvn	r0, #99
 2360 00ae FFF7FEFF 		bl	kErrHandler
 2361              	.LVL261:
 2362 00b2 ECE7     		b	.L188
 2363              	.L190:
 653:core/src/ksynch.c **** 		}
 2364              		.loc 1 653 4 view .LVU715
 2365 00b4 6FF06700 		mvn	r0, #103
 2366 00b8 FFF7FEFF 		bl	kErrHandler
 2367              	.LVL262:
 2368 00bc C2E7     		b	.L187
 2369              	.L191:
 615:core/src/ksynch.c **** 	}
ARM GAS  /var/folders/fg/4fzv35n91mbcgx4z5jzqdsl40000gn/T//cc8adue3.s 			page 64


 2370              		.loc 1 615 10 is_stmt 0 view .LVU716
 2371 00be 6FF49770 		mvn	r0, #302
 2372 00c2 C3E7     		b	.L179
 2373              	.L199:
 2374              		.align	2
 2375              	.L198:
 2376 00c4 00000000 		.word	runPtr
 2377              		.cfi_endproc
 2378              	.LFE69:
 2380              		.section	.text.kMutexQuery,"ax",%progbits
 2381              		.align	1
 2382              		.global	kMutexQuery
 2383              		.syntax unified
 2384              		.thumb
 2385              		.thumb_func
 2387              	kMutexQuery:
 2388              	.LVL263:
 2389              	.LFB70:
 659:core/src/ksynch.c **** /* return mutex state - it checks for abnormal values */
 660:core/src/ksynch.c **** LONG kMutexQuery( RK_MUTEX *const kobj)
 661:core/src/ksynch.c **** {
 2390              		.loc 1 661 1 is_stmt 1 view -0
 2391              		.cfi_startproc
 2392              		@ args = 0, pretend = 0, frame = 0
 2393              		@ frame_needed = 0, uses_anonymous_args = 0
 2394              		.loc 1 661 1 is_stmt 0 view .LVU718
 2395 0000 10B5     		push	{r4, lr}
 2396              		.cfi_def_cfa_offset 8
 2397              		.cfi_offset 4, -8
 2398              		.cfi_offset 14, -4
 2399 0002 0446     		mov	r4, r0
 662:core/src/ksynch.c **** 	RK_CR_AREA
 2400              		.loc 1 662 2 is_stmt 1 view .LVU719
 663:core/src/ksynch.c **** 	RK_CR_ENTER
 2401              		.loc 1 663 2 view .LVU720
 2402 0004 FFF7FEFF 		bl	kEnterCR
 2403              	.LVL264:
 664:core/src/ksynch.c **** 	if (!kobj->init || kobj == NULL)
 2404              		.loc 1 664 2 view .LVU721
 2405              		.loc 1 664 11 is_stmt 0 view .LVU722
 2406 0008 236A     		ldr	r3, [r4, #32]
 2407              		.loc 1 664 5 view .LVU723
 2408 000a 1BB1     		cbz	r3, .L204
 665:core/src/ksynch.c **** 	{
 666:core/src/ksynch.c **** 		RK_CR_EXIT
 667:core/src/ksynch.c **** 		return (-1L);
 668:core/src/ksynch.c **** 	}
 669:core/src/ksynch.c **** 		RK_CR_EXIT	
 2409              		.loc 1 669 3 is_stmt 1 view .LVU724
 2410 000c FFF7FEFF 		bl	kExitCR
 2411              	.LVL265:
 670:core/src/ksynch.c **** 		return ((LONG)(kobj->lock));
 2412              		.loc 1 670 3 view .LVU725
 2413              		.loc 1 670 22 is_stmt 0 view .LVU726
 2414 0010 A069     		ldr	r0, [r4, #24]
 2415              	.L200:
 671:core/src/ksynch.c **** }
ARM GAS  /var/folders/fg/4fzv35n91mbcgx4z5jzqdsl40000gn/T//cc8adue3.s 			page 65


 2416              		.loc 1 671 1 view .LVU727
 2417 0012 10BD     		pop	{r4, pc}
 2418              	.LVL266:
 2419              	.L204:
 666:core/src/ksynch.c **** 		return (-1L);
 2420              		.loc 1 666 3 is_stmt 1 view .LVU728
 2421 0014 FFF7FEFF 		bl	kExitCR
 2422              	.LVL267:
 667:core/src/ksynch.c **** 	}
 2423              		.loc 1 667 3 view .LVU729
 667:core/src/ksynch.c **** 	}
 2424              		.loc 1 667 10 is_stmt 0 view .LVU730
 2425 0018 4FF0FF30 		mov	r0, #-1
 2426 001c F9E7     		b	.L200
 2427              		.cfi_endproc
 2428              	.LFE70:
 2430              		.text
 2431              	.Letext0:
 2432              		.file 3 "arch/armv7m/kernel/inc/khal.h"
 2433              		.file 4 "core/inc/kobjs.h"
 2434              		.file 5 "arch/armv7m/kernel/inc/ksch.h"
 2435              		.file 6 "core/inc/kerr.h"
 2436              		.file 7 "core/inc/ktimer.h"
ARM GAS  /var/folders/fg/4fzv35n91mbcgx4z5jzqdsl40000gn/T//cc8adue3.s 			page 66

