ARM GAS  /var/folders/fg/4fzv35n91mbcgx4z5jzqdsl40000gn/T//ccxT5u7N.s 			page 1


   1              		.cpu cortex-m3
   2              		.arch armv7-m
   3              		.fpu softvfp
   4              		.eabi_attribute 20, 1
   5              		.eabi_attribute 21, 1
   6              		.eabi_attribute 23, 3
   7              		.eabi_attribute 24, 1
   8              		.eabi_attribute 25, 1
   9              		.eabi_attribute 26, 1
  10              		.eabi_attribute 30, 1
  11              		.eabi_attribute 34, 1
  12              		.eabi_attribute 18, 4
  13              		.file	"startup.c"
  14              		.text
  15              	.Ltext0:
  16              		.cfi_sections	.debug_frame
  17              		.file 1 "arch/armv7m/kernel/src/startup.c"
  18              		.section	.text.Default_Handler,"ax",%progbits
  19              		.align	1
  20              		.global	Default_Handler
  21              		.syntax unified
  22              		.thumb
  23              		.thumb_func
  25              	Default_Handler:
  26              	.LFB2:
   1:arch/armv7m/kernel/src/startup.c **** #include <stdint.h>
   2:arch/armv7m/kernel/src/startup.c **** 
   3:arch/armv7m/kernel/src/startup.c **** /* Forward declaration of the system exception handlers */
   4:arch/armv7m/kernel/src/startup.c **** void Reset_Handler(void);
   5:arch/armv7m/kernel/src/startup.c **** void NMI_Handler(void) __attribute__((weak, alias("Default_Handler")));
   6:arch/armv7m/kernel/src/startup.c **** void HardFault_Handler(void) __attribute__((weak, alias("Default_Handler")));
   7:arch/armv7m/kernel/src/startup.c **** void MemManage_Handler(void) __attribute__((weak, alias("Default_Handler")));
   8:arch/armv7m/kernel/src/startup.c **** void BusFault_Handler(void) __attribute__((weak, alias("Default_Handler")));
   9:arch/armv7m/kernel/src/startup.c **** void UsageFault_Handler(void) __attribute__((weak, alias("Default_Handler")));
  10:arch/armv7m/kernel/src/startup.c **** void SVC_Handler(void);
  11:arch/armv7m/kernel/src/startup.c **** void DebugMon_Handler(void) __attribute__((weak, alias("Default_Handler")));
  12:arch/armv7m/kernel/src/startup.c **** void PendSV_Handler(void);
  13:arch/armv7m/kernel/src/startup.c **** void SysTick_Handler(void);
  14:arch/armv7m/kernel/src/startup.c **** 
  15:arch/armv7m/kernel/src/startup.c **** /* Forward declaration of standard peripheral interrupt handlers */
  16:arch/armv7m/kernel/src/startup.c **** void GPIO_Handler(void) __attribute__((weak, alias("Default_Handler")));
  17:arch/armv7m/kernel/src/startup.c **** void UART0_Handler(void) __attribute__((weak, alias("Default_Handler")));
  18:arch/armv7m/kernel/src/startup.c **** void UART1_Handler(void) __attribute__((weak, alias("Default_Handler")));
  19:arch/armv7m/kernel/src/startup.c **** void SSI_Handler(void) __attribute__((weak, alias("Default_Handler")));
  20:arch/armv7m/kernel/src/startup.c **** void I2C_Handler(void) __attribute__((weak, alias("Default_Handler")));
  21:arch/armv7m/kernel/src/startup.c **** void PWM_Handler(void) __attribute__((weak, alias("Default_Handler")));
  22:arch/armv7m/kernel/src/startup.c **** void ADC_Handler(void) __attribute__((weak, alias("Default_Handler")));
  23:arch/armv7m/kernel/src/startup.c **** 
  24:arch/armv7m/kernel/src/startup.c **** /* Forward declaration for the main function */
  25:arch/armv7m/kernel/src/startup.c **** extern int main(void);
  26:arch/armv7m/kernel/src/startup.c **** 
  27:arch/armv7m/kernel/src/startup.c **** /* The Vector Table */
  28:arch/armv7m/kernel/src/startup.c **** __attribute__ ((section(".isr_vector")))
  29:arch/armv7m/kernel/src/startup.c **** void (* const g_pfnVectors[])(void) = 
  30:arch/armv7m/kernel/src/startup.c **** {
  31:arch/armv7m/kernel/src/startup.c ****     /* Core system exceptions */
  32:arch/armv7m/kernel/src/startup.c ****     (void *)0x20010000,          /* The initial stack pointer */
ARM GAS  /var/folders/fg/4fzv35n91mbcgx4z5jzqdsl40000gn/T//ccxT5u7N.s 			page 2


  33:arch/armv7m/kernel/src/startup.c ****     Reset_Handler,               /* The reset handler */
  34:arch/armv7m/kernel/src/startup.c ****     NMI_Handler,                 /* The NMI handler */
  35:arch/armv7m/kernel/src/startup.c ****     HardFault_Handler,           /* The hard fault handler */
  36:arch/armv7m/kernel/src/startup.c ****     MemManage_Handler,           /* The MPU fault handler */
  37:arch/armv7m/kernel/src/startup.c ****     BusFault_Handler,            /* The bus fault handler */
  38:arch/armv7m/kernel/src/startup.c ****     UsageFault_Handler,          /* The usage fault handler */
  39:arch/armv7m/kernel/src/startup.c ****     0,                           /* Reserved */
  40:arch/armv7m/kernel/src/startup.c ****     0,                           /* Reserved */
  41:arch/armv7m/kernel/src/startup.c ****     0,                           /* Reserved */
  42:arch/armv7m/kernel/src/startup.c ****     0,                           /* Reserved */
  43:arch/armv7m/kernel/src/startup.c ****     SVC_Handler,                 /* SVCall handler */
  44:arch/armv7m/kernel/src/startup.c ****     DebugMon_Handler,            /* Debug monitor handler */
  45:arch/armv7m/kernel/src/startup.c ****     0,                           /* Reserved */
  46:arch/armv7m/kernel/src/startup.c ****     PendSV_Handler,              /* The PendSV handler */
  47:arch/armv7m/kernel/src/startup.c ****     SysTick_Handler,             /* The SysTick handler */
  48:arch/armv7m/kernel/src/startup.c **** 
  49:arch/armv7m/kernel/src/startup.c ****     /* External interrupts */
  50:arch/armv7m/kernel/src/startup.c ****     GPIO_Handler,                /* GPIO */
  51:arch/armv7m/kernel/src/startup.c ****     UART0_Handler,               /* UART0 */
  52:arch/armv7m/kernel/src/startup.c ****     UART1_Handler,               /* UART1 */
  53:arch/armv7m/kernel/src/startup.c ****     SSI_Handler,                 /* SSI */
  54:arch/armv7m/kernel/src/startup.c ****     I2C_Handler,                 /* I2C */
  55:arch/armv7m/kernel/src/startup.c ****     PWM_Handler,                 /* PWM */
  56:arch/armv7m/kernel/src/startup.c ****     ADC_Handler,                 /* ADC */
  57:arch/armv7m/kernel/src/startup.c **** };
  58:arch/armv7m/kernel/src/startup.c **** 
  59:arch/armv7m/kernel/src/startup.c **** /* External definitions */
  60:arch/armv7m/kernel/src/startup.c **** extern uint32_t _sidata;     /* Start address of the initialisation values of the .data section */
  61:arch/armv7m/kernel/src/startup.c **** extern uint32_t _sdata;      /* Start address of the .data section */
  62:arch/armv7m/kernel/src/startup.c **** extern uint32_t _edata;      /* End address of the .data section */
  63:arch/armv7m/kernel/src/startup.c **** extern uint32_t _sbss;       /* Start address of the .bss section */
  64:arch/armv7m/kernel/src/startup.c **** extern uint32_t _ebss;       /* End address of the .bss section */
  65:arch/armv7m/kernel/src/startup.c **** 
  66:arch/armv7m/kernel/src/startup.c **** /**
  67:arch/armv7m/kernel/src/startup.c ****  * @brief  System initialisation function
  68:arch/armv7m/kernel/src/startup.c ****  */
  69:arch/armv7m/kernel/src/startup.c **** void SystemInit(void) {
  70:arch/armv7m/kernel/src/startup.c ****     /* RK0 will handle the system initialisation */
  71:arch/armv7m/kernel/src/startup.c **** }
  72:arch/armv7m/kernel/src/startup.c **** 
  73:arch/armv7m/kernel/src/startup.c **** /**
  74:arch/armv7m/kernel/src/startup.c ****  * @brief  Reset handler 
  75:arch/armv7m/kernel/src/startup.c ****  */
  76:arch/armv7m/kernel/src/startup.c **** void Reset_Handler(void) 
  77:arch/armv7m/kernel/src/startup.c **** {
  78:arch/armv7m/kernel/src/startup.c ****     uint32_t *pSrc, *pDest;
  79:arch/armv7m/kernel/src/startup.c **** 
  80:arch/armv7m/kernel/src/startup.c ****     /* Copy the data segment initialisers from flash to SRAM */
  81:arch/armv7m/kernel/src/startup.c ****     pSrc = &_sidata;
  82:arch/armv7m/kernel/src/startup.c ****     pDest = &_sdata;
  83:arch/armv7m/kernel/src/startup.c ****     
  84:arch/armv7m/kernel/src/startup.c ****     while (pDest < &_edata) 
  85:arch/armv7m/kernel/src/startup.c ****     {
  86:arch/armv7m/kernel/src/startup.c ****         *pDest++ = *pSrc++;
  87:arch/armv7m/kernel/src/startup.c ****     }
  88:arch/armv7m/kernel/src/startup.c **** 
  89:arch/armv7m/kernel/src/startup.c ****     /* Zero fill the bss segment */
ARM GAS  /var/folders/fg/4fzv35n91mbcgx4z5jzqdsl40000gn/T//ccxT5u7N.s 			page 3


  90:arch/armv7m/kernel/src/startup.c ****     for (pDest = &_sbss; pDest < &_ebss; pDest++) 
  91:arch/armv7m/kernel/src/startup.c ****     {
  92:arch/armv7m/kernel/src/startup.c ****         *pDest = 0;
  93:arch/armv7m/kernel/src/startup.c ****     }
  94:arch/armv7m/kernel/src/startup.c **** 
  95:arch/armv7m/kernel/src/startup.c ****     /* Call system initialisation function */
  96:arch/armv7m/kernel/src/startup.c ****     SystemInit();
  97:arch/armv7m/kernel/src/startup.c **** 
  98:arch/armv7m/kernel/src/startup.c ****     /* Call the application's entry point */
  99:arch/armv7m/kernel/src/startup.c ****     main();
 100:arch/armv7m/kernel/src/startup.c **** 
 101:arch/armv7m/kernel/src/startup.c ****     /* Loop forever if main() returns */
 102:arch/armv7m/kernel/src/startup.c ****     while (1);
 103:arch/armv7m/kernel/src/startup.c **** }
 104:arch/armv7m/kernel/src/startup.c **** 
 105:arch/armv7m/kernel/src/startup.c **** /**
 106:arch/armv7m/kernel/src/startup.c ****  * @brief  This is the code that gets called when the processor receives an
 107:arch/armv7m/kernel/src/startup.c ****  *         unexpected interrupt.
 108:arch/armv7m/kernel/src/startup.c ****  */
 109:arch/armv7m/kernel/src/startup.c **** void Default_Handler(void) 
 110:arch/armv7m/kernel/src/startup.c **** {
  27              		.loc 1 110 1 view -0
  28              		.cfi_startproc
  29              		@ Volatile: function does not return.
  30              		@ args = 0, pretend = 0, frame = 0
  31              		@ frame_needed = 0, uses_anonymous_args = 0
  32              		@ link register save eliminated.
  33              	.L2:
 111:arch/armv7m/kernel/src/startup.c ****     /* Go into an infinite loop */
 112:arch/armv7m/kernel/src/startup.c ****     while (1);
  34              		.loc 1 112 5 discriminator 1 view .LVU1
  35              		.loc 1 112 11 discriminator 1 view .LVU2
  36 0000 FEE7     		b	.L2
  37              		.cfi_endproc
  38              	.LFE2:
  40              		.weak	ADC_Handler
  41              		.thumb_set ADC_Handler,Default_Handler
  42              		.weak	PWM_Handler
  43              		.thumb_set PWM_Handler,Default_Handler
  44              		.weak	I2C_Handler
  45              		.thumb_set I2C_Handler,Default_Handler
  46              		.weak	SSI_Handler
  47              		.thumb_set SSI_Handler,Default_Handler
  48              		.weak	UART1_Handler
  49              		.thumb_set UART1_Handler,Default_Handler
  50              		.weak	UART0_Handler
  51              		.thumb_set UART0_Handler,Default_Handler
  52              		.weak	GPIO_Handler
  53              		.thumb_set GPIO_Handler,Default_Handler
  54              		.weak	DebugMon_Handler
  55              		.thumb_set DebugMon_Handler,Default_Handler
  56              		.weak	UsageFault_Handler
  57              		.thumb_set UsageFault_Handler,Default_Handler
  58              		.weak	BusFault_Handler
  59              		.thumb_set BusFault_Handler,Default_Handler
  60              		.weak	MemManage_Handler
  61              		.thumb_set MemManage_Handler,Default_Handler
ARM GAS  /var/folders/fg/4fzv35n91mbcgx4z5jzqdsl40000gn/T//ccxT5u7N.s 			page 4


  62              		.weak	HardFault_Handler
  63              		.thumb_set HardFault_Handler,Default_Handler
  64              		.weak	NMI_Handler
  65              		.thumb_set NMI_Handler,Default_Handler
  66              		.section	.text.Reset_Handler,"ax",%progbits
  67              		.align	1
  68              		.global	Reset_Handler
  69              		.syntax unified
  70              		.thumb
  71              		.thumb_func
  73              	Reset_Handler:
  74              	.LFB1:
  77:arch/armv7m/kernel/src/startup.c ****     uint32_t *pSrc, *pDest;
  75              		.loc 1 77 1 view -0
  76              		.cfi_startproc
  77              		@ args = 0, pretend = 0, frame = 0
  78              		@ frame_needed = 0, uses_anonymous_args = 0
  79 0000 08B5     		push	{r3, lr}
  80              		.cfi_def_cfa_offset 8
  81              		.cfi_offset 3, -8
  82              		.cfi_offset 14, -4
  78:arch/armv7m/kernel/src/startup.c **** 
  83              		.loc 1 78 5 view .LVU4
  81:arch/armv7m/kernel/src/startup.c ****     pDest = &_sdata;
  84              		.loc 1 81 5 view .LVU5
  85              	.LVL0:
  82:arch/armv7m/kernel/src/startup.c ****     
  86              		.loc 1 82 5 view .LVU6
  84:arch/armv7m/kernel/src/startup.c ****     {
  87              		.loc 1 84 5 view .LVU7
  82:arch/armv7m/kernel/src/startup.c ****     
  88              		.loc 1 82 11 is_stmt 0 view .LVU8
  89 0002 0A4B     		ldr	r3, .L10
  81:arch/armv7m/kernel/src/startup.c ****     pDest = &_sdata;
  90              		.loc 1 81 10 view .LVU9
  91 0004 0A4A     		ldr	r2, .L10+4
  84:arch/armv7m/kernel/src/startup.c ****     {
  92              		.loc 1 84 11 view .LVU10
  93 0006 03E0     		b	.L4
  94              	.LVL1:
  95              	.L5:
  86:arch/armv7m/kernel/src/startup.c ****     }
  96              		.loc 1 86 9 is_stmt 1 view .LVU11
  86:arch/armv7m/kernel/src/startup.c ****     }
  97              		.loc 1 86 20 is_stmt 0 view .LVU12
  98 0008 52F8041B 		ldr	r1, [r2], #4
  99              	.LVL2:
  86:arch/armv7m/kernel/src/startup.c ****     }
 100              		.loc 1 86 18 view .LVU13
 101 000c 43F8041B 		str	r1, [r3], #4
 102              	.LVL3:
 103              	.L4:
  84:arch/armv7m/kernel/src/startup.c ****     {
 104              		.loc 1 84 18 is_stmt 1 view .LVU14
 105 0010 0849     		ldr	r1, .L10+8
 106 0012 8B42     		cmp	r3, r1
 107 0014 F8D3     		bcc	.L5
ARM GAS  /var/folders/fg/4fzv35n91mbcgx4z5jzqdsl40000gn/T//ccxT5u7N.s 			page 5


  90:arch/armv7m/kernel/src/startup.c ****     {
 108              		.loc 1 90 16 is_stmt 0 view .LVU15
 109 0016 084B     		ldr	r3, .L10+12
 110              	.LVL4:
  90:arch/armv7m/kernel/src/startup.c ****     {
 111              		.loc 1 90 16 view .LVU16
 112 0018 02E0     		b	.L6
 113              	.LVL5:
 114              	.L7:
  92:arch/armv7m/kernel/src/startup.c ****     }
 115              		.loc 1 92 9 is_stmt 1 discriminator 3 view .LVU17
  92:arch/armv7m/kernel/src/startup.c ****     }
 116              		.loc 1 92 16 is_stmt 0 discriminator 3 view .LVU18
 117 001a 0022     		movs	r2, #0
 118 001c 43F8042B 		str	r2, [r3], #4
 119              	.LVL6:
  90:arch/armv7m/kernel/src/startup.c ****     {
 120              		.loc 1 90 47 is_stmt 1 discriminator 3 view .LVU19
 121              	.L6:
  90:arch/armv7m/kernel/src/startup.c ****     {
 122              		.loc 1 90 32 discriminator 1 view .LVU20
 123 0020 064A     		ldr	r2, .L10+16
 124 0022 9342     		cmp	r3, r2
 125 0024 F9D3     		bcc	.L7
  96:arch/armv7m/kernel/src/startup.c **** 
 126              		.loc 1 96 5 view .LVU21
  99:arch/armv7m/kernel/src/startup.c **** 
 127              		.loc 1 99 5 view .LVU22
 128 0026 FFF7FEFF 		bl	main
 129              	.LVL7:
 130              	.L8:
 102:arch/armv7m/kernel/src/startup.c **** }
 131              		.loc 1 102 5 discriminator 1 view .LVU23
 102:arch/armv7m/kernel/src/startup.c **** }
 132              		.loc 1 102 11 discriminator 1 view .LVU24
 133 002a FEE7     		b	.L8
 134              	.L11:
 135              		.align	2
 136              	.L10:
 137 002c 00000000 		.word	_sdata
 138 0030 00000000 		.word	_sidata
 139 0034 00000000 		.word	_edata
 140 0038 00000000 		.word	_sbss
 141 003c 00000000 		.word	_ebss
 142              		.cfi_endproc
 143              	.LFE1:
 145              		.section	.text.SystemInit,"ax",%progbits
 146              		.align	1
 147              		.global	SystemInit
 148              		.syntax unified
 149              		.thumb
 150              		.thumb_func
 152              	SystemInit:
 153              	.LFB0:
  69:arch/armv7m/kernel/src/startup.c ****     /* RK0 will handle the system initialisation */
 154              		.loc 1 69 23 view -0
 155              		.cfi_startproc
ARM GAS  /var/folders/fg/4fzv35n91mbcgx4z5jzqdsl40000gn/T//ccxT5u7N.s 			page 6


 156              		@ args = 0, pretend = 0, frame = 0
 157              		@ frame_needed = 0, uses_anonymous_args = 0
 158              		@ link register save eliminated.
  71:arch/armv7m/kernel/src/startup.c **** 
 159              		.loc 1 71 1 view .LVU26
 160 0000 7047     		bx	lr
 161              		.cfi_endproc
 162              	.LFE0:
 164              		.global	g_pfnVectors
 165              		.section	.isr_vector,"a"
 166              		.align	2
 169              	g_pfnVectors:
 170 0000 00000120 		.word	536936448
 171 0004 00000000 		.word	Reset_Handler
 172 0008 00000000 		.word	NMI_Handler
 173 000c 00000000 		.word	HardFault_Handler
 174 0010 00000000 		.word	MemManage_Handler
 175 0014 00000000 		.word	BusFault_Handler
 176 0018 00000000 		.word	UsageFault_Handler
 177 001c 00000000 		.word	0
 178 0020 00000000 		.word	0
 179 0024 00000000 		.word	0
 180 0028 00000000 		.word	0
 181 002c 00000000 		.word	SVC_Handler
 182 0030 00000000 		.word	DebugMon_Handler
 183 0034 00000000 		.word	0
 184 0038 00000000 		.word	PendSV_Handler
 185 003c 00000000 		.word	SysTick_Handler
 186 0040 00000000 		.word	GPIO_Handler
 187 0044 00000000 		.word	UART0_Handler
 188 0048 00000000 		.word	UART1_Handler
 189 004c 00000000 		.word	SSI_Handler
 190 0050 00000000 		.word	I2C_Handler
 191 0054 00000000 		.word	PWM_Handler
 192 0058 00000000 		.word	ADC_Handler
 193              		.text
 194              	.Letext0:
 195              		.file 2 "/Applications/STM32CubeIDE.app/Contents/Eclipse/plugins/com.st.stm32cube.ide.mcu.external
 196              		.file 3 "/Applications/STM32CubeIDE.app/Contents/Eclipse/plugins/com.st.stm32cube.ide.mcu.external
ARM GAS  /var/folders/fg/4fzv35n91mbcgx4z5jzqdsl40000gn/T//ccxT5u7N.s 			page 7

